	.text
	.file	"csmith1.cpp"
	.file	0 "/home/kai/src/ll2x" "cpp/csmith1.cpp" md5 0xffa05ae4a26a8d24998c980dd025bff6
	.file	1 "/usr/include/bits" "types.h" md5 0x4a64d909bcfa62a0a7682c3ac78c6965
	.file	2 "/usr/include/bits" "stdint-intn.h" md5 0x85f68316edee664d7bd685b977adf677
	.file	3 "/usr/include/bits" "stdint-uintn.h" md5 0x4ecee94d7257cd86659727d06a979b60
	.file	4 "/usr/local/include" "csmith.h" md5 0x384f85511c9e0cdae8849f8ee261c941
	.file	5 "/usr/local/include" "platform_generic.h" md5 0xc571b886faf4ffee717d846e38f48aec
	.file	6 "/usr/include" "stdlib.h" md5 0x761a239547e58b18c7327eb395f5cc1f
	.file	7 "/usr/bin/../lib64/gcc/x86_64-pc-linux-gnu/13.2.1/../../../../include/c++/13.2.1/bits" "std_abs.h"
	.file	8 "/usr/include/bits" "mathcalls.h" md5 0xa03d6e5877646e3ad0a8a5735f9e6f62
	.file	9 "/usr/bin/../lib64/gcc/x86_64-pc-linux-gnu/13.2.1/../../../../include/c++/13.2.1" "cmath"
	.file	10 "/usr/include" "math.h" md5 0x555a51fc91303a79e6e6a7bf2a303f79
	.file	11 "/usr/bin/../lib64/gcc/x86_64-pc-linux-gnu/13.2.1/../../../../include/c++/13.2.1/debug" "debug.h" md5 0x752210a319f5f5d356cc29cd1ce3cdc7
	.file	12 "/usr/bin/../lib64/gcc/x86_64-pc-linux-gnu/13.2.1/../../../../include/c++/13.2.1" "math.h" md5 0xf34e6ddbb19306e7d9f8c42d51dc6ee3
	.globl	main                            # -- Begin function main
	.p2align	4, 0x90
	.type	main,@function
main:                                   # @main
.Lfunc_begin0:
	.loc	0 1366 0                        # cpp/csmith1.cpp:1366:0
	.cfi_startproc
# %bb.0:
	pushq	%rbp
	.cfi_def_cfa_offset 16
	.cfi_offset %rbp, -16
	movq	%rsp, %rbp
	.cfi_def_cfa_register %rbp
	subq	$48, %rsp
	movl	$0, -4(%rbp)
	movl	%edi, -8(%rbp)
	movq	%rsi, -16(%rbp)
.Ltmp0:
	.loc	0 1368 9 prologue_end           # cpp/csmith1.cpp:1368:9
	movl	$0, -32(%rbp)
.Ltmp1:
	.loc	0 1369 14                       # cpp/csmith1.cpp:1369:14
	cmpl	$2, -8(%rbp)
	.loc	0 1369 19 is_stmt 0             # cpp/csmith1.cpp:1369:19
	jne	.LBB0_3
# %bb.1:
	.loc	0 1369 29                       # cpp/csmith1.cpp:1369:29
	movq	-16(%rbp), %rax
	movq	8(%rax), %rdi
	.loc	0 1369 22                       # cpp/csmith1.cpp:1369:22
	leaq	.L.str(%rip), %rsi
	callq	strcmp@PLT
	.loc	0 1369 43                       # cpp/csmith1.cpp:1369:43
	cmpl	$0, %eax
.Ltmp2:
	.loc	0 1369 9                        # cpp/csmith1.cpp:1369:9
	jne	.LBB0_3
# %bb.2:
.Ltmp3:
	.loc	0 1369 66                       # cpp/csmith1.cpp:1369:66
	movl	$1, -32(%rbp)
.Ltmp4:
.LBB0_3:
	.loc	0 1370 5 is_stmt 1              # cpp/csmith1.cpp:1370:5
	callq	_ZL19platform_main_beginv
	.loc	0 1371 5                        # cpp/csmith1.cpp:1371:5
	callq	_ZL12crc32_gentabv
	.loc	0 1372 73                       # cpp/csmith1.cpp:1372:73
	movzwl	_ZL5g_106(%rip), %esi
	.loc	0 1372 80 is_stmt 0             # cpp/csmith1.cpp:1372:80
	movzbl	_ZL4g_91(%rip), %edx
	.loc	0 1372 86                       # cpp/csmith1.cpp:1372:86
	movl	_ZL3g_5(%rip), %ecx
	.loc	0 1372 91                       # cpp/csmith1.cpp:1372:91
	movl	_ZL3g_2(%rip), %r8d
	.loc	0 1372 96                       # cpp/csmith1.cpp:1372:96
	movl	_ZL13crc32_context(%rip), %r9d
	.loc	0 1372 5                        # cpp/csmith1.cpp:1372:5
	leaq	.L.str.1(%rip), %rdi
	movb	$0, %al
	callq	printf@PLT
	.loc	0 1373 15 is_stmt 1             # cpp/csmith1.cpp:1373:15
	callq	_ZL6func_1v
	movw	%ax, -40(%rbp)
	.loc	0 1374 73                       # cpp/csmith1.cpp:1374:73
	movzwl	_ZL5g_106(%rip), %esi
	.loc	0 1374 80 is_stmt 0             # cpp/csmith1.cpp:1374:80
	movzbl	_ZL4g_91(%rip), %edx
	.loc	0 1374 86                       # cpp/csmith1.cpp:1374:86
	movl	_ZL3g_5(%rip), %ecx
	.loc	0 1374 91                       # cpp/csmith1.cpp:1374:91
	movl	_ZL3g_2(%rip), %r8d
	.loc	0 1374 96                       # cpp/csmith1.cpp:1374:96
	movl	_ZL13crc32_context(%rip), %r9d
	.loc	0 1374 5                        # cpp/csmith1.cpp:1374:5
	leaq	.L.str.1(%rip), %rdi
	movb	$0, %al
	callq	printf@PLT
	.loc	0 1375 31 is_stmt 1             # cpp/csmith1.cpp:1375:31
	movswl	-40(%rbp), %esi
	.loc	0 1375 5 is_stmt 0              # cpp/csmith1.cpp:1375:5
	leaq	.L.str.2(%rip), %rdi
	movb	$0, %al
	callq	printf@PLT
	.loc	0 1376 73 is_stmt 1             # cpp/csmith1.cpp:1376:73
	movzwl	_ZL5g_106(%rip), %esi
	.loc	0 1376 80 is_stmt 0             # cpp/csmith1.cpp:1376:80
	movzbl	_ZL4g_91(%rip), %edx
	.loc	0 1376 86                       # cpp/csmith1.cpp:1376:86
	movl	_ZL3g_5(%rip), %ecx
	.loc	0 1376 91                       # cpp/csmith1.cpp:1376:91
	movl	_ZL3g_2(%rip), %r8d
	.loc	0 1376 96                       # cpp/csmith1.cpp:1376:96
	movl	_ZL13crc32_context(%rip), %r9d
	.loc	0 1376 5                        # cpp/csmith1.cpp:1376:5
	leaq	.L.str.1(%rip), %rdi
	movb	$0, %al
	callq	printf@PLT
	.loc	0 1377 21 is_stmt 1             # cpp/csmith1.cpp:1377:21
	movslq	_ZL3g_2(%rip), %rdi
	.loc	0 1377 33 is_stmt 0             # cpp/csmith1.cpp:1377:33
	movl	-32(%rbp), %edx
	.loc	0 1377 5                        # cpp/csmith1.cpp:1377:5
	leaq	.L.str.3(%rip), %rsi
	callq	_ZL15transparent_crcmPci
	.loc	0 1378 73 is_stmt 1             # cpp/csmith1.cpp:1378:73
	movzwl	_ZL5g_106(%rip), %esi
	.loc	0 1378 80 is_stmt 0             # cpp/csmith1.cpp:1378:80
	movzbl	_ZL4g_91(%rip), %edx
	.loc	0 1378 86                       # cpp/csmith1.cpp:1378:86
	movl	_ZL3g_5(%rip), %ecx
	.loc	0 1378 91                       # cpp/csmith1.cpp:1378:91
	movl	_ZL3g_2(%rip), %r8d
	.loc	0 1378 96                       # cpp/csmith1.cpp:1378:96
	movl	_ZL13crc32_context(%rip), %r9d
	.loc	0 1378 5                        # cpp/csmith1.cpp:1378:5
	leaq	.L.str.1(%rip), %rdi
	movb	$0, %al
	callq	printf@PLT
	.loc	0 1379 21 is_stmt 1             # cpp/csmith1.cpp:1379:21
	movslq	_ZL3g_5(%rip), %rdi
	.loc	0 1379 33 is_stmt 0             # cpp/csmith1.cpp:1379:33
	movl	-32(%rbp), %edx
	.loc	0 1379 5                        # cpp/csmith1.cpp:1379:5
	leaq	.L.str.4(%rip), %rsi
	callq	_ZL15transparent_crcmPci
	.loc	0 1380 73 is_stmt 1             # cpp/csmith1.cpp:1380:73
	movzwl	_ZL5g_106(%rip), %esi
	.loc	0 1380 80 is_stmt 0             # cpp/csmith1.cpp:1380:80
	movzbl	_ZL4g_91(%rip), %edx
	.loc	0 1380 86                       # cpp/csmith1.cpp:1380:86
	movl	_ZL3g_5(%rip), %ecx
	.loc	0 1380 91                       # cpp/csmith1.cpp:1380:91
	movl	_ZL3g_2(%rip), %r8d
	.loc	0 1380 96                       # cpp/csmith1.cpp:1380:96
	movl	_ZL13crc32_context(%rip), %r9d
	.loc	0 1380 5                        # cpp/csmith1.cpp:1380:5
	leaq	.L.str.1(%rip), %rdi
	movb	$0, %al
	callq	printf@PLT
	.loc	0 1381 21 is_stmt 1             # cpp/csmith1.cpp:1381:21
	movzbl	_ZL4g_91(%rip), %eax
	movl	%eax, %edi
	.loc	0 1381 35 is_stmt 0             # cpp/csmith1.cpp:1381:35
	movl	-32(%rbp), %edx
	.loc	0 1381 5                        # cpp/csmith1.cpp:1381:5
	leaq	.L.str.5(%rip), %rsi
	callq	_ZL15transparent_crcmPci
	.loc	0 1382 73 is_stmt 1             # cpp/csmith1.cpp:1382:73
	movzwl	_ZL5g_106(%rip), %esi
	.loc	0 1382 80 is_stmt 0             # cpp/csmith1.cpp:1382:80
	movzbl	_ZL4g_91(%rip), %edx
	.loc	0 1382 86                       # cpp/csmith1.cpp:1382:86
	movl	_ZL3g_5(%rip), %ecx
	.loc	0 1382 91                       # cpp/csmith1.cpp:1382:91
	movl	_ZL3g_2(%rip), %r8d
	.loc	0 1382 96                       # cpp/csmith1.cpp:1382:96
	movl	_ZL13crc32_context(%rip), %r9d
	.loc	0 1382 5                        # cpp/csmith1.cpp:1382:5
	leaq	.L.str.1(%rip), %rdi
	movb	$0, %al
	callq	printf@PLT
	.loc	0 1383 21 is_stmt 1             # cpp/csmith1.cpp:1383:21
	movzwl	_ZL5g_106(%rip), %eax
	movl	%eax, %edi
	.loc	0 1383 37 is_stmt 0             # cpp/csmith1.cpp:1383:37
	movl	-32(%rbp), %edx
	.loc	0 1383 5                        # cpp/csmith1.cpp:1383:5
	leaq	.L.str.6(%rip), %rsi
	callq	_ZL15transparent_crcmPci
	.loc	0 1384 73 is_stmt 1             # cpp/csmith1.cpp:1384:73
	movzwl	_ZL5g_106(%rip), %esi
	.loc	0 1384 80 is_stmt 0             # cpp/csmith1.cpp:1384:80
	movzbl	_ZL4g_91(%rip), %edx
	.loc	0 1384 86                       # cpp/csmith1.cpp:1384:86
	movl	_ZL3g_5(%rip), %ecx
	.loc	0 1384 91                       # cpp/csmith1.cpp:1384:91
	movl	_ZL3g_2(%rip), %r8d
	.loc	0 1384 96                       # cpp/csmith1.cpp:1384:96
	movl	_ZL13crc32_context(%rip), %r9d
	.loc	0 1384 5                        # cpp/csmith1.cpp:1384:5
	leaq	.L.str.1(%rip), %rdi
	movb	$0, %al
	callq	printf@PLT
	.loc	0 1385 21 is_stmt 1             # cpp/csmith1.cpp:1385:21
	movl	_ZL5g_107(%rip), %eax
	movl	%eax, %edi
	.loc	0 1385 37 is_stmt 0             # cpp/csmith1.cpp:1385:37
	movl	-32(%rbp), %edx
	.loc	0 1385 5                        # cpp/csmith1.cpp:1385:5
	leaq	.L.str.7(%rip), %rsi
	callq	_ZL15transparent_crcmPci
	.loc	0 1386 21 is_stmt 1             # cpp/csmith1.cpp:1386:21
	movswq	_ZL5g_117(%rip), %rdi
	.loc	0 1386 37 is_stmt 0             # cpp/csmith1.cpp:1386:37
	movl	-32(%rbp), %edx
	.loc	0 1386 5                        # cpp/csmith1.cpp:1386:5
	leaq	.L.str.8(%rip), %rsi
	callq	_ZL15transparent_crcmPci
	.loc	0 1387 21 is_stmt 1             # cpp/csmith1.cpp:1387:21
	movl	_ZL5g_118(%rip), %eax
	movslq	%eax, %rdi
	.loc	0 1387 37 is_stmt 0             # cpp/csmith1.cpp:1387:37
	movl	-32(%rbp), %edx
	.loc	0 1387 5                        # cpp/csmith1.cpp:1387:5
	leaq	.L.str.9(%rip), %rsi
	callq	_ZL15transparent_crcmPci
	.loc	0 1388 21 is_stmt 1             # cpp/csmith1.cpp:1388:21
	movslq	_ZL5g_119(%rip), %rdi
	.loc	0 1388 37 is_stmt 0             # cpp/csmith1.cpp:1388:37
	movl	-32(%rbp), %edx
	.loc	0 1388 5                        # cpp/csmith1.cpp:1388:5
	leaq	.L.str.10(%rip), %rsi
	callq	_ZL15transparent_crcmPci
	.loc	0 1389 21 is_stmt 1             # cpp/csmith1.cpp:1389:21
	movswq	_ZL5g_120(%rip), %rdi
	.loc	0 1389 37 is_stmt 0             # cpp/csmith1.cpp:1389:37
	movl	-32(%rbp), %edx
	.loc	0 1389 5                        # cpp/csmith1.cpp:1389:5
	leaq	.L.str.11(%rip), %rsi
	callq	_ZL15transparent_crcmPci
	.loc	0 1390 21 is_stmt 1             # cpp/csmith1.cpp:1390:21
	movzwl	_ZL5g_124(%rip), %eax
	movl	%eax, %edi
	.loc	0 1390 37 is_stmt 0             # cpp/csmith1.cpp:1390:37
	movl	-32(%rbp), %edx
	.loc	0 1390 5                        # cpp/csmith1.cpp:1390:5
	leaq	.L.str.12(%rip), %rsi
	callq	_ZL15transparent_crcmPci
	.loc	0 1391 21 is_stmt 1             # cpp/csmith1.cpp:1391:21
	movswq	_ZL5g_132(%rip), %rdi
	.loc	0 1391 43 is_stmt 0             # cpp/csmith1.cpp:1391:43
	movl	-32(%rbp), %edx
	.loc	0 1391 5                        # cpp/csmith1.cpp:1391:5
	leaq	.L.str.13(%rip), %rsi
	callq	_ZL15transparent_crcmPci
	.loc	0 1392 37 is_stmt 1             # cpp/csmith1.cpp:1392:37
	movl	-32(%rbp), %edx
	.loc	0 1392 5 is_stmt 0              # cpp/csmith1.cpp:1392:5
	movl	$1, %edi
	leaq	.L.str.14(%rip), %rsi
	callq	_ZL15transparent_crcmPci
	.loc	0 1393 21 is_stmt 1             # cpp/csmith1.cpp:1393:21
	movsbq	_ZL5g_203(%rip), %rdi
	.loc	0 1393 37 is_stmt 0             # cpp/csmith1.cpp:1393:37
	movl	-32(%rbp), %edx
	.loc	0 1393 5                        # cpp/csmith1.cpp:1393:5
	leaq	.L.str.15(%rip), %rsi
	callq	_ZL15transparent_crcmPci
.Ltmp5:
	.loc	0 1394 12 is_stmt 1             # cpp/csmith1.cpp:1394:12
	movl	$0, -20(%rbp)
.LBB0_4:                                # =>This Inner Loop Header: Depth=1
.Ltmp6:
	.loc	0 1394 19 is_stmt 0             # cpp/csmith1.cpp:1394:19
	cmpl	$5, -20(%rbp)
.Ltmp7:
	.loc	0 1394 5                        # cpp/csmith1.cpp:1394:5
	jge	.LBB0_9
# %bb.5:                                #   in Loop: Header=BB0_4 Depth=1
.Ltmp8:
	.loc	0 1396 25 is_stmt 1             # cpp/csmith1.cpp:1396:25
	movslq	-20(%rbp), %rcx
	leaq	_ZL5g_232(%rip), %rax
	movsbq	(%rax,%rcx), %rdi
	.loc	0 1396 47 is_stmt 0             # cpp/csmith1.cpp:1396:47
	movl	-32(%rbp), %edx
	.loc	0 1396 9                        # cpp/csmith1.cpp:1396:9
	leaq	.L.str.16(%rip), %rsi
	callq	_ZL15transparent_crcmPci
.Ltmp9:
	.loc	0 1397 13 is_stmt 1             # cpp/csmith1.cpp:1397:13
	cmpl	$0, -32(%rbp)
.Ltmp10:
	.loc	0 1397 13 is_stmt 0             # cpp/csmith1.cpp:1397:13
	je	.LBB0_7
# %bb.6:                                #   in Loop: Header=BB0_4 Depth=1
.Ltmp11:
	.loc	0 1397 56                       # cpp/csmith1.cpp:1397:56
	movl	-20(%rbp), %esi
	.loc	0 1397 31                       # cpp/csmith1.cpp:1397:31
	leaq	.L.str.17(%rip), %rdi
	movb	$0, %al
	callq	printf@PLT
.Ltmp12:
.LBB0_7:                                #   in Loop: Header=BB0_4 Depth=1
	.loc	0 1399 5 is_stmt 1              # cpp/csmith1.cpp:1399:5
	jmp	.LBB0_8
.Ltmp13:
.LBB0_8:                                #   in Loop: Header=BB0_4 Depth=1
	.loc	0 1394 25                       # cpp/csmith1.cpp:1394:25
	movl	-20(%rbp), %eax
	addl	$1, %eax
	movl	%eax, -20(%rbp)
	.loc	0 1394 5 is_stmt 0              # cpp/csmith1.cpp:1394:5
	jmp	.LBB0_4
.Ltmp14:
.LBB0_9:
	.loc	0 1400 21 is_stmt 1             # cpp/csmith1.cpp:1400:21
	movq	_ZL5g_245(%rip), %rdi
	.loc	0 1400 37 is_stmt 0             # cpp/csmith1.cpp:1400:37
	movl	-32(%rbp), %edx
	.loc	0 1400 5                        # cpp/csmith1.cpp:1400:5
	leaq	.L.str.18(%rip), %rsi
	callq	_ZL15transparent_crcmPci
	.loc	0 1401 21 is_stmt 1             # cpp/csmith1.cpp:1401:21
	movl	_ZL5g_246(%rip), %eax
	movslq	%eax, %rdi
	.loc	0 1401 37 is_stmt 0             # cpp/csmith1.cpp:1401:37
	movl	-32(%rbp), %edx
	.loc	0 1401 5                        # cpp/csmith1.cpp:1401:5
	leaq	.L.str.19(%rip), %rsi
	callq	_ZL15transparent_crcmPci
	.loc	0 1402 21 is_stmt 1             # cpp/csmith1.cpp:1402:21
	movw	_ZL5g_247(%rip), %ax
	movzwl	%ax, %eax
	movl	%eax, %edi
	.loc	0 1402 37 is_stmt 0             # cpp/csmith1.cpp:1402:37
	movl	-32(%rbp), %edx
	.loc	0 1402 5                        # cpp/csmith1.cpp:1402:5
	leaq	.L.str.20(%rip), %rsi
	callq	_ZL15transparent_crcmPci
	.loc	0 1403 21 is_stmt 1             # cpp/csmith1.cpp:1403:21
	movzbl	_ZL5g_259(%rip), %eax
	movl	%eax, %edi
	.loc	0 1403 37 is_stmt 0             # cpp/csmith1.cpp:1403:37
	movl	-32(%rbp), %edx
	.loc	0 1403 5                        # cpp/csmith1.cpp:1403:5
	leaq	.L.str.21(%rip), %rsi
	callq	_ZL15transparent_crcmPci
	.loc	0 1404 21 is_stmt 1             # cpp/csmith1.cpp:1404:21
	movw	_ZL5g_265(%rip), %ax
	movzwl	%ax, %eax
	movl	%eax, %edi
	.loc	0 1404 37 is_stmt 0             # cpp/csmith1.cpp:1404:37
	movl	-32(%rbp), %edx
	.loc	0 1404 5                        # cpp/csmith1.cpp:1404:5
	leaq	.L.str.22(%rip), %rsi
	callq	_ZL15transparent_crcmPci
	.loc	0 1405 37 is_stmt 1             # cpp/csmith1.cpp:1405:37
	movl	-32(%rbp), %edx
	.loc	0 1405 5 is_stmt 0              # cpp/csmith1.cpp:1405:5
	movq	$-275451831, %rdi               # imm = 0xEF94F049
	leaq	.L.str.23(%rip), %rsi
	callq	_ZL15transparent_crcmPci
	.loc	0 1406 21 is_stmt 1             # cpp/csmith1.cpp:1406:21
	movq	_ZL5g_338(%rip), %rdi
	.loc	0 1406 37 is_stmt 0             # cpp/csmith1.cpp:1406:37
	movl	-32(%rbp), %edx
	.loc	0 1406 5                        # cpp/csmith1.cpp:1406:5
	leaq	.L.str.24(%rip), %rsi
	callq	_ZL15transparent_crcmPci
	.loc	0 1407 43 is_stmt 1             # cpp/csmith1.cpp:1407:43
	movl	-32(%rbp), %edx
	.loc	0 1407 5 is_stmt 0              # cpp/csmith1.cpp:1407:5
	movl	$12039, %edi                    # imm = 0x2F07
	leaq	.L.str.25(%rip), %rsi
	callq	_ZL15transparent_crcmPci
.Ltmp15:
	.loc	0 1408 12 is_stmt 1             # cpp/csmith1.cpp:1408:12
	movl	$0, -20(%rbp)
.LBB0_10:                               # =>This Inner Loop Header: Depth=1
.Ltmp16:
	.loc	0 1408 19 is_stmt 0             # cpp/csmith1.cpp:1408:19
	cmpl	$6, -20(%rbp)
.Ltmp17:
	.loc	0 1408 5                        # cpp/csmith1.cpp:1408:5
	jge	.LBB0_15
# %bb.11:                               #   in Loop: Header=BB0_10 Depth=1
.Ltmp18:
	.loc	0 1410 13 is_stmt 1             # cpp/csmith1.cpp:1410:13
	cmpl	$0, -32(%rbp)
.Ltmp19:
	.loc	0 1410 13 is_stmt 0             # cpp/csmith1.cpp:1410:13
	je	.LBB0_13
# %bb.12:                               #   in Loop: Header=BB0_10 Depth=1
.Ltmp20:
	.loc	0 1410 68                       # cpp/csmith1.cpp:1410:68
	movl	-20(%rbp), %esi
	.loc	0 1410 71                       # cpp/csmith1.cpp:1410:71
	movslq	-20(%rbp), %rcx
	leaq	_ZL5g_422(%rip), %rax
	movl	(%rax,%rcx,4), %edx
	.loc	0 1410 31                       # cpp/csmith1.cpp:1410:31
	leaq	.L.str.26(%rip), %rdi
	movb	$0, %al
	callq	printf@PLT
.Ltmp21:
.LBB0_13:                               #   in Loop: Header=BB0_10 Depth=1
	.loc	0 1411 25 is_stmt 1             # cpp/csmith1.cpp:1411:25
	movslq	-20(%rbp), %rcx
	leaq	_ZL5g_422(%rip), %rax
	movslq	(%rax,%rcx,4), %rdi
	.loc	0 1411 47 is_stmt 0             # cpp/csmith1.cpp:1411:47
	movl	-32(%rbp), %edx
	.loc	0 1411 9                        # cpp/csmith1.cpp:1411:9
	leaq	.L.str.27(%rip), %rsi
	callq	_ZL15transparent_crcmPci
.Ltmp22:
# %bb.14:                               #   in Loop: Header=BB0_10 Depth=1
	.loc	0 1408 25 is_stmt 1             # cpp/csmith1.cpp:1408:25
	movl	-20(%rbp), %eax
	addl	$1, %eax
	movl	%eax, -20(%rbp)
	.loc	0 1408 5 is_stmt 0              # cpp/csmith1.cpp:1408:5
	jmp	.LBB0_10
.Ltmp23:
.LBB0_15:
	.loc	0 1413 43 is_stmt 1             # cpp/csmith1.cpp:1413:43
	movl	-32(%rbp), %edx
	.loc	0 1413 5 is_stmt 0              # cpp/csmith1.cpp:1413:5
	movq	$-1, %rdi
	leaq	.L.str.28(%rip), %rsi
	callq	_ZL15transparent_crcmPci
.Ltmp24:
	.loc	0 1414 12 is_stmt 1             # cpp/csmith1.cpp:1414:12
	movl	$0, -20(%rbp)
.LBB0_16:                               # =>This Inner Loop Header: Depth=1
.Ltmp25:
	.loc	0 1414 19 is_stmt 0             # cpp/csmith1.cpp:1414:19
	cmpl	$10, -20(%rbp)
.Ltmp26:
	.loc	0 1414 5                        # cpp/csmith1.cpp:1414:5
	jge	.LBB0_21
# %bb.17:                               #   in Loop: Header=BB0_16 Depth=1
.Ltmp27:
	.loc	0 1416 25 is_stmt 1             # cpp/csmith1.cpp:1416:25
	movslq	-20(%rbp), %rcx
	leaq	_ZL5g_449(%rip), %rax
	movl	(%rax,%rcx,4), %eax
	movl	%eax, %edi
	.loc	0 1416 47 is_stmt 0             # cpp/csmith1.cpp:1416:47
	movl	-32(%rbp), %edx
	.loc	0 1416 9                        # cpp/csmith1.cpp:1416:9
	leaq	.L.str.29(%rip), %rsi
	callq	_ZL15transparent_crcmPci
.Ltmp28:
	.loc	0 1417 13 is_stmt 1             # cpp/csmith1.cpp:1417:13
	cmpl	$0, -32(%rbp)
.Ltmp29:
	.loc	0 1417 13 is_stmt 0             # cpp/csmith1.cpp:1417:13
	je	.LBB0_19
# %bb.18:                               #   in Loop: Header=BB0_16 Depth=1
.Ltmp30:
	.loc	0 1417 56                       # cpp/csmith1.cpp:1417:56
	movl	-20(%rbp), %esi
	.loc	0 1417 31                       # cpp/csmith1.cpp:1417:31
	leaq	.L.str.17(%rip), %rdi
	movb	$0, %al
	callq	printf@PLT
.Ltmp31:
.LBB0_19:                               #   in Loop: Header=BB0_16 Depth=1
	.loc	0 1419 5 is_stmt 1              # cpp/csmith1.cpp:1419:5
	jmp	.LBB0_20
.Ltmp32:
.LBB0_20:                               #   in Loop: Header=BB0_16 Depth=1
	.loc	0 1414 26                       # cpp/csmith1.cpp:1414:26
	movl	-20(%rbp), %eax
	addl	$1, %eax
	movl	%eax, -20(%rbp)
	.loc	0 1414 5 is_stmt 0              # cpp/csmith1.cpp:1414:5
	jmp	.LBB0_16
.Ltmp33:
.LBB0_21:
	.loc	0 1420 21 is_stmt 1             # cpp/csmith1.cpp:1420:21
	movzwl	_ZL5g_453(%rip), %eax
	movl	%eax, %edi
	.loc	0 1420 43 is_stmt 0             # cpp/csmith1.cpp:1420:43
	movl	-32(%rbp), %edx
	.loc	0 1420 5                        # cpp/csmith1.cpp:1420:5
	leaq	.L.str.30(%rip), %rsi
	callq	_ZL15transparent_crcmPci
	.loc	0 1421 21 is_stmt 1             # cpp/csmith1.cpp:1421:21
	movzwl	_ZL5g_455(%rip), %eax
	movl	%eax, %edi
	.loc	0 1421 43 is_stmt 0             # cpp/csmith1.cpp:1421:43
	movl	-32(%rbp), %edx
	.loc	0 1421 5                        # cpp/csmith1.cpp:1421:5
	leaq	.L.str.31(%rip), %rsi
	callq	_ZL15transparent_crcmPci
	.loc	0 1422 21 is_stmt 1             # cpp/csmith1.cpp:1422:21
	movsbq	_ZL5g_648(%rip), %rdi
	.loc	0 1422 37 is_stmt 0             # cpp/csmith1.cpp:1422:37
	movl	-32(%rbp), %edx
	.loc	0 1422 5                        # cpp/csmith1.cpp:1422:5
	leaq	.L.str.32(%rip), %rsi
	callq	_ZL15transparent_crcmPci
	.loc	0 1423 21 is_stmt 1             # cpp/csmith1.cpp:1423:21
	movzwl	_ZL5g_651(%rip), %eax
	movl	%eax, %edi
	.loc	0 1423 37 is_stmt 0             # cpp/csmith1.cpp:1423:37
	movl	-32(%rbp), %edx
	.loc	0 1423 5                        # cpp/csmith1.cpp:1423:5
	leaq	.L.str.33(%rip), %rsi
	callq	_ZL15transparent_crcmPci
	.loc	0 1424 21 is_stmt 1             # cpp/csmith1.cpp:1424:21
	movslq	_ZL5g_693(%rip), %rdi
	.loc	0 1424 43 is_stmt 0             # cpp/csmith1.cpp:1424:43
	movl	-32(%rbp), %edx
	.loc	0 1424 5                        # cpp/csmith1.cpp:1424:5
	leaq	.L.str.34(%rip), %rsi
	callq	_ZL15transparent_crcmPci
	.loc	0 1425 21 is_stmt 1             # cpp/csmith1.cpp:1425:21
	movl	_ZL5g_695(%rip), %eax
	movl	%eax, %edi
	.loc	0 1425 37 is_stmt 0             # cpp/csmith1.cpp:1425:37
	movl	-32(%rbp), %edx
	.loc	0 1425 5                        # cpp/csmith1.cpp:1425:5
	leaq	.L.str.35(%rip), %rsi
	callq	_ZL15transparent_crcmPci
	.loc	0 1426 21 is_stmt 1             # cpp/csmith1.cpp:1426:21
	movq	_ZL5g_862(%rip), %rdi
	.loc	0 1426 37 is_stmt 0             # cpp/csmith1.cpp:1426:37
	movl	-32(%rbp), %edx
	.loc	0 1426 5                        # cpp/csmith1.cpp:1426:5
	leaq	.L.str.36(%rip), %rsi
	callq	_ZL15transparent_crcmPci
	.loc	0 1427 21 is_stmt 1             # cpp/csmith1.cpp:1427:21
	movw	_ZL6g_1175(%rip), %ax
	movzwl	%ax, %eax
	movl	%eax, %edi
	.loc	0 1427 39 is_stmt 0             # cpp/csmith1.cpp:1427:39
	movl	-32(%rbp), %edx
	.loc	0 1427 5                        # cpp/csmith1.cpp:1427:5
	leaq	.L.str.37(%rip), %rsi
	callq	_ZL15transparent_crcmPci
	.loc	0 1428 21 is_stmt 1             # cpp/csmith1.cpp:1428:21
	movq	_ZL6g_1221(%rip), %rdi
	.loc	0 1428 39 is_stmt 0             # cpp/csmith1.cpp:1428:39
	movl	-32(%rbp), %edx
	.loc	0 1428 5                        # cpp/csmith1.cpp:1428:5
	leaq	.L.str.38(%rip), %rsi
	callq	_ZL15transparent_crcmPci
	.loc	0 1429 21 is_stmt 1             # cpp/csmith1.cpp:1429:21
	movsbq	_ZL6g_1335(%rip), %rdi
	.loc	0 1429 39 is_stmt 0             # cpp/csmith1.cpp:1429:39
	movl	-32(%rbp), %edx
	.loc	0 1429 5                        # cpp/csmith1.cpp:1429:5
	leaq	.L.str.39(%rip), %rsi
	callq	_ZL15transparent_crcmPci
	.loc	0 1430 28 is_stmt 1             # cpp/csmith1.cpp:1430:28
	movl	_ZL6g_1357(%rip), %eax
	.loc	0 1430 21 is_stmt 0             # cpp/csmith1.cpp:1430:21
	movslq	%eax, %rdi
	.loc	0 1430 45                       # cpp/csmith1.cpp:1430:45
	movl	-32(%rbp), %edx
	.loc	0 1430 5                        # cpp/csmith1.cpp:1430:5
	leaq	.L.str.40(%rip), %rsi
	callq	_ZL15transparent_crcmPci
	.loc	0 1431 28 is_stmt 1             # cpp/csmith1.cpp:1431:28
	movb	_ZL6g_1391(%rip), %al
	.loc	0 1431 21 is_stmt 0             # cpp/csmith1.cpp:1431:21
	movsbq	%al, %rdi
	.loc	0 1431 45                       # cpp/csmith1.cpp:1431:45
	movl	-32(%rbp), %edx
	.loc	0 1431 5                        # cpp/csmith1.cpp:1431:5
	leaq	.L.str.41(%rip), %rsi
	callq	_ZL15transparent_crcmPci
	.loc	0 1432 21 is_stmt 1             # cpp/csmith1.cpp:1432:21
	movq	_ZL6g_1487(%rip), %rdi
	.loc	0 1432 39 is_stmt 0             # cpp/csmith1.cpp:1432:39
	movl	-32(%rbp), %edx
	.loc	0 1432 5                        # cpp/csmith1.cpp:1432:5
	leaq	.L.str.42(%rip), %rsi
	callq	_ZL15transparent_crcmPci
	.loc	0 1433 21 is_stmt 1             # cpp/csmith1.cpp:1433:21
	movslq	_ZL6g_1499(%rip), %rdi
	.loc	0 1433 39 is_stmt 0             # cpp/csmith1.cpp:1433:39
	movl	-32(%rbp), %edx
	.loc	0 1433 5                        # cpp/csmith1.cpp:1433:5
	leaq	.L.str.43(%rip), %rsi
	callq	_ZL15transparent_crcmPci
.Ltmp34:
	.loc	0 1434 12 is_stmt 1             # cpp/csmith1.cpp:1434:12
	movl	$0, -20(%rbp)
.LBB0_22:                               # =>This Loop Header: Depth=1
                                        #     Child Loop BB0_24 Depth 2
                                        #       Child Loop BB0_26 Depth 3
.Ltmp35:
	.loc	0 1434 19 is_stmt 0             # cpp/csmith1.cpp:1434:19
	cmpl	$10, -20(%rbp)
.Ltmp36:
	.loc	0 1434 5                        # cpp/csmith1.cpp:1434:5
	jge	.LBB0_35
# %bb.23:                               #   in Loop: Header=BB0_22 Depth=1
.Ltmp37:
	.loc	0 1436 16 is_stmt 1             # cpp/csmith1.cpp:1436:16
	movl	$0, -24(%rbp)
.LBB0_24:                               #   Parent Loop BB0_22 Depth=1
                                        # =>  This Loop Header: Depth=2
                                        #       Child Loop BB0_26 Depth 3
.Ltmp38:
	.loc	0 1436 23 is_stmt 0             # cpp/csmith1.cpp:1436:23
	cmpl	$8, -24(%rbp)
.Ltmp39:
	.loc	0 1436 9                        # cpp/csmith1.cpp:1436:9
	jge	.LBB0_33
# %bb.25:                               #   in Loop: Header=BB0_24 Depth=2
.Ltmp40:
	.loc	0 1438 20 is_stmt 1             # cpp/csmith1.cpp:1438:20
	movl	$0, -28(%rbp)
.LBB0_26:                               #   Parent Loop BB0_22 Depth=1
                                        #     Parent Loop BB0_24 Depth=2
                                        # =>    This Inner Loop Header: Depth=3
.Ltmp41:
	.loc	0 1438 27 is_stmt 0             # cpp/csmith1.cpp:1438:27
	cmpl	$2, -28(%rbp)
.Ltmp42:
	.loc	0 1438 13                       # cpp/csmith1.cpp:1438:13
	jge	.LBB0_31
# %bb.27:                               #   in Loop: Header=BB0_26 Depth=3
.Ltmp43:
	.loc	0 1440 33 is_stmt 1             # cpp/csmith1.cpp:1440:33
	movslq	-20(%rbp), %rcx
	leaq	_ZL6g_1554(%rip), %rax
	shlq	$6, %rcx
	addq	%rcx, %rax
	movslq	-24(%rbp), %rcx
	shlq	$3, %rcx
	addq	%rcx, %rax
	movslq	-28(%rbp), %rcx
	movl	(%rax,%rcx,4), %eax
	movl	%eax, %edi
	.loc	0 1440 69 is_stmt 0             # cpp/csmith1.cpp:1440:69
	movl	-32(%rbp), %edx
	.loc	0 1440 17                       # cpp/csmith1.cpp:1440:17
	leaq	.L.str.44(%rip), %rsi
	callq	_ZL15transparent_crcmPci
.Ltmp44:
	.loc	0 1441 21 is_stmt 1             # cpp/csmith1.cpp:1441:21
	cmpl	$0, -32(%rbp)
.Ltmp45:
	.loc	0 1441 21 is_stmt 0             # cpp/csmith1.cpp:1441:21
	je	.LBB0_29
# %bb.28:                               #   in Loop: Header=BB0_26 Depth=3
.Ltmp46:
	.loc	0 1441 72                       # cpp/csmith1.cpp:1441:72
	movl	-20(%rbp), %esi
	.loc	0 1441 75                       # cpp/csmith1.cpp:1441:75
	movl	-24(%rbp), %edx
	.loc	0 1441 78                       # cpp/csmith1.cpp:1441:78
	movl	-28(%rbp), %ecx
	.loc	0 1441 39                       # cpp/csmith1.cpp:1441:39
	leaq	.L.str.45(%rip), %rdi
	movb	$0, %al
	callq	printf@PLT
.Ltmp47:
.LBB0_29:                               #   in Loop: Header=BB0_26 Depth=3
	.loc	0 1443 13 is_stmt 1             # cpp/csmith1.cpp:1443:13
	jmp	.LBB0_30
.Ltmp48:
.LBB0_30:                               #   in Loop: Header=BB0_26 Depth=3
	.loc	0 1438 33                       # cpp/csmith1.cpp:1438:33
	movl	-28(%rbp), %eax
	addl	$1, %eax
	movl	%eax, -28(%rbp)
	.loc	0 1438 13 is_stmt 0             # cpp/csmith1.cpp:1438:13
	jmp	.LBB0_26
.Ltmp49:
.LBB0_31:                               #   in Loop: Header=BB0_24 Depth=2
	.loc	0 1444 9 is_stmt 1              # cpp/csmith1.cpp:1444:9
	jmp	.LBB0_32
.Ltmp50:
.LBB0_32:                               #   in Loop: Header=BB0_24 Depth=2
	.loc	0 1436 29                       # cpp/csmith1.cpp:1436:29
	movl	-24(%rbp), %eax
	addl	$1, %eax
	movl	%eax, -24(%rbp)
	.loc	0 1436 9 is_stmt 0              # cpp/csmith1.cpp:1436:9
	jmp	.LBB0_24
.Ltmp51:
.LBB0_33:                               #   in Loop: Header=BB0_22 Depth=1
	.loc	0 1445 5 is_stmt 1              # cpp/csmith1.cpp:1445:5
	jmp	.LBB0_34
.Ltmp52:
.LBB0_34:                               #   in Loop: Header=BB0_22 Depth=1
	.loc	0 1434 26                       # cpp/csmith1.cpp:1434:26
	movl	-20(%rbp), %eax
	addl	$1, %eax
	movl	%eax, -20(%rbp)
	.loc	0 1434 5 is_stmt 0              # cpp/csmith1.cpp:1434:5
	jmp	.LBB0_22
.Ltmp53:
.LBB0_35:
	.loc	0 1446 45 is_stmt 1             # cpp/csmith1.cpp:1446:45
	movl	-32(%rbp), %edx
	.loc	0 1446 5 is_stmt 0              # cpp/csmith1.cpp:1446:5
	movl	$5215, %edi                     # imm = 0x145F
	leaq	.L.str.46(%rip), %rsi
	callq	_ZL15transparent_crcmPci
	.loc	0 1447 39 is_stmt 1             # cpp/csmith1.cpp:1447:39
	movl	-32(%rbp), %edx
	.loc	0 1447 5 is_stmt 0              # cpp/csmith1.cpp:1447:5
	movl	$2, %edi
	leaq	.L.str.47(%rip), %rsi
	callq	_ZL15transparent_crcmPci
.Ltmp54:
	.loc	0 1448 12 is_stmt 1             # cpp/csmith1.cpp:1448:12
	movl	$0, -20(%rbp)
.LBB0_36:                               # =>This Inner Loop Header: Depth=1
.Ltmp55:
	.loc	0 1448 19 is_stmt 0             # cpp/csmith1.cpp:1448:19
	cmpl	$8, -20(%rbp)
.Ltmp56:
	.loc	0 1448 5                        # cpp/csmith1.cpp:1448:5
	jge	.LBB0_41
# %bb.37:                               #   in Loop: Header=BB0_36 Depth=1
.Ltmp57:
	.loc	0 1450 25 is_stmt 1             # cpp/csmith1.cpp:1450:25
	movslq	-20(%rbp), %rcx
	leaq	_ZL6g_1717(%rip), %rax
	movswq	(%rax,%rcx,2), %rdi
	.loc	0 1450 55 is_stmt 0             # cpp/csmith1.cpp:1450:55
	movl	-32(%rbp), %edx
	.loc	0 1450 9                        # cpp/csmith1.cpp:1450:9
	leaq	.L.str.48(%rip), %rsi
	callq	_ZL15transparent_crcmPci
.Ltmp58:
	.loc	0 1451 13 is_stmt 1             # cpp/csmith1.cpp:1451:13
	cmpl	$0, -32(%rbp)
.Ltmp59:
	.loc	0 1451 13 is_stmt 0             # cpp/csmith1.cpp:1451:13
	je	.LBB0_39
# %bb.38:                               #   in Loop: Header=BB0_36 Depth=1
.Ltmp60:
	.loc	0 1451 56                       # cpp/csmith1.cpp:1451:56
	movl	-20(%rbp), %esi
	.loc	0 1451 31                       # cpp/csmith1.cpp:1451:31
	leaq	.L.str.17(%rip), %rdi
	movb	$0, %al
	callq	printf@PLT
.Ltmp61:
.LBB0_39:                               #   in Loop: Header=BB0_36 Depth=1
	.loc	0 1453 5 is_stmt 1              # cpp/csmith1.cpp:1453:5
	jmp	.LBB0_40
.Ltmp62:
.LBB0_40:                               #   in Loop: Header=BB0_36 Depth=1
	.loc	0 1448 25                       # cpp/csmith1.cpp:1448:25
	movl	-20(%rbp), %eax
	addl	$1, %eax
	movl	%eax, -20(%rbp)
	.loc	0 1448 5 is_stmt 0              # cpp/csmith1.cpp:1448:5
	jmp	.LBB0_36
.Ltmp63:
.LBB0_41:
	.loc	0 1454 21 is_stmt 1             # cpp/csmith1.cpp:1454:21
	movl	_ZL6g_1877(%rip), %eax
	movl	%eax, %edi
	.loc	0 1454 39 is_stmt 0             # cpp/csmith1.cpp:1454:39
	movl	-32(%rbp), %edx
	.loc	0 1454 5                        # cpp/csmith1.cpp:1454:5
	leaq	.L.str.49(%rip), %rsi
	callq	_ZL15transparent_crcmPci
	.loc	0 1455 21 is_stmt 1             # cpp/csmith1.cpp:1455:21
	movl	_ZL6g_1883(%rip), %eax
	movl	%eax, %edi
	.loc	0 1455 39 is_stmt 0             # cpp/csmith1.cpp:1455:39
	movl	-32(%rbp), %edx
	.loc	0 1455 5                        # cpp/csmith1.cpp:1455:5
	leaq	.L.str.50(%rip), %rsi
	callq	_ZL15transparent_crcmPci
	.loc	0 1456 21 is_stmt 1             # cpp/csmith1.cpp:1456:21
	movl	_ZL6g_1884(%rip), %eax
	movl	%eax, %edi
	.loc	0 1456 39 is_stmt 0             # cpp/csmith1.cpp:1456:39
	movl	-32(%rbp), %edx
	.loc	0 1456 5                        # cpp/csmith1.cpp:1456:5
	leaq	.L.str.51(%rip), %rsi
	callq	_ZL15transparent_crcmPci
	.loc	0 1457 21 is_stmt 1             # cpp/csmith1.cpp:1457:21
	movl	_ZL6g_1885(%rip), %eax
	movl	%eax, %edi
	.loc	0 1457 39 is_stmt 0             # cpp/csmith1.cpp:1457:39
	movl	-32(%rbp), %edx
	.loc	0 1457 5                        # cpp/csmith1.cpp:1457:5
	leaq	.L.str.52(%rip), %rsi
	callq	_ZL15transparent_crcmPci
	.loc	0 1458 21 is_stmt 1             # cpp/csmith1.cpp:1458:21
	movl	_ZL6g_1886(%rip), %eax
	movl	%eax, %edi
	.loc	0 1458 39 is_stmt 0             # cpp/csmith1.cpp:1458:39
	movl	-32(%rbp), %edx
	.loc	0 1458 5                        # cpp/csmith1.cpp:1458:5
	leaq	.L.str.53(%rip), %rsi
	callq	_ZL15transparent_crcmPci
	.loc	0 1459 21 is_stmt 1             # cpp/csmith1.cpp:1459:21
	movl	_ZL6g_1887(%rip), %eax
	movl	%eax, %edi
	.loc	0 1459 39 is_stmt 0             # cpp/csmith1.cpp:1459:39
	movl	-32(%rbp), %edx
	.loc	0 1459 5                        # cpp/csmith1.cpp:1459:5
	leaq	.L.str.54(%rip), %rsi
	callq	_ZL15transparent_crcmPci
	.loc	0 1460 21 is_stmt 1             # cpp/csmith1.cpp:1460:21
	movl	_ZL6g_1888(%rip), %eax
	movl	%eax, %edi
	.loc	0 1460 39 is_stmt 0             # cpp/csmith1.cpp:1460:39
	movl	-32(%rbp), %edx
	.loc	0 1460 5                        # cpp/csmith1.cpp:1460:5
	leaq	.L.str.55(%rip), %rsi
	callq	_ZL15transparent_crcmPci
.Ltmp64:
	.loc	0 1461 12 is_stmt 1             # cpp/csmith1.cpp:1461:12
	movl	$0, -20(%rbp)
.LBB0_42:                               # =>This Inner Loop Header: Depth=1
.Ltmp65:
	.loc	0 1461 19 is_stmt 0             # cpp/csmith1.cpp:1461:19
	cmpl	$10, -20(%rbp)
.Ltmp66:
	.loc	0 1461 5                        # cpp/csmith1.cpp:1461:5
	jge	.LBB0_47
# %bb.43:                               #   in Loop: Header=BB0_42 Depth=1
.Ltmp67:
	.loc	0 1463 25 is_stmt 1             # cpp/csmith1.cpp:1463:25
	movslq	-20(%rbp), %rcx
	leaq	_ZL6g_1889(%rip), %rax
	movl	(%rax,%rcx,4), %eax
	movl	%eax, %edi
	.loc	0 1463 49 is_stmt 0             # cpp/csmith1.cpp:1463:49
	movl	-32(%rbp), %edx
	.loc	0 1463 9                        # cpp/csmith1.cpp:1463:9
	leaq	.L.str.56(%rip), %rsi
	callq	_ZL15transparent_crcmPci
.Ltmp68:
	.loc	0 1464 13 is_stmt 1             # cpp/csmith1.cpp:1464:13
	cmpl	$0, -32(%rbp)
.Ltmp69:
	.loc	0 1464 13 is_stmt 0             # cpp/csmith1.cpp:1464:13
	je	.LBB0_45
# %bb.44:                               #   in Loop: Header=BB0_42 Depth=1
.Ltmp70:
	.loc	0 1464 56                       # cpp/csmith1.cpp:1464:56
	movl	-20(%rbp), %esi
	.loc	0 1464 31                       # cpp/csmith1.cpp:1464:31
	leaq	.L.str.17(%rip), %rdi
	movb	$0, %al
	callq	printf@PLT
.Ltmp71:
.LBB0_45:                               #   in Loop: Header=BB0_42 Depth=1
	.loc	0 1466 5 is_stmt 1              # cpp/csmith1.cpp:1466:5
	jmp	.LBB0_46
.Ltmp72:
.LBB0_46:                               #   in Loop: Header=BB0_42 Depth=1
	.loc	0 1461 26                       # cpp/csmith1.cpp:1461:26
	movl	-20(%rbp), %eax
	addl	$1, %eax
	movl	%eax, -20(%rbp)
	.loc	0 1461 5 is_stmt 0              # cpp/csmith1.cpp:1461:5
	jmp	.LBB0_42
.Ltmp73:
.LBB0_47:
	.loc	0 1467 21 is_stmt 1             # cpp/csmith1.cpp:1467:21
	movl	_ZL6g_1890(%rip), %eax
	movl	%eax, %edi
	.loc	0 1467 39 is_stmt 0             # cpp/csmith1.cpp:1467:39
	movl	-32(%rbp), %edx
	.loc	0 1467 5                        # cpp/csmith1.cpp:1467:5
	leaq	.L.str.57(%rip), %rsi
	callq	_ZL15transparent_crcmPci
	.loc	0 1468 21 is_stmt 1             # cpp/csmith1.cpp:1468:21
	movl	_ZL6g_1891(%rip), %eax
	movl	%eax, %edi
	.loc	0 1468 39 is_stmt 0             # cpp/csmith1.cpp:1468:39
	movl	-32(%rbp), %edx
	.loc	0 1468 5                        # cpp/csmith1.cpp:1468:5
	leaq	.L.str.58(%rip), %rsi
	callq	_ZL15transparent_crcmPci
.Ltmp74:
	.loc	0 1469 12 is_stmt 1             # cpp/csmith1.cpp:1469:12
	movl	$0, -20(%rbp)
.LBB0_48:                               # =>This Inner Loop Header: Depth=1
.Ltmp75:
	.loc	0 1469 19 is_stmt 0             # cpp/csmith1.cpp:1469:19
	cmpl	$5, -20(%rbp)
.Ltmp76:
	.loc	0 1469 5                        # cpp/csmith1.cpp:1469:5
	jge	.LBB0_53
# %bb.49:                               #   in Loop: Header=BB0_48 Depth=1
.Ltmp77:
	.loc	0 1471 25 is_stmt 1             # cpp/csmith1.cpp:1471:25
	movslq	-20(%rbp), %rcx
	leaq	_ZL6g_1892(%rip), %rax
	movl	(%rax,%rcx,4), %eax
	movl	%eax, %edi
	.loc	0 1471 49 is_stmt 0             # cpp/csmith1.cpp:1471:49
	movl	-32(%rbp), %edx
	.loc	0 1471 9                        # cpp/csmith1.cpp:1471:9
	leaq	.L.str.59(%rip), %rsi
	callq	_ZL15transparent_crcmPci
.Ltmp78:
	.loc	0 1472 13 is_stmt 1             # cpp/csmith1.cpp:1472:13
	cmpl	$0, -32(%rbp)
.Ltmp79:
	.loc	0 1472 13 is_stmt 0             # cpp/csmith1.cpp:1472:13
	je	.LBB0_51
# %bb.50:                               #   in Loop: Header=BB0_48 Depth=1
.Ltmp80:
	.loc	0 1472 56                       # cpp/csmith1.cpp:1472:56
	movl	-20(%rbp), %esi
	.loc	0 1472 31                       # cpp/csmith1.cpp:1472:31
	leaq	.L.str.17(%rip), %rdi
	movb	$0, %al
	callq	printf@PLT
.Ltmp81:
.LBB0_51:                               #   in Loop: Header=BB0_48 Depth=1
	.loc	0 1474 5 is_stmt 1              # cpp/csmith1.cpp:1474:5
	jmp	.LBB0_52
.Ltmp82:
.LBB0_52:                               #   in Loop: Header=BB0_48 Depth=1
	.loc	0 1469 25                       # cpp/csmith1.cpp:1469:25
	movl	-20(%rbp), %eax
	addl	$1, %eax
	movl	%eax, -20(%rbp)
	.loc	0 1469 5 is_stmt 0              # cpp/csmith1.cpp:1469:5
	jmp	.LBB0_48
.Ltmp83:
.LBB0_53:
	.loc	0 1475 12 is_stmt 1             # cpp/csmith1.cpp:1475:12
	movl	$0, -20(%rbp)
.LBB0_54:                               # =>This Inner Loop Header: Depth=1
.Ltmp84:
	.loc	0 1475 19 is_stmt 0             # cpp/csmith1.cpp:1475:19
	cmpl	$7, -20(%rbp)
.Ltmp85:
	.loc	0 1475 5                        # cpp/csmith1.cpp:1475:5
	jge	.LBB0_59
# %bb.55:                               #   in Loop: Header=BB0_54 Depth=1
.Ltmp86:
	.loc	0 1477 25 is_stmt 1             # cpp/csmith1.cpp:1477:25
	movslq	-20(%rbp), %rcx
	leaq	_ZL6g_1893(%rip), %rax
	movl	(%rax,%rcx,4), %eax
	movl	%eax, %edi
	.loc	0 1477 49 is_stmt 0             # cpp/csmith1.cpp:1477:49
	movl	-32(%rbp), %edx
	.loc	0 1477 9                        # cpp/csmith1.cpp:1477:9
	leaq	.L.str.60(%rip), %rsi
	callq	_ZL15transparent_crcmPci
.Ltmp87:
	.loc	0 1478 13 is_stmt 1             # cpp/csmith1.cpp:1478:13
	cmpl	$0, -32(%rbp)
.Ltmp88:
	.loc	0 1478 13 is_stmt 0             # cpp/csmith1.cpp:1478:13
	je	.LBB0_57
# %bb.56:                               #   in Loop: Header=BB0_54 Depth=1
.Ltmp89:
	.loc	0 1478 56                       # cpp/csmith1.cpp:1478:56
	movl	-20(%rbp), %esi
	.loc	0 1478 31                       # cpp/csmith1.cpp:1478:31
	leaq	.L.str.17(%rip), %rdi
	movb	$0, %al
	callq	printf@PLT
.Ltmp90:
.LBB0_57:                               #   in Loop: Header=BB0_54 Depth=1
	.loc	0 1480 5 is_stmt 1              # cpp/csmith1.cpp:1480:5
	jmp	.LBB0_58
.Ltmp91:
.LBB0_58:                               #   in Loop: Header=BB0_54 Depth=1
	.loc	0 1475 25                       # cpp/csmith1.cpp:1475:25
	movl	-20(%rbp), %eax
	addl	$1, %eax
	movl	%eax, -20(%rbp)
	.loc	0 1475 5 is_stmt 0              # cpp/csmith1.cpp:1475:5
	jmp	.LBB0_54
.Ltmp92:
.LBB0_59:
	.loc	0 1481 12 is_stmt 1             # cpp/csmith1.cpp:1481:12
	movl	$0, -20(%rbp)
.LBB0_60:                               # =>This Inner Loop Header: Depth=1
.Ltmp93:
	.loc	0 1481 19 is_stmt 0             # cpp/csmith1.cpp:1481:19
	cmpl	$8, -20(%rbp)
.Ltmp94:
	.loc	0 1481 5                        # cpp/csmith1.cpp:1481:5
	jge	.LBB0_65
# %bb.61:                               #   in Loop: Header=BB0_60 Depth=1
.Ltmp95:
	.loc	0 1483 25 is_stmt 1             # cpp/csmith1.cpp:1483:25
	movslq	-20(%rbp), %rcx
	leaq	_ZL6g_1894(%rip), %rax
	movl	(%rax,%rcx,4), %eax
	movl	%eax, %edi
	.loc	0 1483 49 is_stmt 0             # cpp/csmith1.cpp:1483:49
	movl	-32(%rbp), %edx
	.loc	0 1483 9                        # cpp/csmith1.cpp:1483:9
	leaq	.L.str.61(%rip), %rsi
	callq	_ZL15transparent_crcmPci
.Ltmp96:
	.loc	0 1484 13 is_stmt 1             # cpp/csmith1.cpp:1484:13
	cmpl	$0, -32(%rbp)
.Ltmp97:
	.loc	0 1484 13 is_stmt 0             # cpp/csmith1.cpp:1484:13
	je	.LBB0_63
# %bb.62:                               #   in Loop: Header=BB0_60 Depth=1
.Ltmp98:
	.loc	0 1484 56                       # cpp/csmith1.cpp:1484:56
	movl	-20(%rbp), %esi
	.loc	0 1484 31                       # cpp/csmith1.cpp:1484:31
	leaq	.L.str.17(%rip), %rdi
	movb	$0, %al
	callq	printf@PLT
.Ltmp99:
.LBB0_63:                               #   in Loop: Header=BB0_60 Depth=1
	.loc	0 1486 5 is_stmt 1              # cpp/csmith1.cpp:1486:5
	jmp	.LBB0_64
.Ltmp100:
.LBB0_64:                               #   in Loop: Header=BB0_60 Depth=1
	.loc	0 1481 25                       # cpp/csmith1.cpp:1481:25
	movl	-20(%rbp), %eax
	addl	$1, %eax
	movl	%eax, -20(%rbp)
	.loc	0 1481 5 is_stmt 0              # cpp/csmith1.cpp:1481:5
	jmp	.LBB0_60
.Ltmp101:
.LBB0_65:
	.loc	0 1487 21 is_stmt 1             # cpp/csmith1.cpp:1487:21
	movl	_ZL6g_1895(%rip), %eax
	movl	%eax, %edi
	.loc	0 1487 39 is_stmt 0             # cpp/csmith1.cpp:1487:39
	movl	-32(%rbp), %edx
	.loc	0 1487 5                        # cpp/csmith1.cpp:1487:5
	leaq	.L.str.62(%rip), %rsi
	callq	_ZL15transparent_crcmPci
	.loc	0 1488 21 is_stmt 1             # cpp/csmith1.cpp:1488:21
	movl	_ZL6g_1896(%rip), %eax
	movl	%eax, %edi
	.loc	0 1488 39 is_stmt 0             # cpp/csmith1.cpp:1488:39
	movl	-32(%rbp), %edx
	.loc	0 1488 5                        # cpp/csmith1.cpp:1488:5
	leaq	.L.str.63(%rip), %rsi
	callq	_ZL15transparent_crcmPci
	.loc	0 1489 21 is_stmt 1             # cpp/csmith1.cpp:1489:21
	movl	_ZL6g_1897(%rip), %eax
	movl	%eax, %edi
	.loc	0 1489 39 is_stmt 0             # cpp/csmith1.cpp:1489:39
	movl	-32(%rbp), %edx
	.loc	0 1489 5                        # cpp/csmith1.cpp:1489:5
	leaq	.L.str.64(%rip), %rsi
	callq	_ZL15transparent_crcmPci
	.loc	0 1490 21 is_stmt 1             # cpp/csmith1.cpp:1490:21
	movl	_ZL6g_1898(%rip), %eax
	movl	%eax, %edi
	.loc	0 1490 39 is_stmt 0             # cpp/csmith1.cpp:1490:39
	movl	-32(%rbp), %edx
	.loc	0 1490 5                        # cpp/csmith1.cpp:1490:5
	leaq	.L.str.65(%rip), %rsi
	callq	_ZL15transparent_crcmPci
	.loc	0 1491 21 is_stmt 1             # cpp/csmith1.cpp:1491:21
	movl	_ZL6g_1899(%rip), %eax
	movl	%eax, %edi
	.loc	0 1491 39 is_stmt 0             # cpp/csmith1.cpp:1491:39
	movl	-32(%rbp), %edx
	.loc	0 1491 5                        # cpp/csmith1.cpp:1491:5
	leaq	.L.str.66(%rip), %rsi
	callq	_ZL15transparent_crcmPci
.Ltmp102:
	.loc	0 1492 12 is_stmt 1             # cpp/csmith1.cpp:1492:12
	movl	$0, -20(%rbp)
.LBB0_66:                               # =>This Inner Loop Header: Depth=1
.Ltmp103:
	.loc	0 1492 19 is_stmt 0             # cpp/csmith1.cpp:1492:19
	cmpl	$3, -20(%rbp)
.Ltmp104:
	.loc	0 1492 5                        # cpp/csmith1.cpp:1492:5
	jge	.LBB0_71
# %bb.67:                               #   in Loop: Header=BB0_66 Depth=1
.Ltmp105:
	.loc	0 1494 25 is_stmt 1             # cpp/csmith1.cpp:1494:25
	movslq	-20(%rbp), %rcx
	leaq	_ZL6g_1900(%rip), %rax
	movl	(%rax,%rcx,4), %eax
	movl	%eax, %edi
	.loc	0 1494 49 is_stmt 0             # cpp/csmith1.cpp:1494:49
	movl	-32(%rbp), %edx
	.loc	0 1494 9                        # cpp/csmith1.cpp:1494:9
	leaq	.L.str.67(%rip), %rsi
	callq	_ZL15transparent_crcmPci
.Ltmp106:
	.loc	0 1495 13 is_stmt 1             # cpp/csmith1.cpp:1495:13
	cmpl	$0, -32(%rbp)
.Ltmp107:
	.loc	0 1495 13 is_stmt 0             # cpp/csmith1.cpp:1495:13
	je	.LBB0_69
# %bb.68:                               #   in Loop: Header=BB0_66 Depth=1
.Ltmp108:
	.loc	0 1495 56                       # cpp/csmith1.cpp:1495:56
	movl	-20(%rbp), %esi
	.loc	0 1495 31                       # cpp/csmith1.cpp:1495:31
	leaq	.L.str.17(%rip), %rdi
	movb	$0, %al
	callq	printf@PLT
.Ltmp109:
.LBB0_69:                               #   in Loop: Header=BB0_66 Depth=1
	.loc	0 1497 5 is_stmt 1              # cpp/csmith1.cpp:1497:5
	jmp	.LBB0_70
.Ltmp110:
.LBB0_70:                               #   in Loop: Header=BB0_66 Depth=1
	.loc	0 1492 25                       # cpp/csmith1.cpp:1492:25
	movl	-20(%rbp), %eax
	addl	$1, %eax
	movl	%eax, -20(%rbp)
	.loc	0 1492 5 is_stmt 0              # cpp/csmith1.cpp:1492:5
	jmp	.LBB0_66
.Ltmp111:
.LBB0_71:
	.loc	0 1498 21 is_stmt 1             # cpp/csmith1.cpp:1498:21
	movl	_ZL6g_1901(%rip), %eax
	movl	%eax, %edi
	.loc	0 1498 39 is_stmt 0             # cpp/csmith1.cpp:1498:39
	movl	-32(%rbp), %edx
	.loc	0 1498 5                        # cpp/csmith1.cpp:1498:5
	leaq	.L.str.68(%rip), %rsi
	callq	_ZL15transparent_crcmPci
	.loc	0 1499 21 is_stmt 1             # cpp/csmith1.cpp:1499:21
	movl	_ZL6g_1902(%rip), %eax
	movl	%eax, %edi
	.loc	0 1499 39 is_stmt 0             # cpp/csmith1.cpp:1499:39
	movl	-32(%rbp), %edx
	.loc	0 1499 5                        # cpp/csmith1.cpp:1499:5
	leaq	.L.str.69(%rip), %rsi
	callq	_ZL15transparent_crcmPci
	.loc	0 1500 21 is_stmt 1             # cpp/csmith1.cpp:1500:21
	movl	_ZL6g_1903(%rip), %eax
	movl	%eax, %edi
	.loc	0 1500 39 is_stmt 0             # cpp/csmith1.cpp:1500:39
	movl	-32(%rbp), %edx
	.loc	0 1500 5                        # cpp/csmith1.cpp:1500:5
	leaq	.L.str.70(%rip), %rsi
	callq	_ZL15transparent_crcmPci
	.loc	0 1501 21 is_stmt 1             # cpp/csmith1.cpp:1501:21
	movl	_ZL6g_1904(%rip), %eax
	movl	%eax, %edi
	.loc	0 1501 39 is_stmt 0             # cpp/csmith1.cpp:1501:39
	movl	-32(%rbp), %edx
	.loc	0 1501 5                        # cpp/csmith1.cpp:1501:5
	leaq	.L.str.71(%rip), %rsi
	callq	_ZL15transparent_crcmPci
	.loc	0 1502 21 is_stmt 1             # cpp/csmith1.cpp:1502:21
	movl	_ZL6g_1905(%rip), %eax
	movl	%eax, %edi
	.loc	0 1502 39 is_stmt 0             # cpp/csmith1.cpp:1502:39
	movl	-32(%rbp), %edx
	.loc	0 1502 5                        # cpp/csmith1.cpp:1502:5
	leaq	.L.str.72(%rip), %rsi
	callq	_ZL15transparent_crcmPci
	.loc	0 1503 21 is_stmt 1             # cpp/csmith1.cpp:1503:21
	movl	_ZL6g_1906(%rip), %eax
	movl	%eax, %edi
	.loc	0 1503 39 is_stmt 0             # cpp/csmith1.cpp:1503:39
	movl	-32(%rbp), %edx
	.loc	0 1503 5                        # cpp/csmith1.cpp:1503:5
	leaq	.L.str.73(%rip), %rsi
	callq	_ZL15transparent_crcmPci
	.loc	0 1504 21 is_stmt 1             # cpp/csmith1.cpp:1504:21
	movl	_ZL6g_1907(%rip), %eax
	movl	%eax, %edi
	.loc	0 1504 39 is_stmt 0             # cpp/csmith1.cpp:1504:39
	movl	-32(%rbp), %edx
	.loc	0 1504 5                        # cpp/csmith1.cpp:1504:5
	leaq	.L.str.74(%rip), %rsi
	callq	_ZL15transparent_crcmPci
	.loc	0 1505 21 is_stmt 1             # cpp/csmith1.cpp:1505:21
	movl	_ZL6g_1908(%rip), %eax
	movl	%eax, %edi
	.loc	0 1505 39 is_stmt 0             # cpp/csmith1.cpp:1505:39
	movl	-32(%rbp), %edx
	.loc	0 1505 5                        # cpp/csmith1.cpp:1505:5
	leaq	.L.str.75(%rip), %rsi
	callq	_ZL15transparent_crcmPci
	.loc	0 1506 21 is_stmt 1             # cpp/csmith1.cpp:1506:21
	movl	_ZL6g_1909(%rip), %eax
	movl	%eax, %edi
	.loc	0 1506 39 is_stmt 0             # cpp/csmith1.cpp:1506:39
	movl	-32(%rbp), %edx
	.loc	0 1506 5                        # cpp/csmith1.cpp:1506:5
	leaq	.L.str.76(%rip), %rsi
	callq	_ZL15transparent_crcmPci
	.loc	0 1507 21 is_stmt 1             # cpp/csmith1.cpp:1507:21
	movl	_ZL6g_1910(%rip), %eax
	movl	%eax, %edi
	.loc	0 1507 39 is_stmt 0             # cpp/csmith1.cpp:1507:39
	movl	-32(%rbp), %edx
	.loc	0 1507 5                        # cpp/csmith1.cpp:1507:5
	leaq	.L.str.77(%rip), %rsi
	callq	_ZL15transparent_crcmPci
	.loc	0 1508 21 is_stmt 1             # cpp/csmith1.cpp:1508:21
	movl	_ZL6g_1911(%rip), %eax
	movl	%eax, %edi
	.loc	0 1508 39 is_stmt 0             # cpp/csmith1.cpp:1508:39
	movl	-32(%rbp), %edx
	.loc	0 1508 5                        # cpp/csmith1.cpp:1508:5
	leaq	.L.str.78(%rip), %rsi
	callq	_ZL15transparent_crcmPci
	.loc	0 1509 21 is_stmt 1             # cpp/csmith1.cpp:1509:21
	movl	_ZL6g_1912(%rip), %eax
	movl	%eax, %edi
	.loc	0 1509 39 is_stmt 0             # cpp/csmith1.cpp:1509:39
	movl	-32(%rbp), %edx
	.loc	0 1509 5                        # cpp/csmith1.cpp:1509:5
	leaq	.L.str.79(%rip), %rsi
	callq	_ZL15transparent_crcmPci
	.loc	0 1510 21 is_stmt 1             # cpp/csmith1.cpp:1510:21
	movl	_ZL6g_1913(%rip), %eax
	movl	%eax, %edi
	.loc	0 1510 39 is_stmt 0             # cpp/csmith1.cpp:1510:39
	movl	-32(%rbp), %edx
	.loc	0 1510 5                        # cpp/csmith1.cpp:1510:5
	leaq	.L.str.80(%rip), %rsi
	callq	_ZL15transparent_crcmPci
	.loc	0 1511 21 is_stmt 1             # cpp/csmith1.cpp:1511:21
	movl	_ZL6g_1914(%rip), %eax
	movl	%eax, %edi
	.loc	0 1511 39 is_stmt 0             # cpp/csmith1.cpp:1511:39
	movl	-32(%rbp), %edx
	.loc	0 1511 5                        # cpp/csmith1.cpp:1511:5
	leaq	.L.str.81(%rip), %rsi
	callq	_ZL15transparent_crcmPci
	.loc	0 1512 21 is_stmt 1             # cpp/csmith1.cpp:1512:21
	movl	_ZL6g_1915(%rip), %eax
	movl	%eax, %edi
	.loc	0 1512 39 is_stmt 0             # cpp/csmith1.cpp:1512:39
	movl	-32(%rbp), %edx
	.loc	0 1512 5                        # cpp/csmith1.cpp:1512:5
	leaq	.L.str.82(%rip), %rsi
	callq	_ZL15transparent_crcmPci
.Ltmp112:
	.loc	0 1513 12 is_stmt 1             # cpp/csmith1.cpp:1513:12
	movl	$0, -20(%rbp)
.LBB0_72:                               # =>This Inner Loop Header: Depth=1
.Ltmp113:
	.loc	0 1513 19 is_stmt 0             # cpp/csmith1.cpp:1513:19
	cmpl	$1, -20(%rbp)
.Ltmp114:
	.loc	0 1513 5                        # cpp/csmith1.cpp:1513:5
	jge	.LBB0_77
# %bb.73:                               #   in Loop: Header=BB0_72 Depth=1
.Ltmp115:
	.loc	0 1515 25 is_stmt 1             # cpp/csmith1.cpp:1515:25
	movslq	-20(%rbp), %rcx
	leaq	_ZL6g_1916(%rip), %rax
	movl	(%rax,%rcx,4), %eax
	movl	%eax, %edi
	.loc	0 1515 49 is_stmt 0             # cpp/csmith1.cpp:1515:49
	movl	-32(%rbp), %edx
	.loc	0 1515 9                        # cpp/csmith1.cpp:1515:9
	leaq	.L.str.83(%rip), %rsi
	callq	_ZL15transparent_crcmPci
.Ltmp116:
	.loc	0 1516 13 is_stmt 1             # cpp/csmith1.cpp:1516:13
	cmpl	$0, -32(%rbp)
.Ltmp117:
	.loc	0 1516 13 is_stmt 0             # cpp/csmith1.cpp:1516:13
	je	.LBB0_75
# %bb.74:                               #   in Loop: Header=BB0_72 Depth=1
.Ltmp118:
	.loc	0 1516 56                       # cpp/csmith1.cpp:1516:56
	movl	-20(%rbp), %esi
	.loc	0 1516 31                       # cpp/csmith1.cpp:1516:31
	leaq	.L.str.17(%rip), %rdi
	movb	$0, %al
	callq	printf@PLT
.Ltmp119:
.LBB0_75:                               #   in Loop: Header=BB0_72 Depth=1
	.loc	0 1518 5 is_stmt 1              # cpp/csmith1.cpp:1518:5
	jmp	.LBB0_76
.Ltmp120:
.LBB0_76:                               #   in Loop: Header=BB0_72 Depth=1
	.loc	0 1513 25                       # cpp/csmith1.cpp:1513:25
	movl	-20(%rbp), %eax
	addl	$1, %eax
	movl	%eax, -20(%rbp)
	.loc	0 1513 5 is_stmt 0              # cpp/csmith1.cpp:1513:5
	jmp	.LBB0_72
.Ltmp121:
.LBB0_77:
	.loc	0 1519 21 is_stmt 1             # cpp/csmith1.cpp:1519:21
	movl	_ZL6g_1917(%rip), %eax
	movl	%eax, %edi
	.loc	0 1519 39 is_stmt 0             # cpp/csmith1.cpp:1519:39
	movl	-32(%rbp), %edx
	.loc	0 1519 5                        # cpp/csmith1.cpp:1519:5
	leaq	.L.str.84(%rip), %rsi
	callq	_ZL15transparent_crcmPci
	.loc	0 1520 21 is_stmt 1             # cpp/csmith1.cpp:1520:21
	movl	_ZL6g_1918(%rip), %eax
	movl	%eax, %edi
	.loc	0 1520 39 is_stmt 0             # cpp/csmith1.cpp:1520:39
	movl	-32(%rbp), %edx
	.loc	0 1520 5                        # cpp/csmith1.cpp:1520:5
	leaq	.L.str.85(%rip), %rsi
	callq	_ZL15transparent_crcmPci
	.loc	0 1521 21 is_stmt 1             # cpp/csmith1.cpp:1521:21
	movl	_ZL6g_1919(%rip), %eax
	movl	%eax, %edi
	.loc	0 1521 39 is_stmt 0             # cpp/csmith1.cpp:1521:39
	movl	-32(%rbp), %edx
	.loc	0 1521 5                        # cpp/csmith1.cpp:1521:5
	leaq	.L.str.86(%rip), %rsi
	callq	_ZL15transparent_crcmPci
	.loc	0 1522 21 is_stmt 1             # cpp/csmith1.cpp:1522:21
	movl	_ZL6g_1920(%rip), %eax
	movl	%eax, %edi
	.loc	0 1522 39 is_stmt 0             # cpp/csmith1.cpp:1522:39
	movl	-32(%rbp), %edx
	.loc	0 1522 5                        # cpp/csmith1.cpp:1522:5
	leaq	.L.str.87(%rip), %rsi
	callq	_ZL15transparent_crcmPci
	.loc	0 1523 21 is_stmt 1             # cpp/csmith1.cpp:1523:21
	movl	_ZL6g_1921(%rip), %eax
	movl	%eax, %edi
	.loc	0 1523 39 is_stmt 0             # cpp/csmith1.cpp:1523:39
	movl	-32(%rbp), %edx
	.loc	0 1523 5                        # cpp/csmith1.cpp:1523:5
	leaq	.L.str.88(%rip), %rsi
	callq	_ZL15transparent_crcmPci
.Ltmp122:
	.loc	0 1524 12 is_stmt 1             # cpp/csmith1.cpp:1524:12
	movl	$0, -20(%rbp)
.LBB0_78:                               # =>This Loop Header: Depth=1
                                        #     Child Loop BB0_80 Depth 2
.Ltmp123:
	.loc	0 1524 19 is_stmt 0             # cpp/csmith1.cpp:1524:19
	cmpl	$4, -20(%rbp)
.Ltmp124:
	.loc	0 1524 5                        # cpp/csmith1.cpp:1524:5
	jge	.LBB0_87
# %bb.79:                               #   in Loop: Header=BB0_78 Depth=1
.Ltmp125:
	.loc	0 1526 16 is_stmt 1             # cpp/csmith1.cpp:1526:16
	movl	$0, -24(%rbp)
.LBB0_80:                               #   Parent Loop BB0_78 Depth=1
                                        # =>  This Inner Loop Header: Depth=2
.Ltmp126:
	.loc	0 1526 23 is_stmt 0             # cpp/csmith1.cpp:1526:23
	cmpl	$9, -24(%rbp)
.Ltmp127:
	.loc	0 1526 9                        # cpp/csmith1.cpp:1526:9
	jge	.LBB0_85
# %bb.81:                               #   in Loop: Header=BB0_80 Depth=2
.Ltmp128:
	.loc	0 1528 17 is_stmt 1             # cpp/csmith1.cpp:1528:17
	cmpl	$0, -32(%rbp)
.Ltmp129:
	.loc	0 1528 17 is_stmt 0             # cpp/csmith1.cpp:1528:17
	je	.LBB0_83
# %bb.82:                               #   in Loop: Header=BB0_80 Depth=2
.Ltmp130:
	.loc	0 1528 76                       # cpp/csmith1.cpp:1528:76
	movl	-20(%rbp), %esi
	.loc	0 1528 79                       # cpp/csmith1.cpp:1528:79
	movl	-24(%rbp), %edx
	.loc	0 1528 82                       # cpp/csmith1.cpp:1528:82
	movslq	-20(%rbp), %rcx
	leaq	_ZL6g_1922(%rip), %rax
	imulq	$36, %rcx, %rcx
	addq	%rcx, %rax
	movslq	-24(%rbp), %rcx
	movl	(%rax,%rcx,4), %ecx
	.loc	0 1528 35                       # cpp/csmith1.cpp:1528:35
	leaq	.L.str.89(%rip), %rdi
	movb	$0, %al
	callq	printf@PLT
.Ltmp131:
.LBB0_83:                               #   in Loop: Header=BB0_80 Depth=2
	.loc	0 1529 29 is_stmt 1             # cpp/csmith1.cpp:1529:29
	movslq	-20(%rbp), %rcx
	leaq	_ZL6g_1922(%rip), %rax
	imulq	$36, %rcx, %rcx
	addq	%rcx, %rax
	movslq	-24(%rbp), %rcx
	movl	(%rax,%rcx,4), %eax
	movl	%eax, %edi
	.loc	0 1529 59 is_stmt 0             # cpp/csmith1.cpp:1529:59
	movl	-32(%rbp), %edx
	.loc	0 1529 13                       # cpp/csmith1.cpp:1529:13
	leaq	.L.str.90(%rip), %rsi
	callq	_ZL15transparent_crcmPci
.Ltmp132:
# %bb.84:                               #   in Loop: Header=BB0_80 Depth=2
	.loc	0 1526 29 is_stmt 1             # cpp/csmith1.cpp:1526:29
	movl	-24(%rbp), %eax
	addl	$1, %eax
	movl	%eax, -24(%rbp)
	.loc	0 1526 9 is_stmt 0              # cpp/csmith1.cpp:1526:9
	jmp	.LBB0_80
.Ltmp133:
.LBB0_85:                               #   in Loop: Header=BB0_78 Depth=1
	.loc	0 1531 5 is_stmt 1              # cpp/csmith1.cpp:1531:5
	jmp	.LBB0_86
.Ltmp134:
.LBB0_86:                               #   in Loop: Header=BB0_78 Depth=1
	.loc	0 1524 25                       # cpp/csmith1.cpp:1524:25
	movl	-20(%rbp), %eax
	addl	$1, %eax
	movl	%eax, -20(%rbp)
	.loc	0 1524 5 is_stmt 0              # cpp/csmith1.cpp:1524:5
	jmp	.LBB0_78
.Ltmp135:
.LBB0_87:
	.loc	0 1532 21 is_stmt 1             # cpp/csmith1.cpp:1532:21
	movl	_ZL6g_1923(%rip), %eax
	movl	%eax, %edi
	.loc	0 1532 39 is_stmt 0             # cpp/csmith1.cpp:1532:39
	movl	-32(%rbp), %edx
	.loc	0 1532 5                        # cpp/csmith1.cpp:1532:5
	leaq	.L.str.91(%rip), %rsi
	callq	_ZL15transparent_crcmPci
	.loc	0 1533 21 is_stmt 1             # cpp/csmith1.cpp:1533:21
	movl	_ZL6g_1924(%rip), %eax
	movl	%eax, %edi
	.loc	0 1533 39 is_stmt 0             # cpp/csmith1.cpp:1533:39
	movl	-32(%rbp), %edx
	.loc	0 1533 5                        # cpp/csmith1.cpp:1533:5
	leaq	.L.str.92(%rip), %rsi
	callq	_ZL15transparent_crcmPci
	.loc	0 1534 21 is_stmt 1             # cpp/csmith1.cpp:1534:21
	movl	_ZL6g_1925(%rip), %eax
	movl	%eax, %edi
	.loc	0 1534 39 is_stmt 0             # cpp/csmith1.cpp:1534:39
	movl	-32(%rbp), %edx
	.loc	0 1534 5                        # cpp/csmith1.cpp:1534:5
	leaq	.L.str.93(%rip), %rsi
	callq	_ZL15transparent_crcmPci
	.loc	0 1535 21 is_stmt 1             # cpp/csmith1.cpp:1535:21
	movl	_ZL6g_1926(%rip), %eax
	movl	%eax, %edi
	.loc	0 1535 39 is_stmt 0             # cpp/csmith1.cpp:1535:39
	movl	-32(%rbp), %edx
	.loc	0 1535 5                        # cpp/csmith1.cpp:1535:5
	leaq	.L.str.94(%rip), %rsi
	callq	_ZL15transparent_crcmPci
	.loc	0 1536 21 is_stmt 1             # cpp/csmith1.cpp:1536:21
	movl	_ZL6g_1927(%rip), %eax
	movl	%eax, %edi
	.loc	0 1536 39 is_stmt 0             # cpp/csmith1.cpp:1536:39
	movl	-32(%rbp), %edx
	.loc	0 1536 5                        # cpp/csmith1.cpp:1536:5
	leaq	.L.str.95(%rip), %rsi
	callq	_ZL15transparent_crcmPci
	.loc	0 1537 21 is_stmt 1             # cpp/csmith1.cpp:1537:21
	movl	_ZL6g_1928(%rip), %eax
	movl	%eax, %edi
	.loc	0 1537 39 is_stmt 0             # cpp/csmith1.cpp:1537:39
	movl	-32(%rbp), %edx
	.loc	0 1537 5                        # cpp/csmith1.cpp:1537:5
	leaq	.L.str.96(%rip), %rsi
	callq	_ZL15transparent_crcmPci
	.loc	0 1538 21 is_stmt 1             # cpp/csmith1.cpp:1538:21
	movl	_ZL6g_1929(%rip), %eax
	movl	%eax, %edi
	.loc	0 1538 39 is_stmt 0             # cpp/csmith1.cpp:1538:39
	movl	-32(%rbp), %edx
	.loc	0 1538 5                        # cpp/csmith1.cpp:1538:5
	leaq	.L.str.97(%rip), %rsi
	callq	_ZL15transparent_crcmPci
	.loc	0 1539 21 is_stmt 1             # cpp/csmith1.cpp:1539:21
	movl	_ZL6g_1930(%rip), %eax
	movl	%eax, %edi
	.loc	0 1539 39 is_stmt 0             # cpp/csmith1.cpp:1539:39
	movl	-32(%rbp), %edx
	.loc	0 1539 5                        # cpp/csmith1.cpp:1539:5
	leaq	.L.str.98(%rip), %rsi
	callq	_ZL15transparent_crcmPci
	.loc	0 1540 21 is_stmt 1             # cpp/csmith1.cpp:1540:21
	movl	_ZL6g_1931(%rip), %eax
	movl	%eax, %edi
	.loc	0 1540 39 is_stmt 0             # cpp/csmith1.cpp:1540:39
	movl	-32(%rbp), %edx
	.loc	0 1540 5                        # cpp/csmith1.cpp:1540:5
	leaq	.L.str.99(%rip), %rsi
	callq	_ZL15transparent_crcmPci
	.loc	0 1541 21 is_stmt 1             # cpp/csmith1.cpp:1541:21
	movl	_ZL6g_1932(%rip), %eax
	movl	%eax, %edi
	.loc	0 1541 39 is_stmt 0             # cpp/csmith1.cpp:1541:39
	movl	-32(%rbp), %edx
	.loc	0 1541 5                        # cpp/csmith1.cpp:1541:5
	leaq	.L.str.100(%rip), %rsi
	callq	_ZL15transparent_crcmPci
.Ltmp136:
	.loc	0 1542 12 is_stmt 1             # cpp/csmith1.cpp:1542:12
	movl	$0, -20(%rbp)
.LBB0_88:                               # =>This Inner Loop Header: Depth=1
.Ltmp137:
	.loc	0 1542 19 is_stmt 0             # cpp/csmith1.cpp:1542:19
	cmpl	$8, -20(%rbp)
.Ltmp138:
	.loc	0 1542 5                        # cpp/csmith1.cpp:1542:5
	jge	.LBB0_93
# %bb.89:                               #   in Loop: Header=BB0_88 Depth=1
.Ltmp139:
	.loc	0 1544 25 is_stmt 1             # cpp/csmith1.cpp:1544:25
	movslq	-20(%rbp), %rcx
	leaq	_ZL6g_1933(%rip), %rax
	movl	(%rax,%rcx,4), %eax
	movl	%eax, %edi
	.loc	0 1544 49 is_stmt 0             # cpp/csmith1.cpp:1544:49
	movl	-32(%rbp), %edx
	.loc	0 1544 9                        # cpp/csmith1.cpp:1544:9
	leaq	.L.str.101(%rip), %rsi
	callq	_ZL15transparent_crcmPci
.Ltmp140:
	.loc	0 1545 13 is_stmt 1             # cpp/csmith1.cpp:1545:13
	cmpl	$0, -32(%rbp)
.Ltmp141:
	.loc	0 1545 13 is_stmt 0             # cpp/csmith1.cpp:1545:13
	je	.LBB0_91
# %bb.90:                               #   in Loop: Header=BB0_88 Depth=1
.Ltmp142:
	.loc	0 1545 56                       # cpp/csmith1.cpp:1545:56
	movl	-20(%rbp), %esi
	.loc	0 1545 31                       # cpp/csmith1.cpp:1545:31
	leaq	.L.str.17(%rip), %rdi
	movb	$0, %al
	callq	printf@PLT
.Ltmp143:
.LBB0_91:                               #   in Loop: Header=BB0_88 Depth=1
	.loc	0 1547 5 is_stmt 1              # cpp/csmith1.cpp:1547:5
	jmp	.LBB0_92
.Ltmp144:
.LBB0_92:                               #   in Loop: Header=BB0_88 Depth=1
	.loc	0 1542 25                       # cpp/csmith1.cpp:1542:25
	movl	-20(%rbp), %eax
	addl	$1, %eax
	movl	%eax, -20(%rbp)
	.loc	0 1542 5 is_stmt 0              # cpp/csmith1.cpp:1542:5
	jmp	.LBB0_88
.Ltmp145:
.LBB0_93:
	.loc	0 1548 21 is_stmt 1             # cpp/csmith1.cpp:1548:21
	movl	_ZL6g_1934(%rip), %eax
	movl	%eax, %edi
	.loc	0 1548 39 is_stmt 0             # cpp/csmith1.cpp:1548:39
	movl	-32(%rbp), %edx
	.loc	0 1548 5                        # cpp/csmith1.cpp:1548:5
	leaq	.L.str.102(%rip), %rsi
	callq	_ZL15transparent_crcmPci
	.loc	0 1549 21 is_stmt 1             # cpp/csmith1.cpp:1549:21
	movl	_ZL6g_1935(%rip), %eax
	movl	%eax, %edi
	.loc	0 1549 39 is_stmt 0             # cpp/csmith1.cpp:1549:39
	movl	-32(%rbp), %edx
	.loc	0 1549 5                        # cpp/csmith1.cpp:1549:5
	leaq	.L.str.103(%rip), %rsi
	callq	_ZL15transparent_crcmPci
	.loc	0 1550 21 is_stmt 1             # cpp/csmith1.cpp:1550:21
	movl	_ZL6g_1936(%rip), %eax
	movl	%eax, %edi
	.loc	0 1550 39 is_stmt 0             # cpp/csmith1.cpp:1550:39
	movl	-32(%rbp), %edx
	.loc	0 1550 5                        # cpp/csmith1.cpp:1550:5
	leaq	.L.str.104(%rip), %rsi
	callq	_ZL15transparent_crcmPci
	.loc	0 1551 21 is_stmt 1             # cpp/csmith1.cpp:1551:21
	movl	_ZL6g_1937(%rip), %eax
	movl	%eax, %edi
	.loc	0 1551 39 is_stmt 0             # cpp/csmith1.cpp:1551:39
	movl	-32(%rbp), %edx
	.loc	0 1551 5                        # cpp/csmith1.cpp:1551:5
	leaq	.L.str.105(%rip), %rsi
	callq	_ZL15transparent_crcmPci
	.loc	0 1552 21 is_stmt 1             # cpp/csmith1.cpp:1552:21
	movl	_ZL6g_1938(%rip), %eax
	movl	%eax, %edi
	.loc	0 1552 39 is_stmt 0             # cpp/csmith1.cpp:1552:39
	movl	-32(%rbp), %edx
	.loc	0 1552 5                        # cpp/csmith1.cpp:1552:5
	leaq	.L.str.106(%rip), %rsi
	callq	_ZL15transparent_crcmPci
	.loc	0 1553 21 is_stmt 1             # cpp/csmith1.cpp:1553:21
	movl	_ZL6g_1939(%rip), %eax
	movl	%eax, %edi
	.loc	0 1553 39 is_stmt 0             # cpp/csmith1.cpp:1553:39
	movl	-32(%rbp), %edx
	.loc	0 1553 5                        # cpp/csmith1.cpp:1553:5
	leaq	.L.str.107(%rip), %rsi
	callq	_ZL15transparent_crcmPci
	.loc	0 1554 21 is_stmt 1             # cpp/csmith1.cpp:1554:21
	movl	_ZL6g_1940(%rip), %eax
	movl	%eax, %edi
	.loc	0 1554 39 is_stmt 0             # cpp/csmith1.cpp:1554:39
	movl	-32(%rbp), %edx
	.loc	0 1554 5                        # cpp/csmith1.cpp:1554:5
	leaq	.L.str.108(%rip), %rsi
	callq	_ZL15transparent_crcmPci
	.loc	0 1555 21 is_stmt 1             # cpp/csmith1.cpp:1555:21
	movl	_ZL6g_1941(%rip), %eax
	movl	%eax, %edi
	.loc	0 1555 39 is_stmt 0             # cpp/csmith1.cpp:1555:39
	movl	-32(%rbp), %edx
	.loc	0 1555 5                        # cpp/csmith1.cpp:1555:5
	leaq	.L.str.109(%rip), %rsi
	callq	_ZL15transparent_crcmPci
.Ltmp146:
	.loc	0 1556 12 is_stmt 1             # cpp/csmith1.cpp:1556:12
	movl	$0, -20(%rbp)
.LBB0_94:                               # =>This Loop Header: Depth=1
                                        #     Child Loop BB0_96 Depth 2
                                        #       Child Loop BB0_98 Depth 3
.Ltmp147:
	.loc	0 1556 19 is_stmt 0             # cpp/csmith1.cpp:1556:19
	cmpl	$4, -20(%rbp)
.Ltmp148:
	.loc	0 1556 5                        # cpp/csmith1.cpp:1556:5
	jge	.LBB0_107
# %bb.95:                               #   in Loop: Header=BB0_94 Depth=1
.Ltmp149:
	.loc	0 1558 16 is_stmt 1             # cpp/csmith1.cpp:1558:16
	movl	$0, -24(%rbp)
.LBB0_96:                               #   Parent Loop BB0_94 Depth=1
                                        # =>  This Loop Header: Depth=2
                                        #       Child Loop BB0_98 Depth 3
.Ltmp150:
	.loc	0 1558 23 is_stmt 0             # cpp/csmith1.cpp:1558:23
	cmpl	$8, -24(%rbp)
.Ltmp151:
	.loc	0 1558 9                        # cpp/csmith1.cpp:1558:9
	jge	.LBB0_105
# %bb.97:                               #   in Loop: Header=BB0_96 Depth=2
.Ltmp152:
	.loc	0 1560 20 is_stmt 1             # cpp/csmith1.cpp:1560:20
	movl	$0, -28(%rbp)
.LBB0_98:                               #   Parent Loop BB0_94 Depth=1
                                        #     Parent Loop BB0_96 Depth=2
                                        # =>    This Inner Loop Header: Depth=3
.Ltmp153:
	.loc	0 1560 27 is_stmt 0             # cpp/csmith1.cpp:1560:27
	cmpl	$4, -28(%rbp)
.Ltmp154:
	.loc	0 1560 13                       # cpp/csmith1.cpp:1560:13
	jge	.LBB0_103
# %bb.99:                               #   in Loop: Header=BB0_98 Depth=3
.Ltmp155:
	.loc	0 1562 33 is_stmt 1             # cpp/csmith1.cpp:1562:33
	movslq	-20(%rbp), %rcx
	leaq	_ZL6g_1942(%rip), %rax
	shlq	$7, %rcx
	addq	%rcx, %rax
	movslq	-24(%rbp), %rcx
	shlq	$4, %rcx
	addq	%rcx, %rax
	movslq	-28(%rbp), %rcx
	movl	(%rax,%rcx,4), %eax
	movl	%eax, %edi
	.loc	0 1562 69 is_stmt 0             # cpp/csmith1.cpp:1562:69
	movl	-32(%rbp), %edx
	.loc	0 1562 17                       # cpp/csmith1.cpp:1562:17
	leaq	.L.str.110(%rip), %rsi
	callq	_ZL15transparent_crcmPci
.Ltmp156:
	.loc	0 1563 21 is_stmt 1             # cpp/csmith1.cpp:1563:21
	cmpl	$0, -32(%rbp)
.Ltmp157:
	.loc	0 1563 21 is_stmt 0             # cpp/csmith1.cpp:1563:21
	je	.LBB0_101
# %bb.100:                              #   in Loop: Header=BB0_98 Depth=3
.Ltmp158:
	.loc	0 1563 72                       # cpp/csmith1.cpp:1563:72
	movl	-20(%rbp), %esi
	.loc	0 1563 75                       # cpp/csmith1.cpp:1563:75
	movl	-24(%rbp), %edx
	.loc	0 1563 78                       # cpp/csmith1.cpp:1563:78
	movl	-28(%rbp), %ecx
	.loc	0 1563 39                       # cpp/csmith1.cpp:1563:39
	leaq	.L.str.45(%rip), %rdi
	movb	$0, %al
	callq	printf@PLT
.Ltmp159:
.LBB0_101:                              #   in Loop: Header=BB0_98 Depth=3
	.loc	0 1565 13 is_stmt 1             # cpp/csmith1.cpp:1565:13
	jmp	.LBB0_102
.Ltmp160:
.LBB0_102:                              #   in Loop: Header=BB0_98 Depth=3
	.loc	0 1560 33                       # cpp/csmith1.cpp:1560:33
	movl	-28(%rbp), %eax
	addl	$1, %eax
	movl	%eax, -28(%rbp)
	.loc	0 1560 13 is_stmt 0             # cpp/csmith1.cpp:1560:13
	jmp	.LBB0_98
.Ltmp161:
.LBB0_103:                              #   in Loop: Header=BB0_96 Depth=2
	.loc	0 1566 9 is_stmt 1              # cpp/csmith1.cpp:1566:9
	jmp	.LBB0_104
.Ltmp162:
.LBB0_104:                              #   in Loop: Header=BB0_96 Depth=2
	.loc	0 1558 29                       # cpp/csmith1.cpp:1558:29
	movl	-24(%rbp), %eax
	addl	$1, %eax
	movl	%eax, -24(%rbp)
	.loc	0 1558 9 is_stmt 0              # cpp/csmith1.cpp:1558:9
	jmp	.LBB0_96
.Ltmp163:
.LBB0_105:                              #   in Loop: Header=BB0_94 Depth=1
	.loc	0 1567 5 is_stmt 1              # cpp/csmith1.cpp:1567:5
	jmp	.LBB0_106
.Ltmp164:
.LBB0_106:                              #   in Loop: Header=BB0_94 Depth=1
	.loc	0 1556 25                       # cpp/csmith1.cpp:1556:25
	movl	-20(%rbp), %eax
	addl	$1, %eax
	movl	%eax, -20(%rbp)
	.loc	0 1556 5 is_stmt 0              # cpp/csmith1.cpp:1556:5
	jmp	.LBB0_94
.Ltmp165:
.LBB0_107:
	.loc	0 1568 21 is_stmt 1             # cpp/csmith1.cpp:1568:21
	movl	_ZL6g_1943(%rip), %eax
	movl	%eax, %edi
	.loc	0 1568 39 is_stmt 0             # cpp/csmith1.cpp:1568:39
	movl	-32(%rbp), %edx
	.loc	0 1568 5                        # cpp/csmith1.cpp:1568:5
	leaq	.L.str.111(%rip), %rsi
	callq	_ZL15transparent_crcmPci
.Ltmp166:
	.loc	0 1569 12 is_stmt 1             # cpp/csmith1.cpp:1569:12
	movl	$0, -20(%rbp)
.LBB0_108:                              # =>This Inner Loop Header: Depth=1
.Ltmp167:
	.loc	0 1569 19 is_stmt 0             # cpp/csmith1.cpp:1569:19
	cmpl	$10, -20(%rbp)
.Ltmp168:
	.loc	0 1569 5                        # cpp/csmith1.cpp:1569:5
	jge	.LBB0_113
# %bb.109:                              #   in Loop: Header=BB0_108 Depth=1
.Ltmp169:
	.loc	0 1571 25 is_stmt 1             # cpp/csmith1.cpp:1571:25
	movslq	-20(%rbp), %rcx
	leaq	_ZL6g_1944(%rip), %rax
	movl	(%rax,%rcx,4), %eax
	movl	%eax, %edi
	.loc	0 1571 49 is_stmt 0             # cpp/csmith1.cpp:1571:49
	movl	-32(%rbp), %edx
	.loc	0 1571 9                        # cpp/csmith1.cpp:1571:9
	leaq	.L.str.112(%rip), %rsi
	callq	_ZL15transparent_crcmPci
.Ltmp170:
	.loc	0 1572 13 is_stmt 1             # cpp/csmith1.cpp:1572:13
	cmpl	$0, -32(%rbp)
.Ltmp171:
	.loc	0 1572 13 is_stmt 0             # cpp/csmith1.cpp:1572:13
	je	.LBB0_111
# %bb.110:                              #   in Loop: Header=BB0_108 Depth=1
.Ltmp172:
	.loc	0 1572 56                       # cpp/csmith1.cpp:1572:56
	movl	-20(%rbp), %esi
	.loc	0 1572 31                       # cpp/csmith1.cpp:1572:31
	leaq	.L.str.17(%rip), %rdi
	movb	$0, %al
	callq	printf@PLT
.Ltmp173:
.LBB0_111:                              #   in Loop: Header=BB0_108 Depth=1
	.loc	0 1574 5 is_stmt 1              # cpp/csmith1.cpp:1574:5
	jmp	.LBB0_112
.Ltmp174:
.LBB0_112:                              #   in Loop: Header=BB0_108 Depth=1
	.loc	0 1569 26                       # cpp/csmith1.cpp:1569:26
	movl	-20(%rbp), %eax
	addl	$1, %eax
	movl	%eax, -20(%rbp)
	.loc	0 1569 5 is_stmt 0              # cpp/csmith1.cpp:1569:5
	jmp	.LBB0_108
.Ltmp175:
.LBB0_113:
	.loc	0 1575 12 is_stmt 1             # cpp/csmith1.cpp:1575:12
	movl	$0, -20(%rbp)
.LBB0_114:                              # =>This Inner Loop Header: Depth=1
.Ltmp176:
	.loc	0 1575 19 is_stmt 0             # cpp/csmith1.cpp:1575:19
	cmpl	$7, -20(%rbp)
.Ltmp177:
	.loc	0 1575 5                        # cpp/csmith1.cpp:1575:5
	jge	.LBB0_119
# %bb.115:                              #   in Loop: Header=BB0_114 Depth=1
.Ltmp178:
	.loc	0 1577 25 is_stmt 1             # cpp/csmith1.cpp:1577:25
	movslq	-20(%rbp), %rcx
	leaq	_ZL6g_1945(%rip), %rax
	movl	(%rax,%rcx,4), %eax
	movl	%eax, %edi
	.loc	0 1577 49 is_stmt 0             # cpp/csmith1.cpp:1577:49
	movl	-32(%rbp), %edx
	.loc	0 1577 9                        # cpp/csmith1.cpp:1577:9
	leaq	.L.str.113(%rip), %rsi
	callq	_ZL15transparent_crcmPci
.Ltmp179:
	.loc	0 1578 13 is_stmt 1             # cpp/csmith1.cpp:1578:13
	cmpl	$0, -32(%rbp)
.Ltmp180:
	.loc	0 1578 13 is_stmt 0             # cpp/csmith1.cpp:1578:13
	je	.LBB0_117
# %bb.116:                              #   in Loop: Header=BB0_114 Depth=1
.Ltmp181:
	.loc	0 1578 56                       # cpp/csmith1.cpp:1578:56
	movl	-20(%rbp), %esi
	.loc	0 1578 31                       # cpp/csmith1.cpp:1578:31
	leaq	.L.str.17(%rip), %rdi
	movb	$0, %al
	callq	printf@PLT
.Ltmp182:
.LBB0_117:                              #   in Loop: Header=BB0_114 Depth=1
	.loc	0 1580 5 is_stmt 1              # cpp/csmith1.cpp:1580:5
	jmp	.LBB0_118
.Ltmp183:
.LBB0_118:                              #   in Loop: Header=BB0_114 Depth=1
	.loc	0 1575 25                       # cpp/csmith1.cpp:1575:25
	movl	-20(%rbp), %eax
	addl	$1, %eax
	movl	%eax, -20(%rbp)
	.loc	0 1575 5 is_stmt 0              # cpp/csmith1.cpp:1575:5
	jmp	.LBB0_114
.Ltmp184:
.LBB0_119:
	.loc	0 1581 21 is_stmt 1             # cpp/csmith1.cpp:1581:21
	movl	_ZL6g_1946(%rip), %eax
	movl	%eax, %edi
	.loc	0 1581 39 is_stmt 0             # cpp/csmith1.cpp:1581:39
	movl	-32(%rbp), %edx
	.loc	0 1581 5                        # cpp/csmith1.cpp:1581:5
	leaq	.L.str.114(%rip), %rsi
	callq	_ZL15transparent_crcmPci
	.loc	0 1582 21 is_stmt 1             # cpp/csmith1.cpp:1582:21
	movl	_ZL6g_1947(%rip), %eax
	movl	%eax, %edi
	.loc	0 1582 39 is_stmt 0             # cpp/csmith1.cpp:1582:39
	movl	-32(%rbp), %edx
	.loc	0 1582 5                        # cpp/csmith1.cpp:1582:5
	leaq	.L.str.115(%rip), %rsi
	callq	_ZL15transparent_crcmPci
	.loc	0 1583 21 is_stmt 1             # cpp/csmith1.cpp:1583:21
	movl	_ZL6g_1948(%rip), %eax
	movl	%eax, %edi
	.loc	0 1583 39 is_stmt 0             # cpp/csmith1.cpp:1583:39
	movl	-32(%rbp), %edx
	.loc	0 1583 5                        # cpp/csmith1.cpp:1583:5
	leaq	.L.str.116(%rip), %rsi
	callq	_ZL15transparent_crcmPci
	.loc	0 1584 21 is_stmt 1             # cpp/csmith1.cpp:1584:21
	movslq	_ZL6g_2024(%rip), %rdi
	.loc	0 1584 45 is_stmt 0             # cpp/csmith1.cpp:1584:45
	movl	-32(%rbp), %edx
	.loc	0 1584 5                        # cpp/csmith1.cpp:1584:5
	leaq	.L.str.117(%rip), %rsi
	callq	_ZL15transparent_crcmPci
	.loc	0 1585 21 is_stmt 1             # cpp/csmith1.cpp:1585:21
	movl	_ZL6g_2072(%rip), %eax
	movslq	%eax, %rdi
	.loc	0 1585 39 is_stmt 0             # cpp/csmith1.cpp:1585:39
	movl	-32(%rbp), %edx
	.loc	0 1585 5                        # cpp/csmith1.cpp:1585:5
	leaq	.L.str.118(%rip), %rsi
	callq	_ZL15transparent_crcmPci
	.loc	0 1586 39 is_stmt 1             # cpp/csmith1.cpp:1586:39
	movl	-32(%rbp), %edx
	.loc	0 1586 5 is_stmt 0              # cpp/csmith1.cpp:1586:5
	movabsq	$-7849629611674676947, %rdi     # imm = 0x9310837511BE512D
	leaq	.L.str.119(%rip), %rsi
	callq	_ZL15transparent_crcmPci
	.loc	0 1587 45 is_stmt 1             # cpp/csmith1.cpp:1587:45
	movl	-32(%rbp), %edx
	.loc	0 1587 5 is_stmt 0              # cpp/csmith1.cpp:1587:5
	movl	$15412, %edi                    # imm = 0x3C34
	leaq	.L.str.120(%rip), %rsi
	callq	_ZL15transparent_crcmPci
.Ltmp185:
	.loc	0 1588 12 is_stmt 1             # cpp/csmith1.cpp:1588:12
	movl	$0, -20(%rbp)
.LBB0_120:                              # =>This Loop Header: Depth=1
                                        #     Child Loop BB0_122 Depth 2
.Ltmp186:
	.loc	0 1588 19 is_stmt 0             # cpp/csmith1.cpp:1588:19
	cmpl	$1, -20(%rbp)
.Ltmp187:
	.loc	0 1588 5                        # cpp/csmith1.cpp:1588:5
	jge	.LBB0_129
# %bb.121:                              #   in Loop: Header=BB0_120 Depth=1
.Ltmp188:
	.loc	0 1590 16 is_stmt 1             # cpp/csmith1.cpp:1590:16
	movl	$0, -24(%rbp)
.LBB0_122:                              #   Parent Loop BB0_120 Depth=1
                                        # =>  This Inner Loop Header: Depth=2
.Ltmp189:
	.loc	0 1590 23 is_stmt 0             # cpp/csmith1.cpp:1590:23
	cmpl	$5, -24(%rbp)
.Ltmp190:
	.loc	0 1590 9                        # cpp/csmith1.cpp:1590:9
	jge	.LBB0_127
# %bb.123:                              #   in Loop: Header=BB0_122 Depth=2
.Ltmp191:
	.loc	0 1592 29 is_stmt 1             # cpp/csmith1.cpp:1592:29
	movslq	-20(%rbp), %rcx
	leaq	_ZL6g_2324(%rip), %rax
	imulq	$20, %rcx, %rcx
	addq	%rcx, %rax
	movslq	-24(%rbp), %rcx
	movl	(%rax,%rcx,4), %eax
	movl	%eax, %edi
	.loc	0 1592 59 is_stmt 0             # cpp/csmith1.cpp:1592:59
	movl	-32(%rbp), %edx
	.loc	0 1592 13                       # cpp/csmith1.cpp:1592:13
	leaq	.L.str.121(%rip), %rsi
	callq	_ZL15transparent_crcmPci
.Ltmp192:
	.loc	0 1593 17 is_stmt 1             # cpp/csmith1.cpp:1593:17
	cmpl	$0, -32(%rbp)
.Ltmp193:
	.loc	0 1593 17 is_stmt 0             # cpp/csmith1.cpp:1593:17
	je	.LBB0_125
# %bb.124:                              #   in Loop: Header=BB0_122 Depth=2
.Ltmp194:
	.loc	0 1593 64                       # cpp/csmith1.cpp:1593:64
	movl	-20(%rbp), %esi
	.loc	0 1593 67                       # cpp/csmith1.cpp:1593:67
	movl	-24(%rbp), %edx
	.loc	0 1593 35                       # cpp/csmith1.cpp:1593:35
	leaq	.L.str.122(%rip), %rdi
	movb	$0, %al
	callq	printf@PLT
.Ltmp195:
.LBB0_125:                              #   in Loop: Header=BB0_122 Depth=2
	.loc	0 1595 9 is_stmt 1              # cpp/csmith1.cpp:1595:9
	jmp	.LBB0_126
.Ltmp196:
.LBB0_126:                              #   in Loop: Header=BB0_122 Depth=2
	.loc	0 1590 29                       # cpp/csmith1.cpp:1590:29
	movl	-24(%rbp), %eax
	addl	$1, %eax
	movl	%eax, -24(%rbp)
	.loc	0 1590 9 is_stmt 0              # cpp/csmith1.cpp:1590:9
	jmp	.LBB0_122
.Ltmp197:
.LBB0_127:                              #   in Loop: Header=BB0_120 Depth=1
	.loc	0 1596 5 is_stmt 1              # cpp/csmith1.cpp:1596:5
	jmp	.LBB0_128
.Ltmp198:
.LBB0_128:                              #   in Loop: Header=BB0_120 Depth=1
	.loc	0 1588 25                       # cpp/csmith1.cpp:1588:25
	movl	-20(%rbp), %eax
	addl	$1, %eax
	movl	%eax, -20(%rbp)
	.loc	0 1588 5 is_stmt 0              # cpp/csmith1.cpp:1588:5
	jmp	.LBB0_120
.Ltmp199:
.LBB0_129:
	.loc	0 1597 21 is_stmt 1             # cpp/csmith1.cpp:1597:21
	movslq	_ZL6g_2354(%rip), %rdi
	.loc	0 1597 39 is_stmt 0             # cpp/csmith1.cpp:1597:39
	movl	-32(%rbp), %edx
	.loc	0 1597 5                        # cpp/csmith1.cpp:1597:5
	leaq	.L.str.123(%rip), %rsi
	callq	_ZL15transparent_crcmPci
	.loc	0 1598 21 is_stmt 1             # cpp/csmith1.cpp:1598:21
	movl	_ZL6g_2382(%rip), %eax
	movl	%eax, %eax
	movl	%eax, %edi
	.loc	0 1598 39 is_stmt 0             # cpp/csmith1.cpp:1598:39
	movl	-32(%rbp), %edx
	.loc	0 1598 5                        # cpp/csmith1.cpp:1598:5
	leaq	.L.str.124(%rip), %rsi
	callq	_ZL15transparent_crcmPci
.Ltmp200:
	.loc	0 1599 12 is_stmt 1             # cpp/csmith1.cpp:1599:12
	movl	$0, -20(%rbp)
.LBB0_130:                              # =>This Loop Header: Depth=1
                                        #     Child Loop BB0_132 Depth 2
.Ltmp201:
	.loc	0 1599 19 is_stmt 0             # cpp/csmith1.cpp:1599:19
	cmpl	$4, -20(%rbp)
.Ltmp202:
	.loc	0 1599 5                        # cpp/csmith1.cpp:1599:5
	jge	.LBB0_139
# %bb.131:                              #   in Loop: Header=BB0_130 Depth=1
.Ltmp203:
	.loc	0 1601 16 is_stmt 1             # cpp/csmith1.cpp:1601:16
	movl	$0, -24(%rbp)
.LBB0_132:                              #   Parent Loop BB0_130 Depth=1
                                        # =>  This Inner Loop Header: Depth=2
.Ltmp204:
	.loc	0 1601 23 is_stmt 0             # cpp/csmith1.cpp:1601:23
	cmpl	$6, -24(%rbp)
.Ltmp205:
	.loc	0 1601 9                        # cpp/csmith1.cpp:1601:9
	jge	.LBB0_137
# %bb.133:                              #   in Loop: Header=BB0_132 Depth=2
.Ltmp206:
	.loc	0 1603 29 is_stmt 1             # cpp/csmith1.cpp:1603:29
	movslq	-20(%rbp), %rcx
	leaq	_ZL6g_2427(%rip), %rax
	imulq	$12, %rcx, %rcx
	addq	%rcx, %rax
	movslq	-24(%rbp), %rcx
	movzwl	(%rax,%rcx,2), %eax
	movl	%eax, %edi
	.loc	0 1603 65 is_stmt 0             # cpp/csmith1.cpp:1603:65
	movl	-32(%rbp), %edx
	.loc	0 1603 13                       # cpp/csmith1.cpp:1603:13
	leaq	.L.str.125(%rip), %rsi
	callq	_ZL15transparent_crcmPci
.Ltmp207:
	.loc	0 1604 17 is_stmt 1             # cpp/csmith1.cpp:1604:17
	cmpl	$0, -32(%rbp)
.Ltmp208:
	.loc	0 1604 17 is_stmt 0             # cpp/csmith1.cpp:1604:17
	je	.LBB0_135
# %bb.134:                              #   in Loop: Header=BB0_132 Depth=2
.Ltmp209:
	.loc	0 1604 64                       # cpp/csmith1.cpp:1604:64
	movl	-20(%rbp), %esi
	.loc	0 1604 67                       # cpp/csmith1.cpp:1604:67
	movl	-24(%rbp), %edx
	.loc	0 1604 35                       # cpp/csmith1.cpp:1604:35
	leaq	.L.str.122(%rip), %rdi
	movb	$0, %al
	callq	printf@PLT
.Ltmp210:
.LBB0_135:                              #   in Loop: Header=BB0_132 Depth=2
	.loc	0 1606 9 is_stmt 1              # cpp/csmith1.cpp:1606:9
	jmp	.LBB0_136
.Ltmp211:
.LBB0_136:                              #   in Loop: Header=BB0_132 Depth=2
	.loc	0 1601 29                       # cpp/csmith1.cpp:1601:29
	movl	-24(%rbp), %eax
	addl	$1, %eax
	movl	%eax, -24(%rbp)
	.loc	0 1601 9 is_stmt 0              # cpp/csmith1.cpp:1601:9
	jmp	.LBB0_132
.Ltmp212:
.LBB0_137:                              #   in Loop: Header=BB0_130 Depth=1
	.loc	0 1607 5 is_stmt 1              # cpp/csmith1.cpp:1607:5
	jmp	.LBB0_138
.Ltmp213:
.LBB0_138:                              #   in Loop: Header=BB0_130 Depth=1
	.loc	0 1599 25                       # cpp/csmith1.cpp:1599:25
	movl	-20(%rbp), %eax
	addl	$1, %eax
	movl	%eax, -20(%rbp)
	.loc	0 1599 5 is_stmt 0              # cpp/csmith1.cpp:1599:5
	jmp	.LBB0_130
.Ltmp214:
.LBB0_139:
	.loc	0 1608 21 is_stmt 1             # cpp/csmith1.cpp:1608:21
	movswq	_ZL6g_2519(%rip), %rdi
	.loc	0 1608 39 is_stmt 0             # cpp/csmith1.cpp:1608:39
	movl	-32(%rbp), %edx
	.loc	0 1608 5                        # cpp/csmith1.cpp:1608:5
	leaq	.L.str.126(%rip), %rsi
	callq	_ZL15transparent_crcmPci
	.loc	0 1609 21 is_stmt 1             # cpp/csmith1.cpp:1609:21
	movw	_ZL6g_2599(%rip), %ax
	movzwl	%ax, %eax
	movl	%eax, %edi
	.loc	0 1609 39 is_stmt 0             # cpp/csmith1.cpp:1609:39
	movl	-32(%rbp), %edx
	.loc	0 1609 5                        # cpp/csmith1.cpp:1609:5
	leaq	.L.str.127(%rip), %rsi
	callq	_ZL15transparent_crcmPci
	.loc	0 1610 23 is_stmt 1             # cpp/csmith1.cpp:1610:23
	movl	_ZL13crc32_context(%rip), %eax
                                        # kill: def $rax killed $eax
	.loc	0 1610 37 is_stmt 0             # cpp/csmith1.cpp:1610:37
	movabsq	$4294967295, %rcx               # imm = 0xFFFFFFFF
	xorq	%rcx, %rax
	.loc	0 1610 23                       # cpp/csmith1.cpp:1610:23
	movl	%eax, %edi
	.loc	0 1610 53                       # cpp/csmith1.cpp:1610:53
	movl	-32(%rbp), %esi
	.loc	0 1610 5                        # cpp/csmith1.cpp:1610:5
	callq	_ZL17platform_main_endji
	.loc	0 1611 5 is_stmt 1              # cpp/csmith1.cpp:1611:5
	xorl	%eax, %eax
	.loc	0 1611 5 epilogue_begin is_stmt 0 # cpp/csmith1.cpp:1611:5
	addq	$48, %rsp
	popq	%rbp
	.cfi_def_cfa %rsp, 8
	retq
.Ltmp215:
.Lfunc_end0:
	.size	main, .Lfunc_end0-main
	.cfi_endproc
                                        # -- End function
	.p2align	4, 0x90                         # -- Begin function _ZL19platform_main_beginv
	.type	_ZL19platform_main_beginv,@function
_ZL19platform_main_beginv:              # @_ZL19platform_main_beginv
.Lfunc_begin1:
	.loc	5 44 0 is_stmt 1                # /usr/local/include/platform_generic.h:44:0
	.cfi_startproc
# %bb.0:
	pushq	%rbp
	.cfi_def_cfa_offset 16
	.cfi_offset %rbp, -16
	movq	%rsp, %rbp
	.cfi_def_cfa_register %rbp
.Ltmp216:
	.loc	5 46 1 prologue_end epilogue_begin # /usr/local/include/platform_generic.h:46:1
	popq	%rbp
	.cfi_def_cfa %rsp, 8
	retq
.Ltmp217:
.Lfunc_end1:
	.size	_ZL19platform_main_beginv, .Lfunc_end1-_ZL19platform_main_beginv
	.cfi_endproc
                                        # -- End function
	.p2align	4, 0x90                         # -- Begin function _ZL12crc32_gentabv
	.type	_ZL12crc32_gentabv,@function
_ZL12crc32_gentabv:                     # @_ZL12crc32_gentabv
.Lfunc_begin2:
	.loc	4 52 0                          # /usr/local/include/csmith.h:52:0
	.cfi_startproc
# %bb.0:
	pushq	%rbp
	.cfi_def_cfa_offset 16
	.cfi_offset %rbp, -16
	movq	%rsp, %rbp
	.cfi_def_cfa_register %rbp
.Ltmp218:
	.loc	4 54 17 prologue_end            # /usr/local/include/csmith.h:54:17
	movl	$-306674912, -8(%rbp)           # imm = 0xEDB88320
.Ltmp219:
	.loc	4 57 9                          # /usr/local/include/csmith.h:57:9
	movl	$0, -12(%rbp)
.LBB2_1:                                # =>This Loop Header: Depth=1
                                        #     Child Loop BB2_3 Depth 2
.Ltmp220:
	.loc	4 57 16 is_stmt 0               # /usr/local/include/csmith.h:57:16
	cmpl	$256, -12(%rbp)                 # imm = 0x100
.Ltmp221:
	.loc	4 57 2                          # /usr/local/include/csmith.h:57:2
	jge	.LBB2_11
# %bb.2:                                #   in Loop: Header=BB2_1 Depth=1
.Ltmp222:
	.loc	4 58 9 is_stmt 1                # /usr/local/include/csmith.h:58:9
	movl	-12(%rbp), %eax
	.loc	4 58 7 is_stmt 0                # /usr/local/include/csmith.h:58:7
	movl	%eax, -4(%rbp)
.Ltmp223:
	.loc	4 59 10 is_stmt 1               # /usr/local/include/csmith.h:59:10
	movl	$8, -16(%rbp)
.LBB2_3:                                #   Parent Loop BB2_1 Depth=1
                                        # =>  This Inner Loop Header: Depth=2
.Ltmp224:
	.loc	4 59 17 is_stmt 0               # /usr/local/include/csmith.h:59:17
	cmpl	$0, -16(%rbp)
.Ltmp225:
	.loc	4 59 3                          # /usr/local/include/csmith.h:59:3
	jle	.LBB2_9
# %bb.4:                                #   in Loop: Header=BB2_3 Depth=2
.Ltmp226:
	.loc	4 60 8 is_stmt 1                # /usr/local/include/csmith.h:60:8
	movl	-4(%rbp), %eax
	.loc	4 60 12 is_stmt 0               # /usr/local/include/csmith.h:60:12
	andl	$1, %eax
	.loc	4 60 8                          # /usr/local/include/csmith.h:60:8
	cmpl	$0, %eax
.Ltmp227:
	.loc	4 60 8                          # /usr/local/include/csmith.h:60:8
	je	.LBB2_6
# %bb.5:                                #   in Loop: Header=BB2_3 Depth=2
.Ltmp228:
	.loc	4 61 12 is_stmt 1               # /usr/local/include/csmith.h:61:12
	movl	-4(%rbp), %eax
	.loc	4 61 16 is_stmt 0               # /usr/local/include/csmith.h:61:16
	shrl	$1, %eax
	.loc	4 61 22                         # /usr/local/include/csmith.h:61:22
	xorl	$-306674912, %eax               # imm = 0xEDB88320
	.loc	4 61 9                          # /usr/local/include/csmith.h:61:9
	movl	%eax, -4(%rbp)
	.loc	4 62 4 is_stmt 1                # /usr/local/include/csmith.h:62:4
	jmp	.LBB2_7
.Ltmp229:
.LBB2_6:                                #   in Loop: Header=BB2_3 Depth=2
	.loc	4 63 9                          # /usr/local/include/csmith.h:63:9
	movl	-4(%rbp), %eax
	shrl	$1, %eax
	movl	%eax, -4(%rbp)
.Ltmp230:
.LBB2_7:                                #   in Loop: Header=BB2_3 Depth=2
	.loc	4 65 3                          # /usr/local/include/csmith.h:65:3
	jmp	.LBB2_8
.Ltmp231:
.LBB2_8:                                #   in Loop: Header=BB2_3 Depth=2
	.loc	4 59 23                         # /usr/local/include/csmith.h:59:23
	movl	-16(%rbp), %eax
	addl	$-1, %eax
	movl	%eax, -16(%rbp)
	.loc	4 59 3 is_stmt 0                # /usr/local/include/csmith.h:59:3
	jmp	.LBB2_3
.Ltmp232:
.LBB2_9:                                #   in Loop: Header=BB2_1 Depth=1
	.loc	4 66 18 is_stmt 1               # /usr/local/include/csmith.h:66:18
	movl	-4(%rbp), %edx
	.loc	4 66 3 is_stmt 0                # /usr/local/include/csmith.h:66:3
	movslq	-12(%rbp), %rcx
	.loc	4 66 16                         # /usr/local/include/csmith.h:66:16
	leaq	_ZL9crc32_tab(%rip), %rax
	movl	%edx, (%rax,%rcx,4)
.Ltmp233:
# %bb.10:                               #   in Loop: Header=BB2_1 Depth=1
	.loc	4 57 24 is_stmt 1               # /usr/local/include/csmith.h:57:24
	movl	-12(%rbp), %eax
	addl	$1, %eax
	movl	%eax, -12(%rbp)
	.loc	4 57 2 is_stmt 0                # /usr/local/include/csmith.h:57:2
	jmp	.LBB2_1
.Ltmp234:
.LBB2_11:
	.loc	4 68 1 epilogue_begin is_stmt 1 # /usr/local/include/csmith.h:68:1
	popq	%rbp
	.cfi_def_cfa %rsp, 8
	retq
.Ltmp235:
.Lfunc_end2:
	.size	_ZL12crc32_gentabv, .Lfunc_end2-_ZL12crc32_gentabv
	.cfi_endproc
                                        # -- End function
	.p2align	4, 0x90                         # -- Begin function _ZL6func_1v
	.type	_ZL6func_1v,@function
_ZL6func_1v:                            # @_ZL6func_1v
.Lfunc_begin3:
	.loc	0 291 0                         # cpp/csmith1.cpp:291:0
	.cfi_startproc
# %bb.0:
	pushq	%rbp
	.cfi_def_cfa_offset 16
	.cfi_offset %rbp, -16
	movq	%rsp, %rbp
	.cfi_def_cfa_register %rbp
	subq	$5552, %rsp                     # imm = 0x15B0
	movq	%fs:40, %rax
	movq	%rax, -8(%rbp)
.Ltmp236:
	.loc	0 292 21 prologue_end           # cpp/csmith1.cpp:292:21
	movl	$-207668134, -4704(%rbp)        # imm = 0xF39F3C5A
	.loc	0 293 13                        # cpp/csmith1.cpp:293:13
	movl	$-1795190700, -4820(%rbp)       # imm = 0x94FF9054
	.loc	0 294 13                        # cpp/csmith1.cpp:294:13
	movl	$-1, -4708(%rbp)
	.loc	0 295 13                        # cpp/csmith1.cpp:295:13
	movl	$-1689060711, -4824(%rbp)       # imm = 0x9B52FA99
	.loc	0 296 14                        # cpp/csmith1.cpp:296:14
	movl	$1272617434, -4828(%rbp)        # imm = 0x4BDA99DA
	.loc	0 297 21                        # cpp/csmith1.cpp:297:21
	leaq	_ZL6g_2199(%rip), %rax
	movq	%rax, -4720(%rbp)
	.loc	0 298 22                        # cpp/csmith1.cpp:298:22
	leaq	-4720(%rbp), %rax
	movq	%rax, -4840(%rbp)
	.loc	0 299 14                        # cpp/csmith1.cpp:299:14
	movabsq	$903025031038103379, %rax       # imm = 0xC88307B364FEF53
	movq	%rax, -4728(%rbp)
	.loc	0 300 14                        # cpp/csmith1.cpp:300:14
	leaq	-2032(%rbp), %rdi
	leaq	.L__const._ZL6func_1v.l_2323(%rip), %rsi
	movl	$2016, %edx                     # imm = 0x7E0
	callq	memcpy@PLT
	.loc	0 301 14                        # cpp/csmith1.cpp:301:14
	movq	$0, -4736(%rbp)
	.loc	0 302 15                        # cpp/csmith1.cpp:302:15
	leaq	-4736(%rbp), %rax
	movq	%rax, -4848(%rbp)
	.loc	0 303 15                        # cpp/csmith1.cpp:303:15
	leaq	_ZL5g_313(%rip), %rax
	movq	%rax, -4856(%rbp)
	.loc	0 304 18                        # cpp/csmith1.cpp:304:18
	movq	$0, -4864(%rbp)
	.loc	0 305 14                        # cpp/csmith1.cpp:305:14
	movq	.L__const._ZL6func_1v.l_2419(%rip), %rax
	movq	%rax, -2040(%rbp)
	.loc	0 306 15                        # cpp/csmith1.cpp:306:15
	movq	$0, -4872(%rbp)
	.loc	0 307 14                        # cpp/csmith1.cpp:307:14
	movw	$1, -4874(%rbp)
	.loc	0 308 15                        # cpp/csmith1.cpp:308:15
	movq	$0, -4888(%rbp)
	.loc	0 309 13                        # cpp/csmith1.cpp:309:13
	movl	$-1, -4892(%rbp)
	.loc	0 310 13                        # cpp/csmith1.cpp:310:13
	movl	$594264973, -4896(%rbp)         # imm = 0x236BC38D
	.loc	0 311 13                        # cpp/csmith1.cpp:311:13
	movl	$0, -4900(%rbp)
	.loc	0 312 13                        # cpp/csmith1.cpp:312:13
	movl	$-8, -4904(%rbp)
	.loc	0 313 14                        # cpp/csmith1.cpp:313:14
	movl	$-1, -4908(%rbp)
	.loc	0 314 15                        # cpp/csmith1.cpp:314:15
	movq	$0, -4920(%rbp)
	.loc	0 316 13                        # cpp/csmith1.cpp:316:13
	movl	$-1576952829, -4924(%rbp)       # imm = 0xA2019C03
	.loc	0 317 14                        # cpp/csmith1.cpp:317:14
	movabsq	$5682451316754310983, %rax      # imm = 0x4EDC1F5D9C976747
	movq	%rax, -4744(%rbp)
.Ltmp237:
	.loc	0 320 12                        # cpp/csmith1.cpp:320:12
	movl	$0, -4928(%rbp)
.LBB3_1:                                # =>This Loop Header: Depth=1
                                        #     Child Loop BB3_3 Depth 2
.Ltmp238:
	.loc	0 320 19 is_stmt 0              # cpp/csmith1.cpp:320:19
	cmpl	$1, -4928(%rbp)
.Ltmp239:
	.loc	0 320 5                         # cpp/csmith1.cpp:320:5
	jge	.LBB3_8
# %bb.2:                                #   in Loop: Header=BB3_1 Depth=1
.Ltmp240:
	.loc	0 322 16 is_stmt 1              # cpp/csmith1.cpp:322:16
	movl	$0, -4932(%rbp)
.LBB3_3:                                #   Parent Loop BB3_1 Depth=1
                                        # =>  This Inner Loop Header: Depth=2
.Ltmp241:
	.loc	0 322 23 is_stmt 0              # cpp/csmith1.cpp:322:23
	cmpl	$10, -4932(%rbp)
.Ltmp242:
	.loc	0 322 9                         # cpp/csmith1.cpp:322:9
	jge	.LBB3_6
# %bb.4:                                #   in Loop: Header=BB3_3 Depth=2
.Ltmp243:
	.loc	0 323 13 is_stmt 1              # cpp/csmith1.cpp:323:13
	movslq	-4928(%rbp), %rcx
	leaq	-2128(%rbp), %rax
	imulq	$80, %rcx, %rcx
	addq	%rcx, %rax
	movslq	-4932(%rbp), %rcx
	.loc	0 323 26 is_stmt 0              # cpp/csmith1.cpp:323:26
	movabsq	$3399871360421987074, %rdx      # imm = 0x2F2EC4FD2FFA0302
	movq	%rdx, (%rax,%rcx,8)
# %bb.5:                                #   in Loop: Header=BB3_3 Depth=2
	.loc	0 322 30 is_stmt 1              # cpp/csmith1.cpp:322:30
	movl	-4932(%rbp), %eax
	addl	$1, %eax
	movl	%eax, -4932(%rbp)
	.loc	0 322 9 is_stmt 0               # cpp/csmith1.cpp:322:9
	jmp	.LBB3_3
.Ltmp244:
.LBB3_6:                                #   in Loop: Header=BB3_1 Depth=1
	.loc	0 324 5 is_stmt 1               # cpp/csmith1.cpp:324:5
	jmp	.LBB3_7
.Ltmp245:
.LBB3_7:                                #   in Loop: Header=BB3_1 Depth=1
	.loc	0 320 25                        # cpp/csmith1.cpp:320:25
	movl	-4928(%rbp), %eax
	addl	$1, %eax
	movl	%eax, -4928(%rbp)
	.loc	0 320 5 is_stmt 0               # cpp/csmith1.cpp:320:5
	jmp	.LBB3_1
.Ltmp246:
.LBB3_8:
	.loc	0 325 12 is_stmt 1              # cpp/csmith1.cpp:325:12
	movl	$0, -4928(%rbp)
.LBB3_9:                                # =>This Inner Loop Header: Depth=1
.Ltmp247:
	.loc	0 325 19 is_stmt 0              # cpp/csmith1.cpp:325:19
	cmpl	$6, -4928(%rbp)
.Ltmp248:
	.loc	0 325 5                         # cpp/csmith1.cpp:325:5
	jge	.LBB3_12
# %bb.10:                               #   in Loop: Header=BB3_9 Depth=1
.Ltmp249:
	.loc	0 326 9 is_stmt 1               # cpp/csmith1.cpp:326:9
	movslq	-4928(%rbp), %rax
	.loc	0 326 19 is_stmt 0              # cpp/csmith1.cpp:326:19
	movl	$2087786319, -2160(%rbp,%rax,4) # imm = 0x7C71174F
# %bb.11:                               #   in Loop: Header=BB3_9 Depth=1
	.loc	0 325 25 is_stmt 1              # cpp/csmith1.cpp:325:25
	movl	-4928(%rbp), %eax
	addl	$1, %eax
	movl	%eax, -4928(%rbp)
	.loc	0 325 5 is_stmt 0               # cpp/csmith1.cpp:325:5
	jmp	.LBB3_9
.Ltmp250:
.LBB3_12:
	.loc	0 327 14 is_stmt 1              # cpp/csmith1.cpp:327:14
	movl	$0, _ZL3g_2(%rip)
.LBB3_13:                               # =>This Loop Header: Depth=1
                                        #     Child Loop BB3_15 Depth 2
.Ltmp251:
	.loc	0 327 24 is_stmt 0              # cpp/csmith1.cpp:327:24
	cmpl	$7, _ZL3g_2(%rip)
.Ltmp252:
	.loc	0 327 5                         # cpp/csmith1.cpp:327:5
	jne	.LBB3_22
# %bb.14:                               #   in Loop: Header=BB3_13 Depth=1
.Ltmp253:
	.loc	0 329 18 is_stmt 1              # cpp/csmith1.cpp:329:18
	movw	$-3, -4938(%rbp)
	.loc	0 330 17                        # cpp/csmith1.cpp:330:17
	movl	$6, -4944(%rbp)
	.loc	0 331 17                        # cpp/csmith1.cpp:331:17
	movl	$7, -4748(%rbp)
	.loc	0 332 18                        # cpp/csmith1.cpp:332:18
	leaq	_ZL5g_149(%rip), %rax
	addq	$56, %rax
	movq	%rax, -4952(%rbp)
	.loc	0 333 18                        # cpp/csmith1.cpp:333:18
	leaq	-4748(%rbp), %rax
	movq	%rax, -4960(%rbp)
	.loc	0 334 18                        # cpp/csmith1.cpp:334:18
	leaq	_ZL5g_422(%rip), %rax
	addq	$4, %rax
	movq	%rax, -4968(%rbp)
	.loc	0 335 18                        # cpp/csmith1.cpp:335:18
	leaq	-4708(%rbp), %rax
	movq	%rax, -4976(%rbp)
	.loc	0 336 18                        # cpp/csmith1.cpp:336:18
	leaq	_ZL5g_422(%rip), %rax
	movq	%rax, -4984(%rbp)
	.loc	0 337 18                        # cpp/csmith1.cpp:337:18
	leaq	-4748(%rbp), %rax
	movq	%rax, -4992(%rbp)
	.loc	0 338 18                        # cpp/csmith1.cpp:338:18
	leaq	-2448(%rbp), %rdi
	leaq	.L__const._ZL6func_1v.l_2300(%rip), %rsi
	movl	$288, %edx                      # imm = 0x120
	callq	memcpy@PLT
.Ltmp254:
	.loc	0 340 18                        # cpp/csmith1.cpp:340:18
	movl	$12, _ZL3g_5(%rip)
.LBB3_15:                               #   Parent Loop BB3_13 Depth=1
                                        # =>  This Inner Loop Header: Depth=2
.Ltmp255:
	.loc	0 340 29 is_stmt 0              # cpp/csmith1.cpp:340:29
	cmpl	$-3, _ZL3g_5(%rip)
.Ltmp256:
	.loc	0 340 9                         # cpp/csmith1.cpp:340:9
	jl	.LBB3_18
# %bb.16:                               #   in Loop: Header=BB3_15 Depth=2
.Ltmp257:
	.loc	0 342 21 is_stmt 1              # cpp/csmith1.cpp:342:21
	movw	$30679, -5002(%rbp)             # imm = 0x77D7
	.loc	0 343 22                        # cpp/csmith1.cpp:343:22
	leaq	-2576(%rbp), %rdi
	leaq	.L__const._ZL6func_1v.l_1138(%rip), %rsi
	movl	$120, %edx
	callq	memcpy@PLT
	.loc	0 344 22                        # cpp/csmith1.cpp:344:22
	movw	$-1, -5004(%rbp)
	.loc	0 345 22                        # cpp/csmith1.cpp:345:22
	movabsq	$6970159599675675478, %rax      # imm = 0x60BAFB39F6729356
	movq	%rax, -5016(%rbp)
.Ltmp258:
# %bb.17:                               #   in Loop: Header=BB3_15 Depth=2
	.loc	0 340 71                        # cpp/csmith1.cpp:340:71
	movslq	_ZL3g_5(%rip), %rdi
	.loc	0 340 45 is_stmt 0              # cpp/csmith1.cpp:340:45
	movl	$7, %esi
	callq	_ZL25safe_sub_func_int64_t_s_sll
                                        # kill: def $eax killed $eax killed $rax
	.loc	0 340 43                        # cpp/csmith1.cpp:340:43
	movl	%eax, _ZL3g_5(%rip)
	.loc	0 340 9                         # cpp/csmith1.cpp:340:9
	jmp	.LBB3_15
.Ltmp259:
.LBB3_18:                               #   in Loop: Header=BB3_13 Depth=1
	.loc	0 348 16 is_stmt 1              # cpp/csmith1.cpp:348:16
	movq	_ZL5g_139(%rip), %rax
	.loc	0 348 15 is_stmt 0              # cpp/csmith1.cpp:348:15
	movq	(%rax), %rax
	.loc	0 348 13                        # cpp/csmith1.cpp:348:13
	cmpl	$0, (%rax)
.Ltmp260:
	.loc	0 348 13                        # cpp/csmith1.cpp:348:13
	je	.LBB3_20
# %bb.19:
.Ltmp261:
	.loc	0 349 13 is_stmt 1              # cpp/csmith1.cpp:349:13
	jmp	.LBB3_22
.Ltmp262:
.LBB3_20:                               #   in Loop: Header=BB3_13 Depth=1
	.loc	0 350 15                        # cpp/csmith1.cpp:350:15
	movl	-4828(%rbp), %eax
	addl	$1, %eax
	movl	%eax, -4828(%rbp)
.Ltmp263:
# %bb.21:                               #   in Loop: Header=BB3_13 Depth=1
	.loc	0 327 31                        # cpp/csmith1.cpp:327:31
	movl	_ZL3g_2(%rip), %eax
	addl	$1, %eax
	movl	%eax, _ZL3g_2(%rip)
	.loc	0 327 5 is_stmt 0               # cpp/csmith1.cpp:327:5
	jmp	.LBB3_13
.Ltmp264:
.LBB3_22:
	.loc	0 352 23 is_stmt 1              # cpp/csmith1.cpp:352:23
	movslq	-4824(%rbp), %rax
	movq	%rax, -5384(%rbp)               # 8-byte Spill
	.loc	0 352 92 is_stmt 0              # cpp/csmith1.cpp:352:92
	movb	$1, %al
	cmpl	$0, -4704(%rbp)
	movb	%al, -5369(%rbp)                # 1-byte Spill
	.loc	0 352 100                       # cpp/csmith1.cpp:352:100
	jne	.LBB3_24
# %bb.23:
	.loc	0 352 160                       # cpp/csmith1.cpp:352:160
	movl	-4828(%rbp), %eax
                                        # kill: def $rax killed $eax
	movq	%rax, -5392(%rbp)               # 8-byte Spill
	.loc	0 352 198                       # cpp/csmith1.cpp:352:198
	movl	_ZL6g_1931(%rip), %eax
                                        # kill: def $al killed $al killed $eax
	movb	%al, -5393(%rbp)                # 1-byte Spill
	.loc	0 352 320                       # cpp/csmith1.cpp:352:320
	movq	_ZL6g_2025(%rip), %rax
	.loc	0 352 327                       # cpp/csmith1.cpp:352:327
	cmpq	-4840(%rbp), %rax
	setne	%cl
	.loc	0 352 319                       # cpp/csmith1.cpp:352:319
	andb	$1, %cl
	.loc	0 352 350                       # cpp/csmith1.cpp:352:350
	movl	-4824(%rbp), %eax
                                        # kill: def $al killed $al killed $eax
	.loc	0 352 293                       # cpp/csmith1.cpp:352:293
	movzbl	%cl, %edi
	movzbl	%al, %esi
	callq	_ZL25safe_mul_func_uint8_t_u_uhh
	.loc	0 352 292                       # cpp/csmith1.cpp:352:292
	movzbl	%al, %eax
	movw	%ax, %cx
	.loc	0 352 360                       # cpp/csmith1.cpp:352:360
	movq	-4728(%rbp), %rax
                                        # kill: def $ax killed $ax killed $rax
	.loc	0 352 265                       # cpp/csmith1.cpp:352:265
	movzwl	%cx, %edi
	movzwl	%ax, %esi
	callq	_ZL26safe_div_func_uint16_t_u_utt
	.loc	0 352 264                       # cpp/csmith1.cpp:352:264
	movzwl	%ax, %edi
	.loc	0 352 375                       # cpp/csmith1.cpp:352:375
	movl	-4704(%rbp), %esi
	.loc	0 352 237                       # cpp/csmith1.cpp:352:237
	callq	_ZL26safe_add_func_uint32_t_u_ujj
                                        # kill: def $ax killed $ax killed $eax
	.loc	0 352 207                       # cpp/csmith1.cpp:352:207
	movl	$4, %esi
	movswl	%ax, %edi
	callq	_ZL28safe_lshift_func_int16_t_s_usj
	movb	-5393(%rbp), %cl                # 1-byte Reload
                                        # kill: def $al killed $al killed $ax
	.loc	0 352 172                       # cpp/csmith1.cpp:352:172
	movzbl	%cl, %edi
	movzbl	%al, %esi
	callq	_ZL25safe_add_func_uint8_t_u_uhh
                                        # kill: def $cl killed $al
	movq	-5392(%rbp), %rax               # 8-byte Reload
	.loc	0 352 167                       # cpp/csmith1.cpp:352:167
	cmpq	$7, %rax
	sete	%al
	.loc	0 352 159                       # cpp/csmith1.cpp:352:159
	andb	$1, %al
	.loc	0 352 130                       # cpp/csmith1.cpp:352:130
	movl	$1, %esi
	movzbl	%al, %edi
	callq	_ZL28safe_lshift_func_uint8_t_u_shi
	movb	%al, %cl
	.loc	0 352 401                       # cpp/csmith1.cpp:352:401
	movl	-4828(%rbp), %eax
                                        # kill: def $al killed $al killed $eax
	.loc	0 352 104                       # cpp/csmith1.cpp:352:104
	movsbl	%cl, %edi
	movsbl	%al, %esi
	callq	_ZL24safe_sub_func_int8_t_s_saa
	.loc	0 352 103                       # cpp/csmith1.cpp:352:103
	cmpb	$0, %al
	setne	%al
	movb	%al, -5369(%rbp)                # 1-byte Spill
.LBB3_24:
	.loc	0 0 103                         # cpp/csmith1.cpp:0:103
	movb	-5369(%rbp), %al                # 1-byte Reload
	.loc	0 352 91                        # cpp/csmith1.cpp:352:91
	andb	$1, %al
	movzbl	%al, %eax
	movl	%eax, %esi
	.loc	0 352 34                        # cpp/csmith1.cpp:352:34
	movabsq	$7838281458710188276, %rdi      # imm = 0x6CC72B752BF390F4
	callq	_ZL26safe_add_func_uint64_t_u_umm
	movq	%rax, %rcx
	movq	-5384(%rbp), %rax               # 8-byte Reload
	.loc	0 352 30                        # cpp/csmith1.cpp:352:30
	cmpq	%rcx, %rax
	setae	%al
	.loc	0 352 22                        # cpp/csmith1.cpp:352:22
	andb	$1, %al
	movzbl	%al, %eax
	.loc	0 352 19                        # cpp/csmith1.cpp:352:19
	andl	-4820(%rbp), %eax
	movl	%eax, -4820(%rbp)
.Ltmp265:
	.loc	0 352 9                         # cpp/csmith1.cpp:352:9
	movb	$1, %al
	testb	$1, %al
	jne	.LBB3_25
	jmp	.LBB3_91
.LBB3_25:
.Ltmp266:
	.loc	0 354 17 is_stmt 1              # cpp/csmith1.cpp:354:17
	movw	$14316, -5030(%rbp)             # imm = 0x37EC
	.loc	0 355 18                        # cpp/csmith1.cpp:355:18
	leaq	_ZL5g_744(%rip), %rax
	movq	%rax, -5040(%rbp)
	.loc	0 356 18                        # cpp/csmith1.cpp:356:18
	leaq	_ZL5g_422(%rip), %rax
	movq	%rax, -4760(%rbp)
	.loc	0 357 17                        # cpp/csmith1.cpp:357:17
	movw	$-6, -5042(%rbp)
	.loc	0 358 19                        # cpp/csmith1.cpp:358:19
	leaq	_ZL5g_837(%rip), %rax
	movq	%rax, -5056(%rbp)
	.loc	0 359 27                        # cpp/csmith1.cpp:359:27
	movl	$569081037, -4768(%rbp)         # imm = 0x21EB7CCD
	.loc	0 360 19                        # cpp/csmith1.cpp:360:19
	leaq	_ZL5g_338(%rip), %rax
	movq	%rax, -5064(%rbp)
	.loc	0 361 19                        # cpp/csmith1.cpp:361:19
	leaq	_ZL6g_1487(%rip), %rax
	movq	%rax, -5072(%rbp)
	.loc	0 362 21                        # cpp/csmith1.cpp:362:21
	leaq	_ZL6g_2175(%rip), %rax
	movq	%rax, -4776(%rbp)
	.loc	0 363 38                        # cpp/csmith1.cpp:363:38
	leaq	-4776(%rbp), %rax
	movq	%rax, -2624(%rbp)
	leaq	-4776(%rbp), %rax
	movq	%rax, -2616(%rbp)
	.loc	0 363 56 is_stmt 0              # cpp/csmith1.cpp:363:56
	leaq	-4776(%rbp), %rax
	movq	%rax, -2608(%rbp)
	leaq	-4776(%rbp), %rax
	movq	%rax, -2600(%rbp)
	.loc	0 363 74                        # cpp/csmith1.cpp:363:74
	leaq	-4776(%rbp), %rax
	movq	%rax, -2592(%rbp)
	leaq	-4776(%rbp), %rax
	movq	%rax, -2584(%rbp)
	.loc	0 364 37 is_stmt 1              # cpp/csmith1.cpp:364:37
	leaq	-2624(%rbp), %rax
	addq	$16, %rax
	.loc	0 364 35 is_stmt 0              # cpp/csmith1.cpp:364:35
	movq	%rax, -2672(%rbp)
	.loc	0 364 51                        # cpp/csmith1.cpp:364:51
	leaq	-2624(%rbp), %rax
	addq	$16, %rax
	.loc	0 364 35                        # cpp/csmith1.cpp:364:35
	movq	%rax, -2664(%rbp)
	.loc	0 364 65                        # cpp/csmith1.cpp:364:65
	leaq	-2624(%rbp), %rax
	addq	$32, %rax
	.loc	0 364 35                        # cpp/csmith1.cpp:364:35
	movq	%rax, -2656(%rbp)
	.loc	0 364 79                        # cpp/csmith1.cpp:364:79
	leaq	-2624(%rbp), %rax
	addq	$16, %rax
	.loc	0 364 35                        # cpp/csmith1.cpp:364:35
	movq	%rax, -2648(%rbp)
	.loc	0 364 93                        # cpp/csmith1.cpp:364:93
	leaq	-2624(%rbp), %rax
	addq	$16, %rax
	.loc	0 364 35                        # cpp/csmith1.cpp:364:35
	movq	%rax, -2640(%rbp)
	.loc	0 364 107                       # cpp/csmith1.cpp:364:107
	leaq	-2624(%rbp), %rax
	addq	$32, %rax
	.loc	0 364 35                        # cpp/csmith1.cpp:364:35
	movq	%rax, -2632(%rbp)
	.loc	0 365 20 is_stmt 1              # cpp/csmith1.cpp:365:20
	leaq	_ZL6g_1117(%rip), %rax
	movq	%rax, -5080(%rbp)
	.loc	0 366 17                        # cpp/csmith1.cpp:366:17
	movl	$252273539, -5084(%rbp)         # imm = 0xF096383
	.loc	0 367 17                        # cpp/csmith1.cpp:367:17
	movl	$-1732997855, -5088(%rbp)       # imm = 0x98B48D21
	.loc	0 368 17                        # cpp/csmith1.cpp:368:17
	movl	$-638229174, -5092(%rbp)        # imm = 0xD9F5654A
	.loc	0 369 17                        # cpp/csmith1.cpp:369:17
	movl	$-1478310357, -5096(%rbp)       # imm = 0xA7E2C62B
	.loc	0 370 17                        # cpp/csmith1.cpp:370:17
	movl	$-1343789299, -5100(%rbp)       # imm = 0xAFE7670D
	.loc	0 372 35                        # cpp/csmith1.cpp:372:35
	movl	_ZL3g_5(%rip), %esi
	.loc	0 372 9 is_stmt 0               # cpp/csmith1.cpp:372:9
	leaq	.L.str.128(%rip), %rdi
	movb	$0, %al
	callq	printf@PLT
	.loc	0 373 55 is_stmt 1              # cpp/csmith1.cpp:373:55
	movl	_ZL6g_1946(%rip), %eax
                                        # kill: def $ax killed $ax killed $eax
	.loc	0 373 25 is_stmt 0              # cpp/csmith1.cpp:373:25
	movl	$7, %esi
	movzwl	%ax, %edi
	callq	_ZL29safe_rshift_func_uint16_t_u_sti
	.loc	0 373 24                        # cpp/csmith1.cpp:373:24
	movzwl	%ax, %eax
	.loc	0 373 70                        # cpp/csmith1.cpp:373:70
	movswl	-5030(%rbp), %ecx
	.loc	0 373 67                        # cpp/csmith1.cpp:373:67
	cmpl	%ecx, %eax
	setne	%al
	.loc	0 373 23                        # cpp/csmith1.cpp:373:23
	andb	$1, %al
	movzbl	%al, %eax
	movl	%eax, -5416(%rbp)               # 4-byte Spill
	.loc	0 373 135                       # cpp/csmith1.cpp:373:135
	movq	_ZL6g_1680(%rip), %rax
	.loc	0 373 134                       # cpp/csmith1.cpp:373:134
	movq	(%rax), %rax
	.loc	0 373 133                       # cpp/csmith1.cpp:373:133
	movq	(%rax), %rax
	.loc	0 373 132                       # cpp/csmith1.cpp:373:132
	movq	(%rax), %rax
	.loc	0 373 131                       # cpp/csmith1.cpp:373:131
	movl	(%rax), %eax
	.loc	0 373 127                       # cpp/csmith1.cpp:373:127
	andl	-4708(%rbp), %eax
	movl	%eax, -4708(%rbp)
	.loc	0 373 119                       # cpp/csmith1.cpp:373:119
	cltq
	.loc	0 373 117                       # cpp/csmith1.cpp:373:117
	andq	$-2, %rax
                                        # kill: def $ax killed $ax killed $rax
	.loc	0 373 149                       # cpp/csmith1.cpp:373:149
	movq	-5040(%rbp), %rcx
	.loc	0 373 157                       # cpp/csmith1.cpp:373:157
	movw	$24035, (%rcx)                  # imm = 0x5DE3
	.loc	0 373 83                        # cpp/csmith1.cpp:373:83
	movl	$24035, %esi                    # imm = 0x5DE3
	movzwl	%ax, %edi
	callq	_ZL26safe_mul_func_uint16_t_u_utt
	movl	-5416(%rbp), %ecx               # 4-byte Reload
	.loc	0 373 82                        # cpp/csmith1.cpp:373:82
	movzwl	%ax, %eax
                                        # kill: def $rax killed $eax
	.loc	0 373 184                       # cpp/csmith1.cpp:373:184
	movl	_ZL6g_1899(%rip), %edx
                                        # kill: def $rdx killed $edx
	.loc	0 373 182                       # cpp/csmith1.cpp:373:182
	movq	%rdx, _ZL6g_1221(%rip)
	.loc	0 373 204                       # cpp/csmith1.cpp:373:204
	xorl	%esi, %esi
                                        # kill: def $rsi killed $esi
	cmpq	-4760(%rbp), %rsi
	sete	%sil
	.loc	0 373 195                       # cpp/csmith1.cpp:373:195
	andb	$1, %sil
	movzbl	%sil, %esi
                                        # kill: def $rsi killed $esi
	.loc	0 373 192                       # cpp/csmith1.cpp:373:192
	cmpq	%rsi, %rdx
	setne	%dl
	.loc	0 373 173                       # cpp/csmith1.cpp:373:173
	andb	$1, %dl
	movzbl	%dl, %edx
                                        # kill: def $rdx killed $edx
	.loc	0 373 216                       # cpp/csmith1.cpp:373:216
	orq	$29, %rdx
	.loc	0 373 170                       # cpp/csmith1.cpp:373:170
	andq	%rdx, %rax
	.loc	0 373 226                       # cpp/csmith1.cpp:373:226
	cmpq	$1, %rax
	sete	%al
	.loc	0 373 80                        # cpp/csmith1.cpp:373:80
	andb	$1, %al
	movzbl	%al, %eax
	.loc	0 373 78                        # cpp/csmith1.cpp:373:78
	xorl	%eax, %ecx
	.loc	0 373 12                        # cpp/csmith1.cpp:373:12
	movq	_ZL5g_139(%rip), %rax
	.loc	0 373 11                        # cpp/csmith1.cpp:373:11
	movq	(%rax), %rax
	.loc	0 373 19                        # cpp/csmith1.cpp:373:19
	andl	(%rax), %ecx
	movl	%ecx, (%rax)
	.loc	0 374 35 is_stmt 1              # cpp/csmith1.cpp:374:35
	movl	_ZL3g_5(%rip), %esi
	.loc	0 374 9 is_stmt 0               # cpp/csmith1.cpp:374:9
	leaq	.L.str.129(%rip), %rdi
	movb	$0, %al
	callq	printf@PLT
	.loc	0 375 123 is_stmt 1             # cpp/csmith1.cpp:375:123
	movq	-4760(%rbp), %rax
	.loc	0 375 122 is_stmt 0             # cpp/csmith1.cpp:375:122
	movl	(%rax), %edi
	.loc	0 375 91                        # cpp/csmith1.cpp:375:91
	movl	$28, %esi
	callq	_ZL29safe_rshift_func_uint32_t_u_sji
	movl	%eax, %edi
	.loc	0 375 60                        # cpp/csmith1.cpp:375:60
	movl	$1, %esi
	callq	_ZL29safe_rshift_func_uint32_t_u_sji
	.loc	0 375 59                        # cpp/csmith1.cpp:375:59
	movl	%eax, %eax
	movl	%eax, %edi
	.loc	0 375 143                       # cpp/csmith1.cpp:375:143
	movl	_ZL6g_1944+36(%rip), %eax
	movl	%eax, %esi
	.loc	0 375 32                        # cpp/csmith1.cpp:375:32
	callq	_ZL26safe_mul_func_uint64_t_u_umm
	.loc	0 375 186                       # cpp/csmith1.cpp:375:186
	movl	_ZL5g_422(%rip), %eax
                                        # kill: def $ax killed $ax killed $eax
	movw	%ax, -5412(%rbp)                # 2-byte Spill
	.loc	0 375 257                       # cpp/csmith1.cpp:375:257
	xorl	%eax, %eax
	movl	%eax, %edi
	callq	_ZL32safe_unary_minus_func_uint64_t_um
                                        # kill: def $ax killed $ax killed $rax
	.loc	0 375 224                       # cpp/csmith1.cpp:375:224
	movswl	%ax, %edi
	callq	_ZL31safe_unary_minus_func_int16_t_ss
                                        # kill: def $al killed $al killed $ax
	movb	%al, -5409(%rbp)                # 1-byte Spill
	.loc	0 375 309                       # cpp/csmith1.cpp:375:309
	movl	_ZL6g_1922+56(%rip), %eax
                                        # kill: def $rax killed $eax
	.loc	0 375 307                       # cpp/csmith1.cpp:375:307
	orq	$-3, %rax
	movq	%rax, -5408(%rbp)               # 8-byte Spill
	.loc	0 375 355                       # cpp/csmith1.cpp:375:355
	movq	-4760(%rbp), %rax
	.loc	0 375 354                       # cpp/csmith1.cpp:375:354
	movl	(%rax), %eax
                                        # kill: def $ax killed $ax killed $eax
	.loc	0 375 326                       # cpp/csmith1.cpp:375:326
	movl	$52881, %esi                    # imm = 0xCE91
	movzwl	%ax, %edi
	callq	_ZL26safe_sub_func_uint16_t_u_utt
	movb	-5409(%rbp), %cl                # 1-byte Reload
	movw	%ax, %dx
	movq	-5408(%rbp), %rax               # 8-byte Reload
	.loc	0 375 325                       # cpp/csmith1.cpp:375:325
	movzwl	%dx, %edx
                                        # kill: def $rdx killed $edx
	.loc	0 375 323                       # cpp/csmith1.cpp:375:323
	xorq	%rdx, %rax
                                        # kill: def $al killed $al killed $rax
	.loc	0 375 198                       # cpp/csmith1.cpp:375:198
	movsbl	%cl, %edi
	movsbl	%al, %esi
	callq	_ZL24safe_sub_func_int8_t_s_saa
	.loc	0 375 437                       # cpp/csmith1.cpp:375:437
	movl	_ZL6g_1892+12(%rip), %eax
	.loc	0 375 447                       # cpp/csmith1.cpp:375:447
	cmpl	-4704(%rbp), %eax
	setne	%al
	.loc	0 375 436                       # cpp/csmith1.cpp:375:436
	andb	$1, %al
	movzbl	%al, %eax
	movl	%eax, %edi
	.loc	0 375 434                       # cpp/csmith1.cpp:375:434
	movq	%rdi, _ZL6g_1221(%rip)
	.loc	0 375 461                       # cpp/csmith1.cpp:375:461
	movslq	-4820(%rbp), %rsi
	.loc	0 375 400                       # cpp/csmith1.cpp:375:400
	callq	_ZL25safe_sub_func_int64_t_s_sll
	.loc	0 375 487                       # cpp/csmith1.cpp:375:487
	movq	-4760(%rbp), %rax
	.loc	0 375 395                       # cpp/csmith1.cpp:375:395
	cmpl	$0, (%rax)
	.loc	0 375 496                       # cpp/csmith1.cpp:375:496
	jne	.LBB3_27
# %bb.26:
	.loc	0 375 499                       # cpp/csmith1.cpp:375:499
	cmpw	$0, -5042(%rbp)
	setne	%al
.LBB3_27:
	.loc	0 0 499                         # cpp/csmith1.cpp:0:499
	movw	-5412(%rbp), %cx                # 2-byte Reload
	.loc	0 375 509                       # cpp/csmith1.cpp:375:509
	movl	-4828(%rbp), %eax
	.loc	0 375 522                       # cpp/csmith1.cpp:375:522
	movq	-4760(%rbp), %rdx
	.loc	0 375 517                       # cpp/csmith1.cpp:375:517
	cmpl	(%rdx), %eax
	setbe	%al
	.loc	0 375 392                       # cpp/csmith1.cpp:375:392
	andb	$1, %al
	movzbl	%al, %eax
                                        # kill: def $ax killed $ax killed $eax
	.loc	0 375 382                       # cpp/csmith1.cpp:375:382
	movq	-5056(%rbp), %rdx
	.loc	0 375 390                       # cpp/csmith1.cpp:375:390
	movw	%ax, (%rdx)
	.loc	0 375 159                       # cpp/csmith1.cpp:375:159
	movzwl	%cx, %edi
	movzwl	%ax, %esi
	callq	_ZL26safe_sub_func_uint16_t_u_utt
	.loc	0 375 158                       # cpp/csmith1.cpp:375:158
	movzwl	%ax, %eax
                                        # kill: def $rax killed $eax
	.loc	0 375 535                       # cpp/csmith1.cpp:375:535
	cmpq	$59803, %rax                    # imm = 0xE99B
	setl	%al
	.loc	0 375 30                        # cpp/csmith1.cpp:375:30
	andb	$1, %al
	movzbl	%al, %edi
	.loc	0 375 548                       # cpp/csmith1.cpp:375:548
	movl	-4768(%rbp), %eax
	movl	%eax, -4784(%rbp)
	.loc	0 375 556                       # cpp/csmith1.cpp:375:556
	movl	_ZL6g_1892+4(%rip), %edx
	.loc	0 375 22                        # cpp/csmith1.cpp:375:22
	movl	-4784(%rbp), %esi
	callq	_ZL7func_39i2U0j
	movw	%ax, -5112(%rbp)
	.loc	0 375 569                       # cpp/csmith1.cpp:375:569
	movl	_ZL6g_2354(%rip), %ecx
	.loc	0 375 11                        # cpp/csmith1.cpp:375:11
	movq	-4760(%rbp), %rax
	.loc	0 375 19                        # cpp/csmith1.cpp:375:19
	movl	%ecx, (%rax)
.Ltmp267:
	.loc	0 376 20 is_stmt 1              # cpp/csmith1.cpp:376:20
	movw	$0, _ZL5g_106(%rip)
.LBB3_28:                               # =>This Inner Loop Header: Depth=1
.Ltmp268:
	.loc	0 376 26 is_stmt 0              # cpp/csmith1.cpp:376:26
	movzwl	_ZL5g_106(%rip), %eax
	.loc	0 376 32                        # cpp/csmith1.cpp:376:32
	cmpl	$31, %eax
.Ltmp269:
	.loc	0 376 9                         # cpp/csmith1.cpp:376:9
	jle	.LBB3_31
# %bb.29:                               #   in Loop: Header=BB3_28 Depth=1
.Ltmp270:
	.loc	0 378 22 is_stmt 1              # cpp/csmith1.cpp:378:22
	movq	-4760(%rbp), %rax
	.loc	0 378 20 is_stmt 0              # cpp/csmith1.cpp:378:20
	movq	%rax, _ZL6g_2357(%rip)
.Ltmp271:
# %bb.30:                               #   in Loop: Header=BB3_28 Depth=1
	.loc	0 376 44 is_stmt 1              # cpp/csmith1.cpp:376:44
	movw	_ZL5g_106(%rip), %ax
	addw	$1, %ax
	movw	%ax, _ZL5g_106(%rip)
	.loc	0 376 9 is_stmt 0               # cpp/csmith1.cpp:376:9
	jmp	.LBB3_28
.Ltmp272:
.LBB3_31:
	.loc	0 380 84 is_stmt 1              # cpp/csmith1.cpp:380:84
	movslq	-4820(%rbp), %rax
	movq	%rax, -5432(%rbp)               # 8-byte Spill
	.loc	0 380 111 is_stmt 0             # cpp/csmith1.cpp:380:111
	movq	_ZL6g_2364(%rip), %rax
	movq	%rax, -5424(%rbp)               # 8-byte Spill
	.loc	0 380 163                       # cpp/csmith1.cpp:380:163
	movl	_ZL6g_1910(%rip), %eax
	.loc	0 380 226                       # cpp/csmith1.cpp:380:226
	movq	-4760(%rbp), %rax
	.loc	0 380 224                       # cpp/csmith1.cpp:380:224
	movslq	(%rax), %rsi
	.loc	0 380 175                       # cpp/csmith1.cpp:380:175
	movabsq	$5063416666836942707, %rdi      # imm = 0x4644DEA1A09BBF73
	callq	_ZL26safe_mul_func_uint64_t_u_umm
	.loc	0 380 174                       # cpp/csmith1.cpp:380:174
	cmpq	$0, %rax
	.loc	0 380 236                       # cpp/csmith1.cpp:380:236
	jne	.LBB3_33
# %bb.32:
	.loc	0 380 315                       # cpp/csmith1.cpp:380:315
	movl	_ZL6g_1922+112(%rip), %eax
	movl	%eax, %edi
	.loc	0 380 338                       # cpp/csmith1.cpp:380:338
	xorl	%eax, %eax
                                        # kill: def $rax killed $eax
	cmpq	-4848(%rbp), %rax
	setne	%al
	.loc	0 380 329                       # cpp/csmith1.cpp:380:329
	andb	$1, %al
	movzbl	%al, %eax
	movl	%eax, %esi
	.loc	0 380 288                       # cpp/csmith1.cpp:380:288
	callq	_ZL26safe_add_func_uint64_t_u_umm
	movq	%rax, %rcx
	.loc	0 380 284                       # cpp/csmith1.cpp:380:284
	movq	$-1, %rax
	cmpq	%rcx, %rax
	setae	%al
	.loc	0 380 274                       # cpp/csmith1.cpp:380:274
	andb	$1, %al
	movzbl	%al, %eax
	.loc	0 380 352                       # cpp/csmith1.cpp:380:352
	cmpl	_ZL6g_1907(%rip), %eax
	setb	%al
	.loc	0 380 272                       # cpp/csmith1.cpp:380:272
	xorb	$-1, %al
	.loc	0 380 271                       # cpp/csmith1.cpp:380:271
	andb	$1, %al
	movzbl	%al, %eax
                                        # kill: def $rax killed $eax
	.loc	0 380 363                       # cpp/csmith1.cpp:380:363
	cmpq	$-1, %rax
	sete	%al
	.loc	0 380 270                       # cpp/csmith1.cpp:380:270
	andb	$1, %al
	movzbl	%al, %eax
	movl	%eax, %ecx
	.loc	0 380 373                       # cpp/csmith1.cpp:380:373
	orq	$238, %rcx
	.loc	0 380 259                       # cpp/csmith1.cpp:380:259
	movq	-5064(%rbp), %rax
	.loc	0 380 267                       # cpp/csmith1.cpp:380:267
	movq	%rcx, (%rax)
	.loc	0 380 245                       # cpp/csmith1.cpp:380:245
	movq	-5072(%rbp), %rax
	.loc	0 380 253                       # cpp/csmith1.cpp:380:253
	xorq	(%rax), %rcx
	movq	%rcx, (%rax)
.LBB3_33:
	.loc	0 380 161                       # cpp/csmith1.cpp:380:161
	movzbl	_ZL4g_91(%rip), %eax
	movl	%eax, %edi
	.loc	0 380 453                       # cpp/csmith1.cpp:380:453
	movl	_ZL6g_1943(%rip), %eax
	movl	%eax, %esi
	.loc	0 380 134                       # cpp/csmith1.cpp:380:134
	callq	_ZL26safe_mod_func_uint64_t_u_umm
                                        # kill: def $rcx killed $rax
	movq	-5424(%rbp), %rax               # 8-byte Reload
	.loc	0 380 478                       # cpp/csmith1.cpp:380:478
	movq	-2592(%rbp), %rcx
	.loc	0 380 129                       # cpp/csmith1.cpp:380:129
	movq	%rcx, -4864(%rbp)
	.loc	0 380 118                       # cpp/csmith1.cpp:380:118
	cmpq	%rcx, %rax
	setne	%al
	.loc	0 380 110                       # cpp/csmith1.cpp:380:110
	andb	$1, %al
	movzbl	%al, %edi
	.loc	0 380 494                       # cpp/csmith1.cpp:380:494
	xorl	$-275451831, %edi               # imm = 0xEF94F049
	.loc	0 380 504                       # cpp/csmith1.cpp:380:504
	movl	-4704(%rbp), %eax
	movl	%eax, -4792(%rbp)
	.loc	0 380 510                       # cpp/csmith1.cpp:380:510
	movl	-4708(%rbp), %edx
	.loc	0 380 101                       # cpp/csmith1.cpp:380:101
	movl	-4792(%rbp), %esi
	callq	_ZL7func_39i2U0j
	movw	%ax, -5120(%rbp)
	.loc	0 380 100                       # cpp/csmith1.cpp:380:100
	xorl	%eax, %eax
                                        # kill: def $al killed $al killed $eax
	cmpl	$0, -4708(%rbp)
	movb	%al, -5433(%rbp)                # 1-byte Spill
	.loc	0 380 528                       # cpp/csmith1.cpp:380:528
	je	.LBB3_35
# %bb.34:
	.loc	0 0 528                         # cpp/csmith1.cpp:0:528
	movb	$1, %al
	movb	%al, -5433(%rbp)                # 1-byte Spill
	jmp	.LBB3_35
.LBB3_35:
	movq	-5432(%rbp), %rdi               # 8-byte Reload
	movb	-5433(%rbp), %al                # 1-byte Reload
	.loc	0 380 58                        # cpp/csmith1.cpp:380:58
	movabsq	$-5067512586769809598, %rsi     # imm = 0xB9AC9426B2C3BF42
	callq	_ZL25safe_add_func_int64_t_s_sll
	.loc	0 380 606                       # cpp/csmith1.cpp:380:606
	movl	_ZL6g_2382(%rip), %eax
	.loc	0 380 614                       # cpp/csmith1.cpp:380:614
	cmpl	_ZL6g_1905(%rip), %eax
	setb	%al
	.loc	0 380 41                        # cpp/csmith1.cpp:380:41
	andb	$1, %al
	movzbl	%al, %eax
                                        # kill: def $ax killed $ax killed $eax
	.loc	0 380 14                        # cpp/csmith1.cpp:380:14
	movl	$53423, %esi                    # imm = 0xD0AF
	movzwl	%ax, %edi
	callq	_ZL26safe_div_func_uint16_t_u_utt
	.loc	0 380 13                        # cpp/csmith1.cpp:380:13
	cmpw	$0, %ax
.Ltmp273:
	.loc	0 380 13                        # cpp/csmith1.cpp:380:13
	je	.LBB3_61
# %bb.36:
.Ltmp274:
	.loc	0 382 21 is_stmt 1              # cpp/csmith1.cpp:382:21
	movq	.L__const._ZL6func_1v.l_2393(%rip), %rax
	movq	%rax, -2688(%rbp)
	movq	.L__const._ZL6func_1v.l_2393+8(%rip), %rax
	movq	%rax, -2680(%rbp)
	.loc	0 384 21                        # cpp/csmith1.cpp:384:21
	movl	$6, -5124(%rbp)
.Ltmp275:
	.loc	0 386 20                        # cpp/csmith1.cpp:386:20
	movl	$0, -5128(%rbp)
.LBB3_37:                               # =>This Inner Loop Header: Depth=1
.Ltmp276:
	.loc	0 386 27 is_stmt 0              # cpp/csmith1.cpp:386:27
	cmpl	$4, -5128(%rbp)
.Ltmp277:
	.loc	0 386 13                        # cpp/csmith1.cpp:386:13
	jge	.LBB3_40
# %bb.38:                               #   in Loop: Header=BB3_37 Depth=1
.Ltmp278:
	.loc	0 387 17 is_stmt 1              # cpp/csmith1.cpp:387:17
	movslq	-5128(%rbp), %rax
	.loc	0 387 27 is_stmt 0              # cpp/csmith1.cpp:387:27
	leaq	_ZL5g_648(%rip), %rcx
	movq	%rcx, -2720(%rbp,%rax,8)
# %bb.39:                               #   in Loop: Header=BB3_37 Depth=1
	.loc	0 386 33 is_stmt 1              # cpp/csmith1.cpp:386:33
	movl	-5128(%rbp), %eax
	addl	$1, %eax
	movl	%eax, -5128(%rbp)
	.loc	0 386 13 is_stmt 0              # cpp/csmith1.cpp:386:13
	jmp	.LBB3_37
.Ltmp279:
.LBB3_40:
	.loc	0 388 213 is_stmt 1             # cpp/csmith1.cpp:388:213
	movq	_ZL5g_337(%rip), %rax
	.loc	0 388 232 is_stmt 0             # cpp/csmith1.cpp:388:232
	xorl	%eax, %eax
                                        # kill: def $rax killed $eax
	cmpq	-5080(%rbp), %rax
	setne	%al
	.loc	0 388 223                       # cpp/csmith1.cpp:388:223
	andb	$1, %al
	movzbl	%al, %eax
	.loc	0 388 253                       # cpp/csmith1.cpp:388:253
	movb	$61, _ZL5g_259(%rip)
	.loc	0 388 243                       # cpp/csmith1.cpp:388:243
	cmpl	$61, %eax
	setne	%al
	.loc	0 388 210                       # cpp/csmith1.cpp:388:210
	andb	$1, %al
	.loc	0 388 181                       # cpp/csmith1.cpp:388:181
	movl	$3, %esi
	movzbl	%al, %edi
	callq	_ZL28safe_lshift_func_uint8_t_u_shi
	.loc	0 388 298                       # cpp/csmith1.cpp:388:298
	movq	_ZL5g_150(%rip), %rsi
	.loc	0 388 287                       # cpp/csmith1.cpp:388:287
	movq	_ZL5g_150(%rip), %rdi
	.loc	0 388 294                       # cpp/csmith1.cpp:388:294
	callq	_ZN2U2aSERKS_
	.loc	0 388 280                       # cpp/csmith1.cpp:388:280
	xorl	%eax, %eax
                                        # kill: def $al killed $al killed $eax
	.loc	0 388 178                       # cpp/csmith1.cpp:388:178
	andb	$1, %al
	movzbl	%al, %eax
	movl	%eax, %edi
	.loc	0 388 145                       # cpp/csmith1.cpp:388:145
	callq	_ZL32safe_unary_minus_func_uint64_t_um
	.loc	0 388 327                       # cpp/csmith1.cpp:388:327
	movq	-4856(%rbp), %rcx
	.loc	0 388 339                       # cpp/csmith1.cpp:388:339
	movq	-5080(%rbp), %rdx
	.loc	0 388 334                       # cpp/csmith1.cpp:388:334
	cmpq	(%rdx), %rcx
	setne	%cl
	.loc	0 388 326                       # cpp/csmith1.cpp:388:326
	andb	$1, %cl
	movzbl	%cl, %ecx
                                        # kill: def $rcx killed $ecx
	.loc	0 388 348                       # cpp/csmith1.cpp:388:348
	orq	$2, %rcx
	.loc	0 388 357                       # cpp/csmith1.cpp:388:357
	movl	-4828(%rbp), %edx
                                        # kill: def $rdx killed $edx
	.loc	0 388 355                       # cpp/csmith1.cpp:388:355
	cmpq	%rdx, %rcx
	setb	%cl
	.loc	0 388 324                       # cpp/csmith1.cpp:388:324
	andb	$1, %cl
	movzbl	%cl, %ecx
	.loc	0 388 370                       # cpp/csmith1.cpp:388:370
	movq	-4760(%rbp), %rdx
	.loc	0 388 365                       # cpp/csmith1.cpp:388:365
	cmpl	(%rdx), %ecx
	setge	%cl
	.loc	0 388 323                       # cpp/csmith1.cpp:388:323
	andb	$1, %cl
	movzbl	%cl, %ecx
	.loc	0 388 379                       # cpp/csmith1.cpp:388:379
	cmpl	_ZL6g_1894+16(%rip), %ecx
	seta	%cl
	.loc	0 388 322                       # cpp/csmith1.cpp:388:322
	andb	$1, %cl
	movzbl	%cl, %ecx
                                        # kill: def $rcx killed $ecx
	.loc	0 388 320                       # cpp/csmith1.cpp:388:320
	cmpq	%rcx, %rax
	setb	%al
	.loc	0 388 143                       # cpp/csmith1.cpp:388:143
	andb	$1, %al
	movzbl	%al, %ecx
	.loc	0 388 397                       # cpp/csmith1.cpp:388:397
	movq	-4760(%rbp), %rax
	.loc	0 388 393                       # cpp/csmith1.cpp:388:393
	xorl	(%rax), %ecx
	.loc	0 388 139                       # cpp/csmith1.cpp:388:139
	orl	-2688(%rbp), %ecx
	movl	%ecx, -2688(%rbp)
	.loc	0 388 128                       # cpp/csmith1.cpp:388:128
	xorl	%eax, %eax
                                        # kill: def $al killed $al killed $eax
	cmpl	$0, %ecx
	movb	%al, -5434(%rbp)                # 1-byte Spill
	.loc	0 388 407                       # cpp/csmith1.cpp:388:407
	je	.LBB3_42
# %bb.41:
	.loc	0 388 410                       # cpp/csmith1.cpp:388:410
	cmpl	$0, -2680(%rbp)
	setne	%al
	movb	%al, -5434(%rbp)                # 1-byte Spill
.LBB3_42:
	.loc	0 0 410                         # cpp/csmith1.cpp:0:410
	movb	-5434(%rbp), %al                # 1-byte Reload
	.loc	0 388 127                       # cpp/csmith1.cpp:388:127
	andb	$1, %al
	movzbl	%al, %eax
                                        # kill: def $rax killed $eax
	.loc	0 388 421                       # cpp/csmith1.cpp:388:421
	cmpq	$1709356644, %rax               # imm = 0x65E2B664
	setg	%al
	.loc	0 388 126                       # cpp/csmith1.cpp:388:126
	andb	$1, %al
	movzbl	%al, %eax
                                        # kill: def $ax killed $ax killed $eax
	.loc	0 388 96                        # cpp/csmith1.cpp:388:96
	movl	$7, %esi
	movzwl	%ax, %edi
	callq	_ZL29safe_rshift_func_uint16_t_u_sti
	.loc	0 388 95                        # cpp/csmith1.cpp:388:95
	movzwl	%ax, %edi
	.loc	0 388 68                        # cpp/csmith1.cpp:388:68
	movl	$1, %esi
	callq	_ZL26safe_div_func_uint32_t_u_ujj
	movl	%eax, %ecx
	.loc	0 388 64                        # cpp/csmith1.cpp:388:64
	andl	-5124(%rbp), %ecx
	movl	%ecx, -5124(%rbp)
	.loc	0 388 448                       # cpp/csmith1.cpp:388:448
	movb	$1, %al
	cmpl	-4824(%rbp), %ecx
	movb	%al, -5435(%rbp)                # 1-byte Spill
	.loc	0 388 459                       # cpp/csmith1.cpp:388:459
	je	.LBB3_44
# %bb.43:
	movb	$1, %al
	movb	%al, -5435(%rbp)                # 1-byte Spill
	jmp	.LBB3_44
.LBB3_44:
	.loc	0 0 459                         # cpp/csmith1.cpp:0:459
	movb	-5435(%rbp), %al                # 1-byte Reload
	.loc	0 388 54                        # cpp/csmith1.cpp:388:54
	andb	$1, %al
	movzbl	%al, %eax
                                        # kill: def $ax killed $ax killed $eax
	.loc	0 388 28                        # cpp/csmith1.cpp:388:28
	movl	$6553, %esi                     # imm = 0x1999
	movswl	%ax, %edi
	callq	_ZL25safe_mod_func_int16_t_s_sss
	.loc	0 388 27                        # cpp/csmith1.cpp:388:27
	movswl	%ax, %ecx
	.loc	0 388 484                       # cpp/csmith1.cpp:388:484
	xorl	$15412, %ecx                    # imm = 0x3C34
	.loc	0 388 16                        # cpp/csmith1.cpp:388:16
	movq	_ZL5g_139(%rip), %rax
	.loc	0 388 15                        # cpp/csmith1.cpp:388:15
	movq	(%rax), %rax
	.loc	0 388 23                        # cpp/csmith1.cpp:388:23
	xorl	(%rax), %ecx
	movl	%ecx, (%rax)
.Ltmp280:
	.loc	0 389 25 is_stmt 1              # cpp/csmith1.cpp:389:25
	movl	$0, _ZL6g_1904(%rip)
.LBB3_45:                               # =>This Loop Header: Depth=1
                                        #     Child Loop BB3_47 Depth 2
                                        #       Child Loop BB3_49 Depth 3
.Ltmp281:
	.loc	0 389 38 is_stmt 0              # cpp/csmith1.cpp:389:38
	cmpl	$7, _ZL6g_1904(%rip)
.Ltmp282:
	.loc	0 389 13                        # cpp/csmith1.cpp:389:13
	ja	.LBB3_60
# %bb.46:                               #   in Loop: Header=BB3_45 Depth=1
.Ltmp283:
	.loc	0 391 29 is_stmt 1              # cpp/csmith1.cpp:391:29
	movl	$0, _ZL6g_1921(%rip)
.LBB3_47:                               #   Parent Loop BB3_45 Depth=1
                                        # =>  This Loop Header: Depth=2
                                        #       Child Loop BB3_49 Depth 3
.Ltmp284:
	.loc	0 391 42 is_stmt 0              # cpp/csmith1.cpp:391:42
	cmpl	$7, _ZL6g_1921(%rip)
.Ltmp285:
	.loc	0 391 17                        # cpp/csmith1.cpp:391:17
	ja	.LBB3_58
# %bb.48:                               #   in Loop: Header=BB3_47 Depth=2
.Ltmp286:
	.loc	0 393 29 is_stmt 1              # cpp/csmith1.cpp:393:29
	leaq	-2768(%rbp), %rdi
	leaq	.L__const._ZL6func_1v.l_2398(%rip), %rsi
	movl	$35, %edx
	callq	memcpy@PLT
.Ltmp287:
	.loc	0 395 33                        # cpp/csmith1.cpp:395:33
	movl	$0, _ZL6g_1898(%rip)
.LBB3_49:                               #   Parent Loop BB3_45 Depth=1
                                        #     Parent Loop BB3_47 Depth=2
                                        # =>    This Inner Loop Header: Depth=3
.Ltmp288:
	.loc	0 395 46 is_stmt 0              # cpp/csmith1.cpp:395:46
	cmpl	$7, _ZL6g_1898(%rip)
.Ltmp289:
	.loc	0 395 21                        # cpp/csmith1.cpp:395:21
	ja	.LBB3_56
# %bb.50:                               #   in Loop: Header=BB3_49 Depth=3
.Ltmp290:
	.loc	0 397 33 is_stmt 1              # cpp/csmith1.cpp:397:33
	movl	$-290470832, -5140(%rbp)        # imm = 0xEEAFC450
.Ltmp291:
	.loc	0 399 37                        # cpp/csmith1.cpp:399:37
	movl	_ZL6g_1921(%rip), %eax
	.loc	0 399 44 is_stmt 0              # cpp/csmith1.cpp:399:44
	addl	$1, %eax
	.loc	0 399 29                        # cpp/csmith1.cpp:399:29
	movl	%eax, %eax
	movl	%eax, %ecx
	leaq	_ZL6g_1944(%rip), %rax
	cmpl	$0, (%rax,%rcx,4)
.Ltmp292:
	.loc	0 399 29                        # cpp/csmith1.cpp:399:29
	je	.LBB3_52
# %bb.51:                               #   in Loop: Header=BB3_47 Depth=2
.Ltmp293:
	.loc	0 400 29 is_stmt 1              # cpp/csmith1.cpp:400:29
	jmp	.LBB3_56
.Ltmp294:
.LBB3_52:                               #   in Loop: Header=BB3_49 Depth=3
	.loc	0 401 40                        # cpp/csmith1.cpp:401:40
	movslq	-2680(%rbp), %rax
	.loc	0 401 50 is_stmt 0              # cpp/csmith1.cpp:401:50
	movl	$4098852423, %ecx               # imm = 0xF44F8647
	cmpq	%rcx, %rax
	setle	%al
	.loc	0 401 39                        # cpp/csmith1.cpp:401:39
	andb	$1, %al
	movzbl	%al, %eax
	movl	%eax, -5464(%rbp)               # 4-byte Spill
	.loc	0 401 99                        # cpp/csmith1.cpp:401:99
	movzbl	-2740(%rbp), %eax
                                        # kill: def $rax killed $eax
	movq	%rax, -5448(%rbp)               # 8-byte Spill
	.loc	0 401 280                       # cpp/csmith1.cpp:401:280
	xorl	%eax, %eax
	movl	%eax, %edi
	callq	_ZL31safe_unary_minus_func_int64_t_sl
	movq	%rax, %rdx
	.loc	0 401 268                       # cpp/csmith1.cpp:401:268
	movq	-5056(%rbp), %rcx
	.loc	0 401 276                       # cpp/csmith1.cpp:401:276
	movzwl	(%rcx), %eax
                                        # kill: def $rax killed $eax
	andq	%rdx, %rax
                                        # kill: def $ax killed $ax killed $rax
	movw	%ax, (%rcx)
	.loc	0 401 265                       # cpp/csmith1.cpp:401:265
	movzwl	%ax, %eax
                                        # kill: def $rax killed $eax
	movq	%rax, -5456(%rbp)               # 8-byte Spill
	.loc	0 401 422                       # cpp/csmith1.cpp:401:422
	movq	_ZL5g_448(%rip), %rax
	.loc	0 401 421                       # cpp/csmith1.cpp:401:421
	movl	(%rax), %edx
	movl	%edx, -5460(%rbp)               # 4-byte Spill
	.loc	0 401 405                       # cpp/csmith1.cpp:401:405
	movl	_ZL6g_1898(%rip), %eax
	.loc	0 401 412                       # cpp/csmith1.cpp:401:412
	addl	$2, %eax
	.loc	0 401 397                       # cpp/csmith1.cpp:401:397
	movl	%eax, %eax
	movl	%eax, %ecx
	.loc	0 401 418                       # cpp/csmith1.cpp:401:418
	leaq	_ZL6g_1944(%rip), %rax
	movl	%edx, (%rax,%rcx,4)
	.loc	0 401 542                       # cpp/csmith1.cpp:401:542
	movslq	-5124(%rbp), %rcx
	.loc	0 401 539                       # cpp/csmith1.cpp:401:539
	movabsq	$-383318305269343207, %rax      # imm = 0xFAAE2E0842841C19
	cmpq	%rcx, %rax
	setne	%al
	.loc	0 401 493                       # cpp/csmith1.cpp:401:493
	andb	$1, %al
	movzbl	%al, %eax
	.loc	0 401 552                       # cpp/csmith1.cpp:401:552
	movl	_ZL5g_246(%rip), %ecx
	.loc	0 401 550                       # cpp/csmith1.cpp:401:550
	cmpl	%ecx, %eax
	setg	%al
	.loc	0 401 492                       # cpp/csmith1.cpp:401:492
	andb	$1, %al
	movzbl	%al, %eax
                                        # kill: def $rax killed $eax
	.loc	0 401 559                       # cpp/csmith1.cpp:401:559
	cmpq	$1, %rax
	seta	%al
	.loc	0 401 491                       # cpp/csmith1.cpp:401:491
	andb	$1, %al
	movzbl	%al, %edi
	.loc	0 401 462                       # cpp/csmith1.cpp:401:462
	movl	$7, %esi
	callq	_ZL28safe_rshift_func_int32_t_s_sii
                                        # kill: def $ax killed $ax killed $eax
	.loc	0 401 432                       # cpp/csmith1.cpp:401:432
	movl	$2, %esi
	movswl	%ax, %edi
	callq	_ZL28safe_lshift_func_int16_t_s_usj
	movl	-5460(%rbp), %edi               # 4-byte Reload
	.loc	0 401 431                       # cpp/csmith1.cpp:401:431
	movswl	%ax, %esi
	.loc	0 401 366                       # cpp/csmith1.cpp:401:366
	callq	_ZL29safe_lshift_func_uint32_t_u_sji
	.loc	0 401 365                       # cpp/csmith1.cpp:401:365
	movl	%eax, %eax
	movl	%eax, %edi
	.loc	0 401 579                       # cpp/csmith1.cpp:401:579
	movl	_ZL6g_1885(%rip), %eax
	movl	%eax, %esi
	.loc	0 401 339                       # cpp/csmith1.cpp:401:339
	callq	_ZL25safe_mod_func_int64_t_s_sll
	movq	%rax, %rcx
	movq	-5456(%rbp), %rax               # 8-byte Reload
	.loc	0 401 336                       # cpp/csmith1.cpp:401:336
	orq	%rcx, %rax
	.loc	0 401 591                       # cpp/csmith1.cpp:401:591
	movslq	-5140(%rbp), %rcx
	.loc	0 401 589                       # cpp/csmith1.cpp:401:589
	cmpq	%rcx, %rax
	setg	%cl
	.loc	0 401 263                       # cpp/csmith1.cpp:401:263
	andb	$1, %cl
	.loc	0 401 600                       # cpp/csmith1.cpp:401:600
	movl	_ZL6g_2354(%rip), %eax
                                        # kill: def $al killed $al killed $eax
	.loc	0 401 238                       # cpp/csmith1.cpp:401:238
	movsbl	%cl, %edi
	movsbl	%al, %esi
	callq	_ZL24safe_add_func_int8_t_s_saa
	.loc	0 401 237                       # cpp/csmith1.cpp:401:237
	movsbq	%al, %rdi
	.loc	0 401 610                       # cpp/csmith1.cpp:401:610
	movq	_ZL5g_338(%rip), %rsi
	.loc	0 401 211                       # cpp/csmith1.cpp:401:211
	callq	_ZL25safe_mod_func_int64_t_s_sll
                                        # kill: def $ax killed $ax killed $rax
	.loc	0 401 180                       # cpp/csmith1.cpp:401:180
	movl	$7, %edi
	movswl	%ax, %esi
	callq	_ZL25safe_mul_func_int16_t_s_sss
	.loc	0 401 179                       # cpp/csmith1.cpp:401:179
	movswq	%ax, %rax
	.loc	0 401 620                       # cpp/csmith1.cpp:401:620
	movl	$4022093807, %ecx               # imm = 0xEFBC47EF
	cmpq	%rcx, %rax
	setne	%al
	.loc	0 401 178                       # cpp/csmith1.cpp:401:178
	andb	$1, %al
	movzbl	%al, %eax
                                        # kill: def $rax killed $eax
	.loc	0 401 636                       # cpp/csmith1.cpp:401:636
	cmpq	$1, %rax
	setl	%al
	.loc	0 401 177                       # cpp/csmith1.cpp:401:177
	andb	$1, %al
	movzbl	%al, %eax
	.loc	0 401 645                       # cpp/csmith1.cpp:401:645
	movzwl	-2036(%rbp), %ecx
	.loc	0 401 642                       # cpp/csmith1.cpp:401:642
	cmpl	%ecx, %eax
	sete	%al
	.loc	0 401 176                       # cpp/csmith1.cpp:401:176
	andb	$1, %al
	movzbl	%al, %eax
	.loc	0 401 662                       # cpp/csmith1.cpp:401:662
	movzbl	-2750(%rbp), %ecx
	.loc	0 401 659                       # cpp/csmith1.cpp:401:659
	cmpl	%ecx, %eax
	setne	%al
	.loc	0 401 175                       # cpp/csmith1.cpp:401:175
	andb	$1, %al
	movzbl	%al, %eax
	.loc	0 401 684                       # cpp/csmith1.cpp:401:684
	movq	_ZL6g_1680(%rip), %rcx
	.loc	0 401 683                       # cpp/csmith1.cpp:401:683
	movq	(%rcx), %rcx
	.loc	0 401 682                       # cpp/csmith1.cpp:401:682
	movq	(%rcx), %rcx
	.loc	0 401 681                       # cpp/csmith1.cpp:401:681
	movq	(%rcx), %rcx
	.loc	0 401 676                       # cpp/csmith1.cpp:401:676
	cmpl	(%rcx), %eax
	setne	%al
	.loc	0 401 174                       # cpp/csmith1.cpp:401:174
	andb	$1, %al
	movzbl	%al, %eax
                                        # kill: def $rax killed $eax
	.loc	0 401 693                       # cpp/csmith1.cpp:401:693
	movabsq	$5244673685766057056, %rcx      # imm = 0x48C8D2EE02ECAC60
	cmpq	%rcx, %rax
	setl	%al
	.loc	0 401 173                       # cpp/csmith1.cpp:401:173
	andb	$1, %al
	movzbl	%al, %edi
	.loc	0 401 722                       # cpp/csmith1.cpp:401:722
	movq	_ZL6g_1681(%rip), %rax
	.loc	0 401 721                       # cpp/csmith1.cpp:401:721
	movq	(%rax), %rax
	.loc	0 401 720                       # cpp/csmith1.cpp:401:720
	movq	(%rax), %rax
	.loc	0 401 719                       # cpp/csmith1.cpp:401:719
	movl	(%rax), %esi
	.loc	0 401 146                       # cpp/csmith1.cpp:401:146
	callq	_ZL26safe_div_func_uint32_t_u_ujj
	.loc	0 401 145                       # cpp/csmith1.cpp:401:145
	movl	%eax, %eax
	movl	%eax, %edi
	.loc	0 401 733                       # cpp/csmith1.cpp:401:733
	movl	-5140(%rbp), %esi
	.loc	0 401 116                       # cpp/csmith1.cpp:401:116
	callq	_ZL28safe_lshift_func_int64_t_s_sli
	movq	-5448(%rbp), %rdi               # 8-byte Reload
	.loc	0 401 762                       # cpp/csmith1.cpp:401:762
	movq	-4760(%rbp), %rax
	.loc	0 401 113                       # cpp/csmith1.cpp:401:113
	movslq	(%rax), %rsi
	.loc	0 401 72                        # cpp/csmith1.cpp:401:72
	callq	_ZL26safe_div_func_uint64_t_u_umm
	movq	%rax, %rcx
	.loc	0 401 775                       # cpp/csmith1.cpp:401:775
	movl	_ZL6g_2324(%rip), %eax
                                        # kill: def $rax killed $eax
	.loc	0 401 773                       # cpp/csmith1.cpp:401:773
	xorq	%rax, %rcx
	.loc	0 401 70                        # cpp/csmith1.cpp:401:70
	xorl	%eax, %eax
                                        # kill: def $al killed $al killed $eax
	cmpq	$0, %rcx
	movb	%al, -5436(%rbp)                # 1-byte Spill
	.loc	0 401 789                       # cpp/csmith1.cpp:401:789
	je	.LBB3_54
# %bb.53:                               #   in Loop: Header=BB3_49 Depth=3
	.loc	0 401 792                       # cpp/csmith1.cpp:401:792
	cmpl	$0, _ZL6g_1948(%rip)
	setne	%al
	movb	%al, -5436(%rbp)                # 1-byte Spill
.LBB3_54:                               #   in Loop: Header=BB3_49 Depth=3
	.loc	0 0 792                         # cpp/csmith1.cpp:0:792
	movl	-5464(%rbp), %eax               # 4-byte Reload
	movb	-5436(%rbp), %cl                # 1-byte Reload
	.loc	0 401 69                        # cpp/csmith1.cpp:401:69
	andb	$1, %cl
	movzbl	%cl, %ecx
	.loc	0 401 66                        # cpp/csmith1.cpp:401:66
	cmpl	%ecx, %eax
	setge	%al
	.loc	0 401 38                        # cpp/csmith1.cpp:401:38
	andb	$1, %al
	movzbl	%al, %eax
                                        # kill: def $rax killed $eax
	.loc	0 401 801                       # cpp/csmith1.cpp:401:801
	cmpq	$0, %rax
	setle	%al
	.loc	0 401 37                        # cpp/csmith1.cpp:401:37
	andb	$1, %al
	movzbl	%al, %ecx
	.loc	0 401 27                        # cpp/csmith1.cpp:401:27
	movq	_ZL6g_2357(%rip), %rax
	.loc	0 401 35                        # cpp/csmith1.cpp:401:35
	movl	%ecx, (%rax)
.Ltmp295:
# %bb.55:                               #   in Loop: Header=BB3_49 Depth=3
	.loc	0 395 60 is_stmt 1              # cpp/csmith1.cpp:395:60
	movl	_ZL6g_1898(%rip), %eax
	addl	$1, %eax
	movl	%eax, _ZL6g_1898(%rip)
	.loc	0 395 21 is_stmt 0              # cpp/csmith1.cpp:395:21
	jmp	.LBB3_49
.Ltmp296:
.LBB3_56:                               #   in Loop: Header=BB3_47 Depth=2
	.loc	0 403 17 is_stmt 1              # cpp/csmith1.cpp:403:17
	jmp	.LBB3_57
.Ltmp297:
.LBB3_57:                               #   in Loop: Header=BB3_47 Depth=2
	.loc	0 391 56                        # cpp/csmith1.cpp:391:56
	movl	_ZL6g_1921(%rip), %eax
	addl	$1, %eax
	movl	%eax, _ZL6g_1921(%rip)
	.loc	0 391 17 is_stmt 0              # cpp/csmith1.cpp:391:17
	jmp	.LBB3_47
.Ltmp298:
.LBB3_58:                               #   in Loop: Header=BB3_45 Depth=1
	.loc	0 404 13 is_stmt 1              # cpp/csmith1.cpp:404:13
	jmp	.LBB3_59
.Ltmp299:
.LBB3_59:                               #   in Loop: Header=BB3_45 Depth=1
	.loc	0 389 52                        # cpp/csmith1.cpp:389:52
	movl	_ZL6g_1904(%rip), %eax
	addl	$1, %eax
	movl	%eax, _ZL6g_1904(%rip)
	.loc	0 389 13 is_stmt 0              # cpp/csmith1.cpp:389:13
	jmp	.LBB3_45
.Ltmp300:
.LBB3_60:
	.loc	0 405 9 is_stmt 1               # cpp/csmith1.cpp:405:9
	jmp	.LBB3_90
.Ltmp301:
.LBB3_61:
	.loc	0 408 22                        # cpp/csmith1.cpp:408:22
	movl	$-1902289856, -5148(%rbp)       # imm = 0x8E9D5C40
	.loc	0 409 21                        # cpp/csmith1.cpp:409:21
	leaq	-3168(%rbp), %rdi
	leaq	.L__const._ZL6func_1v.l_2445(%rip), %rsi
	movl	$400, %edx                      # imm = 0x190
	callq	memcpy@PLT
	.loc	0 410 21                        # cpp/csmith1.cpp:410:21
	movl	$757060412, -5152(%rbp)         # imm = 0x2D1FD33C
	.loc	0 411 21                        # cpp/csmith1.cpp:411:21
	movabsq	$-6161547311127722695, %rax     # imm = 0xAA7DC95DA5780539
	movq	%rax, -5160(%rbp)
	.loc	0 413 24                        # cpp/csmith1.cpp:413:24
	leaq	-3680(%rbp), %rdi
	leaq	.L__const._ZL6func_1v.l_2475(%rip), %rsi
	movl	$504, %edx                      # imm = 0x1F8
	callq	memcpy@PLT
.Ltmp302:
	.loc	0 415 20                        # cpp/csmith1.cpp:415:20
	movl	$0, -5164(%rbp)
.LBB3_62:                               # =>This Inner Loop Header: Depth=1
.Ltmp303:
	.loc	0 415 27 is_stmt 0              # cpp/csmith1.cpp:415:27
	cmpl	$1, -5164(%rbp)
.Ltmp304:
	.loc	0 415 13                        # cpp/csmith1.cpp:415:13
	jge	.LBB3_65
# %bb.63:                               #   in Loop: Header=BB3_62 Depth=1
.Ltmp305:
	.loc	0 416 17 is_stmt 1              # cpp/csmith1.cpp:416:17
	movslq	-5164(%rbp), %rax
	.loc	0 416 27 is_stmt 0              # cpp/csmith1.cpp:416:27
	leaq	_ZL5g_338(%rip), %rcx
	movq	%rcx, -3176(%rbp,%rax,8)
# %bb.64:                               #   in Loop: Header=BB3_62 Depth=1
	.loc	0 415 33 is_stmt 1              # cpp/csmith1.cpp:415:33
	movl	-5164(%rbp), %eax
	addl	$1, %eax
	movl	%eax, -5164(%rbp)
	.loc	0 415 13 is_stmt 0              # cpp/csmith1.cpp:415:13
	jmp	.LBB3_62
.Ltmp306:
.LBB3_65:
	.loc	0 417 25 is_stmt 1              # cpp/csmith1.cpp:417:25
	movl	$0, _ZL6g_1934(%rip)
.LBB3_66:                               # =>This Loop Header: Depth=1
                                        #     Child Loop BB3_71 Depth 2
                                        #       Child Loop BB3_73 Depth 3
.Ltmp307:
	.loc	0 417 38 is_stmt 0              # cpp/csmith1.cpp:417:38
	cmpl	$6, _ZL6g_1934(%rip)
.Ltmp308:
	.loc	0 417 13                        # cpp/csmith1.cpp:417:13
	ja	.LBB3_85
# %bb.67:                               #   in Loop: Header=BB3_66 Depth=1
.Ltmp309:
	.loc	0 419 25 is_stmt 1              # cpp/csmith1.cpp:419:25
	movw	$-1834, -5170(%rbp)             # imm = 0xF8D6
	.loc	0 420 26                        # cpp/csmith1.cpp:420:26
	leaq	-4800(%rbp), %rdi
	xorl	%esi, %esi
	movl	$2, %edx
	callq	memset@PLT
	.loc	0 421 25                        # cpp/csmith1.cpp:421:25
	movl	$-1, -5176(%rbp)
	.loc	0 422 25                        # cpp/csmith1.cpp:422:25
	leaq	-3728(%rbp), %rdi
	leaq	.L__const._ZL6func_1v.l_2462(%rip), %rsi
	movl	$40, %edx
	callq	memcpy@PLT
	.loc	0 423 25                        # cpp/csmith1.cpp:423:25
	movl	$-849278951, -5180(%rbp)        # imm = 0xCD610819
	.loc	0 424 25                        # cpp/csmith1.cpp:424:25
	movl	$-1, -5184(%rbp)
.Ltmp310:
	.loc	0 426 31                        # cpp/csmith1.cpp:426:31
	movl	$0, _ZL5g_693(%rip)
# %bb.68:                               #   in Loop: Header=BB3_66 Depth=1
.Ltmp311:
	.loc	0 426 46 is_stmt 0              # cpp/csmith1.cpp:426:46
	cmpl	$6, _ZL5g_693(%rip)
.Ltmp312:
	.loc	0 426 17                        # cpp/csmith1.cpp:426:17
	jg	.LBB3_70
# %bb.69:
.Ltmp313:
	.loc	0 428 30 is_stmt 1              # cpp/csmith1.cpp:428:30
	movw	.L__const._ZL6func_1v.l_2420(%rip), %ax
	movw	%ax, -4696(%rbp)
	.loc	0 429 21                        # cpp/csmith1.cpp:429:21
	jmp	.LBB3_123
.Ltmp314:
.LBB3_70:                               #   in Loop: Header=BB3_66 Depth=1
	.loc	0 431 31                        # cpp/csmith1.cpp:431:31
	movl	$1, _ZL5g_744(%rip)
.LBB3_71:                               #   Parent Loop BB3_66 Depth=1
                                        # =>  This Loop Header: Depth=2
                                        #       Child Loop BB3_73 Depth 3
.Ltmp315:
	.loc	0 431 46 is_stmt 0              # cpp/csmith1.cpp:431:46
	cmpl	$6, _ZL5g_744(%rip)
.Ltmp316:
	.loc	0 431 17                        # cpp/csmith1.cpp:431:17
	ja	.LBB3_83
# %bb.72:                               #   in Loop: Header=BB3_71 Depth=2
.Ltmp317:
	.loc	0 433 29 is_stmt 1              # cpp/csmith1.cpp:433:29
	leaq	-3824(%rbp), %rdi
	leaq	.L__const._ZL6func_1v.l_2431(%rip), %rsi
	movl	$84, %edx
	callq	memcpy@PLT
	.loc	0 434 34                        # cpp/csmith1.cpp:434:34
	movq	$0, -5200(%rbp)
.Ltmp318:
	.loc	0 436 33                        # cpp/csmith1.cpp:436:33
	movl	$0, _ZL6g_1928(%rip)
.LBB3_73:                               #   Parent Loop BB3_66 Depth=1
                                        #     Parent Loop BB3_71 Depth=2
                                        # =>    This Inner Loop Header: Depth=3
.Ltmp319:
	.loc	0 436 46 is_stmt 0              # cpp/csmith1.cpp:436:46
	cmpl	$6, _ZL6g_1928(%rip)
.Ltmp320:
	.loc	0 436 21                        # cpp/csmith1.cpp:436:21
	ja	.LBB3_76
# %bb.74:                               #   in Loop: Header=BB3_73 Depth=3
.Ltmp321:
	.loc	0 438 53 is_stmt 1              # cpp/csmith1.cpp:438:53
	leaq	_ZL6g_2423(%rip), %rax
	movq	%rax, -5216(%rbp)
	.loc	0 440 85                        # cpp/csmith1.cpp:440:85
	movq	_ZL6g_2423(%rip), %rax
	.loc	0 440 75 is_stmt 0              # cpp/csmith1.cpp:440:75
	movq	-5216(%rbp), %rcx
	.loc	0 440 83                        # cpp/csmith1.cpp:440:83
	movq	%rax, (%rcx)
	.loc	0 440 93                        # cpp/csmith1.cpp:440:93
	cmpq	$0, %rax
	sete	%al
	.loc	0 440 71                        # cpp/csmith1.cpp:440:71
	andb	$1, %al
	movzbl	%al, %eax
                                        # kill: def $ax killed $ax killed $eax
	movw	%ax, -5466(%rbp)                # 2-byte Spill
	.loc	0 440 136                       # cpp/csmith1.cpp:440:136
	movl	_ZL6g_1928(%rip), %eax
	movl	%eax, %ecx
	leaq	_ZL6g_1945(%rip), %rax
	movl	(%rax,%rcx,4), %eax
                                        # kill: def $al killed $al killed $eax
	.loc	0 440 107                       # cpp/csmith1.cpp:440:107
	movl	$1, %esi
	movzbl	%al, %edi
	callq	_ZL28safe_lshift_func_uint8_t_u_uhj
	movb	%al, %cl
	movw	-5466(%rbp), %ax                # 2-byte Reload
	.loc	0 440 106                       # cpp/csmith1.cpp:440:106
	movzbl	%cl, %esi
	.loc	0 440 42                        # cpp/csmith1.cpp:440:42
	movswl	%ax, %edi
	callq	_ZL28safe_rshift_func_int16_t_s_ssi
	.loc	0 440 41                        # cpp/csmith1.cpp:440:41
	cwtl
	.loc	0 440 38                        # cpp/csmith1.cpp:440:38
	orl	-3780(%rbp), %eax
	movl	%eax, -3780(%rbp)
	.loc	0 441 32 is_stmt 1              # cpp/csmith1.cpp:441:32
	movw	$-1, -5170(%rbp)
	.loc	0 442 40                        # cpp/csmith1.cpp:442:40
	movq	_ZL5g_653(%rip), %rax
	.loc	0 442 39 is_stmt 0              # cpp/csmith1.cpp:442:39
	movq	(%rax), %rax
	.loc	0 442 38                        # cpp/csmith1.cpp:442:38
	movq	(%rax), %rcx
	.loc	0 442 28                        # cpp/csmith1.cpp:442:28
	movq	_ZL5g_653(%rip), %rax
	.loc	0 442 27                        # cpp/csmith1.cpp:442:27
	movq	(%rax), %rax
	.loc	0 442 35                        # cpp/csmith1.cpp:442:35
	movq	%rcx, (%rax)
	.loc	0 443 25 is_stmt 1              # cpp/csmith1.cpp:443:25
	movl	-5148(%rbp), %eax
	addl	$-1, %eax
	movl	%eax, -5148(%rbp)
.Ltmp322:
# %bb.75:                               #   in Loop: Header=BB3_73 Depth=3
	.loc	0 436 60                        # cpp/csmith1.cpp:436:60
	movl	_ZL6g_1928(%rip), %eax
	addl	$1, %eax
	movl	%eax, _ZL6g_1928(%rip)
	.loc	0 436 21 is_stmt 0              # cpp/csmith1.cpp:436:21
	jmp	.LBB3_73
.Ltmp323:
.LBB3_76:                               #   in Loop: Header=BB3_71 Depth=2
	.loc	0 445 33 is_stmt 1              # cpp/csmith1.cpp:445:33
	movl	$-1, _ZL6g_1939(%rip)
# %bb.77:                               #   in Loop: Header=BB3_71 Depth=2
.Ltmp324:
	.loc	0 445 49 is_stmt 0              # cpp/csmith1.cpp:445:49
	cmpl	$55, _ZL6g_1939(%rip)
.Ltmp325:
	.loc	0 445 21                        # cpp/csmith1.cpp:445:21
	je	.LBB3_81
# %bb.78:                               #   in Loop: Header=BB3_71 Depth=2
.Ltmp326:
	.loc	0 447 34 is_stmt 1              # cpp/csmith1.cpp:447:34
	movw	.L__const._ZL6func_1v.l_2438(%rip), %ax
	movw	%ax, -4696(%rbp)
.Ltmp327:
	.loc	0 448 29                        # cpp/csmith1.cpp:448:29
	cmpl	$0, -5148(%rbp)
.Ltmp328:
	.loc	0 448 29 is_stmt 0              # cpp/csmith1.cpp:448:29
	je	.LBB3_80
# %bb.79:                               #   in Loop: Header=BB3_71 Depth=2
.Ltmp329:
	.loc	0 449 29 is_stmt 1              # cpp/csmith1.cpp:449:29
	jmp	.LBB3_81
.Ltmp330:
.LBB3_80:
	.loc	0 450 25                        # cpp/csmith1.cpp:450:25
	jmp	.LBB3_123
.Ltmp331:
.LBB3_81:                               #   in Loop: Header=BB3_71 Depth=2
	.loc	0 452 17                        # cpp/csmith1.cpp:452:17
	jmp	.LBB3_82
.Ltmp332:
.LBB3_82:                               #   in Loop: Header=BB3_71 Depth=2
	.loc	0 431 62                        # cpp/csmith1.cpp:431:62
	movl	_ZL5g_744(%rip), %eax
	addl	$1, %eax
	movl	%eax, _ZL5g_744(%rip)
	.loc	0 431 17 is_stmt 0              # cpp/csmith1.cpp:431:17
	jmp	.LBB3_71
.Ltmp333:
.LBB3_83:                               #   in Loop: Header=BB3_66 Depth=1
	.loc	0 453 13 is_stmt 1              # cpp/csmith1.cpp:453:13
	jmp	.LBB3_84
.Ltmp334:
.LBB3_84:                               #   in Loop: Header=BB3_66 Depth=1
	.loc	0 417 52                        # cpp/csmith1.cpp:417:52
	movl	_ZL6g_1934(%rip), %eax
	addl	$1, %eax
	movl	%eax, _ZL6g_1934(%rip)
	.loc	0 417 13 is_stmt 0              # cpp/csmith1.cpp:417:13
	jmp	.LBB3_66
.Ltmp335:
.LBB3_85:
	.loc	0 454 26 is_stmt 1              # cpp/csmith1.cpp:454:26
	xorl	%eax, %eax
                                        # kill: def $al killed $al killed $eax
	cmpl	$0, -5152(%rbp)
	movb	%al, -5467(%rbp)                # 1-byte Spill
	.loc	0 454 33 is_stmt 0              # cpp/csmith1.cpp:454:33
	je	.LBB3_89
# %bb.86:
	.loc	0 454 226                       # cpp/csmith1.cpp:454:226
	movq	-4760(%rbp), %rax
	.loc	0 454 225                       # cpp/csmith1.cpp:454:225
	movl	(%rax), %eax
                                        # kill: def $ax killed $ax killed $eax
	movw	%ax, -5490(%rbp)                # 2-byte Spill
	.loc	0 454 310                       # cpp/csmith1.cpp:454:310
	movq	-4760(%rbp), %rax
	.loc	0 454 309                       # cpp/csmith1.cpp:454:309
	movl	(%rax), %eax
                                        # kill: def $ax killed $ax killed $eax
	.loc	0 454 279                       # cpp/csmith1.cpp:454:279
	movl	$7, %esi
	movswl	%ax, %edi
	callq	_ZL28safe_rshift_func_int16_t_s_ssi
	.loc	0 454 278                       # cpp/csmith1.cpp:454:278
	movswq	%ax, %rax
	movq	%rax, -5488(%rbp)               # 8-byte Spill
	.loc	0 454 367                       # cpp/csmith1.cpp:454:367
	movq	_ZL5g_150(%rip), %rsi
	.loc	0 454 356                       # cpp/csmith1.cpp:454:356
	movq	_ZL5g_150(%rip), %rdi
	.loc	0 454 363                       # cpp/csmith1.cpp:454:363
	callq	_ZN2U2aSERKS_
	.loc	0 454 388                       # cpp/csmith1.cpp:454:388
	movslq	-4704(%rbp), %rax
	.loc	0 454 386                       # cpp/csmith1.cpp:454:386
	xorq	$23858, %rax                    # imm = 0x5D32
	movq	%rax, -5480(%rbp)               # 8-byte Spill
	.loc	0 454 433                       # cpp/csmith1.cpp:454:433
	cmpl	$0, _ZL6g_2024(%rip)
	.loc	0 454 443                       # cpp/csmith1.cpp:454:443
	jne	.LBB3_88
# %bb.87:
	jmp	.LBB3_88
.LBB3_88:
	.loc	0 454 455                       # cpp/csmith1.cpp:454:455
	movw	-4874(%rbp), %ax
                                        # kill: def $al killed $al killed $ax
	.loc	0 454 400                       # cpp/csmith1.cpp:454:400
	movl	$1, %edi
	movzbl	%al, %esi
	callq	_ZL25safe_div_func_uint8_t_u_uhh
	movq	-5480(%rbp), %rdi               # 8-byte Reload
	.loc	0 454 399                       # cpp/csmith1.cpp:454:399
	movzbl	%al, %eax
	movl	%eax, %esi
	.loc	0 454 325                       # cpp/csmith1.cpp:454:325
	callq	_ZL26safe_mul_func_uint64_t_u_umm
	movq	-5488(%rbp), %rdi               # 8-byte Reload
	movq	%rax, %rsi
	.loc	0 454 252                       # cpp/csmith1.cpp:454:252
	callq	_ZL25safe_div_func_int64_t_s_sll
	movw	-5490(%rbp), %cx                # 2-byte Reload
                                        # kill: def $ax killed $ax killed $rax
	.loc	0 454 197                       # cpp/csmith1.cpp:454:197
	movzwl	%cx, %edi
	movzwl	%ax, %esi
	callq	_ZL26safe_div_func_uint16_t_u_utt
	.loc	0 454 196                       # cpp/csmith1.cpp:454:196
	movzwl	%ax, %edi
	.loc	0 454 472                       # cpp/csmith1.cpp:454:472
	orl	-4704(%rbp), %edi
	.loc	0 454 485                       # cpp/csmith1.cpp:454:485
	movzwl	-2034(%rbp), %eax
	.loc	0 454 483                       # cpp/csmith1.cpp:454:483
	orl	%eax, %edi
	.loc	0 454 500                       # cpp/csmith1.cpp:454:500
	movzwl	-2036(%rbp), %esi
	.loc	0 454 164                       # cpp/csmith1.cpp:454:164
	callq	_ZL29safe_rshift_func_uint32_t_u_ujj
	.loc	0 454 163                       # cpp/csmith1.cpp:454:163
	movl	%eax, %eax
	movl	%eax, %edi
	.loc	0 454 518                       # cpp/csmith1.cpp:454:518
	movq	-4760(%rbp), %rax
	.loc	0 454 516                       # cpp/csmith1.cpp:454:516
	movslq	(%rax), %rsi
	.loc	0 454 137                       # cpp/csmith1.cpp:454:137
	callq	_ZL25safe_div_func_int64_t_s_sll
	.loc	0 454 531                       # cpp/csmith1.cpp:454:531
	movl	-5148(%rbp), %ecx
                                        # kill: def $rcx killed $ecx
	.loc	0 454 528                       # cpp/csmith1.cpp:454:528
	cmpq	%rcx, %rax
	setne	%al
	.loc	0 454 135                       # cpp/csmith1.cpp:454:135
	andb	$1, %al
	movzbl	%al, %eax
	.loc	0 454 544                       # cpp/csmith1.cpp:454:544
	movq	-4760(%rbp), %rcx
	.loc	0 454 539                       # cpp/csmith1.cpp:454:539
	cmpl	(%rcx), %eax
	setge	%al
	.loc	0 454 134                       # cpp/csmith1.cpp:454:134
	andb	$1, %al
	.loc	0 454 554                       # cpp/csmith1.cpp:454:554
	movl	_ZL6g_1932(%rip), %esi
	.loc	0 454 105                       # cpp/csmith1.cpp:454:105
	movzbl	%al, %edi
	callq	_ZL28safe_lshift_func_uint8_t_u_shi
	.loc	0 454 79                        # cpp/csmith1.cpp:454:79
	movl	$82, %esi
	movsbl	%al, %edi
	callq	_ZL24safe_add_func_int8_t_s_saa
	.loc	0 454 78                        # cpp/csmith1.cpp:454:78
	movsbq	%al, %rdi
	.loc	0 454 573                       # cpp/csmith1.cpp:454:573
	movq	-2912(%rbp), %rsi
	.loc	0 454 51                        # cpp/csmith1.cpp:454:51
	callq	_ZL26safe_mul_func_uint64_t_u_umm
	.loc	0 454 590                       # cpp/csmith1.cpp:454:590
	movl	-5152(%rbp), %eax
	.loc	0 454 39                        # cpp/csmith1.cpp:454:39
	movq	-4760(%rbp), %rcx
	.loc	0 454 47                        # cpp/csmith1.cpp:454:47
	movl	%eax, (%rcx)
	.loc	0 454 36                        # cpp/csmith1.cpp:454:36
	cmpl	$0, %eax
	setne	%al
	movb	%al, -5467(%rbp)                # 1-byte Spill
.LBB3_89:
	.loc	0 0 36                          # cpp/csmith1.cpp:0:36
	movb	-5467(%rbp), %al                # 1-byte Reload
	.loc	0 454 25                        # cpp/csmith1.cpp:454:25
	andb	$1, %al
	movzbl	%al, %ecx
	.loc	0 454 16                        # cpp/csmith1.cpp:454:16
	movq	_ZL5g_139(%rip), %rax
	.loc	0 454 15                        # cpp/csmith1.cpp:454:15
	movq	(%rax), %rax
	.loc	0 454 23                        # cpp/csmith1.cpp:454:23
	movl	%ecx, (%rax)
.Ltmp336:
.LBB3_90:
	.loc	0 456 5 is_stmt 1               # cpp/csmith1.cpp:456:5
	jmp	.LBB3_122
.Ltmp337:
.LBB3_91:
	.loc	0 459 21                        # cpp/csmith1.cpp:459:21
	leaq	_ZL6g_2504(%rip), %rax
	movq	%rax, -5232(%rbp)
	.loc	0 460 27                        # cpp/csmith1.cpp:460:27
	movl	$-1, -5240(%rbp)
	.loc	0 461 18                        # cpp/csmith1.cpp:461:18
	leaq	_ZL5g_313(%rip), %rax
	movq	%rax, -5248(%rbp)
	.loc	0 462 17                        # cpp/csmith1.cpp:462:17
	movl	$197268864, -5252(%rbp)         # imm = 0xBC21580
	.loc	0 463 17                        # cpp/csmith1.cpp:463:17
	movl	$-199073996, -5256(%rbp)        # imm = 0xF4225F34
	.loc	0 464 17                        # cpp/csmith1.cpp:464:17
	leaq	-4048(%rbp), %rdi
	leaq	.L__const._ZL6func_1v.l_2541(%rip), %rsi
	movl	$224, %edx
	callq	memcpy@PLT
	.loc	0 465 19                        # cpp/csmith1.cpp:465:19
	leaq	-4744(%rbp), %rax
	movq	%rax, -5264(%rbp)
	.loc	0 466 18                        # cpp/csmith1.cpp:466:18
	movw	.L__const._ZL6func_1v.l_2605(%rip), %ax
	movw	%ax, -4808(%rbp)
.Ltmp338:
	.loc	0 468 169                       # cpp/csmith1.cpp:468:169
	movq	_ZL5g_149+56(%rip), %rdi
	.loc	0 468 125 is_stmt 0             # cpp/csmith1.cpp:468:125
	callq	_ZL31safe_unary_minus_func_int64_t_sl
	movq	%rax, -5504(%rbp)               # 8-byte Spill
	.loc	0 468 203                       # cpp/csmith1.cpp:468:203
	movq	_ZL6g_2504(%rip), %rcx
	.loc	0 468 181                       # cpp/csmith1.cpp:468:181
	movq	-5232(%rbp), %rax
	.loc	0 468 189                       # cpp/csmith1.cpp:468:189
	movq	%rcx, (%rax)
	.loc	0 468 433                       # cpp/csmith1.cpp:468:433
	movq	_ZL5g_448(%rip), %rax
	.loc	0 468 432                       # cpp/csmith1.cpp:468:432
	movl	(%rax), %esi
	.loc	0 468 392                       # cpp/csmith1.cpp:468:392
	movl	$2093652833, %edi               # imm = 0x7CCA9B61
	callq	_ZL25safe_sub_func_int32_t_s_sii
	.loc	0 468 442                       # cpp/csmith1.cpp:468:442
	cmpl	-4704(%rbp), %eax
	sete	%al
	.loc	0 468 390                       # cpp/csmith1.cpp:468:390
	andb	$1, %al
	movzbl	%al, %eax
	movw	%ax, %cx
	.loc	0 468 380                       # cpp/csmith1.cpp:468:380
	movq	-5248(%rbp), %rax
	.loc	0 468 388                       # cpp/csmith1.cpp:468:388
	movw	%cx, (%rax)
	.loc	0 468 463                       # cpp/csmith1.cpp:468:463
	movl	-5240(%rbp), %eax
                                        # kill: def $ax killed $ax killed $eax
	.loc	0 468 351                       # cpp/csmith1.cpp:468:351
	movswl	%cx, %edi
	movswl	%ax, %esi
	callq	_ZL25safe_mod_func_int16_t_s_sss
	.loc	0 468 350                       # cpp/csmith1.cpp:468:350
	cwtl
	.loc	0 468 468                       # cpp/csmith1.cpp:468:468
	cmpl	_ZL6g_1922+76(%rip), %eax
	setbe	%al
	.loc	0 468 339                       # cpp/csmith1.cpp:468:339
	andb	$1, %al
	movzbl	%al, %eax
	.loc	0 468 486                       # cpp/csmith1.cpp:468:486
	cmpl	-4824(%rbp), %eax
	setle	%al
	.loc	0 468 338                       # cpp/csmith1.cpp:468:338
	andb	$1, %al
	movzbl	%al, %ecx
	.loc	0 468 497                       # cpp/csmith1.cpp:468:497
	movb	$1, %al
	cmpl	-5240(%rbp), %ecx
	movb	%al, -5491(%rbp)                # 1-byte Spill
	.loc	0 468 512                       # cpp/csmith1.cpp:468:512
	jne	.LBB3_93
# %bb.92:
	.loc	0 468 517                       # cpp/csmith1.cpp:468:517
	movq	_ZL5g_337(%rip), %rax
	.loc	0 468 515                       # cpp/csmith1.cpp:468:515
	cmpq	$0, (%rax)
	setne	%al
	movb	%al, -5491(%rbp)                # 1-byte Spill
.LBB3_93:
	.loc	0 0 515                         # cpp/csmith1.cpp:0:515
	movb	-5491(%rbp), %al                # 1-byte Reload
	.loc	0 468 326                       # cpp/csmith1.cpp:468:326
	andb	$1, %al
	movzbl	%al, %eax
                                        # kill: def $ax killed $ax killed $eax
	.loc	0 468 297                       # cpp/csmith1.cpp:468:297
	movl	$14, %esi
	movswl	%ax, %edi
	callq	_ZL28safe_rshift_func_int16_t_s_usj
	.loc	0 468 296                       # cpp/csmith1.cpp:468:296
	movswq	%ax, %rdi
	.loc	0 468 532                       # cpp/csmith1.cpp:468:532
	movl	_ZL6g_1930(%rip), %esi
	.loc	0 468 266                       # cpp/csmith1.cpp:468:266
	callq	_ZL29safe_lshift_func_uint64_t_u_smi
	movq	%rax, %rcx
	.loc	0 468 263                       # cpp/csmith1.cpp:468:263
	movl	$1746, %eax                     # imm = 0x6D2
	cmpq	%rcx, %rax
	setb	%al
	.loc	0 468 254                       # cpp/csmith1.cpp:468:254
	andb	$1, %al
	movzbl	%al, %eax
	.loc	0 468 542                       # cpp/csmith1.cpp:468:542
	cmpl	-5240(%rbp), %eax
	sete	%al
	.loc	0 468 253                       # cpp/csmith1.cpp:468:253
	andb	$1, %al
	movzbl	%al, %eax
                                        # kill: def $ax killed $ax killed $eax
	.loc	0 468 227                       # cpp/csmith1.cpp:468:227
	movl	$4663, %esi                     # imm = 0x1237
	movswl	%ax, %edi
	callq	_ZL25safe_mod_func_int16_t_s_sss
	movq	-5504(%rbp), %rdi               # 8-byte Reload
	.loc	0 468 176                       # cpp/csmith1.cpp:468:176
	movswq	%ax, %rax
	.loc	0 468 568                       # cpp/csmith1.cpp:468:568
	movl	$2978496419, %ecx               # imm = 0xB1883FA3
	cmpq	%rcx, %rax
	setl	%al
	.loc	0 468 175                       # cpp/csmith1.cpp:468:175
	andb	$1, %al
	movzbl	%al, %esi
	.loc	0 468 94                        # cpp/csmith1.cpp:468:94
	callq	_ZL29safe_rshift_func_uint64_t_u_umj
	.loc	0 468 93                        # cpp/csmith1.cpp:468:93
	movl	%eax, %esi
	.loc	0 468 42                        # cpp/csmith1.cpp:468:42
	movabsq	$-8285731994164951014, %rdi     # imm = 0x8D032AA6A7B5881A
	callq	_ZL28safe_lshift_func_int64_t_s_ulj
	.loc	0 468 587                       # cpp/csmith1.cpp:468:587
	orq	$63187, %rax                    # imm = 0xF6D3
	.loc	0 468 40                        # cpp/csmith1.cpp:468:40
	movb	%al, %cl
	.loc	0 468 599                       # cpp/csmith1.cpp:468:599
	movw	_ZL6g_2519(%rip), %ax
                                        # kill: def $al killed $al killed $ax
	.loc	0 468 14                        # cpp/csmith1.cpp:468:14
	movzbl	%cl, %edi
	movzbl	%al, %esi
	callq	_ZL25safe_add_func_uint8_t_u_uhh
	.loc	0 468 13                        # cpp/csmith1.cpp:468:13
	cmpb	$0, %al
.Ltmp339:
	.loc	0 468 13                        # cpp/csmith1.cpp:468:13
	je	.LBB3_117
# %bb.94:
.Ltmp340:
	.loc	0 470 21 is_stmt 1              # cpp/csmith1.cpp:470:21
	movb	$1, -4809(%rbp)
	.loc	0 471 21                        # cpp/csmith1.cpp:471:21
	movl	$2118415308, -5276(%rbp)        # imm = 0x7E4473CC
	.loc	0 472 21                        # cpp/csmith1.cpp:472:21
	movl	$1, -5280(%rbp)
	.loc	0 473 21                        # cpp/csmith1.cpp:473:21
	movl	$1564788400, -5284(%rbp)        # imm = 0x5D44C6B0
	.loc	0 474 21                        # cpp/csmith1.cpp:474:21
	movl	$-72581471, -5288(%rbp)         # imm = 0xFBAC7EA1
	.loc	0 475 21                        # cpp/csmith1.cpp:475:21
	movq	.L__const._ZL6func_1v.l_2552(%rip), %rax
	movq	%rax, -4080(%rbp)
	movq	.L__const._ZL6func_1v.l_2552+8(%rip), %rax
	movq	%rax, -4072(%rbp)
	movq	.L__const._ZL6func_1v.l_2552+16(%rip), %rax
	movq	%rax, -4064(%rbp)
	movq	.L__const._ZL6func_1v.l_2552+24(%rip), %rax
	movq	%rax, -4056(%rbp)
	.loc	0 476 31                        # cpp/csmith1.cpp:476:31
	movb	$0, -5296(%rbp)
	.loc	0 477 21                        # cpp/csmith1.cpp:477:21
	movl	$1200670702, -5300(%rbp)        # imm = 0x4790C7EE
	.loc	0 479 22                        # cpp/csmith1.cpp:479:22
	movw	.L__const._ZL6func_1v.l_2573(%rip), %ax
	movw	%ax, -4816(%rbp)
	.loc	0 480 22                        # cpp/csmith1.cpp:480:22
	leaq	_ZL5g_837(%rip), %rax
	movq	%rax, -5312(%rbp)
	.loc	0 481 37                        # cpp/csmith1.cpp:481:37
	leaq	-4336(%rbp), %rdi
	.loc	0 481 38 is_stmt 0              # cpp/csmith1.cpp:481:38
	leaq	-4809(%rbp), %rax
	movq	%rax, -4336(%rbp)
	leaq	_ZL4g_91(%rip), %rax
	movq	%rax, -4328(%rbp)
	leaq	_ZL4g_91(%rip), %rax
	movq	%rax, -4320(%rbp)
	leaq	_ZL4g_91(%rip), %rax
	movq	%rax, -4312(%rbp)
	leaq	_ZL4g_91(%rip), %rax
	movq	%rax, -4304(%rbp)
	.loc	0 481 37                        # cpp/csmith1.cpp:481:37
	addq	$40, %rdi
	.loc	0 481 72                        # cpp/csmith1.cpp:481:72
	leaq	_ZL4g_91(%rip), %rax
	movq	%rax, -4296(%rbp)
	leaq	-4809(%rbp), %rax
	movq	%rax, -4288(%rbp)
	leaq	_ZL4g_91(%rip), %rax
	movq	%rax, -4280(%rbp)
	leaq	_ZL5g_259(%rip), %rax
	movq	%rax, -4272(%rbp)
	leaq	_ZL4g_91(%rip), %rax
	movq	%rax, -4264(%rbp)
	.loc	0 481 37                        # cpp/csmith1.cpp:481:37
	addq	$40, %rdi
	movq	%rdi, -5512(%rbp)               # 8-byte Spill
	.loc	0 481 107                       # cpp/csmith1.cpp:481:107
	leaq	.Lconstinit(%rip), %rsi
	movl	$40, %edx
	callq	memcpy@PLT
	movq	-5512(%rbp), %rdi               # 8-byte Reload
	.loc	0 481 37                        # cpp/csmith1.cpp:481:37
	addq	$40, %rdi
	.loc	0 481 141                       # cpp/csmith1.cpp:481:141
	leaq	.Lconstinit.130(%rip), %rsi
	movl	$40, %edx
	callq	memcpy@PLT
	.loc	0 481 173                       # cpp/csmith1.cpp:481:173
	leaq	_ZL4g_91(%rip), %rax
	movq	%rax, -4176(%rbp)
	leaq	_ZL5g_259(%rip), %rax
	movq	%rax, -4168(%rbp)
	leaq	_ZL4g_91(%rip), %rax
	movq	%rax, -4160(%rbp)
	leaq	_ZL4g_91(%rip), %rax
	movq	%rax, -4152(%rbp)
	leaq	-4809(%rbp), %rax
	movq	%rax, -4144(%rbp)
	.loc	0 481 208                       # cpp/csmith1.cpp:481:208
	leaq	-4809(%rbp), %rax
	movq	%rax, -4136(%rbp)
	leaq	_ZL5g_259(%rip), %rax
	movq	%rax, -4128(%rbp)
	leaq	_ZL4g_91(%rip), %rax
	movq	%rax, -4120(%rbp)
	leaq	_ZL5g_259(%rip), %rax
	movq	%rax, -4112(%rbp)
	leaq	_ZL4g_91(%rip), %rax
	movq	%rax, -4104(%rbp)
	.loc	0 482 21 is_stmt 1              # cpp/csmith1.cpp:482:21
	movw	$7524, -5314(%rbp)              # imm = 0x1D64
	.loc	0 483 23                        # cpp/csmith1.cpp:483:23
	leaq	-4816(%rbp), %rax
	movq	%rax, -5328(%rbp)
.Ltmp341:
	.loc	0 485 20                        # cpp/csmith1.cpp:485:20
	movl	$0, -5332(%rbp)
.LBB3_95:                               # =>This Inner Loop Header: Depth=1
.Ltmp342:
	.loc	0 485 27 is_stmt 0              # cpp/csmith1.cpp:485:27
	cmpl	$8, -5332(%rbp)
.Ltmp343:
	.loc	0 485 13                        # cpp/csmith1.cpp:485:13
	jge	.LBB3_98
# %bb.96:                               #   in Loop: Header=BB3_95 Depth=1
.Ltmp344:
	.loc	0 486 17 is_stmt 1              # cpp/csmith1.cpp:486:17
	movslq	-5332(%rbp), %rax
	.loc	0 486 27 is_stmt 0              # cpp/csmith1.cpp:486:27
	movw	$1, -4096(%rbp,%rax,2)
# %bb.97:                               #   in Loop: Header=BB3_95 Depth=1
	.loc	0 485 33 is_stmt 1              # cpp/csmith1.cpp:485:33
	movl	-5332(%rbp), %eax
	addl	$1, %eax
	movl	%eax, -5332(%rbp)
	.loc	0 485 13 is_stmt 0              # cpp/csmith1.cpp:485:13
	jmp	.LBB3_95
.Ltmp345:
.LBB3_98:
	.loc	0 487 25 is_stmt 1              # cpp/csmith1.cpp:487:25
	movl	$0, -4708(%rbp)
.LBB3_99:                               # =>This Loop Header: Depth=1
                                        #     Child Loop BB3_101 Depth 2
.Ltmp346:
	.loc	0 487 38 is_stmt 0              # cpp/csmith1.cpp:487:38
	cmpl	$-27, -4708(%rbp)
.Ltmp347:
	.loc	0 487 13                        # cpp/csmith1.cpp:487:13
	jg	.LBB3_106
# %bb.100:                              #   in Loop: Header=BB3_99 Depth=1
.Ltmp348:
	.loc	0 489 25 is_stmt 1              # cpp/csmith1.cpp:489:25
	movl	$-6, -5340(%rbp)
	.loc	0 490 25                        # cpp/csmith1.cpp:490:25
	movl	$-1202443627, -5344(%rbp)       # imm = 0xB8542A95
	.loc	0 491 25                        # cpp/csmith1.cpp:491:25
	movl	$9, -5348(%rbp)
	.loc	0 492 25                        # cpp/csmith1.cpp:492:25
	movl	$1326141411, -5352(%rbp)        # imm = 0x4F0B4FE3
	.loc	0 493 25                        # cpp/csmith1.cpp:493:25
	movl	$-1, -5356(%rbp)
	.loc	0 494 25                        # cpp/csmith1.cpp:494:25
	movl	$-1, -5360(%rbp)
	.loc	0 496 27                        # cpp/csmith1.cpp:496:27
	leaq	-4688(%rbp), %rdi
	leaq	.L__const._ZL6func_1v.l_2564(%rip), %rsi
	movl	$320, %edx                      # imm = 0x140
	callq	memcpy@PLT
.Ltmp349:
	.loc	0 498 24                        # cpp/csmith1.cpp:498:24
	movl	$0, -5364(%rbp)
.LBB3_101:                              #   Parent Loop BB3_99 Depth=1
                                        # =>  This Inner Loop Header: Depth=2
.Ltmp350:
	.loc	0 498 31 is_stmt 0              # cpp/csmith1.cpp:498:31
	cmpl	$8, -5364(%rbp)
.Ltmp351:
	.loc	0 498 17                        # cpp/csmith1.cpp:498:17
	jge	.LBB3_104
# %bb.102:                              #   in Loop: Header=BB3_101 Depth=2
.Ltmp352:
	.loc	0 499 21 is_stmt 1              # cpp/csmith1.cpp:499:21
	movslq	-5364(%rbp), %rax
	.loc	0 499 31 is_stmt 0              # cpp/csmith1.cpp:499:31
	movl	$-476256381, -4368(%rbp,%rax,4) # imm = 0xE39CE783
# %bb.103:                              #   in Loop: Header=BB3_101 Depth=2
	.loc	0 498 37 is_stmt 1              # cpp/csmith1.cpp:498:37
	movl	-5364(%rbp), %eax
	addl	$1, %eax
	movl	%eax, -5364(%rbp)
	.loc	0 498 17 is_stmt 0              # cpp/csmith1.cpp:498:17
	jmp	.LBB3_101
.Ltmp353:
.LBB3_104:                              #   in Loop: Header=BB3_99 Depth=1
	.loc	0 500 13 is_stmt 1              # cpp/csmith1.cpp:500:13
	jmp	.LBB3_105
.Ltmp354:
.LBB3_105:                              #   in Loop: Header=BB3_99 Depth=1
	.loc	0 487 55                        # cpp/csmith1.cpp:487:55
	movl	-4708(%rbp), %eax
	addl	$-1, %eax
	movl	%eax, -4708(%rbp)
	.loc	0 487 13 is_stmt 0              # cpp/csmith1.cpp:487:13
	jmp	.LBB3_99
.Ltmp355:
.LBB3_106:
	.loc	0 501 27 is_stmt 1              # cpp/csmith1.cpp:501:27
	movw	$0, _ZL5g_837(%rip)
.LBB3_107:                              # =>This Loop Header: Depth=1
                                        #     Child Loop BB3_109 Depth 2
.Ltmp356:
	.loc	0 501 32 is_stmt 0              # cpp/csmith1.cpp:501:32
	movswl	_ZL5g_837(%rip), %eax
	.loc	0 501 41                        # cpp/csmith1.cpp:501:41
	cmpl	$1, %eax
.Ltmp357:
	.loc	0 501 13                        # cpp/csmith1.cpp:501:13
	jge	.LBB3_114
# %bb.108:                              #   in Loop: Header=BB3_107 Depth=1
.Ltmp358:
	.loc	0 503 29 is_stmt 1              # cpp/csmith1.cpp:503:29
	movl	$0, _ZL6g_1939(%rip)
.LBB3_109:                              #   Parent Loop BB3_107 Depth=1
                                        # =>  This Inner Loop Header: Depth=2
.Ltmp359:
	.loc	0 503 41 is_stmt 0              # cpp/csmith1.cpp:503:41
	cmpl	$5, _ZL6g_1939(%rip)
.Ltmp360:
	.loc	0 503 17                        # cpp/csmith1.cpp:503:17
	jae	.LBB3_112
# %bb.110:                              #   in Loop: Header=BB3_109 Depth=2
.Ltmp361:
	.loc	0 505 21 is_stmt 1              # cpp/csmith1.cpp:505:21
	movswq	_ZL5g_837(%rip), %rcx
	leaq	_ZL6g_2324(%rip), %rax
	imulq	$20, %rcx, %rcx
	addq	%rcx, %rax
	movl	_ZL6g_1939(%rip), %ecx
                                        # kill: def $rcx killed $ecx
	.loc	0 505 46 is_stmt 0              # cpp/csmith1.cpp:505:46
	movl	$1769521508, (%rax,%rcx,4)      # imm = 0x6978C164
.Ltmp362:
# %bb.111:                              #   in Loop: Header=BB3_109 Depth=2
	.loc	0 503 53 is_stmt 1              # cpp/csmith1.cpp:503:53
	movl	_ZL6g_1939(%rip), %eax
	addl	$1, %eax
	movl	%eax, _ZL6g_1939(%rip)
	.loc	0 503 17 is_stmt 0              # cpp/csmith1.cpp:503:17
	jmp	.LBB3_109
.Ltmp363:
.LBB3_112:                              #   in Loop: Header=BB3_107 Depth=1
	.loc	0 507 13 is_stmt 1              # cpp/csmith1.cpp:507:13
	jmp	.LBB3_113
.Ltmp364:
.LBB3_113:                              #   in Loop: Header=BB3_107 Depth=1
	.loc	0 501 55                        # cpp/csmith1.cpp:501:55
	movswl	_ZL5g_837(%rip), %eax
	addl	$1, %eax
                                        # kill: def $ax killed $ax killed $eax
	movw	%ax, _ZL5g_837(%rip)
	.loc	0 501 13 is_stmt 0              # cpp/csmith1.cpp:501:13
	jmp	.LBB3_107
.Ltmp365:
.LBB3_114:
	.loc	0 508 29 is_stmt 1              # cpp/csmith1.cpp:508:29
	movq	_ZL6g_2504(%rip), %rax
	.loc	0 508 28 is_stmt 0              # cpp/csmith1.cpp:508:28
	movq	(%rax), %rcx
	.loc	0 508 26                        # cpp/csmith1.cpp:508:26
	xorl	%eax, %eax
                                        # kill: def $al killed $al killed $eax
	cmpw	$0, (%rcx)
	movb	%al, -5513(%rbp)                # 1-byte Spill
	.loc	0 508 37                        # cpp/csmith1.cpp:508:37
	je	.LBB3_116
# %bb.115:
	.loc	0 508 40                        # cpp/csmith1.cpp:508:40
	cmpl	$0, _ZL6g_1946(%rip)
	setne	%al
	movb	%al, -5513(%rbp)                # 1-byte Spill
.LBB3_116:
	.loc	0 0 40                          # cpp/csmith1.cpp:0:40
	movb	-5513(%rbp), %al                # 1-byte Reload
	.loc	0 508 25                        # cpp/csmith1.cpp:508:25
	andb	$1, %al
	movzbl	%al, %eax
                                        # kill: def $rax killed $eax
	movq	%rax, -5528(%rbp)               # 8-byte Spill
	.loc	0 508 163                       # cpp/csmith1.cpp:508:163
	movl	-3900(%rbp), %eax
	movl	%eax, -5536(%rbp)               # 4-byte Spill
	.loc	0 508 179                       # cpp/csmith1.cpp:508:179
	movl	-4924(%rbp), %eax
	movl	%eax, -5532(%rbp)               # 4-byte Spill
	.loc	0 508 381                       # cpp/csmith1.cpp:508:381
	movl	-2148(%rbp), %ecx
	movl	%ecx, %eax
	addl	$1, %eax
	movl	%eax, -2148(%rbp)
	.loc	0 508 368                       # cpp/csmith1.cpp:508:368
	movzbl	_ZL5g_259(%rip), %eax
	xorl	%ecx, %eax
                                        # kill: def $al killed $al killed $eax
	movb	%al, _ZL5g_259(%rip)
	.loc	0 508 361                       # cpp/csmith1.cpp:508:361
	movzbl	%al, %eax
	.loc	0 508 359                       # cpp/csmith1.cpp:508:359
	movb	%al, %cl
	.loc	0 508 401                       # cpp/csmith1.cpp:508:401
	movw	_ZL6g_2599(%rip), %ax
	.loc	0 508 397                       # cpp/csmith1.cpp:508:397
	leaq	_ZL6g_2186(%rip), %rax
	cmpq	-5264(%rbp), %rax
	setne	%al
	.loc	0 508 388                       # cpp/csmith1.cpp:508:388
	andb	$1, %al
	.loc	0 508 333                       # cpp/csmith1.cpp:508:333
	movzbl	%cl, %edi
	movzbl	%al, %esi
	callq	_ZL25safe_add_func_uint8_t_u_uhh
	.loc	0 508 332                       # cpp/csmith1.cpp:508:332
	movzbl	%al, %eax
                                        # kill: def $rax killed $eax
	.loc	0 508 421                       # cpp/csmith1.cpp:508:421
	orq	$0, %rax
	.loc	0 508 329                       # cpp/csmith1.cpp:508:329
	xorq	$0, %rax
                                        # kill: def $ax killed $ax killed $rax
	.loc	0 508 302                       # cpp/csmith1.cpp:508:302
	movq	-5248(%rbp), %rcx
	.loc	0 508 310                       # cpp/csmith1.cpp:508:310
	movw	%ax, (%rcx)
	.loc	0 508 273                       # cpp/csmith1.cpp:508:273
	movswl	%ax, %edi
	movswl	-5314(%rbp), %esi
	callq	_ZL25safe_add_func_int16_t_s_sss
	.loc	0 508 272                       # cpp/csmith1.cpp:508:272
	cwtl
	.loc	0 508 270                       # cpp/csmith1.cpp:508:270
	movl	%eax, -4904(%rbp)
	.loc	0 508 247                       # cpp/csmith1.cpp:508:247
	movzwl	-2036(%rbp), %eax
	.loc	0 508 460                       # cpp/csmith1.cpp:508:460
	movzwl	_ZL5g_453(%rip), %ecx
	.loc	0 508 458                       # cpp/csmith1.cpp:508:458
	andl	%ecx, %eax
                                        # kill: def $ax killed $ax killed $eax
	.loc	0 508 219                       # cpp/csmith1.cpp:508:219
	xorl	%esi, %esi
	movzwl	%ax, %edi
	callq	_ZL26safe_mul_func_uint16_t_u_utt
	.loc	0 508 218                       # cpp/csmith1.cpp:508:218
	movzwl	%ax, %eax
                                        # kill: def $rax killed $eax
	.loc	0 508 476                       # cpp/csmith1.cpp:508:476
	movabsq	$8678000381446302913, %rcx      # imm = 0x786E735E70CFACC1
	cmpq	%rcx, %rax
	setge	%al
	.loc	0 508 217                       # cpp/csmith1.cpp:508:217
	andb	$1, %al
	movzbl	%al, %eax
	movw	%ax, %cx
	.loc	0 508 505                       # cpp/csmith1.cpp:508:505
	movq	_ZL6g_2504(%rip), %rax
	.loc	0 508 504                       # cpp/csmith1.cpp:508:504
	movq	(%rax), %rax
	.loc	0 508 190                       # cpp/csmith1.cpp:508:190
	movzwl	%cx, %edi
	movzwl	(%rax), %esi
	callq	_ZL26safe_mul_func_uint16_t_u_utt
	movl	-5536(%rbp), %edi               # 4-byte Reload
	movw	%ax, %cx
	movl	-5532(%rbp), %eax               # 4-byte Reload
	.loc	0 508 189                       # cpp/csmith1.cpp:508:189
	movzwl	%cx, %ecx
	.loc	0 508 186                       # cpp/csmith1.cpp:508:186
	cmpl	%ecx, %eax
	setge	%al
	.loc	0 508 178                       # cpp/csmith1.cpp:508:178
	andb	$1, %al
	movzbl	%al, %esi
	.loc	0 508 516                       # cpp/csmith1.cpp:508:516
	orl	-3888(%rbp), %esi
	.loc	0 508 137                       # cpp/csmith1.cpp:508:137
	callq	_ZL25safe_sub_func_int32_t_s_sii
	movl	%eax, %edi
	.loc	0 508 540                       # cpp/csmith1.cpp:508:540
	movl	-4704(%rbp), %esi
	.loc	0 508 110                       # cpp/csmith1.cpp:508:110
	callq	_ZL25safe_sub_func_int32_t_s_sii
	.loc	0 508 550                       # cpp/csmith1.cpp:508:550
	movq	_ZL6g_2504(%rip), %rcx
	.loc	0 508 549                       # cpp/csmith1.cpp:508:549
	movq	(%rcx), %rcx
	.loc	0 508 547                       # cpp/csmith1.cpp:508:547
	movzwl	(%rcx), %ecx
	.loc	0 508 545                       # cpp/csmith1.cpp:508:545
	xorl	%ecx, %eax
                                        # kill: def $ax killed $ax killed $eax
	.loc	0 508 98                        # cpp/csmith1.cpp:508:98
	movq	-5328(%rbp), %rcx
	.loc	0 508 106                       # cpp/csmith1.cpp:508:106
	movw	%ax, (%rcx)
	.loc	0 508 95                        # cpp/csmith1.cpp:508:95
	movzwl	%ax, %eax
	.loc	0 508 560                       # cpp/csmith1.cpp:508:560
	orl	-3888(%rbp), %eax
	.loc	0 508 94                        # cpp/csmith1.cpp:508:94
	movslq	%eax, %rdi
	.loc	0 508 84                        # cpp/csmith1.cpp:508:84
	movq	-5264(%rbp), %rax
	.loc	0 508 92                        # cpp/csmith1.cpp:508:92
	movq	%rdi, (%rax)
	.loc	0 508 51                        # cpp/csmith1.cpp:508:51
	movl	$36, %esi
	callq	_ZL29safe_rshift_func_uint64_t_u_umj
	movq	%rax, %rcx
	movq	-5528(%rbp), %rax               # 8-byte Reload
	.loc	0 508 48                        # cpp/csmith1.cpp:508:48
	cmpq	%rcx, %rax
	seta	%al
	.loc	0 508 24                        # cpp/csmith1.cpp:508:24
	andb	$1, %al
	movzbl	%al, %ecx
	.loc	0 508 15                        # cpp/csmith1.cpp:508:15
	movq	_ZL5g_140(%rip), %rax
	.loc	0 508 22                        # cpp/csmith1.cpp:508:22
	movl	%ecx, (%rax)
	.loc	0 509 9 is_stmt 1               # cpp/csmith1.cpp:509:9
	jmp	.LBB3_121
.Ltmp366:
.LBB3_117:
	.loc	0 512 25                        # cpp/csmith1.cpp:512:25
	movl	$0, _ZL6g_1904(%rip)
# %bb.118:
.Ltmp367:
	.loc	0 512 38 is_stmt 0              # cpp/csmith1.cpp:512:38
	cmpl	$20, _ZL6g_1904(%rip)
.Ltmp368:
	.loc	0 512 13                        # cpp/csmith1.cpp:512:13
	ja	.LBB3_120
# %bb.119:
.Ltmp369:
	.loc	0 514 26 is_stmt 1              # cpp/csmith1.cpp:514:26
	movq	_ZL5g_452(%rip), %rax
	.loc	0 514 24 is_stmt 0              # cpp/csmith1.cpp:514:24
	movw	(%rax), %ax
	movw	%ax, -4696(%rbp)
	.loc	0 514 17                        # cpp/csmith1.cpp:514:17
	jmp	.LBB3_123
.Ltmp370:
.LBB3_120:
	.loc	0 516 20 is_stmt 1              # cpp/csmith1.cpp:516:20
	movw	-4808(%rbp), %ax
	movw	%ax, -4696(%rbp)
	.loc	0 516 13 is_stmt 0              # cpp/csmith1.cpp:516:13
	jmp	.LBB3_123
.Ltmp371:
.LBB3_121:
	.loc	0 0 13                          # cpp/csmith1.cpp:0:13
	jmp	.LBB3_122
.LBB3_122:
	.loc	0 519 14 is_stmt 1              # cpp/csmith1.cpp:519:14
	movq	-4856(%rbp), %rax
	.loc	0 519 12 is_stmt 0              # cpp/csmith1.cpp:519:12
	movw	(%rax), %ax
	movw	%ax, -4696(%rbp)
.LBB3_123:
	.loc	0 520 1 is_stmt 1               # cpp/csmith1.cpp:520:1
	movw	-4696(%rbp), %ax
	movw	%ax, -5538(%rbp)                # 2-byte Spill
	movq	%fs:40, %rax
	movq	-8(%rbp), %rcx
	cmpq	%rcx, %rax
	jne	.LBB3_125
# %bb.124:
	.loc	0 0 1 is_stmt 0                 # cpp/csmith1.cpp:0:1
	movw	-5538(%rbp), %ax                # 2-byte Reload
	.loc	0 520 1 epilogue_begin          # cpp/csmith1.cpp:520:1
	addq	$5552, %rsp                     # imm = 0x15B0
	popq	%rbp
	.cfi_def_cfa %rsp, 8
	retq
.LBB3_125:
	.cfi_def_cfa %rbp, 16
	.loc	0 0 0                           # cpp/csmith1.cpp:0:0
	callq	__stack_chk_fail@PLT
.Ltmp372:
.Lfunc_end3:
	.size	_ZL6func_1v, .Lfunc_end3-_ZL6func_1v
	.cfi_endproc
                                        # -- End function
	.p2align	4, 0x90                         # -- Begin function _ZL15transparent_crcmPci
	.type	_ZL15transparent_crcmPci,@function
_ZL15transparent_crcmPci:               # @_ZL15transparent_crcmPci
.Lfunc_begin4:
	.loc	4 111 0 is_stmt 1               # /usr/local/include/csmith.h:111:0
	.cfi_startproc
# %bb.0:
	pushq	%rbp
	.cfi_def_cfa_offset 16
	.cfi_offset %rbp, -16
	movq	%rsp, %rbp
	.cfi_def_cfa_register %rbp
	subq	$32, %rsp
	movq	%rdi, -8(%rbp)
	movq	%rsi, -16(%rbp)
	movl	%edx, -20(%rbp)
.Ltmp373:
	.loc	4 112 15 prologue_end           # /usr/local/include/csmith.h:112:15
	movq	-8(%rbp), %rdi
	.loc	4 112 2 is_stmt 0               # /usr/local/include/csmith.h:112:2
	callq	_ZL12crc32_8bytesm
.Ltmp374:
	.loc	4 113 6 is_stmt 1               # /usr/local/include/csmith.h:113:6
	cmpl	$0, -20(%rbp)
.Ltmp375:
	.loc	4 113 6 is_stmt 0               # /usr/local/include/csmith.h:113:6
	je	.LBB4_2
# %bb.1:
.Ltmp376:
	.loc	4 114 52 is_stmt 1              # /usr/local/include/csmith.h:114:52
	movq	-16(%rbp), %rsi
	.loc	4 114 59 is_stmt 0              # /usr/local/include/csmith.h:114:59
	movl	_ZL13crc32_context(%rip), %eax
	movl	%eax, %edx
	.loc	4 114 73                        # /usr/local/include/csmith.h:114:73
	movabsq	$4294967295, %rax               # imm = 0xFFFFFFFF
	xorq	%rax, %rdx
	.loc	4 114 5                         # /usr/local/include/csmith.h:114:5
	leaq	.L.str.134(%rip), %rdi
	movb	$0, %al
	callq	printf@PLT
.Ltmp377:
.LBB4_2:
	.loc	4 116 1 epilogue_begin is_stmt 1 # /usr/local/include/csmith.h:116:1
	addq	$32, %rsp
	popq	%rbp
	.cfi_def_cfa %rsp, 8
	retq
.Ltmp378:
.Lfunc_end4:
	.size	_ZL15transparent_crcmPci, .Lfunc_end4-_ZL15transparent_crcmPci
	.cfi_endproc
                                        # -- End function
	.p2align	4, 0x90                         # -- Begin function _ZL17platform_main_endji
	.type	_ZL17platform_main_endji,@function
_ZL17platform_main_endji:               # @_ZL17platform_main_endji
.Lfunc_begin5:
	.loc	5 50 0                          # /usr/local/include/platform_generic.h:50:0
	.cfi_startproc
# %bb.0:
	pushq	%rbp
	.cfi_def_cfa_offset 16
	.cfi_offset %rbp, -16
	movq	%rsp, %rbp
	.cfi_def_cfa_register %rbp
	subq	$16, %rsp
	movl	%edi, -4(%rbp)
	movl	%esi, -8(%rbp)
.Ltmp379:
	.loc	5 56 29 prologue_end            # /usr/local/include/platform_generic.h:56:29
	movl	-4(%rbp), %esi
	.loc	5 56 2 is_stmt 0                # /usr/local/include/platform_generic.h:56:2
	leaq	.L.str.137(%rip), %rdi
	movb	$0, %al
	callq	printf@PLT
	.loc	5 120 1 epilogue_begin is_stmt 1 # /usr/local/include/platform_generic.h:120:1
	addq	$16, %rsp
	popq	%rbp
	.cfi_def_cfa %rsp, 8
	retq
.Ltmp380:
.Lfunc_end5:
	.size	_ZL17platform_main_endji, .Lfunc_end5-_ZL17platform_main_endji
	.cfi_endproc
                                        # -- End function
	.p2align	4, 0x90                         # -- Begin function _ZL25safe_sub_func_int64_t_s_sll
	.type	_ZL25safe_sub_func_int64_t_s_sll,@function
_ZL25safe_sub_func_int64_t_s_sll:       # @_ZL25safe_sub_func_int64_t_s_sll
.Lfunc_begin6:
	.file	13 "/usr/local/include" "safe_math.h" md5 0xb1553a3e48910d8605a44cb2b53aa46f
	.loc	13 434 0                        # /usr/local/include/safe_math.h:434:0
	.cfi_startproc
# %bb.0:
	pushq	%rbp
	.cfi_def_cfa_offset 16
	.cfi_offset %rbp, -16
	movq	%rsp, %rbp
	.cfi_def_cfa_register %rbp
	movq	%rdi, -8(%rbp)
	movq	%rsi, -16(%rbp)
.Ltmp381:
	.loc	13 439 8 prologue_end           # /usr/local/include/safe_math.h:439:8
	movq	-8(%rbp), %rax
	.loc	13 439 11 is_stmt 0             # /usr/local/include/safe_math.h:439:11
	xorq	-16(%rbp), %rax
	.loc	13 439 22                       # /usr/local/include/safe_math.h:439:22
	movq	-8(%rbp), %rcx
	.loc	13 439 30                       # /usr/local/include/safe_math.h:439:30
	movq	-8(%rbp), %rdx
	.loc	13 439 33                       # /usr/local/include/safe_math.h:439:33
	xorq	-16(%rbp), %rdx
	.loc	13 439 39                       # /usr/local/include/safe_math.h:439:39
	movabsq	$-9223372036854775808, %rsi     # imm = 0x8000000000000000
	andq	%rsi, %rdx
	.loc	13 439 26                       # /usr/local/include/safe_math.h:439:26
	xorq	%rdx, %rcx
	.loc	13 439 55                       # /usr/local/include/safe_math.h:439:55
	subq	-16(%rbp), %rcx
	.loc	13 439 60                       # /usr/local/include/safe_math.h:439:60
	xorq	-16(%rbp), %rcx
	.loc	13 439 17                       # /usr/local/include/safe_math.h:439:17
	andq	%rcx, %rax
	.loc	13 439 67                       # /usr/local/include/safe_math.h:439:67
	cmpq	$0, %rax
	.loc	13 439 5                        # /usr/local/include/safe_math.h:439:5
	jge	.LBB6_2
# %bb.1:
	.loc	13 440 6 is_stmt 1              # /usr/local/include/safe_math.h:440:6
	movq	-8(%rbp), %rax
	movq	%rax, -24(%rbp)                 # 8-byte Spill
	.loc	13 439 5                        # /usr/local/include/safe_math.h:439:5
	jmp	.LBB6_3
.LBB6_2:
	.loc	13 443 6                        # /usr/local/include/safe_math.h:443:6
	movq	-8(%rbp), %rax
	.loc	13 443 10 is_stmt 0             # /usr/local/include/safe_math.h:443:10
	subq	-16(%rbp), %rax
	movq	%rax, -24(%rbp)                 # 8-byte Spill
.LBB6_3:
	.loc	13 0 10                         # /usr/local/include/safe_math.h:0:10
	movq	-24(%rbp), %rax                 # 8-byte Reload
	.loc	13 436 3 epilogue_begin is_stmt 1 # /usr/local/include/safe_math.h:436:3
	popq	%rbp
	.cfi_def_cfa %rsp, 8
	retq
.Ltmp382:
.Lfunc_end6:
	.size	_ZL25safe_sub_func_int64_t_s_sll, .Lfunc_end6-_ZL25safe_sub_func_int64_t_s_sll
	.cfi_endproc
                                        # -- End function
	.p2align	4, 0x90                         # -- Begin function _ZL26safe_add_func_uint64_t_u_umm
	.type	_ZL26safe_add_func_uint64_t_u_umm,@function
_ZL26safe_add_func_uint64_t_u_umm:      # @_ZL26safe_add_func_uint64_t_u_umm
.Lfunc_begin7:
	.loc	13 854 0                        # /usr/local/include/safe_math.h:854:0
	.cfi_startproc
# %bb.0:
	pushq	%rbp
	.cfi_def_cfa_offset 16
	.cfi_offset %rbp, -16
	movq	%rsp, %rbp
	.cfi_def_cfa_register %rbp
	movq	%rdi, -8(%rbp)
	movq	%rsi, -16(%rbp)
.Ltmp383:
	.loc	13 856 10 prologue_end          # /usr/local/include/safe_math.h:856:10
	movq	-8(%rbp), %rax
	.loc	13 856 14 is_stmt 0             # /usr/local/include/safe_math.h:856:14
	addq	-16(%rbp), %rax
	.loc	13 856 3 epilogue_begin         # /usr/local/include/safe_math.h:856:3
	popq	%rbp
	.cfi_def_cfa %rsp, 8
	retq
.Ltmp384:
.Lfunc_end7:
	.size	_ZL26safe_add_func_uint64_t_u_umm, .Lfunc_end7-_ZL26safe_add_func_uint64_t_u_umm
	.cfi_endproc
                                        # -- End function
	.p2align	4, 0x90                         # -- Begin function _ZL24safe_sub_func_int8_t_s_saa
	.type	_ZL24safe_sub_func_int8_t_s_saa,@function
_ZL24safe_sub_func_int8_t_s_saa:        # @_ZL24safe_sub_func_int8_t_s_saa
.Lfunc_begin8:
	.loc	13 43 0 is_stmt 1               # /usr/local/include/safe_math.h:43:0
	.cfi_startproc
# %bb.0:
	pushq	%rbp
	.cfi_def_cfa_offset 16
	.cfi_offset %rbp, -16
	movq	%rsp, %rbp
	.cfi_def_cfa_register %rbp
	movb	%sil, %al
	movb	%dil, %cl
	movb	%cl, -1(%rbp)
	movb	%al, -2(%rbp)
.Ltmp385:
	.loc	13 52 6 prologue_end            # /usr/local/include/safe_math.h:52:6
	movsbl	-1(%rbp), %eax
	.loc	13 52 12 is_stmt 0              # /usr/local/include/safe_math.h:52:12
	movsbl	-2(%rbp), %ecx
	.loc	13 52 10                        # /usr/local/include/safe_math.h:52:10
	subl	%ecx, %eax
                                        # kill: def $al killed $al killed $eax
	.loc	13 45 3 is_stmt 1               # /usr/local/include/safe_math.h:45:3
	movsbl	%al, %eax
	.loc	13 45 3 epilogue_begin is_stmt 0 # /usr/local/include/safe_math.h:45:3
	popq	%rbp
	.cfi_def_cfa %rsp, 8
	retq
.Ltmp386:
.Lfunc_end8:
	.size	_ZL24safe_sub_func_int8_t_s_saa, .Lfunc_end8-_ZL24safe_sub_func_int8_t_s_saa
	.cfi_endproc
                                        # -- End function
	.p2align	4, 0x90                         # -- Begin function _ZL28safe_lshift_func_uint8_t_u_shi
	.type	_ZL28safe_lshift_func_uint8_t_u_shi,@function
_ZL28safe_lshift_func_uint8_t_u_shi:    # @_ZL28safe_lshift_func_uint8_t_u_shi
.Lfunc_begin9:
	.loc	13 592 0 is_stmt 1              # /usr/local/include/safe_math.h:592:0
	.cfi_startproc
# %bb.0:
	pushq	%rbp
	.cfi_def_cfa_offset 16
	.cfi_offset %rbp, -16
	movq	%rsp, %rbp
	.cfi_def_cfa_register %rbp
	movb	%dil, %al
	movb	%al, -1(%rbp)
	movl	%esi, -8(%rbp)
.Ltmp387:
	.loc	13 596 20 prologue_end          # /usr/local/include/safe_math.h:596:20
	cmpl	$0, -8(%rbp)
	.loc	13 596 25 is_stmt 0             # /usr/local/include/safe_math.h:596:25
	jl	.LBB9_3
# %bb.1:
	.loc	13 596 42                       # /usr/local/include/safe_math.h:596:42
	cmpl	$32, -8(%rbp)
	.loc	13 596 49                       # /usr/local/include/safe_math.h:596:49
	jge	.LBB9_3
# %bb.2:
	.loc	13 596 53                       # /usr/local/include/safe_math.h:596:53
	movzbl	-1(%rbp), %eax
	.loc	13 596 80                       # /usr/local/include/safe_math.h:596:80
	movl	-8(%rbp), %ecx
	.loc	13 596 71                       # /usr/local/include/safe_math.h:596:71
	movl	$255, %edx
                                        # kill: def $cl killed $ecx
	sarl	%cl, %edx
	movl	%edx, %ecx
	.loc	13 596 58                       # /usr/local/include/safe_math.h:596:58
	cmpl	%ecx, %eax
	.loc	13 596 5                        # /usr/local/include/safe_math.h:596:5
	jle	.LBB9_4
.LBB9_3:
	.loc	13 597 5 is_stmt 1              # /usr/local/include/safe_math.h:597:5
	movzbl	-1(%rbp), %eax
	movl	%eax, -12(%rbp)                 # 4-byte Spill
	.loc	13 596 5                        # /usr/local/include/safe_math.h:596:5
	jmp	.LBB9_5
.LBB9_4:
	.loc	13 599 6                        # /usr/local/include/safe_math.h:599:6
	movzbl	-1(%rbp), %eax
	.loc	13 599 20 is_stmt 0             # /usr/local/include/safe_math.h:599:20
	movl	-8(%rbp), %ecx
                                        # kill: def $cl killed $ecx
	.loc	13 599 11                       # /usr/local/include/safe_math.h:599:11
	shll	%cl, %eax
	movl	%eax, -12(%rbp)                 # 4-byte Spill
.LBB9_5:
	.loc	13 0 11                         # /usr/local/include/safe_math.h:0:11
	movl	-12(%rbp), %eax                 # 4-byte Reload
                                        # kill: def $al killed $al killed $eax
	.loc	13 594 3 is_stmt 1              # /usr/local/include/safe_math.h:594:3
	movzbl	%al, %eax
	.loc	13 594 3 epilogue_begin is_stmt 0 # /usr/local/include/safe_math.h:594:3
	popq	%rbp
	.cfi_def_cfa %rsp, 8
	retq
.Ltmp388:
.Lfunc_end9:
	.size	_ZL28safe_lshift_func_uint8_t_u_shi, .Lfunc_end9-_ZL28safe_lshift_func_uint8_t_u_shi
	.cfi_endproc
                                        # -- End function
	.p2align	4, 0x90                         # -- Begin function _ZL25safe_add_func_uint8_t_u_uhh
	.type	_ZL25safe_add_func_uint8_t_u_uhh,@function
_ZL25safe_add_func_uint8_t_u_uhh:       # @_ZL25safe_add_func_uint8_t_u_uhh
.Lfunc_begin10:
	.loc	13 547 0 is_stmt 1              # /usr/local/include/safe_math.h:547:0
	.cfi_startproc
# %bb.0:
	pushq	%rbp
	.cfi_def_cfa_offset 16
	.cfi_offset %rbp, -16
	movq	%rsp, %rbp
	.cfi_def_cfa_register %rbp
	movb	%sil, %al
	movb	%dil, %cl
	movb	%cl, -1(%rbp)
	movb	%al, -2(%rbp)
.Ltmp389:
	.loc	13 549 10 prologue_end          # /usr/local/include/safe_math.h:549:10
	movzbl	-1(%rbp), %eax
	.loc	13 549 16 is_stmt 0             # /usr/local/include/safe_math.h:549:16
	movzbl	-2(%rbp), %ecx
	.loc	13 549 14                       # /usr/local/include/safe_math.h:549:14
	addl	%ecx, %eax
                                        # kill: def $al killed $al killed $eax
	.loc	13 549 3                        # /usr/local/include/safe_math.h:549:3
	movzbl	%al, %eax
	.loc	13 549 3 epilogue_begin         # /usr/local/include/safe_math.h:549:3
	popq	%rbp
	.cfi_def_cfa %rsp, 8
	retq
.Ltmp390:
.Lfunc_end10:
	.size	_ZL25safe_add_func_uint8_t_u_uhh, .Lfunc_end10-_ZL25safe_add_func_uint8_t_u_uhh
	.cfi_endproc
                                        # -- End function
	.p2align	4, 0x90                         # -- Begin function _ZL28safe_lshift_func_int16_t_s_usj
	.type	_ZL28safe_lshift_func_int16_t_s_usj,@function
_ZL28safe_lshift_func_int16_t_s_usj:    # @_ZL28safe_lshift_func_int16_t_s_usj
.Lfunc_begin11:
	.loc	13 237 0 is_stmt 1              # /usr/local/include/safe_math.h:237:0
	.cfi_startproc
# %bb.0:
	pushq	%rbp
	.cfi_def_cfa_offset 16
	.cfi_offset %rbp, -16
	movq	%rsp, %rbp
	.cfi_def_cfa_register %rbp
	movw	%di, %ax
	movw	%ax, -2(%rbp)
	movl	%esi, -8(%rbp)
.Ltmp391:
	.loc	13 241 7 prologue_end           # /usr/local/include/safe_math.h:241:7
	movswl	-2(%rbp), %eax
	.loc	13 241 12 is_stmt 0             # /usr/local/include/safe_math.h:241:12
	cmpl	$0, %eax
	.loc	13 241 17                       # /usr/local/include/safe_math.h:241:17
	jl	.LBB11_3
# %bb.1:
	.loc	13 241 43                       # /usr/local/include/safe_math.h:241:43
	cmpl	$32, -8(%rbp)
	.loc	13 241 50                       # /usr/local/include/safe_math.h:241:50
	jae	.LBB11_3
# %bb.2:
	.loc	13 241 54                       # /usr/local/include/safe_math.h:241:54
	movswl	-2(%rbp), %eax
	.loc	13 241 90                       # /usr/local/include/safe_math.h:241:90
	movl	-8(%rbp), %ecx
	.loc	13 241 72                       # /usr/local/include/safe_math.h:241:72
	movl	$32767, %edx                    # imm = 0x7FFF
                                        # kill: def $cl killed $ecx
	sarl	%cl, %edx
	movl	%edx, %ecx
	.loc	13 241 59                       # /usr/local/include/safe_math.h:241:59
	cmpl	%ecx, %eax
	.loc	13 241 5                        # /usr/local/include/safe_math.h:241:5
	jle	.LBB11_4
.LBB11_3:
	.loc	13 242 5 is_stmt 1              # /usr/local/include/safe_math.h:242:5
	movswl	-2(%rbp), %eax
	movl	%eax, -12(%rbp)                 # 4-byte Spill
	.loc	13 241 5                        # /usr/local/include/safe_math.h:241:5
	jmp	.LBB11_5
.LBB11_4:
	.loc	13 244 6                        # /usr/local/include/safe_math.h:244:6
	movswl	-2(%rbp), %eax
	.loc	13 244 29 is_stmt 0             # /usr/local/include/safe_math.h:244:29
	movl	-8(%rbp), %ecx
                                        # kill: def $cl killed $ecx
	.loc	13 244 11                       # /usr/local/include/safe_math.h:244:11
	shll	%cl, %eax
	movl	%eax, -12(%rbp)                 # 4-byte Spill
.LBB11_5:
	.loc	13 0 11                         # /usr/local/include/safe_math.h:0:11
	movl	-12(%rbp), %eax                 # 4-byte Reload
                                        # kill: def $ax killed $ax killed $eax
	.loc	13 239 3 is_stmt 1              # /usr/local/include/safe_math.h:239:3
	cwtl
	.loc	13 239 3 epilogue_begin is_stmt 0 # /usr/local/include/safe_math.h:239:3
	popq	%rbp
	.cfi_def_cfa %rsp, 8
	retq
.Ltmp392:
.Lfunc_end11:
	.size	_ZL28safe_lshift_func_int16_t_s_usj, .Lfunc_end11-_ZL28safe_lshift_func_int16_t_s_usj
	.cfi_endproc
                                        # -- End function
	.p2align	4, 0x90                         # -- Begin function _ZL26safe_add_func_uint32_t_u_ujj
	.type	_ZL26safe_add_func_uint32_t_u_ujj,@function
_ZL26safe_add_func_uint32_t_u_ujj:      # @_ZL26safe_add_func_uint32_t_u_ujj
.Lfunc_begin12:
	.loc	13 751 0 is_stmt 1              # /usr/local/include/safe_math.h:751:0
	.cfi_startproc
# %bb.0:
	pushq	%rbp
	.cfi_def_cfa_offset 16
	.cfi_offset %rbp, -16
	movq	%rsp, %rbp
	.cfi_def_cfa_register %rbp
	movl	%edi, -4(%rbp)
	movl	%esi, -8(%rbp)
.Ltmp393:
	.loc	13 753 10 prologue_end          # /usr/local/include/safe_math.h:753:10
	movl	-4(%rbp), %eax
	.loc	13 753 14 is_stmt 0             # /usr/local/include/safe_math.h:753:14
	addl	-8(%rbp), %eax
	.loc	13 753 3 epilogue_begin         # /usr/local/include/safe_math.h:753:3
	popq	%rbp
	.cfi_def_cfa %rsp, 8
	retq
.Ltmp394:
.Lfunc_end12:
	.size	_ZL26safe_add_func_uint32_t_u_ujj, .Lfunc_end12-_ZL26safe_add_func_uint32_t_u_ujj
	.cfi_endproc
                                        # -- End function
	.p2align	4, 0x90                         # -- Begin function _ZL26safe_div_func_uint16_t_u_utt
	.type	_ZL26safe_div_func_uint16_t_u_utt,@function
_ZL26safe_div_func_uint16_t_u_utt:      # @_ZL26safe_div_func_uint16_t_u_utt
.Lfunc_begin13:
	.loc	13 682 0 is_stmt 1              # /usr/local/include/safe_math.h:682:0
	.cfi_startproc
# %bb.0:
	pushq	%rbp
	.cfi_def_cfa_offset 16
	.cfi_offset %rbp, -16
	movq	%rsp, %rbp
	.cfi_def_cfa_register %rbp
	movw	%si, %ax
	movw	%di, %cx
	movw	%cx, -2(%rbp)
	movw	%ax, -4(%rbp)
.Ltmp395:
	.loc	13 686 6 prologue_end           # /usr/local/include/safe_math.h:686:6
	movzwl	-4(%rbp), %eax
	.loc	13 686 10 is_stmt 0             # /usr/local/include/safe_math.h:686:10
	cmpl	$0, %eax
	.loc	13 686 5                        # /usr/local/include/safe_math.h:686:5
	jne	.LBB13_2
# %bb.1:
	.loc	13 687 5 is_stmt 1              # /usr/local/include/safe_math.h:687:5
	movzwl	-2(%rbp), %eax
	movl	%eax, -8(%rbp)                  # 4-byte Spill
	.loc	13 686 5                        # /usr/local/include/safe_math.h:686:5
	jmp	.LBB13_3
.LBB13_2:
	.loc	13 689 6                        # /usr/local/include/safe_math.h:689:6
	movzwl	-2(%rbp), %eax
	.loc	13 689 12 is_stmt 0             # /usr/local/include/safe_math.h:689:12
	movzwl	-4(%rbp), %ecx
	.loc	13 689 10                       # /usr/local/include/safe_math.h:689:10
	cltd
	idivl	%ecx
	movl	%eax, -8(%rbp)                  # 4-byte Spill
.LBB13_3:
	.loc	13 0 10                         # /usr/local/include/safe_math.h:0:10
	movl	-8(%rbp), %eax                  # 4-byte Reload
                                        # kill: def $ax killed $ax killed $eax
	.loc	13 684 3 is_stmt 1              # /usr/local/include/safe_math.h:684:3
	movzwl	%ax, %eax
	.loc	13 684 3 epilogue_begin is_stmt 0 # /usr/local/include/safe_math.h:684:3
	popq	%rbp
	.cfi_def_cfa %rsp, 8
	retq
.Ltmp396:
.Lfunc_end13:
	.size	_ZL26safe_div_func_uint16_t_u_utt, .Lfunc_end13-_ZL26safe_div_func_uint16_t_u_utt
	.cfi_endproc
                                        # -- End function
	.p2align	4, 0x90                         # -- Begin function _ZL25safe_mul_func_uint8_t_u_uhh
	.type	_ZL25safe_mul_func_uint8_t_u_uhh,@function
_ZL25safe_mul_func_uint8_t_u_uhh:       # @_ZL25safe_mul_func_uint8_t_u_uhh
.Lfunc_begin14:
	.loc	13 561 0 is_stmt 1              # /usr/local/include/safe_math.h:561:0
	.cfi_startproc
# %bb.0:
	pushq	%rbp
	.cfi_def_cfa_offset 16
	.cfi_offset %rbp, -16
	movq	%rsp, %rbp
	.cfi_def_cfa_register %rbp
	movb	%sil, %al
	movb	%dil, %cl
	movb	%cl, -1(%rbp)
	movb	%al, -2(%rbp)
.Ltmp397:
	.loc	13 563 25 prologue_end          # /usr/local/include/safe_math.h:563:25
	movzbl	-1(%rbp), %eax
	.loc	13 563 47 is_stmt 0             # /usr/local/include/safe_math.h:563:47
	movzbl	-2(%rbp), %ecx
	.loc	13 563 30                       # /usr/local/include/safe_math.h:563:30
	imull	%ecx, %eax
                                        # kill: def $al killed $al killed $eax
	.loc	13 563 3                        # /usr/local/include/safe_math.h:563:3
	movzbl	%al, %eax
	.loc	13 563 3 epilogue_begin         # /usr/local/include/safe_math.h:563:3
	popq	%rbp
	.cfi_def_cfa %rsp, 8
	retq
.Ltmp398:
.Lfunc_end14:
	.size	_ZL25safe_mul_func_uint8_t_u_uhh, .Lfunc_end14-_ZL25safe_mul_func_uint8_t_u_uhh
	.cfi_endproc
                                        # -- End function
	.p2align	4, 0x90                         # -- Begin function _ZL29safe_rshift_func_uint16_t_u_sti
	.type	_ZL29safe_rshift_func_uint16_t_u_sti,@function
_ZL29safe_rshift_func_uint16_t_u_sti:   # @_ZL29safe_rshift_func_uint16_t_u_sti
.Lfunc_begin15:
	.loc	13 718 0 is_stmt 1              # /usr/local/include/safe_math.h:718:0
	.cfi_startproc
# %bb.0:
	pushq	%rbp
	.cfi_def_cfa_offset 16
	.cfi_offset %rbp, -16
	movq	%rsp, %rbp
	.cfi_def_cfa_register %rbp
	movw	%di, %ax
	movw	%ax, -2(%rbp)
	movl	%esi, -8(%rbp)
.Ltmp399:
	.loc	13 722 20 prologue_end          # /usr/local/include/safe_math.h:722:20
	cmpl	$0, -8(%rbp)
	.loc	13 722 25 is_stmt 0             # /usr/local/include/safe_math.h:722:25
	jl	.LBB15_2
# %bb.1:
	.loc	13 722 42                       # /usr/local/include/safe_math.h:722:42
	cmpl	$32, -8(%rbp)
	.loc	13 722 5                        # /usr/local/include/safe_math.h:722:5
	jl	.LBB15_3
.LBB15_2:
	.loc	13 723 5 is_stmt 1              # /usr/local/include/safe_math.h:723:5
	movzwl	-2(%rbp), %eax
	movl	%eax, -12(%rbp)                 # 4-byte Spill
	.loc	13 722 5                        # /usr/local/include/safe_math.h:722:5
	jmp	.LBB15_4
.LBB15_3:
	.loc	13 725 6                        # /usr/local/include/safe_math.h:725:6
	movzwl	-2(%rbp), %eax
	.loc	13 725 20 is_stmt 0             # /usr/local/include/safe_math.h:725:20
	movl	-8(%rbp), %ecx
                                        # kill: def $cl killed $ecx
	.loc	13 725 11                       # /usr/local/include/safe_math.h:725:11
	sarl	%cl, %eax
	movl	%eax, -12(%rbp)                 # 4-byte Spill
.LBB15_4:
	.loc	13 0 11                         # /usr/local/include/safe_math.h:0:11
	movl	-12(%rbp), %eax                 # 4-byte Reload
                                        # kill: def $ax killed $ax killed $eax
	.loc	13 720 3 is_stmt 1              # /usr/local/include/safe_math.h:720:3
	movzwl	%ax, %eax
	.loc	13 720 3 epilogue_begin is_stmt 0 # /usr/local/include/safe_math.h:720:3
	popq	%rbp
	.cfi_def_cfa %rsp, 8
	retq
.Ltmp400:
.Lfunc_end15:
	.size	_ZL29safe_rshift_func_uint16_t_u_sti, .Lfunc_end15-_ZL29safe_rshift_func_uint16_t_u_sti
	.cfi_endproc
                                        # -- End function
	.p2align	4, 0x90                         # -- Begin function _ZL26safe_mul_func_uint16_t_u_utt
	.type	_ZL26safe_mul_func_uint16_t_u_utt,@function
_ZL26safe_mul_func_uint16_t_u_utt:      # @_ZL26safe_mul_func_uint16_t_u_utt
.Lfunc_begin16:
	.loc	13 663 0 is_stmt 1              # /usr/local/include/safe_math.h:663:0
	.cfi_startproc
# %bb.0:
	pushq	%rbp
	.cfi_def_cfa_offset 16
	.cfi_offset %rbp, -16
	movq	%rsp, %rbp
	.cfi_def_cfa_register %rbp
	movw	%si, %ax
	movw	%di, %cx
	movw	%cx, -2(%rbp)
	movw	%ax, -4(%rbp)
.Ltmp401:
	.loc	13 665 25 prologue_end          # /usr/local/include/safe_math.h:665:25
	movzwl	-2(%rbp), %eax
	.loc	13 665 47 is_stmt 0             # /usr/local/include/safe_math.h:665:47
	movzwl	-4(%rbp), %ecx
	.loc	13 665 30                       # /usr/local/include/safe_math.h:665:30
	imull	%ecx, %eax
                                        # kill: def $ax killed $ax killed $eax
	.loc	13 665 3                        # /usr/local/include/safe_math.h:665:3
	movzwl	%ax, %eax
	.loc	13 665 3 epilogue_begin         # /usr/local/include/safe_math.h:665:3
	popq	%rbp
	.cfi_def_cfa %rsp, 8
	retq
.Ltmp402:
.Lfunc_end16:
	.size	_ZL26safe_mul_func_uint16_t_u_utt, .Lfunc_end16-_ZL26safe_mul_func_uint16_t_u_utt
	.cfi_endproc
                                        # -- End function
	.p2align	4, 0x90                         # -- Begin function _ZL7func_39i2U0j
	.type	_ZL7func_39i2U0j,@function
_ZL7func_39i2U0j:                       # @_ZL7func_39i2U0j
.Lfunc_begin17:
	.loc	0 1176 0 is_stmt 1              # cpp/csmith1.cpp:1176:0
	.cfi_startproc
# %bb.0:
	pushq	%rbp
	.cfi_def_cfa_offset 16
	.cfi_offset %rbp, -16
	movq	%rsp, %rbp
	.cfi_def_cfa_register %rbp
	subq	$704, %rsp                      # imm = 0x2C0
	movq	%fs:40, %rax
	movq	%rax, -8(%rbp)
	movl	%esi, -568(%rbp)
	movl	%edi, -620(%rbp)
	movl	%edx, -624(%rbp)
.Ltmp403:
	.loc	0 1177 21 prologue_end          # cpp/csmith1.cpp:1177:21
	movl	$8, -576(%rbp)
	.loc	0 1178 15                       # cpp/csmith1.cpp:1178:15
	leaq	-576(%rbp), %rax
	movq	%rax, -632(%rbp)
	.loc	0 1179 15                       # cpp/csmith1.cpp:1179:15
	leaq	-208(%rbp), %rdi
	leaq	.L__const._ZL7func_39i2U0j.l_65(%rip), %rsi
	movl	$192, %edx
	callq	memcpy@PLT
	.loc	0 1180 13                       # cpp/csmith1.cpp:1180:13
	movl	$0, -636(%rbp)
	.loc	0 1181 13                       # cpp/csmith1.cpp:1181:13
	movq	$-1, -648(%rbp)
	.loc	0 1182 21                       # cpp/csmith1.cpp:1182:21
	movb	$0, -616(%rbp)
	.loc	0 1184 13                       # cpp/csmith1.cpp:1184:13
	movl	$-1587066959, -652(%rbp)        # imm = 0xA16747B1
	.loc	0 1185 21                       # cpp/csmith1.cpp:1185:21
	movabsq	$-3918988697788526482, %rax     # imm = 0xC99CF48B058B506E
	movq	%rax, -584(%rbp)
	.loc	0 1186 14                       # cpp/csmith1.cpp:1186:14
	movq	.L__const._ZL7func_39i2U0j.l_692(%rip), %rax
	movq	%rax, -480(%rbp)
	movl	.L__const._ZL7func_39i2U0j.l_692+8(%rip), %eax
	movl	%eax, -472(%rbp)
	.loc	0 1187 14                       # cpp/csmith1.cpp:1187:14
	leaq	-560(%rbp), %rdi
	leaq	.L__const._ZL7func_39i2U0j.l_694(%rip), %rsi
	movl	$80, %edx
	callq	memcpy@PLT
.Ltmp404:
	.loc	0 1189 12                       # cpp/csmith1.cpp:1189:12
	movl	$0, -656(%rbp)
.LBB17_1:                               # =>This Loop Header: Depth=1
                                        #     Child Loop BB17_3 Depth 2
.Ltmp405:
	.loc	0 1189 19 is_stmt 0             # cpp/csmith1.cpp:1189:19
	cmpl	$8, -656(%rbp)
.Ltmp406:
	.loc	0 1189 5                        # cpp/csmith1.cpp:1189:5
	jge	.LBB17_8
# %bb.2:                                #   in Loop: Header=BB17_1 Depth=1
.Ltmp407:
	.loc	0 1191 16 is_stmt 1             # cpp/csmith1.cpp:1191:16
	movl	$0, -660(%rbp)
.LBB17_3:                               #   Parent Loop BB17_1 Depth=1
                                        # =>  This Inner Loop Header: Depth=2
.Ltmp408:
	.loc	0 1191 23 is_stmt 0             # cpp/csmith1.cpp:1191:23
	cmpl	$4, -660(%rbp)
.Ltmp409:
	.loc	0 1191 9                        # cpp/csmith1.cpp:1191:9
	jge	.LBB17_6
# %bb.4:                                #   in Loop: Header=BB17_3 Depth=2
.Ltmp410:
	.loc	0 1192 13 is_stmt 1             # cpp/csmith1.cpp:1192:13
	movslq	-656(%rbp), %rcx
	leaq	-464(%rbp), %rax
	shlq	$5, %rcx
	addq	%rcx, %rax
	movslq	-660(%rbp), %rcx
	.loc	0 1192 24 is_stmt 0             # cpp/csmith1.cpp:1192:24
	leaq	_ZL4g_66(%rip), %rdx
	movq	%rdx, (%rax,%rcx,8)
# %bb.5:                                #   in Loop: Header=BB17_3 Depth=2
	.loc	0 1191 29 is_stmt 1             # cpp/csmith1.cpp:1191:29
	movl	-660(%rbp), %eax
	addl	$1, %eax
	movl	%eax, -660(%rbp)
	.loc	0 1191 9 is_stmt 0              # cpp/csmith1.cpp:1191:9
	jmp	.LBB17_3
.Ltmp411:
.LBB17_6:                               #   in Loop: Header=BB17_1 Depth=1
	.loc	0 1193 5 is_stmt 1              # cpp/csmith1.cpp:1193:5
	jmp	.LBB17_7
.Ltmp412:
.LBB17_7:                               #   in Loop: Header=BB17_1 Depth=1
	.loc	0 1189 25                       # cpp/csmith1.cpp:1189:25
	movl	-656(%rbp), %eax
	addl	$1, %eax
	movl	%eax, -656(%rbp)
	.loc	0 1189 5 is_stmt 0              # cpp/csmith1.cpp:1189:5
	jmp	.LBB17_1
.Ltmp413:
.LBB17_8:
	.loc	0 1194 85 is_stmt 1             # cpp/csmith1.cpp:1194:85
	movq	-632(%rbp), %rdi
	.loc	0 1194 91 is_stmt 0             # cpp/csmith1.cpp:1194:91
	leaq	-576(%rbp), %rsi
	callq	_ZN2U0aSERKS_
	movq	%rax, %rsi
	.loc	0 1194 80                       # cpp/csmith1.cpp:1194:80
	leaq	-568(%rbp), %rdi
	callq	_ZN2U0aSERKS_
	.loc	0 1194 73                       # cpp/csmith1.cpp:1194:73
	movslq	_ZL3g_5(%rip), %rax
	movq	%rax, -696(%rbp)                # 8-byte Spill
	.loc	0 1194 108                      # cpp/csmith1.cpp:1194:108
	movl	_ZL3g_5(%rip), %eax
                                        # kill: def $al killed $al killed $eax
	movb	%al, -681(%rbp)                 # 1-byte Spill
	.loc	0 1194 149                      # cpp/csmith1.cpp:1194:149
	movslq	-636(%rbp), %rax
	.loc	0 1194 286                      # cpp/csmith1.cpp:1194:286
	movq	-648(%rbp), %rax
                                        # kill: def $eax killed $eax killed $rax
	movl	%eax, -680(%rbp)                # 4-byte Spill
	.loc	0 1194 332                      # cpp/csmith1.cpp:1194:332
	movl	-620(%rbp), %eax
	.loc	0 1194 338                      # cpp/csmith1.cpp:1194:338
	cmpl	-624(%rbp), %eax
	seta	%al
	.loc	0 1194 323                      # cpp/csmith1.cpp:1194:323
	andb	$1, %al
	movzbl	%al, %eax
                                        # kill: def $ax killed $ax killed $eax
	.loc	0 1194 347                      # cpp/csmith1.cpp:1194:347
	movl	-620(%rbp), %esi
	.loc	0 1194 294                      # cpp/csmith1.cpp:1194:294
	movswl	%ax, %edi
	callq	_ZL28safe_lshift_func_int16_t_s_ssi
	movw	%ax, %cx
	.loc	0 1194 293                      # cpp/csmith1.cpp:1194:293
	movb	$1, %al
	cmpw	$0, %cx
	movb	%al, -673(%rbp)                 # 1-byte Spill
	.loc	0 1194 354                      # cpp/csmith1.cpp:1194:354
	jne	.LBB17_10
# %bb.9:
	movb	$1, %al
	movb	%al, -673(%rbp)                 # 1-byte Spill
	jmp	.LBB17_10
.LBB17_10:
	.loc	0 0 354                         # cpp/csmith1.cpp:0:354
	movl	-680(%rbp), %edi                # 4-byte Reload
	movb	-673(%rbp), %al                 # 1-byte Reload
	.loc	0 1194 292                      # cpp/csmith1.cpp:1194:292
	movzbl	%al, %esi
	andl	$1, %esi
	.loc	0 1194 259                      # cpp/csmith1.cpp:1194:259
	callq	_ZL26safe_mod_func_uint32_t_u_ujj
	.loc	0 1194 258                      # cpp/csmith1.cpp:1194:258
	movl	%eax, %eax
	movl	%eax, %edi
	movl	$1, %esi
	.loc	0 1194 231                      # cpp/csmith1.cpp:1194:231
	callq	_ZL26safe_div_func_uint64_t_u_umm
	.loc	0 1194 384                      # cpp/csmith1.cpp:1194:384
	movsbl	-616(%rbp), %eax
                                        # kill: def $ax killed $ax killed $eax
	.loc	0 1194 389                      # cpp/csmith1.cpp:1194:389
	movzwl	_ZL3g_5(%rip), %esi
	.loc	0 1194 201                      # cpp/csmith1.cpp:1194:201
	movzwl	%ax, %edi
	callq	_ZL26safe_add_func_uint16_t_u_utt
	.loc	0 1194 200                      # cpp/csmith1.cpp:1194:200
	movzwl	%ax, %ecx
	.loc	0 1194 198                      # cpp/csmith1.cpp:1194:198
	movl	%ecx, -652(%rbp)
	.loc	0 1194 189                      # cpp/csmith1.cpp:1194:189
	subw	$3, %ax
	setae	%al
	.loc	0 1194 184                      # cpp/csmith1.cpp:1194:184
	movzbl	%al, %eax
	movl	%eax, %edi
	.loc	0 1194 398                      # cpp/csmith1.cpp:1194:398
	movslq	-636(%rbp), %rsi
	.loc	0 1194 158                      # cpp/csmith1.cpp:1194:158
	callq	_ZL25safe_sub_func_int64_t_s_sll
	.loc	0 1194 417                      # cpp/csmith1.cpp:1194:417
	movzbl	-648(%rbp), %esi
	xorl	%edi, %edi
	.loc	0 1194 114                      # cpp/csmith1.cpp:1194:114
	callq	_ZL25safe_mod_func_uint8_t_u_uhh
	movq	-696(%rbp), %rdi                # 8-byte Reload
	movb	%al, %cl
	movb	-681(%rbp), %al                 # 1-byte Reload
	.loc	0 1194 113                      # cpp/csmith1.cpp:1194:113
	movzbl	%cl, %edx
	.loc	0 1194 425                      # cpp/csmith1.cpp:1194:425
	movswl	_ZL3g_5(%rip), %ecx
	.loc	0 1194 430                      # cpp/csmith1.cpp:1194:430
	movq	-584(%rbp), %rsi
	movq	%rsi, -592(%rbp)
	.loc	0 1194 65                       # cpp/csmith1.cpp:1194:65
	movq	-592(%rbp), %r8
	movsbl	%al, %esi
	callq	_ZL7func_57majs2U2
	movl	%eax, -672(%rbp)
	.loc	0 1194 57                       # cpp/csmith1.cpp:1194:57
	movl	-672(%rbp), %edi
	callq	_ZL7func_552U0
	movw	%ax, -664(%rbp)
	.loc	0 1194 49                       # cpp/csmith1.cpp:1194:49
	movzwl	-664(%rbp), %edi
	callq	_ZL7func_532U1
	movl	%eax, %edi
	.loc	0 1194 439                      # cpp/csmith1.cpp:1194:439
	movl	_ZL3g_2(%rip), %esi
	.loc	0 1194 444                      # cpp/csmith1.cpp:1194:444
	movw	-476(%rbp), %ax
	movw	%ax, -600(%rbp)
	.loc	0 1194 457                      # cpp/csmith1.cpp:1194:457
	movzwl	-636(%rbp), %ecx
	.loc	0 1194 463                      # cpp/csmith1.cpp:1194:463
	movl	_ZL5g_693(%rip), %eax
	movl	%eax, -608(%rbp)
	.loc	0 1194 41                       # cpp/csmith1.cpp:1194:41
	movl	-608(%rbp), %r8d
	movzwl	-600(%rbp), %edx
	callq	_ZL7func_47ij2U4t2U0
	movl	%eax, %edi
	movl	$-1748839321, %esi              # imm = 0x97C2D467
	.loc	0 1194 15                       # cpp/csmith1.cpp:1194:15
	callq	_ZL25safe_add_func_int32_t_s_sii
	movl	%eax, %ecx
	.loc	0 1194 11                       # cpp/csmith1.cpp:1194:11
	movl	_ZL5g_695(%rip), %eax
	xorl	%ecx, %eax
	movl	%eax, _ZL5g_695(%rip)
	.loc	0 1195 5 is_stmt 1              # cpp/csmith1.cpp:1195:5
	movw	-616(%rbp), %ax
	movw	%ax, -698(%rbp)                 # 2-byte Spill
	movq	%fs:40, %rax
	movq	-8(%rbp), %rcx
	cmpq	%rcx, %rax
	jne	.LBB17_12
# %bb.11:
	.loc	0 0 5 is_stmt 0                 # cpp/csmith1.cpp:0:5
	movw	-698(%rbp), %ax                 # 2-byte Reload
	.loc	0 1195 5 epilogue_begin         # cpp/csmith1.cpp:1195:5
	addq	$704, %rsp                      # imm = 0x2C0
	popq	%rbp
	.cfi_def_cfa %rsp, 8
	retq
.LBB17_12:
	.cfi_def_cfa %rbp, 16
	.loc	0 0 0                           # cpp/csmith1.cpp:0:0
	callq	__stack_chk_fail@PLT
.Ltmp414:
.Lfunc_end17:
	.size	_ZL7func_39i2U0j, .Lfunc_end17-_ZL7func_39i2U0j
	.cfi_endproc
                                        # -- End function
	.p2align	4, 0x90                         # -- Begin function _ZL26safe_mul_func_uint64_t_u_umm
	.type	_ZL26safe_mul_func_uint64_t_u_umm,@function
_ZL26safe_mul_func_uint64_t_u_umm:      # @_ZL26safe_mul_func_uint64_t_u_umm
.Lfunc_begin18:
	.loc	13 868 0 is_stmt 1              # /usr/local/include/safe_math.h:868:0
	.cfi_startproc
# %bb.0:
	pushq	%rbp
	.cfi_def_cfa_offset 16
	.cfi_offset %rbp, -16
	movq	%rsp, %rbp
	.cfi_def_cfa_register %rbp
	movq	%rdi, -8(%rbp)
	movq	%rsi, -16(%rbp)
.Ltmp415:
	.loc	13 870 31 prologue_end          # /usr/local/include/safe_math.h:870:31
	movq	-8(%rbp), %rax
	.loc	13 870 36 is_stmt 0             # /usr/local/include/safe_math.h:870:36
	imulq	-16(%rbp), %rax
	.loc	13 870 3 epilogue_begin         # /usr/local/include/safe_math.h:870:3
	popq	%rbp
	.cfi_def_cfa %rsp, 8
	retq
.Ltmp416:
.Lfunc_end18:
	.size	_ZL26safe_mul_func_uint64_t_u_umm, .Lfunc_end18-_ZL26safe_mul_func_uint64_t_u_umm
	.cfi_endproc
                                        # -- End function
	.p2align	4, 0x90                         # -- Begin function _ZL29safe_rshift_func_uint32_t_u_sji
	.type	_ZL29safe_rshift_func_uint32_t_u_sji,@function
_ZL29safe_rshift_func_uint32_t_u_sji:   # @_ZL29safe_rshift_func_uint32_t_u_sji
.Lfunc_begin19:
	.loc	13 820 0 is_stmt 1              # /usr/local/include/safe_math.h:820:0
	.cfi_startproc
# %bb.0:
	pushq	%rbp
	.cfi_def_cfa_offset 16
	.cfi_offset %rbp, -16
	movq	%rsp, %rbp
	.cfi_def_cfa_register %rbp
	movl	%edi, -4(%rbp)
	movl	%esi, -8(%rbp)
.Ltmp417:
	.loc	13 824 20 prologue_end          # /usr/local/include/safe_math.h:824:20
	cmpl	$0, -8(%rbp)
	.loc	13 824 25 is_stmt 0             # /usr/local/include/safe_math.h:824:25
	jl	.LBB19_2
# %bb.1:
	.loc	13 824 42                       # /usr/local/include/safe_math.h:824:42
	cmpl	$32, -8(%rbp)
	.loc	13 824 5                        # /usr/local/include/safe_math.h:824:5
	jl	.LBB19_3
.LBB19_2:
	.loc	13 825 6 is_stmt 1              # /usr/local/include/safe_math.h:825:6
	movl	-4(%rbp), %eax
	movl	%eax, -12(%rbp)                 # 4-byte Spill
	.loc	13 824 5                        # /usr/local/include/safe_math.h:824:5
	jmp	.LBB19_4
.LBB19_3:
	.loc	13 827 6                        # /usr/local/include/safe_math.h:827:6
	movl	-4(%rbp), %eax
	.loc	13 827 20 is_stmt 0             # /usr/local/include/safe_math.h:827:20
	movl	-8(%rbp), %ecx
                                        # kill: def $cl killed $ecx
	.loc	13 827 11                       # /usr/local/include/safe_math.h:827:11
	shrl	%cl, %eax
	movl	%eax, -12(%rbp)                 # 4-byte Spill
.LBB19_4:
	.loc	13 0 11                         # /usr/local/include/safe_math.h:0:11
	movl	-12(%rbp), %eax                 # 4-byte Reload
	.loc	13 822 3 epilogue_begin is_stmt 1 # /usr/local/include/safe_math.h:822:3
	popq	%rbp
	.cfi_def_cfa %rsp, 8
	retq
.Ltmp418:
.Lfunc_end19:
	.size	_ZL29safe_rshift_func_uint32_t_u_sji, .Lfunc_end19-_ZL29safe_rshift_func_uint32_t_u_sji
	.cfi_endproc
                                        # -- End function
	.p2align	4, 0x90                         # -- Begin function _ZL26safe_sub_func_uint16_t_u_utt
	.type	_ZL26safe_sub_func_uint16_t_u_utt,@function
_ZL26safe_sub_func_uint16_t_u_utt:      # @_ZL26safe_sub_func_uint16_t_u_utt
.Lfunc_begin20:
	.loc	13 656 0                        # /usr/local/include/safe_math.h:656:0
	.cfi_startproc
# %bb.0:
	pushq	%rbp
	.cfi_def_cfa_offset 16
	.cfi_offset %rbp, -16
	movq	%rsp, %rbp
	.cfi_def_cfa_register %rbp
	movw	%si, %ax
	movw	%di, %cx
	movw	%cx, -2(%rbp)
	movw	%ax, -4(%rbp)
.Ltmp419:
	.loc	13 658 10 prologue_end          # /usr/local/include/safe_math.h:658:10
	movzwl	-2(%rbp), %eax
	.loc	13 658 16 is_stmt 0             # /usr/local/include/safe_math.h:658:16
	movzwl	-4(%rbp), %ecx
	.loc	13 658 14                       # /usr/local/include/safe_math.h:658:14
	subl	%ecx, %eax
                                        # kill: def $ax killed $ax killed $eax
	.loc	13 658 3                        # /usr/local/include/safe_math.h:658:3
	movzwl	%ax, %eax
	.loc	13 658 3 epilogue_begin         # /usr/local/include/safe_math.h:658:3
	popq	%rbp
	.cfi_def_cfa %rsp, 8
	retq
.Ltmp420:
.Lfunc_end20:
	.size	_ZL26safe_sub_func_uint16_t_u_utt, .Lfunc_end20-_ZL26safe_sub_func_uint16_t_u_utt
	.cfi_endproc
                                        # -- End function
	.p2align	4, 0x90                         # -- Begin function _ZL31safe_unary_minus_func_int16_t_ss
	.type	_ZL31safe_unary_minus_func_int16_t_ss,@function
_ZL31safe_unary_minus_func_int16_t_ss:  # @_ZL31safe_unary_minus_func_int16_t_ss
.Lfunc_begin21:
	.loc	13 145 0 is_stmt 1              # /usr/local/include/safe_math.h:145:0
	.cfi_startproc
# %bb.0:
	pushq	%rbp
	.cfi_def_cfa_offset 16
	.cfi_offset %rbp, -16
	movq	%rsp, %rbp
	.cfi_def_cfa_register %rbp
	movw	%di, %ax
	movw	%ax, -2(%rbp)
.Ltmp421:
	.loc	13 154 6 prologue_end           # /usr/local/include/safe_math.h:154:6
	movswl	-2(%rbp), %ecx
	.loc	13 154 5 is_stmt 0              # /usr/local/include/safe_math.h:154:5
	xorl	%eax, %eax
	subl	%ecx, %eax
                                        # kill: def $ax killed $ax killed $eax
	.loc	13 147 3 is_stmt 1              # /usr/local/include/safe_math.h:147:3
	cwtl
	.loc	13 147 3 epilogue_begin is_stmt 0 # /usr/local/include/safe_math.h:147:3
	popq	%rbp
	.cfi_def_cfa %rsp, 8
	retq
.Ltmp422:
.Lfunc_end21:
	.size	_ZL31safe_unary_minus_func_int16_t_ss, .Lfunc_end21-_ZL31safe_unary_minus_func_int16_t_ss
	.cfi_endproc
                                        # -- End function
	.p2align	4, 0x90                         # -- Begin function _ZL32safe_unary_minus_func_uint64_t_um
	.type	_ZL32safe_unary_minus_func_uint64_t_um,@function
_ZL32safe_unary_minus_func_uint64_t_um: # @_ZL32safe_unary_minus_func_uint64_t_um
.Lfunc_begin22:
	.loc	13 847 0 is_stmt 1              # /usr/local/include/safe_math.h:847:0
	.cfi_startproc
# %bb.0:
	pushq	%rbp
	.cfi_def_cfa_offset 16
	.cfi_offset %rbp, -16
	movq	%rsp, %rbp
	.cfi_def_cfa_register %rbp
	movq	%rdi, -8(%rbp)
.Ltmp423:
	.loc	13 849 10 prologue_end          # /usr/local/include/safe_math.h:849:10
	xorl	%eax, %eax
                                        # kill: def $rax killed $eax
	subq	-8(%rbp), %rax
	.loc	13 849 3 epilogue_begin is_stmt 0 # /usr/local/include/safe_math.h:849:3
	popq	%rbp
	.cfi_def_cfa %rsp, 8
	retq
.Ltmp424:
.Lfunc_end22:
	.size	_ZL32safe_unary_minus_func_uint64_t_um, .Lfunc_end22-_ZL32safe_unary_minus_func_uint64_t_um
	.cfi_endproc
                                        # -- End function
	.p2align	4, 0x90                         # -- Begin function _ZL25safe_add_func_int64_t_s_sll
	.type	_ZL25safe_add_func_int64_t_s_sll,@function
_ZL25safe_add_func_int64_t_s_sll:       # @_ZL25safe_add_func_int64_t_s_sll
.Lfunc_begin23:
	.loc	13 420 0 is_stmt 1              # /usr/local/include/safe_math.h:420:0
	.cfi_startproc
# %bb.0:
	pushq	%rbp
	.cfi_def_cfa_offset 16
	.cfi_offset %rbp, -16
	movq	%rsp, %rbp
	.cfi_def_cfa_register %rbp
	movq	%rdi, -8(%rbp)
	movq	%rsi, -16(%rbp)
.Ltmp425:
	.loc	13 425 11 prologue_end          # /usr/local/include/safe_math.h:425:11
	cmpq	$0, -8(%rbp)
	.loc	13 425 15 is_stmt 0             # /usr/local/include/safe_math.h:425:15
	jle	.LBB23_3
# %bb.1:
	.loc	13 425 22                       # /usr/local/include/safe_math.h:425:22
	cmpq	$0, -16(%rbp)
	.loc	13 425 26                       # /usr/local/include/safe_math.h:425:26
	jle	.LBB23_3
# %bb.2:
	.loc	13 425 30                       # /usr/local/include/safe_math.h:425:30
	movq	-8(%rbp), %rax
	.loc	13 425 46                       # /usr/local/include/safe_math.h:425:46
	movabsq	$9223372036854775807, %rcx      # imm = 0x7FFFFFFFFFFFFFFF
	subq	-16(%rbp), %rcx
	.loc	13 425 34                       # /usr/local/include/safe_math.h:425:34
	cmpq	%rcx, %rax
	.loc	13 425 54                       # /usr/local/include/safe_math.h:425:54
	jg	.LBB23_6
.LBB23_3:
	.loc	13 425 62                       # /usr/local/include/safe_math.h:425:62
	cmpq	$0, -8(%rbp)
	.loc	13 425 66                       # /usr/local/include/safe_math.h:425:66
	jge	.LBB23_7
# %bb.4:
	.loc	13 425 73                       # /usr/local/include/safe_math.h:425:73
	cmpq	$0, -16(%rbp)
	.loc	13 425 77                       # /usr/local/include/safe_math.h:425:77
	jge	.LBB23_7
# %bb.5:
	.loc	13 425 81                       # /usr/local/include/safe_math.h:425:81
	movq	-8(%rbp), %rax
	.loc	13 425 97                       # /usr/local/include/safe_math.h:425:97
	movabsq	$-9223372036854775808, %rcx     # imm = 0x8000000000000000
	subq	-16(%rbp), %rcx
	.loc	13 425 85                       # /usr/local/include/safe_math.h:425:85
	cmpq	%rcx, %rax
	.loc	13 425 5                        # /usr/local/include/safe_math.h:425:5
	jge	.LBB23_7
.LBB23_6:
	.loc	13 426 6 is_stmt 1              # /usr/local/include/safe_math.h:426:6
	movq	-8(%rbp), %rax
	movq	%rax, -24(%rbp)                 # 8-byte Spill
	.loc	13 425 5                        # /usr/local/include/safe_math.h:425:5
	jmp	.LBB23_8
.LBB23_7:
	.loc	13 429 6                        # /usr/local/include/safe_math.h:429:6
	movq	-8(%rbp), %rax
	.loc	13 429 10 is_stmt 0             # /usr/local/include/safe_math.h:429:10
	addq	-16(%rbp), %rax
	movq	%rax, -24(%rbp)                 # 8-byte Spill
.LBB23_8:
	.loc	13 0 10                         # /usr/local/include/safe_math.h:0:10
	movq	-24(%rbp), %rax                 # 8-byte Reload
	.loc	13 422 3 epilogue_begin is_stmt 1 # /usr/local/include/safe_math.h:422:3
	popq	%rbp
	.cfi_def_cfa %rsp, 8
	retq
.Ltmp426:
.Lfunc_end23:
	.size	_ZL25safe_add_func_int64_t_s_sll, .Lfunc_end23-_ZL25safe_add_func_int64_t_s_sll
	.cfi_endproc
                                        # -- End function
	.p2align	4, 0x90                         # -- Begin function _ZL26safe_mod_func_uint64_t_u_umm
	.type	_ZL26safe_mod_func_uint64_t_u_umm,@function
_ZL26safe_mod_func_uint64_t_u_umm:      # @_ZL26safe_mod_func_uint64_t_u_umm
.Lfunc_begin24:
	.loc	13 875 0                        # /usr/local/include/safe_math.h:875:0
	.cfi_startproc
# %bb.0:
	pushq	%rbp
	.cfi_def_cfa_offset 16
	.cfi_offset %rbp, -16
	movq	%rsp, %rbp
	.cfi_def_cfa_register %rbp
	movq	%rdi, -8(%rbp)
	movq	%rsi, -16(%rbp)
.Ltmp427:
	.loc	13 879 10 prologue_end          # /usr/local/include/safe_math.h:879:10
	cmpq	$0, -16(%rbp)
	.loc	13 879 5 is_stmt 0              # /usr/local/include/safe_math.h:879:5
	jne	.LBB24_2
# %bb.1:
	.loc	13 880 6 is_stmt 1              # /usr/local/include/safe_math.h:880:6
	movq	-8(%rbp), %rdx
	movq	%rdx, -24(%rbp)                 # 8-byte Spill
	.loc	13 879 5                        # /usr/local/include/safe_math.h:879:5
	jmp	.LBB24_3
.LBB24_2:
	.loc	13 882 6                        # /usr/local/include/safe_math.h:882:6
	movq	-8(%rbp), %rax
	.loc	13 882 10 is_stmt 0             # /usr/local/include/safe_math.h:882:10
	xorl	%ecx, %ecx
	movl	%ecx, %edx
	divq	-16(%rbp)
	movq	%rdx, -24(%rbp)                 # 8-byte Spill
.LBB24_3:
	.loc	13 0 10                         # /usr/local/include/safe_math.h:0:10
	movq	-24(%rbp), %rax                 # 8-byte Reload
	.loc	13 877 3 epilogue_begin is_stmt 1 # /usr/local/include/safe_math.h:877:3
	popq	%rbp
	.cfi_def_cfa %rsp, 8
	retq
.Ltmp428:
.Lfunc_end24:
	.size	_ZL26safe_mod_func_uint64_t_u_umm, .Lfunc_end24-_ZL26safe_mod_func_uint64_t_u_umm
	.cfi_endproc
                                        # -- End function
	.p2align	4, 0x90                         # -- Begin function _ZL25safe_mod_func_int16_t_s_sss
	.type	_ZL25safe_mod_func_int16_t_s_sss,@function
_ZL25safe_mod_func_int16_t_s_sss:       # @_ZL25safe_mod_func_int16_t_s_sss
.Lfunc_begin25:
	.loc	13 201 0                        # /usr/local/include/safe_math.h:201:0
	.cfi_startproc
# %bb.0:
	pushq	%rbp
	.cfi_def_cfa_offset 16
	.cfi_offset %rbp, -16
	movq	%rsp, %rbp
	.cfi_def_cfa_register %rbp
	movw	%si, %ax
	movw	%di, %cx
	movw	%cx, -2(%rbp)
	movw	%ax, -4(%rbp)
.Ltmp429:
	.loc	13 205 7 prologue_end           # /usr/local/include/safe_math.h:205:7
	movswl	-4(%rbp), %eax
	.loc	13 205 11 is_stmt 0             # /usr/local/include/safe_math.h:205:11
	cmpl	$0, %eax
	.loc	13 205 17                       # /usr/local/include/safe_math.h:205:17
	je	.LBB25_3
# %bb.1:
	.loc	13 205 22                       # /usr/local/include/safe_math.h:205:22
	movswl	-2(%rbp), %eax
	.loc	13 205 26                       # /usr/local/include/safe_math.h:205:26
	cmpl	$-32768, %eax                   # imm = 0x8000
	.loc	13 205 40                       # /usr/local/include/safe_math.h:205:40
	jne	.LBB25_4
# %bb.2:
	.loc	13 205 44                       # /usr/local/include/safe_math.h:205:44
	movswl	-4(%rbp), %eax
	.loc	13 205 48                       # /usr/local/include/safe_math.h:205:48
	cmpl	$-1, %eax
	.loc	13 205 5                        # /usr/local/include/safe_math.h:205:5
	jne	.LBB25_4
.LBB25_3:
	.loc	13 206 5 is_stmt 1              # /usr/local/include/safe_math.h:206:5
	movswl	-2(%rbp), %edx
	movl	%edx, -8(%rbp)                  # 4-byte Spill
	.loc	13 205 5                        # /usr/local/include/safe_math.h:205:5
	jmp	.LBB25_5
.LBB25_4:
	.loc	13 208 6                        # /usr/local/include/safe_math.h:208:6
	movswl	-2(%rbp), %eax
	.loc	13 208 12 is_stmt 0             # /usr/local/include/safe_math.h:208:12
	movswl	-4(%rbp), %ecx
	.loc	13 208 10                       # /usr/local/include/safe_math.h:208:10
	cltd
	idivl	%ecx
	movl	%edx, -8(%rbp)                  # 4-byte Spill
.LBB25_5:
	.loc	13 0 10                         # /usr/local/include/safe_math.h:0:10
	movl	-8(%rbp), %eax                  # 4-byte Reload
                                        # kill: def $ax killed $ax killed $eax
	.loc	13 203 3 is_stmt 1              # /usr/local/include/safe_math.h:203:3
	cwtl
	.loc	13 203 3 epilogue_begin is_stmt 0 # /usr/local/include/safe_math.h:203:3
	popq	%rbp
	.cfi_def_cfa %rsp, 8
	retq
.Ltmp430:
.Lfunc_end25:
	.size	_ZL25safe_mod_func_int16_t_s_sss, .Lfunc_end25-_ZL25safe_mod_func_int16_t_s_sss
	.cfi_endproc
                                        # -- End function
	.p2align	4, 0x90                         # -- Begin function _ZL26safe_div_func_uint32_t_u_ujj
	.type	_ZL26safe_div_func_uint32_t_u_ujj,@function
_ZL26safe_div_func_uint32_t_u_ujj:      # @_ZL26safe_div_func_uint32_t_u_ujj
.Lfunc_begin26:
	.loc	13 784 0 is_stmt 1              # /usr/local/include/safe_math.h:784:0
	.cfi_startproc
# %bb.0:
	pushq	%rbp
	.cfi_def_cfa_offset 16
	.cfi_offset %rbp, -16
	movq	%rsp, %rbp
	.cfi_def_cfa_register %rbp
	movl	%edi, -4(%rbp)
	movl	%esi, -8(%rbp)
.Ltmp431:
	.loc	13 788 10 prologue_end          # /usr/local/include/safe_math.h:788:10
	cmpl	$0, -8(%rbp)
	.loc	13 788 5 is_stmt 0              # /usr/local/include/safe_math.h:788:5
	jne	.LBB26_2
# %bb.1:
	.loc	13 789 6 is_stmt 1              # /usr/local/include/safe_math.h:789:6
	movl	-4(%rbp), %eax
	movl	%eax, -12(%rbp)                 # 4-byte Spill
	.loc	13 788 5                        # /usr/local/include/safe_math.h:788:5
	jmp	.LBB26_3
.LBB26_2:
	.loc	13 791 6                        # /usr/local/include/safe_math.h:791:6
	movl	-4(%rbp), %eax
	.loc	13 791 10 is_stmt 0             # /usr/local/include/safe_math.h:791:10
	xorl	%edx, %edx
	divl	-8(%rbp)
	movl	%eax, -12(%rbp)                 # 4-byte Spill
.LBB26_3:
	.loc	13 0 10                         # /usr/local/include/safe_math.h:0:10
	movl	-12(%rbp), %eax                 # 4-byte Reload
	.loc	13 786 3 epilogue_begin is_stmt 1 # /usr/local/include/safe_math.h:786:3
	popq	%rbp
	.cfi_def_cfa %rsp, 8
	retq
.Ltmp432:
.Lfunc_end26:
	.size	_ZL26safe_div_func_uint32_t_u_ujj, .Lfunc_end26-_ZL26safe_div_func_uint32_t_u_ujj
	.cfi_endproc
                                        # -- End function
	.section	.text._ZN2U2aSERKS_,"axG",@progbits,_ZN2U2aSERKS_,comdat
	.weak	_ZN2U2aSERKS_                   # -- Begin function _ZN2U2aSERKS_
	.p2align	4, 0x90
	.type	_ZN2U2aSERKS_,@function
_ZN2U2aSERKS_:                          # @_ZN2U2aSERKS_
.Lfunc_begin27:
	.loc	0 64 0                          # cpp/csmith1.cpp:64:0
	.cfi_startproc
# %bb.0:
	pushq	%rbp
	.cfi_def_cfa_offset 16
	.cfi_offset %rbp, -16
	movq	%rsp, %rbp
	.cfi_def_cfa_register %rbp
	movq	%rdi, -16(%rbp)
	movq	%rsi, -24(%rbp)
	movq	-16(%rbp), %rax
	movq	%rax, -32(%rbp)                 # 8-byte Spill
.Ltmp433:
	.loc	0 65 18 prologue_end            # cpp/csmith1.cpp:65:18
	cmpq	-24(%rbp), %rax
.Ltmp434:
	.loc	0 65 13 is_stmt 0               # cpp/csmith1.cpp:65:13
	jne	.LBB27_2
# %bb.1:
	.loc	0 0 13                          # cpp/csmith1.cpp:0:13
	movq	-32(%rbp), %rax                 # 8-byte Reload
.Ltmp435:
	.loc	0 66 13 is_stmt 1               # cpp/csmith1.cpp:66:13
	movq	%rax, -8(%rbp)
	jmp	.LBB27_3
.Ltmp436:
.LBB27_2:
	.loc	0 0 13 is_stmt 0                # cpp/csmith1.cpp:0:13
	movq	-32(%rbp), %rax                 # 8-byte Reload
	.loc	0 68 52 is_stmt 1               # cpp/csmith1.cpp:68:52
	movq	-24(%rbp), %rcx
	.loc	0 68 9 is_stmt 0                # cpp/csmith1.cpp:68:9
	movq	(%rcx), %rcx
	movq	%rcx, (%rax)
	.loc	0 69 9 is_stmt 1                # cpp/csmith1.cpp:69:9
	movq	%rax, -8(%rbp)
.LBB27_3:
	.loc	0 70 5                          # cpp/csmith1.cpp:70:5
	movq	-8(%rbp), %rax
	.loc	0 70 5 epilogue_begin is_stmt 0 # cpp/csmith1.cpp:70:5
	popq	%rbp
	.cfi_def_cfa %rsp, 8
	retq
.Ltmp437:
.Lfunc_end27:
	.size	_ZN2U2aSERKS_, .Lfunc_end27-_ZN2U2aSERKS_
	.cfi_endproc
                                        # -- End function
	.text
	.p2align	4, 0x90                         # -- Begin function _ZL26safe_div_func_uint64_t_u_umm
	.type	_ZL26safe_div_func_uint64_t_u_umm,@function
_ZL26safe_div_func_uint64_t_u_umm:      # @_ZL26safe_div_func_uint64_t_u_umm
.Lfunc_begin28:
	.loc	13 887 0 is_stmt 1              # /usr/local/include/safe_math.h:887:0
	.cfi_startproc
# %bb.0:
	pushq	%rbp
	.cfi_def_cfa_offset 16
	.cfi_offset %rbp, -16
	movq	%rsp, %rbp
	.cfi_def_cfa_register %rbp
	movq	%rdi, -8(%rbp)
	movq	%rsi, -16(%rbp)
.Ltmp438:
	.loc	13 891 10 prologue_end          # /usr/local/include/safe_math.h:891:10
	cmpq	$0, -16(%rbp)
	.loc	13 891 5 is_stmt 0              # /usr/local/include/safe_math.h:891:5
	jne	.LBB28_2
# %bb.1:
	.loc	13 892 6 is_stmt 1              # /usr/local/include/safe_math.h:892:6
	movq	-8(%rbp), %rax
	movq	%rax, -24(%rbp)                 # 8-byte Spill
	.loc	13 891 5                        # /usr/local/include/safe_math.h:891:5
	jmp	.LBB28_3
.LBB28_2:
	.loc	13 894 6                        # /usr/local/include/safe_math.h:894:6
	movq	-8(%rbp), %rax
	.loc	13 894 10 is_stmt 0             # /usr/local/include/safe_math.h:894:10
	xorl	%ecx, %ecx
	movl	%ecx, %edx
	divq	-16(%rbp)
	movq	%rax, -24(%rbp)                 # 8-byte Spill
.LBB28_3:
	.loc	13 0 10                         # /usr/local/include/safe_math.h:0:10
	movq	-24(%rbp), %rax                 # 8-byte Reload
	.loc	13 889 3 epilogue_begin is_stmt 1 # /usr/local/include/safe_math.h:889:3
	popq	%rbp
	.cfi_def_cfa %rsp, 8
	retq
.Ltmp439:
.Lfunc_end28:
	.size	_ZL26safe_div_func_uint64_t_u_umm, .Lfunc_end28-_ZL26safe_div_func_uint64_t_u_umm
	.cfi_endproc
                                        # -- End function
	.p2align	4, 0x90                         # -- Begin function _ZL28safe_lshift_func_int64_t_s_sli
	.type	_ZL28safe_lshift_func_int64_t_s_sli,@function
_ZL28safe_lshift_func_int64_t_s_sli:    # @_ZL28safe_lshift_func_int64_t_s_sli
.Lfunc_begin29:
	.loc	13 486 0                        # /usr/local/include/safe_math.h:486:0
	.cfi_startproc
# %bb.0:
	pushq	%rbp
	.cfi_def_cfa_offset 16
	.cfi_offset %rbp, -16
	movq	%rsp, %rbp
	.cfi_def_cfa_register %rbp
	movq	%rdi, -8(%rbp)
	movl	%esi, -12(%rbp)
.Ltmp440:
	.loc	13 490 12 prologue_end          # /usr/local/include/safe_math.h:490:12
	cmpq	$0, -8(%rbp)
	.loc	13 490 17 is_stmt 0             # /usr/local/include/safe_math.h:490:17
	jl	.LBB29_4
# %bb.1:
	.loc	13 490 34                       # /usr/local/include/safe_math.h:490:34
	cmpl	$0, -12(%rbp)
	.loc	13 490 39                       # /usr/local/include/safe_math.h:490:39
	jl	.LBB29_4
# %bb.2:
	.loc	13 490 56                       # /usr/local/include/safe_math.h:490:56
	cmpl	$32, -12(%rbp)
	.loc	13 490 63                       # /usr/local/include/safe_math.h:490:63
	jge	.LBB29_4
# %bb.3:
	.loc	13 490 67                       # /usr/local/include/safe_math.h:490:67
	movq	-8(%rbp), %rax
	.loc	13 490 85                       # /usr/local/include/safe_math.h:490:85
	movl	-12(%rbp), %ecx
                                        # kill: def $rcx killed $ecx
	movabsq	$9223372036854775807, %rdx      # imm = 0x7FFFFFFFFFFFFFFF
                                        # kill: def $cl killed $rcx
	sarq	%cl, %rdx
	movq	%rdx, %rcx
	.loc	13 490 72                       # /usr/local/include/safe_math.h:490:72
	cmpq	%rcx, %rax
	.loc	13 490 5                        # /usr/local/include/safe_math.h:490:5
	jle	.LBB29_5
.LBB29_4:
	.loc	13 491 6 is_stmt 1              # /usr/local/include/safe_math.h:491:6
	movq	-8(%rbp), %rax
	movq	%rax, -24(%rbp)                 # 8-byte Spill
	.loc	13 490 5                        # /usr/local/include/safe_math.h:490:5
	jmp	.LBB29_6
.LBB29_5:
	.loc	13 493 6                        # /usr/local/include/safe_math.h:493:6
	movq	-8(%rbp), %rax
	.loc	13 493 11 is_stmt 0             # /usr/local/include/safe_math.h:493:11
	movl	-12(%rbp), %ecx
                                        # kill: def $rcx killed $ecx
                                        # kill: def $cl killed $rcx
	shlq	%cl, %rax
	movq	%rax, -24(%rbp)                 # 8-byte Spill
.LBB29_6:
	.loc	13 0 11                         # /usr/local/include/safe_math.h:0:11
	movq	-24(%rbp), %rax                 # 8-byte Reload
	.loc	13 488 3 epilogue_begin is_stmt 1 # /usr/local/include/safe_math.h:488:3
	popq	%rbp
	.cfi_def_cfa %rsp, 8
	retq
.Ltmp441:
.Lfunc_end29:
	.size	_ZL28safe_lshift_func_int64_t_s_sli, .Lfunc_end29-_ZL28safe_lshift_func_int64_t_s_sli
	.cfi_endproc
                                        # -- End function
	.p2align	4, 0x90                         # -- Begin function _ZL25safe_mul_func_int16_t_s_sss
	.type	_ZL25safe_mul_func_int16_t_s_sss,@function
_ZL25safe_mul_func_int16_t_s_sss:       # @_ZL25safe_mul_func_int16_t_s_sss
.Lfunc_begin30:
	.loc	13 187 0                        # /usr/local/include/safe_math.h:187:0
	.cfi_startproc
# %bb.0:
	pushq	%rbp
	.cfi_def_cfa_offset 16
	.cfi_offset %rbp, -16
	movq	%rsp, %rbp
	.cfi_def_cfa_register %rbp
	movw	%si, %ax
	movw	%di, %cx
	movw	%cx, -2(%rbp)
	movw	%ax, -4(%rbp)
.Ltmp442:
	.loc	13 196 5 prologue_end           # /usr/local/include/safe_math.h:196:5
	movswl	-2(%rbp), %eax
	.loc	13 196 11 is_stmt 0             # /usr/local/include/safe_math.h:196:11
	movswl	-4(%rbp), %ecx
	.loc	13 196 9                        # /usr/local/include/safe_math.h:196:9
	imull	%ecx, %eax
                                        # kill: def $ax killed $ax killed $eax
	.loc	13 189 3 is_stmt 1              # /usr/local/include/safe_math.h:189:3
	cwtl
	.loc	13 189 3 epilogue_begin is_stmt 0 # /usr/local/include/safe_math.h:189:3
	popq	%rbp
	.cfi_def_cfa %rsp, 8
	retq
.Ltmp443:
.Lfunc_end30:
	.size	_ZL25safe_mul_func_int16_t_s_sss, .Lfunc_end30-_ZL25safe_mul_func_int16_t_s_sss
	.cfi_endproc
                                        # -- End function
	.p2align	4, 0x90                         # -- Begin function _ZL25safe_mod_func_int64_t_s_sll
	.type	_ZL25safe_mod_func_int64_t_s_sll,@function
_ZL25safe_mod_func_int64_t_s_sll:       # @_ZL25safe_mod_func_int64_t_s_sll
.Lfunc_begin31:
	.loc	13 462 0 is_stmt 1              # /usr/local/include/safe_math.h:462:0
	.cfi_startproc
# %bb.0:
	pushq	%rbp
	.cfi_def_cfa_offset 16
	.cfi_offset %rbp, -16
	movq	%rsp, %rbp
	.cfi_def_cfa_register %rbp
	movq	%rdi, -8(%rbp)
	movq	%rsi, -16(%rbp)
.Ltmp444:
	.loc	13 466 11 prologue_end          # /usr/local/include/safe_math.h:466:11
	cmpq	$0, -16(%rbp)
	.loc	13 466 17 is_stmt 0             # /usr/local/include/safe_math.h:466:17
	je	.LBB31_3
# %bb.1:
	.loc	13 466 40                       # /usr/local/include/safe_math.h:466:40
	movabsq	$-9223372036854775808, %rax     # imm = 0x8000000000000000
	.loc	13 466 26                       # /usr/local/include/safe_math.h:466:26
	cmpq	%rax, -8(%rbp)
	.loc	13 466 40                       # /usr/local/include/safe_math.h:466:40
	jne	.LBB31_4
# %bb.2:
	.loc	13 466 48                       # /usr/local/include/safe_math.h:466:48
	cmpq	$-1, -16(%rbp)
	.loc	13 466 5                        # /usr/local/include/safe_math.h:466:5
	jne	.LBB31_4
.LBB31_3:
	.loc	13 467 6 is_stmt 1              # /usr/local/include/safe_math.h:467:6
	movq	-8(%rbp), %rdx
	movq	%rdx, -24(%rbp)                 # 8-byte Spill
	.loc	13 466 5                        # /usr/local/include/safe_math.h:466:5
	jmp	.LBB31_5
.LBB31_4:
	.loc	13 469 6                        # /usr/local/include/safe_math.h:469:6
	movq	-8(%rbp), %rax
	.loc	13 469 10 is_stmt 0             # /usr/local/include/safe_math.h:469:10
	cqto
	idivq	-16(%rbp)
	movq	%rdx, -24(%rbp)                 # 8-byte Spill
.LBB31_5:
	.loc	13 0 10                         # /usr/local/include/safe_math.h:0:10
	movq	-24(%rbp), %rax                 # 8-byte Reload
	.loc	13 464 3 epilogue_begin is_stmt 1 # /usr/local/include/safe_math.h:464:3
	popq	%rbp
	.cfi_def_cfa %rsp, 8
	retq
.Ltmp445:
.Lfunc_end31:
	.size	_ZL25safe_mod_func_int64_t_s_sll, .Lfunc_end31-_ZL25safe_mod_func_int64_t_s_sll
	.cfi_endproc
                                        # -- End function
	.p2align	4, 0x90                         # -- Begin function _ZL24safe_add_func_int8_t_s_saa
	.type	_ZL24safe_add_func_int8_t_s_saa,@function
_ZL24safe_add_func_int8_t_s_saa:        # @_ZL24safe_add_func_int8_t_s_saa
.Lfunc_begin32:
	.loc	13 29 0                         # /usr/local/include/safe_math.h:29:0
	.cfi_startproc
# %bb.0:
	pushq	%rbp
	.cfi_def_cfa_offset 16
	.cfi_offset %rbp, -16
	movq	%rsp, %rbp
	.cfi_def_cfa_register %rbp
	movb	%sil, %al
	movb	%dil, %cl
	movb	%cl, -1(%rbp)
	movb	%al, -2(%rbp)
.Ltmp446:
	.loc	13 38 6 prologue_end            # /usr/local/include/safe_math.h:38:6
	movsbl	-1(%rbp), %eax
	.loc	13 38 12 is_stmt 0              # /usr/local/include/safe_math.h:38:12
	movsbl	-2(%rbp), %ecx
	.loc	13 38 10                        # /usr/local/include/safe_math.h:38:10
	addl	%ecx, %eax
                                        # kill: def $al killed $al killed $eax
	.loc	13 31 3 is_stmt 1               # /usr/local/include/safe_math.h:31:3
	movsbl	%al, %eax
	.loc	13 31 3 epilogue_begin is_stmt 0 # /usr/local/include/safe_math.h:31:3
	popq	%rbp
	.cfi_def_cfa %rsp, 8
	retq
.Ltmp447:
.Lfunc_end32:
	.size	_ZL24safe_add_func_int8_t_s_saa, .Lfunc_end32-_ZL24safe_add_func_int8_t_s_saa
	.cfi_endproc
                                        # -- End function
	.p2align	4, 0x90                         # -- Begin function _ZL31safe_unary_minus_func_int64_t_sl
	.type	_ZL31safe_unary_minus_func_int64_t_sl,@function
_ZL31safe_unary_minus_func_int64_t_sl:  # @_ZL31safe_unary_minus_func_int64_t_sl
.Lfunc_begin33:
	.loc	13 406 0 is_stmt 1              # /usr/local/include/safe_math.h:406:0
	.cfi_startproc
# %bb.0:
	pushq	%rbp
	.cfi_def_cfa_offset 16
	.cfi_offset %rbp, -16
	movq	%rsp, %rbp
	.cfi_def_cfa_register %rbp
	movq	%rdi, -8(%rbp)
.Ltmp448:
	.loc	13 411 5 prologue_end           # /usr/local/include/safe_math.h:411:5
	movabsq	$-9223372036854775808, %rax     # imm = 0x8000000000000000
	.loc	13 411 8 is_stmt 0              # /usr/local/include/safe_math.h:411:8
	cmpq	%rax, -8(%rbp)
	.loc	13 411 5                        # /usr/local/include/safe_math.h:411:5
	jne	.LBB33_2
# %bb.1:
	.loc	13 412 6 is_stmt 1              # /usr/local/include/safe_math.h:412:6
	movq	-8(%rbp), %rax
	movq	%rax, -16(%rbp)                 # 8-byte Spill
	.loc	13 411 5                        # /usr/local/include/safe_math.h:411:5
	jmp	.LBB33_3
.LBB33_2:
	.loc	13 415 5                        # /usr/local/include/safe_math.h:415:5
	xorl	%eax, %eax
                                        # kill: def $rax killed $eax
	subq	-8(%rbp), %rax
	movq	%rax, -16(%rbp)                 # 8-byte Spill
.LBB33_3:
	.loc	13 0 5 is_stmt 0                # /usr/local/include/safe_math.h:0:5
	movq	-16(%rbp), %rax                 # 8-byte Reload
	.loc	13 408 3 epilogue_begin is_stmt 1 # /usr/local/include/safe_math.h:408:3
	popq	%rbp
	.cfi_def_cfa %rsp, 8
	retq
.Ltmp449:
.Lfunc_end33:
	.size	_ZL31safe_unary_minus_func_int64_t_sl, .Lfunc_end33-_ZL31safe_unary_minus_func_int64_t_sl
	.cfi_endproc
                                        # -- End function
	.p2align	4, 0x90                         # -- Begin function _ZL29safe_lshift_func_uint32_t_u_sji
	.type	_ZL29safe_lshift_func_uint32_t_u_sji,@function
_ZL29safe_lshift_func_uint32_t_u_sji:   # @_ZL29safe_lshift_func_uint32_t_u_sji
.Lfunc_begin34:
	.loc	13 796 0                        # /usr/local/include/safe_math.h:796:0
	.cfi_startproc
# %bb.0:
	pushq	%rbp
	.cfi_def_cfa_offset 16
	.cfi_offset %rbp, -16
	movq	%rsp, %rbp
	.cfi_def_cfa_register %rbp
	movl	%edi, -4(%rbp)
	movl	%esi, -8(%rbp)
.Ltmp450:
	.loc	13 800 20 prologue_end          # /usr/local/include/safe_math.h:800:20
	cmpl	$0, -8(%rbp)
	.loc	13 800 25 is_stmt 0             # /usr/local/include/safe_math.h:800:25
	jl	.LBB34_3
# %bb.1:
	.loc	13 800 42                       # /usr/local/include/safe_math.h:800:42
	cmpl	$32, -8(%rbp)
	.loc	13 800 49                       # /usr/local/include/safe_math.h:800:49
	jge	.LBB34_3
# %bb.2:
	.loc	13 800 53                       # /usr/local/include/safe_math.h:800:53
	movl	-4(%rbp), %eax
	.loc	13 800 81                       # /usr/local/include/safe_math.h:800:81
	movl	-8(%rbp), %ecx
	.loc	13 800 72                       # /usr/local/include/safe_math.h:800:72
	movl	$4294967295, %edx               # imm = 0xFFFFFFFF
                                        # kill: def $cl killed $ecx
	shrl	%cl, %edx
	movl	%edx, %ecx
	.loc	13 800 58                       # /usr/local/include/safe_math.h:800:58
	cmpl	%ecx, %eax
	.loc	13 800 5                        # /usr/local/include/safe_math.h:800:5
	jbe	.LBB34_4
.LBB34_3:
	.loc	13 801 6 is_stmt 1              # /usr/local/include/safe_math.h:801:6
	movl	-4(%rbp), %eax
	movl	%eax, -12(%rbp)                 # 4-byte Spill
	.loc	13 800 5                        # /usr/local/include/safe_math.h:800:5
	jmp	.LBB34_5
.LBB34_4:
	.loc	13 803 6                        # /usr/local/include/safe_math.h:803:6
	movl	-4(%rbp), %eax
	.loc	13 803 20 is_stmt 0             # /usr/local/include/safe_math.h:803:20
	movl	-8(%rbp), %ecx
                                        # kill: def $cl killed $ecx
	.loc	13 803 11                       # /usr/local/include/safe_math.h:803:11
	shll	%cl, %eax
	movl	%eax, -12(%rbp)                 # 4-byte Spill
.LBB34_5:
	.loc	13 0 11                         # /usr/local/include/safe_math.h:0:11
	movl	-12(%rbp), %eax                 # 4-byte Reload
	.loc	13 798 3 epilogue_begin is_stmt 1 # /usr/local/include/safe_math.h:798:3
	popq	%rbp
	.cfi_def_cfa %rsp, 8
	retq
.Ltmp451:
.Lfunc_end34:
	.size	_ZL29safe_lshift_func_uint32_t_u_sji, .Lfunc_end34-_ZL29safe_lshift_func_uint32_t_u_sji
	.cfi_endproc
                                        # -- End function
	.p2align	4, 0x90                         # -- Begin function _ZL28safe_rshift_func_int32_t_s_sii
	.type	_ZL28safe_rshift_func_int32_t_s_sii,@function
_ZL28safe_rshift_func_int32_t_s_sii:    # @_ZL28safe_rshift_func_int32_t_s_sii
.Lfunc_begin35:
	.loc	13 379 0                        # /usr/local/include/safe_math.h:379:0
	.cfi_startproc
# %bb.0:
	pushq	%rbp
	.cfi_def_cfa_offset 16
	.cfi_offset %rbp, -16
	movq	%rsp, %rbp
	.cfi_def_cfa_register %rbp
	movl	%edi, -4(%rbp)
	movl	%esi, -8(%rbp)
.Ltmp452:
	.loc	13 383 12 prologue_end          # /usr/local/include/safe_math.h:383:12
	cmpl	$0, -4(%rbp)
	.loc	13 383 17 is_stmt 0             # /usr/local/include/safe_math.h:383:17
	jl	.LBB35_3
# %bb.1:
	.loc	13 383 34                       # /usr/local/include/safe_math.h:383:34
	cmpl	$0, -8(%rbp)
	.loc	13 383 39                       # /usr/local/include/safe_math.h:383:39
	jl	.LBB35_3
# %bb.2:
	.loc	13 383 56                       # /usr/local/include/safe_math.h:383:56
	cmpl	$32, -8(%rbp)
	.loc	13 383 5                        # /usr/local/include/safe_math.h:383:5
	jl	.LBB35_4
.LBB35_3:
	.loc	13 384 6 is_stmt 1              # /usr/local/include/safe_math.h:384:6
	movl	-4(%rbp), %eax
	movl	%eax, -12(%rbp)                 # 4-byte Spill
	.loc	13 383 5                        # /usr/local/include/safe_math.h:383:5
	jmp	.LBB35_5
.LBB35_4:
	.loc	13 386 6                        # /usr/local/include/safe_math.h:386:6
	movl	-4(%rbp), %eax
	.loc	13 386 20 is_stmt 0             # /usr/local/include/safe_math.h:386:20
	movl	-8(%rbp), %ecx
                                        # kill: def $cl killed $ecx
	.loc	13 386 11                       # /usr/local/include/safe_math.h:386:11
	sarl	%cl, %eax
	movl	%eax, -12(%rbp)                 # 4-byte Spill
.LBB35_5:
	.loc	13 0 11                         # /usr/local/include/safe_math.h:0:11
	movl	-12(%rbp), %eax                 # 4-byte Reload
	.loc	13 381 3 epilogue_begin is_stmt 1 # /usr/local/include/safe_math.h:381:3
	popq	%rbp
	.cfi_def_cfa %rsp, 8
	retq
.Ltmp453:
.Lfunc_end35:
	.size	_ZL28safe_rshift_func_int32_t_s_sii, .Lfunc_end35-_ZL28safe_rshift_func_int32_t_s_sii
	.cfi_endproc
                                        # -- End function
	.p2align	4, 0x90                         # -- Begin function _ZL28safe_rshift_func_int16_t_s_ssi
	.type	_ZL28safe_rshift_func_int16_t_s_ssi,@function
_ZL28safe_rshift_func_int16_t_s_ssi:    # @_ZL28safe_rshift_func_int16_t_s_ssi
.Lfunc_begin36:
	.loc	13 249 0                        # /usr/local/include/safe_math.h:249:0
	.cfi_startproc
# %bb.0:
	pushq	%rbp
	.cfi_def_cfa_offset 16
	.cfi_offset %rbp, -16
	movq	%rsp, %rbp
	.cfi_def_cfa_register %rbp
	movw	%di, %ax
	movw	%ax, -2(%rbp)
	movl	%esi, -8(%rbp)
.Ltmp454:
	.loc	13 253 7 prologue_end           # /usr/local/include/safe_math.h:253:7
	movswl	-2(%rbp), %eax
	.loc	13 253 12 is_stmt 0             # /usr/local/include/safe_math.h:253:12
	cmpl	$0, %eax
	.loc	13 253 17                       # /usr/local/include/safe_math.h:253:17
	jl	.LBB36_3
# %bb.1:
	.loc	13 253 34                       # /usr/local/include/safe_math.h:253:34
	cmpl	$0, -8(%rbp)
	.loc	13 253 39                       # /usr/local/include/safe_math.h:253:39
	jl	.LBB36_3
# %bb.2:
	.loc	13 253 56                       # /usr/local/include/safe_math.h:253:56
	cmpl	$32, -8(%rbp)
	.loc	13 253 5                        # /usr/local/include/safe_math.h:253:5
	jl	.LBB36_4
.LBB36_3:
	.loc	13 254 5 is_stmt 1              # /usr/local/include/safe_math.h:254:5
	movswl	-2(%rbp), %eax
	movl	%eax, -12(%rbp)                 # 4-byte Spill
	.loc	13 253 5                        # /usr/local/include/safe_math.h:253:5
	jmp	.LBB36_5
.LBB36_4:
	.loc	13 256 6                        # /usr/local/include/safe_math.h:256:6
	movswl	-2(%rbp), %eax
	.loc	13 256 20 is_stmt 0             # /usr/local/include/safe_math.h:256:20
	movl	-8(%rbp), %ecx
                                        # kill: def $cl killed $ecx
	.loc	13 256 11                       # /usr/local/include/safe_math.h:256:11
	sarl	%cl, %eax
	movl	%eax, -12(%rbp)                 # 4-byte Spill
.LBB36_5:
	.loc	13 0 11                         # /usr/local/include/safe_math.h:0:11
	movl	-12(%rbp), %eax                 # 4-byte Reload
                                        # kill: def $ax killed $ax killed $eax
	.loc	13 251 3 is_stmt 1              # /usr/local/include/safe_math.h:251:3
	cwtl
	.loc	13 251 3 epilogue_begin is_stmt 0 # /usr/local/include/safe_math.h:251:3
	popq	%rbp
	.cfi_def_cfa %rsp, 8
	retq
.Ltmp455:
.Lfunc_end36:
	.size	_ZL28safe_rshift_func_int16_t_s_ssi, .Lfunc_end36-_ZL28safe_rshift_func_int16_t_s_ssi
	.cfi_endproc
                                        # -- End function
	.p2align	4, 0x90                         # -- Begin function _ZL28safe_lshift_func_uint8_t_u_uhj
	.type	_ZL28safe_lshift_func_uint8_t_u_uhj,@function
_ZL28safe_lshift_func_uint8_t_u_uhj:    # @_ZL28safe_lshift_func_uint8_t_u_uhj
.Lfunc_begin37:
	.loc	13 604 0 is_stmt 1              # /usr/local/include/safe_math.h:604:0
	.cfi_startproc
# %bb.0:
	pushq	%rbp
	.cfi_def_cfa_offset 16
	.cfi_offset %rbp, -16
	movq	%rsp, %rbp
	.cfi_def_cfa_register %rbp
	movb	%dil, %al
	movb	%al, -1(%rbp)
	movl	%esi, -8(%rbp)
.Ltmp456:
	.loc	13 608 29 prologue_end          # /usr/local/include/safe_math.h:608:29
	cmpl	$32, -8(%rbp)
	.loc	13 608 36 is_stmt 0             # /usr/local/include/safe_math.h:608:36
	jae	.LBB37_2
# %bb.1:
	.loc	13 608 40                       # /usr/local/include/safe_math.h:608:40
	movzbl	-1(%rbp), %eax
	.loc	13 608 76                       # /usr/local/include/safe_math.h:608:76
	movl	-8(%rbp), %ecx
