	.text
	.file	"csmith8.cpp"
	.globl	main                            # -- Begin function main
	.p2align	4, 0x90
	.type	main,@function
main:                                   # @main
	.cfi_startproc
# %bb.0:
	pushq	%rbp
	.cfi_def_cfa_offset 16
	.cfi_offset %rbp, -16
	movq	%rsp, %rbp
	.cfi_def_cfa_register %rbp
	subq	$32, %rsp
	movl	$0, -4(%rbp)
	movl	%edi, -8(%rbp)
	movq	%rsi, -16(%rbp)
	movl	$0, -32(%rbp)
	cmpl	$2, -8(%rbp)
	jne	.LBB0_3
# %bb.1:
	movq	-16(%rbp), %rax
	movq	8(%rax), %rdi
	leaq	.L.str(%rip), %rsi
	callq	strcmp@PLT
	cmpl	$0, %eax
	jne	.LBB0_3
# %bb.2:
	movl	$1, -32(%rbp)
.LBB0_3:
	callq	_ZL19platform_main_beginv
	callq	_ZL12crc32_gentabv
	callq	_ZL6func_1v
	movl	_ZL3g_7(%rip), %eax
	movl	%eax, %edi
	movl	-32(%rbp), %edx
	leaq	.L.str.1(%rip), %rsi
	callq	_ZL15transparent_crcmPci
	movl	$0, -20(%rbp)
.LBB0_4:                                # =>This Inner Loop Header: Depth=1
	cmpl	$5, -20(%rbp)
	jge	.LBB0_9
# %bb.5:                                #   in Loop: Header=BB0_4 Depth=1
	movslq	-20(%rbp), %rcx
	leaq	_ZL4g_17(%rip), %rax
	movl	(%rax,%rcx,4), %eax
	movl	%eax, %edi
	movl	-32(%rbp), %edx
	leaq	.L.str.2(%rip), %rsi
	callq	_ZL15transparent_crcmPci
	cmpl	$0, -32(%rbp)
	je	.LBB0_7
# %bb.6:                                #   in Loop: Header=BB0_4 Depth=1
	movl	-20(%rbp), %esi
	leaq	.L.str.3(%rip), %rdi
	movb	$0, %al
	callq	printf@PLT
.LBB0_7:                                #   in Loop: Header=BB0_4 Depth=1
	jmp	.LBB0_8
.LBB0_8:                                #   in Loop: Header=BB0_4 Depth=1
	movl	-20(%rbp), %eax
	addl	$1, %eax
	movl	%eax, -20(%rbp)
	jmp	.LBB0_4
.LBB0_9:
	movslq	_ZL4g_24(%rip), %rdi
	movl	-32(%rbp), %edx
	leaq	.L.str.4(%rip), %rsi
	callq	_ZL15transparent_crcmPci
	movswq	_ZL4g_86(%rip), %rdi
	movl	-32(%rbp), %edx
	leaq	.L.str.5(%rip), %rsi
	callq	_ZL15transparent_crcmPci
	movslq	_ZL4g_87(%rip), %rdi
	movl	-32(%rbp), %edx
	leaq	.L.str.6(%rip), %rsi
	callq	_ZL15transparent_crcmPci
	movw	_ZL5g_100(%rip), %ax
	shlw	$5, %ax
	sarw	$5, %ax
	cwtl
	movslq	%eax, %rdi
	movl	-32(%rbp), %edx
	leaq	.L.str.7(%rip), %rsi
	callq	_ZL15transparent_crcmPci
	movl	_ZL5g_100+2(%rip), %eax
	movl	%eax, %edi
	movl	-32(%rbp), %edx
	leaq	.L.str.8(%rip), %rsi
	callq	_ZL15transparent_crcmPci
	movzbl	_ZL5g_124(%rip), %eax
	movl	%eax, %edi
	movl	-32(%rbp), %edx
	leaq	.L.str.9(%rip), %rsi
	callq	_ZL15transparent_crcmPci
	movq	_ZL5g_125(%rip), %rdi
	movl	-32(%rbp), %edx
	leaq	.L.str.10(%rip), %rsi
	callq	_ZL15transparent_crcmPci
	movq	_ZL5g_134(%rip), %rdi
	movl	-32(%rbp), %edx
	leaq	.L.str.11(%rip), %rsi
	callq	_ZL15transparent_crcmPci
	movl	_ZL5g_143(%rip), %eax
	shll	$14, %eax
	sarl	$14, %eax
	movslq	%eax, %rdi
	movl	-32(%rbp), %edx
	leaq	.L.str.12(%rip), %rsi
	callq	_ZL15transparent_crcmPci
	movl	_ZL5g_143+4(%rip), %eax
	andl	$33554431, %eax                 # imm = 0x1FFFFFF
	movl	%eax, %eax
	movl	%eax, %edi
	movl	-32(%rbp), %edx
	leaq	.L.str.13(%rip), %rsi
	callq	_ZL15transparent_crcmPci
	movw	_ZL5g_143+8(%rip), %ax
	shlw	$4, %ax
	sarw	$4, %ax
	cwtl
	movslq	%eax, %rdi
	movl	-32(%rbp), %edx
	leaq	.L.str.14(%rip), %rsi
	callq	_ZL15transparent_crcmPci
	movl	_ZL5g_143+12(%rip), %eax
	shll	$6, %eax
	sarl	$6, %eax
	movslq	%eax, %rdi
	movl	-32(%rbp), %edx
	leaq	.L.str.15(%rip), %rsi
	callq	_ZL15transparent_crcmPci
	movl	_ZL5g_143+16(%rip), %eax
	shll	$25, %eax
	sarl	$25, %eax
	movslq	%eax, %rdi
	movl	-32(%rbp), %edx
	leaq	.L.str.16(%rip), %rsi
	callq	_ZL15transparent_crcmPci
	movl	_ZL5g_143+16(%rip), %eax
	shrl	$7, %eax
	andl	$32767, %eax                    # imm = 0x7FFF
	movl	%eax, %eax
	movl	%eax, %edi
	movl	-32(%rbp), %edx
	leaq	.L.str.17(%rip), %rsi
	callq	_ZL15transparent_crcmPci
	movq	_ZL5g_143+24(%rip), %rdi
	movl	-32(%rbp), %edx
	leaq	.L.str.18(%rip), %rsi
	callq	_ZL15transparent_crcmPci
	movl	_ZL5g_143+32(%rip), %eax
	shll	$11, %eax
	sarl	$11, %eax
	movslq	%eax, %rdi
	movl	-32(%rbp), %edx
	leaq	.L.str.19(%rip), %rsi
	callq	_ZL15transparent_crcmPci
	movl	_ZL5g_195(%rip), %eax
	movl	%eax, %edi
	movl	-32(%rbp), %edx
	leaq	.L.str.20(%rip), %rsi
	callq	_ZL15transparent_crcmPci
	movsbq	_ZL5g_220(%rip), %rdi
	movl	-32(%rbp), %edx
	leaq	.L.str.21(%rip), %rsi
	callq	_ZL15transparent_crcmPci
	movb	_ZL5g_241(%rip), %al
	movsbq	%al, %rdi
	movl	-32(%rbp), %edx
	leaq	.L.str.22(%rip), %rsi
	callq	_ZL15transparent_crcmPci
	movl	$0, -20(%rbp)
.LBB0_10:                               # =>This Loop Header: Depth=1
                                        #     Child Loop BB0_12 Depth 2
                                        #       Child Loop BB0_14 Depth 3
	cmpl	$5, -20(%rbp)
	jge	.LBB0_23
# %bb.11:                               #   in Loop: Header=BB0_10 Depth=1
	movl	$0, -24(%rbp)
.LBB0_12:                               #   Parent Loop BB0_10 Depth=1
                                        # =>  This Loop Header: Depth=2
                                        #       Child Loop BB0_14 Depth 3
	cmpl	$5, -24(%rbp)
	jge	.LBB0_21
# %bb.13:                               #   in Loop: Header=BB0_12 Depth=2
	movl	$0, -28(%rbp)
.LBB0_14:                               #   Parent Loop BB0_10 Depth=1
                                        #     Parent Loop BB0_12 Depth=2
                                        # =>    This Inner Loop Header: Depth=3
	cmpl	$5, -28(%rbp)
	jge	.LBB0_19
# %bb.15:                               #   in Loop: Header=BB0_14 Depth=3
	movslq	-20(%rbp), %rcx
	leaq	_ZL5g_273(%rip), %rax
	imulq	$50, %rcx, %rcx
	addq	%rcx, %rax
	movslq	-24(%rbp), %rcx
	imulq	$10, %rcx, %rcx
	addq	%rcx, %rax
	movslq	-28(%rbp), %rcx
	movzwl	(%rax,%rcx,2), %eax
	movl	%eax, %edi
	movl	-32(%rbp), %edx
	leaq	.L.str.23(%rip), %rsi
	callq	_ZL15transparent_crcmPci
	cmpl	$0, -32(%rbp)
	je	.LBB0_17
# %bb.16:                               #   in Loop: Header=BB0_14 Depth=3
	movl	-20(%rbp), %esi
	movl	-24(%rbp), %edx
	movl	-28(%rbp), %ecx
	leaq	.L.str.24(%rip), %rdi
	movb	$0, %al
	callq	printf@PLT
.LBB0_17:                               #   in Loop: Header=BB0_14 Depth=3
	jmp	.LBB0_18
.LBB0_18:                               #   in Loop: Header=BB0_14 Depth=3
	movl	-28(%rbp), %eax
	addl	$1, %eax
	movl	%eax, -28(%rbp)
	jmp	.LBB0_14
.LBB0_19:                               #   in Loop: Header=BB0_12 Depth=2
	jmp	.LBB0_20
.LBB0_20:                               #   in Loop: Header=BB0_12 Depth=2
	movl	-24(%rbp), %eax
	addl	$1, %eax
	movl	%eax, -24(%rbp)
	jmp	.LBB0_12
.LBB0_21:                               #   in Loop: Header=BB0_10 Depth=1
	jmp	.LBB0_22
.LBB0_22:                               #   in Loop: Header=BB0_10 Depth=1
	movl	-20(%rbp), %eax
	addl	$1, %eax
	movl	%eax, -20(%rbp)
	jmp	.LBB0_10
.LBB0_23:
	movsbq	_ZL5g_284(%rip), %rdi
	movl	-32(%rbp), %edx
	leaq	.L.str.25(%rip), %rsi
	callq	_ZL15transparent_crcmPci
	movzbl	_ZL5g_287(%rip), %eax
	movl	%eax, %edi
	movl	-32(%rbp), %edx
	leaq	.L.str.26(%rip), %rsi
	callq	_ZL15transparent_crcmPci
	movl	$0, -20(%rbp)
.LBB0_24:                               # =>This Inner Loop Header: Depth=1
	cmpl	$10, -20(%rbp)
	jge	.LBB0_29
# %bb.25:                               #   in Loop: Header=BB0_24 Depth=1
	movslq	-20(%rbp), %rcx
	leaq	_ZL5g_338(%rip), %rax
	movw	(%rax,%rcx,2), %ax
	movzwl	%ax, %eax
	movl	%eax, %edi
	movl	-32(%rbp), %edx
	leaq	.L.str.27(%rip), %rsi
	callq	_ZL15transparent_crcmPci
	cmpl	$0, -32(%rbp)
	je	.LBB0_27
# %bb.26:                               #   in Loop: Header=BB0_24 Depth=1
	movl	-20(%rbp), %esi
	leaq	.L.str.3(%rip), %rdi
	movb	$0, %al
	callq	printf@PLT
.LBB0_27:                               #   in Loop: Header=BB0_24 Depth=1
	jmp	.LBB0_28
.LBB0_28:                               #   in Loop: Header=BB0_24 Depth=1
	movl	-20(%rbp), %eax
	addl	$1, %eax
	movl	%eax, -20(%rbp)
	jmp	.LBB0_24
.LBB0_29:
	movslq	_ZL5g_402(%rip), %rdi
	movl	-32(%rbp), %edx
	leaq	.L.str.28(%rip), %rsi
	callq	_ZL15transparent_crcmPci
	movl	-32(%rbp), %edx
	movl	$6, %edi
	leaq	.L.str.29(%rip), %rsi
	callq	_ZL15transparent_crcmPci
	movl	_ZL5g_474(%rip), %eax
	shll	$14, %eax
	sarl	$14, %eax
	movslq	%eax, %rdi
	movl	-32(%rbp), %edx
	leaq	.L.str.30(%rip), %rsi
	callq	_ZL15transparent_crcmPci
	movl	_ZL5g_474+4(%rip), %eax
	andl	$33554431, %eax                 # imm = 0x1FFFFFF
	movl	%eax, %eax
	movl	%eax, %edi
	movl	-32(%rbp), %edx
	leaq	.L.str.31(%rip), %rsi
	callq	_ZL15transparent_crcmPci
	movw	_ZL5g_474+8(%rip), %ax
	shlw	$4, %ax
	sarw	$4, %ax
	cwtl
	movslq	%eax, %rdi
	movl	-32(%rbp), %edx
	leaq	.L.str.32(%rip), %rsi
	callq	_ZL15transparent_crcmPci
	movl	_ZL5g_474+12(%rip), %eax
	shll	$6, %eax
	sarl	$6, %eax
	movslq	%eax, %rdi
	movl	-32(%rbp), %edx
	leaq	.L.str.33(%rip), %rsi
	callq	_ZL15transparent_crcmPci
	movl	_ZL5g_474+16(%rip), %eax
	shll	$25, %eax
	sarl	$25, %eax
	movslq	%eax, %rdi
	movl	-32(%rbp), %edx
	leaq	.L.str.34(%rip), %rsi
	callq	_ZL15transparent_crcmPci
	movl	_ZL5g_474+16(%rip), %eax
	shrl	$7, %eax
	andl	$32767, %eax                    # imm = 0x7FFF
	movl	%eax, %eax
	movl	%eax, %edi
	movl	-32(%rbp), %edx
	leaq	.L.str.35(%rip), %rsi
	callq	_ZL15transparent_crcmPci
	movq	_ZL5g_474+24(%rip), %rdi
	movl	-32(%rbp), %edx
	leaq	.L.str.36(%rip), %rsi
	callq	_ZL15transparent_crcmPci
	movl	_ZL5g_474+32(%rip), %eax
	shll	$11, %eax
	sarl	$11, %eax
	movslq	%eax, %rdi
	movl	-32(%rbp), %edx
	leaq	.L.str.37(%rip), %rsi
	callq	_ZL15transparent_crcmPci
	movq	_ZL5g_499(%rip), %rdi
	movl	-32(%rbp), %edx
	leaq	.L.str.38(%rip), %rsi
	callq	_ZL15transparent_crcmPci
	movl	$0, -20(%rbp)
.LBB0_30:                               # =>This Inner Loop Header: Depth=1
	cmpl	$4, -20(%rbp)
	jge	.LBB0_35
# %bb.31:                               #   in Loop: Header=BB0_30 Depth=1
	movslq	-20(%rbp), %rcx
	leaq	_ZL5g_512(%rip), %rax
	movb	(%rax,%rcx), %al
	movsbq	%al, %rdi
	movl	-32(%rbp), %edx
	leaq	.L.str.39(%rip), %rsi
	callq	_ZL15transparent_crcmPci
	cmpl	$0, -32(%rbp)
	je	.LBB0_33
# %bb.32:                               #   in Loop: Header=BB0_30 Depth=1
	movl	-20(%rbp), %esi
	leaq	.L.str.3(%rip), %rdi
	movb	$0, %al
	callq	printf@PLT
.LBB0_33:                               #   in Loop: Header=BB0_30 Depth=1
	jmp	.LBB0_34
.LBB0_34:                               #   in Loop: Header=BB0_30 Depth=1
	movl	-20(%rbp), %eax
	addl	$1, %eax
	movl	%eax, -20(%rbp)
	jmp	.LBB0_30
.LBB0_35:
	movl	$0, -20(%rbp)
.LBB0_36:                               # =>This Loop Header: Depth=1
                                        #     Child Loop BB0_38 Depth 2
	cmpl	$1, -20(%rbp)
	jge	.LBB0_45
# %bb.37:                               #   in Loop: Header=BB0_36 Depth=1
	movl	$0, -24(%rbp)
.LBB0_38:                               #   Parent Loop BB0_36 Depth=1
                                        # =>  This Inner Loop Header: Depth=2
	cmpl	$2, -24(%rbp)
	jge	.LBB0_43
# %bb.39:                               #   in Loop: Header=BB0_38 Depth=2
	movslq	-20(%rbp), %rcx
	leaq	_ZL5g_513(%rip), %rax
	shlq	$3, %rcx
	addq	%rcx, %rax
	movslq	-24(%rbp), %rcx
	movl	(%rax,%rcx,4), %eax
	movl	%eax, %edi
	movl	-32(%rbp), %edx
	leaq	.L.str.40(%rip), %rsi
	callq	_ZL15transparent_crcmPci
	cmpl	$0, -32(%rbp)
	je	.LBB0_41
# %bb.40:                               #   in Loop: Header=BB0_38 Depth=2
	movl	-20(%rbp), %esi
	movl	-24(%rbp), %edx
	leaq	.L.str.41(%rip), %rdi
	movb	$0, %al
	callq	printf@PLT
.LBB0_41:                               #   in Loop: Header=BB0_38 Depth=2
	jmp	.LBB0_42
.LBB0_42:                               #   in Loop: Header=BB0_38 Depth=2
	movl	-24(%rbp), %eax
	addl	$1, %eax
	movl	%eax, -24(%rbp)
	jmp	.LBB0_38
.LBB0_43:                               #   in Loop: Header=BB0_36 Depth=1
	jmp	.LBB0_44
.LBB0_44:                               #   in Loop: Header=BB0_36 Depth=1
	movl	-20(%rbp), %eax
	addl	$1, %eax
	movl	%eax, -20(%rbp)
	jmp	.LBB0_36
.LBB0_45:
	movsbq	_ZL5g_568(%rip), %rdi
	movl	-32(%rbp), %edx
	leaq	.L.str.42(%rip), %rsi
	callq	_ZL15transparent_crcmPci
	movl	_ZL5g_585(%rip), %eax
	shll	$14, %eax
	sarl	$14, %eax
	movslq	%eax, %rdi
	movl	-32(%rbp), %edx
	leaq	.L.str.43(%rip), %rsi
	callq	_ZL15transparent_crcmPci
	movl	_ZL5g_585+4(%rip), %eax
	andl	$33554431, %eax                 # imm = 0x1FFFFFF
	movl	%eax, %eax
	movl	%eax, %edi
	movl	-32(%rbp), %edx
	leaq	.L.str.44(%rip), %rsi
	callq	_ZL15transparent_crcmPci
	movw	_ZL5g_585+8(%rip), %ax
	shlw	$4, %ax
	sarw	$4, %ax
	cwtl
	movslq	%eax, %rdi
	movl	-32(%rbp), %edx
	leaq	.L.str.45(%rip), %rsi
	callq	_ZL15transparent_crcmPci
	movl	_ZL5g_585+12(%rip), %eax
	shll	$6, %eax
	sarl	$6, %eax
	movslq	%eax, %rdi
	movl	-32(%rbp), %edx
	leaq	.L.str.46(%rip), %rsi
	callq	_ZL15transparent_crcmPci
	movl	_ZL5g_585+16(%rip), %eax
	shll	$25, %eax
	sarl	$25, %eax
	movslq	%eax, %rdi
	movl	-32(%rbp), %edx
	leaq	.L.str.47(%rip), %rsi
	callq	_ZL15transparent_crcmPci
	movl	_ZL5g_585+16(%rip), %eax
	shrl	$7, %eax
	andl	$32767, %eax                    # imm = 0x7FFF
	movl	%eax, %eax
	movl	%eax, %edi
	movl	-32(%rbp), %edx
	leaq	.L.str.48(%rip), %rsi
	callq	_ZL15transparent_crcmPci
	movq	_ZL5g_585+24(%rip), %rdi
	movl	-32(%rbp), %edx
	leaq	.L.str.49(%rip), %rsi
	callq	_ZL15transparent_crcmPci
	movl	_ZL5g_585+32(%rip), %eax
	shll	$11, %eax
	sarl	$11, %eax
	movslq	%eax, %rdi
	movl	-32(%rbp), %edx
	leaq	.L.str.50(%rip), %rsi
	callq	_ZL15transparent_crcmPci
	movq	_ZL5g_596(%rip), %rdi
	movl	-32(%rbp), %edx
	leaq	.L.str.51(%rip), %rsi
	callq	_ZL15transparent_crcmPci
	movl	-32(%rbp), %edx
	movq	$-1, %rdi
	leaq	.L.str.52(%rip), %rsi
	callq	_ZL15transparent_crcmPci
	movl	$0, -20(%rbp)
.LBB0_46:                               # =>This Loop Header: Depth=1
                                        #     Child Loop BB0_48 Depth 2
                                        #       Child Loop BB0_50 Depth 3
	cmpl	$3, -20(%rbp)
	jge	.LBB0_59
# %bb.47:                               #   in Loop: Header=BB0_46 Depth=1
	movl	$0, -24(%rbp)
.LBB0_48:                               #   Parent Loop BB0_46 Depth=1
                                        # =>  This Loop Header: Depth=2
                                        #       Child Loop BB0_50 Depth 3
	cmpl	$4, -24(%rbp)
	jge	.LBB0_57
# %bb.49:                               #   in Loop: Header=BB0_48 Depth=2
	movl	$0, -28(%rbp)
.LBB0_50:                               #   Parent Loop BB0_46 Depth=1
                                        #     Parent Loop BB0_48 Depth=2
                                        # =>    This Inner Loop Header: Depth=3
	cmpl	$2, -28(%rbp)
	jge	.LBB0_55
# %bb.51:                               #   in Loop: Header=BB0_50 Depth=3
	movslq	-20(%rbp), %rcx
	leaq	_ZL5g_627(%rip), %rax
	shlq	$5, %rcx
	addq	%rcx, %rax
	movslq	-24(%rbp), %rcx
	shlq	$3, %rcx
	addq	%rcx, %rax
	movslq	-28(%rbp), %rcx
	movslq	(%rax,%rcx,4), %rdi
	movl	-32(%rbp), %edx
	leaq	.L.str.53(%rip), %rsi
	callq	_ZL15transparent_crcmPci
	cmpl	$0, -32(%rbp)
	je	.LBB0_53
# %bb.52:                               #   in Loop: Header=BB0_50 Depth=3
	movl	-20(%rbp), %esi
	movl	-24(%rbp), %edx
	movl	-28(%rbp), %ecx
	leaq	.L.str.24(%rip), %rdi
	movb	$0, %al
	callq	printf@PLT
.LBB0_53:                               #   in Loop: Header=BB0_50 Depth=3
	jmp	.LBB0_54
.LBB0_54:                               #   in Loop: Header=BB0_50 Depth=3
	movl	-28(%rbp), %eax
	addl	$1, %eax
	movl	%eax, -28(%rbp)
	jmp	.LBB0_50
.LBB0_55:                               #   in Loop: Header=BB0_48 Depth=2
	jmp	.LBB0_56
.LBB0_56:                               #   in Loop: Header=BB0_48 Depth=2
	movl	-24(%rbp), %eax
	addl	$1, %eax
	movl	%eax, -24(%rbp)
	jmp	.LBB0_48
.LBB0_57:                               #   in Loop: Header=BB0_46 Depth=1
	jmp	.LBB0_58
.LBB0_58:                               #   in Loop: Header=BB0_46 Depth=1
	movl	-20(%rbp), %eax
	addl	$1, %eax
	movl	%eax, -20(%rbp)
	jmp	.LBB0_46
.LBB0_59:
	movslq	_ZL5g_661(%rip), %rdi
	movl	-32(%rbp), %edx
	leaq	.L.str.54(%rip), %rsi
	callq	_ZL15transparent_crcmPci
	movl	$0, -20(%rbp)
.LBB0_60:                               # =>This Inner Loop Header: Depth=1
	cmpl	$7, -20(%rbp)
	jge	.LBB0_65
# %bb.61:                               #   in Loop: Header=BB0_60 Depth=1
	movslq	-20(%rbp), %rcx
	leaq	_ZL5g_665(%rip), %rax
	movswq	(%rax,%rcx,2), %rdi
	movl	-32(%rbp), %edx
	leaq	.L.str.55(%rip), %rsi
	callq	_ZL15transparent_crcmPci
	cmpl	$0, -32(%rbp)
	je	.LBB0_63
# %bb.62:                               #   in Loop: Header=BB0_60 Depth=1
	movl	-20(%rbp), %esi
	leaq	.L.str.3(%rip), %rdi
	movb	$0, %al
	callq	printf@PLT
.LBB0_63:                               #   in Loop: Header=BB0_60 Depth=1
	jmp	.LBB0_64
.LBB0_64:                               #   in Loop: Header=BB0_60 Depth=1
	movl	-20(%rbp), %eax
	addl	$1, %eax
	movl	%eax, -20(%rbp)
	jmp	.LBB0_60
.LBB0_65:
	movzbl	_ZL5g_666(%rip), %eax
	movl	%eax, %edi
	movl	-32(%rbp), %edx
	leaq	.L.str.56(%rip), %rsi
	callq	_ZL15transparent_crcmPci
	movl	$0, -20(%rbp)
.LBB0_66:                               # =>This Inner Loop Header: Depth=1
	cmpl	$10, -20(%rbp)
	jge	.LBB0_71
# %bb.67:                               #   in Loop: Header=BB0_66 Depth=1
	movslq	-20(%rbp), %rcx
	leaq	_ZL5g_673(%rip), %rax
	movslq	(%rax,%rcx,4), %rdi
	movl	-32(%rbp), %edx
	leaq	.L.str.57(%rip), %rsi
	callq	_ZL15transparent_crcmPci
	cmpl	$0, -32(%rbp)
	je	.LBB0_69
# %bb.68:                               #   in Loop: Header=BB0_66 Depth=1
	movl	-20(%rbp), %esi
	leaq	.L.str.3(%rip), %rdi
	movb	$0, %al
	callq	printf@PLT
.LBB0_69:                               #   in Loop: Header=BB0_66 Depth=1
	jmp	.LBB0_70
.LBB0_70:                               #   in Loop: Header=BB0_66 Depth=1
	movl	-20(%rbp), %eax
	addl	$1, %eax
	movl	%eax, -20(%rbp)
	jmp	.LBB0_66
.LBB0_71:
	movzbl	_ZL5g_693(%rip), %eax
	movl	%eax, %edi
	movl	-32(%rbp), %edx
	leaq	.L.str.58(%rip), %rsi
	callq	_ZL15transparent_crcmPci
	movq	_ZL5g_717(%rip), %rdi
	movl	-32(%rbp), %edx
	leaq	.L.str.59(%rip), %rsi
	callq	_ZL15transparent_crcmPci
	movl	$0, -20(%rbp)
.LBB0_72:                               # =>This Loop Header: Depth=1
                                        #     Child Loop BB0_74 Depth 2
	cmpl	$2, -20(%rbp)
	jge	.LBB0_81
# %bb.73:                               #   in Loop: Header=BB0_72 Depth=1
	movl	$0, -24(%rbp)
.LBB0_74:                               #   Parent Loop BB0_72 Depth=1
                                        # =>  This Inner Loop Header: Depth=2
	cmpl	$2, -24(%rbp)
	jge	.LBB0_79
# %bb.75:                               #   in Loop: Header=BB0_74 Depth=2
	movslq	-20(%rbp), %rcx
	leaq	_ZL5g_729(%rip), %rax
	shlq	$1, %rcx
	addq	%rcx, %rax
	movslq	-24(%rbp), %rcx
	movzbl	(%rax,%rcx), %eax
	movl	%eax, %edi
	movl	-32(%rbp), %edx
	leaq	.L.str.60(%rip), %rsi
	callq	_ZL15transparent_crcmPci
	cmpl	$0, -32(%rbp)
	je	.LBB0_77
# %bb.76:                               #   in Loop: Header=BB0_74 Depth=2
	movl	-20(%rbp), %esi
	movl	-24(%rbp), %edx
	leaq	.L.str.41(%rip), %rdi
	movb	$0, %al
	callq	printf@PLT
.LBB0_77:                               #   in Loop: Header=BB0_74 Depth=2
	jmp	.LBB0_78
.LBB0_78:                               #   in Loop: Header=BB0_74 Depth=2
	movl	-24(%rbp), %eax
	addl	$1, %eax
	movl	%eax, -24(%rbp)
	jmp	.LBB0_74
.LBB0_79:                               #   in Loop: Header=BB0_72 Depth=1
	jmp	.LBB0_80
.LBB0_80:                               #   in Loop: Header=BB0_72 Depth=1
	movl	-20(%rbp), %eax
	addl	$1, %eax
	movl	%eax, -20(%rbp)
	jmp	.LBB0_72
.LBB0_81:
	movq	_ZL5g_778(%rip), %rdi
	movl	-32(%rbp), %edx
	leaq	.L.str.61(%rip), %rsi
	callq	_ZL15transparent_crcmPci
	movw	_ZL5g_787(%rip), %ax
	shlw	$5, %ax
	sarw	$5, %ax
	cwtl
	movslq	%eax, %rdi
	movl	-32(%rbp), %edx
	leaq	.L.str.62(%rip), %rsi
	callq	_ZL15transparent_crcmPci
	movl	_ZL5g_787+2(%rip), %eax
	movl	%eax, %edi
	movl	-32(%rbp), %edx
	leaq	.L.str.63(%rip), %rsi
	callq	_ZL15transparent_crcmPci
	movl	$0, -20(%rbp)
.LBB0_82:                               # =>This Loop Header: Depth=1
                                        #     Child Loop BB0_84 Depth 2
	cmpl	$7, -20(%rbp)
	jge	.LBB0_91
# %bb.83:                               #   in Loop: Header=BB0_82 Depth=1
	movl	$0, -24(%rbp)
.LBB0_84:                               #   Parent Loop BB0_82 Depth=1
                                        # =>  This Inner Loop Header: Depth=2
	cmpl	$3, -24(%rbp)
	jge	.LBB0_89
# %bb.85:                               #   in Loop: Header=BB0_84 Depth=2
	movslq	-20(%rbp), %rcx
	leaq	_ZL5g_788(%rip), %rax
	imulq	$18, %rcx, %rcx
	addq	%rcx, %rax
	movslq	-24(%rbp), %rcx
	imulq	$6, %rcx, %rcx
	addq	%rcx, %rax
	movw	(%rax), %ax
	shlw	$5, %ax
	sarw	$5, %ax
	cwtl
	movslq	%eax, %rdi
	movl	-32(%rbp), %edx
	leaq	.L.str.64(%rip), %rsi
	callq	_ZL15transparent_crcmPci
	movslq	-20(%rbp), %rcx
	leaq	_ZL5g_788(%rip), %rax
	imulq	$18, %rcx, %rcx
	addq	%rcx, %rax
	movslq	-24(%rbp), %rcx
	imulq	$6, %rcx, %rcx
	addq	%rcx, %rax
	movl	2(%rax), %eax
	movl	%eax, %edi
	movl	-32(%rbp), %edx
	leaq	.L.str.65(%rip), %rsi
	callq	_ZL15transparent_crcmPci
	cmpl	$0, -32(%rbp)
	je	.LBB0_87
# %bb.86:                               #   in Loop: Header=BB0_84 Depth=2
	movl	-20(%rbp), %esi
	movl	-24(%rbp), %edx
	leaq	.L.str.41(%rip), %rdi
	movb	$0, %al
	callq	printf@PLT
.LBB0_87:                               #   in Loop: Header=BB0_84 Depth=2
	jmp	.LBB0_88
.LBB0_88:                               #   in Loop: Header=BB0_84 Depth=2
	movl	-24(%rbp), %eax
	addl	$1, %eax
	movl	%eax, -24(%rbp)
	jmp	.LBB0_84
.LBB0_89:                               #   in Loop: Header=BB0_82 Depth=1
	jmp	.LBB0_90
.LBB0_90:                               #   in Loop: Header=BB0_82 Depth=1
	movl	-20(%rbp), %eax
	addl	$1, %eax
	movl	%eax, -20(%rbp)
	jmp	.LBB0_82
.LBB0_91:
	movw	_ZL5g_789(%rip), %ax
	shlw	$5, %ax
	sarw	$5, %ax
	cwtl
	movslq	%eax, %rdi
	movl	-32(%rbp), %edx
	leaq	.L.str.66(%rip), %rsi
	callq	_ZL15transparent_crcmPci
	movl	_ZL5g_789+2(%rip), %eax
	movl	%eax, %edi
	movl	-32(%rbp), %edx
	leaq	.L.str.67(%rip), %rsi
	callq	_ZL15transparent_crcmPci
	movw	_ZL5g_790(%rip), %ax
	shlw	$5, %ax
	sarw	$5, %ax
	cwtl
	movslq	%eax, %rdi
	movl	-32(%rbp), %edx
	leaq	.L.str.68(%rip), %rsi
	callq	_ZL15transparent_crcmPci
	movl	_ZL5g_790+2(%rip), %eax
	movl	%eax, %edi
	movl	-32(%rbp), %edx
	leaq	.L.str.69(%rip), %rsi
	callq	_ZL15transparent_crcmPci
	movw	_ZL5g_791(%rip), %ax
	shlw	$5, %ax
	sarw	$5, %ax
	cwtl
	movslq	%eax, %rdi
	movl	-32(%rbp), %edx
	leaq	.L.str.70(%rip), %rsi
	callq	_ZL15transparent_crcmPci
	movl	_ZL5g_791+2(%rip), %eax
	movl	%eax, %edi
	movl	-32(%rbp), %edx
	leaq	.L.str.71(%rip), %rsi
	callq	_ZL15transparent_crcmPci
	movw	_ZL5g_792(%rip), %ax
	shlw	$5, %ax
	sarw	$5, %ax
	cwtl
	movslq	%eax, %rdi
	movl	-32(%rbp), %edx
	leaq	.L.str.72(%rip), %rsi
	callq	_ZL15transparent_crcmPci
	movl	_ZL5g_792+2(%rip), %eax
	movl	%eax, %edi
	movl	-32(%rbp), %edx
	leaq	.L.str.73(%rip), %rsi
	callq	_ZL15transparent_crcmPci
	movl	$0, -20(%rbp)
.LBB0_92:                               # =>This Loop Header: Depth=1
                                        #     Child Loop BB0_94 Depth 2
                                        #       Child Loop BB0_96 Depth 3
	cmpl	$9, -20(%rbp)
	jge	.LBB0_105
# %bb.93:                               #   in Loop: Header=BB0_92 Depth=1
	movl	$0, -24(%rbp)
.LBB0_94:                               #   Parent Loop BB0_92 Depth=1
                                        # =>  This Loop Header: Depth=2
                                        #       Child Loop BB0_96 Depth 3
	cmpl	$2, -24(%rbp)
	jge	.LBB0_103
# %bb.95:                               #   in Loop: Header=BB0_94 Depth=2
	movl	$0, -28(%rbp)
.LBB0_96:                               #   Parent Loop BB0_92 Depth=1
                                        #     Parent Loop BB0_94 Depth=2
                                        # =>    This Inner Loop Header: Depth=3
	cmpl	$7, -28(%rbp)
	jge	.LBB0_101
# %bb.97:                               #   in Loop: Header=BB0_96 Depth=3
	movslq	-20(%rbp), %rcx
	leaq	_ZL5g_793(%rip), %rax
	imulq	$84, %rcx, %rcx
	addq	%rcx, %rax
	movslq	-24(%rbp), %rcx
	imulq	$42, %rcx, %rcx
	addq	%rcx, %rax
	movslq	-28(%rbp), %rcx
	imulq	$6, %rcx, %rcx
	addq	%rcx, %rax
	movw	(%rax), %ax
	shlw	$5, %ax
	sarw	$5, %ax
	cwtl
	movslq	%eax, %rdi
	movl	-32(%rbp), %edx
	leaq	.L.str.74(%rip), %rsi
	callq	_ZL15transparent_crcmPci
	movslq	-20(%rbp), %rcx
	leaq	_ZL5g_793(%rip), %rax
	imulq	$84, %rcx, %rcx
	addq	%rcx, %rax
	movslq	-24(%rbp), %rcx
	imulq	$42, %rcx, %rcx
	addq	%rcx, %rax
	movslq	-28(%rbp), %rcx
	imulq	$6, %rcx, %rcx
	addq	%rcx, %rax
	movl	2(%rax), %eax
	movl	%eax, %edi
	movl	-32(%rbp), %edx
	leaq	.L.str.75(%rip), %rsi
	callq	_ZL15transparent_crcmPci
	cmpl	$0, -32(%rbp)
	je	.LBB0_99
# %bb.98:                               #   in Loop: Header=BB0_96 Depth=3
	movl	-20(%rbp), %esi
	movl	-24(%rbp), %edx
	movl	-28(%rbp), %ecx
	leaq	.L.str.24(%rip), %rdi
	movb	$0, %al
	callq	printf@PLT
.LBB0_99:                               #   in Loop: Header=BB0_96 Depth=3
	jmp	.LBB0_100
.LBB0_100:                              #   in Loop: Header=BB0_96 Depth=3
	movl	-28(%rbp), %eax
	addl	$1, %eax
	movl	%eax, -28(%rbp)
	jmp	.LBB0_96
.LBB0_101:                              #   in Loop: Header=BB0_94 Depth=2
	jmp	.LBB0_102
.LBB0_102:                              #   in Loop: Header=BB0_94 Depth=2
	movl	-24(%rbp), %eax
	addl	$1, %eax
	movl	%eax, -24(%rbp)
	jmp	.LBB0_94
.LBB0_103:                              #   in Loop: Header=BB0_92 Depth=1
	jmp	.LBB0_104
.LBB0_104:                              #   in Loop: Header=BB0_92 Depth=1
	movl	-20(%rbp), %eax
	addl	$1, %eax
	movl	%eax, -20(%rbp)
	jmp	.LBB0_92
.LBB0_105:
	movw	_ZL5g_794(%rip), %ax
	shlw	$5, %ax
	sarw	$5, %ax
	cwtl
	movslq	%eax, %rdi
	movl	-32(%rbp), %edx
	leaq	.L.str.76(%rip), %rsi
	callq	_ZL15transparent_crcmPci
	movl	_ZL5g_794+2(%rip), %eax
	movl	%eax, %edi
	movl	-32(%rbp), %edx
	leaq	.L.str.77(%rip), %rsi
	callq	_ZL15transparent_crcmPci
	movw	_ZL5g_795(%rip), %ax
	shlw	$5, %ax
	sarw	$5, %ax
	cwtl
	movslq	%eax, %rdi
	movl	-32(%rbp), %edx
	leaq	.L.str.78(%rip), %rsi
	callq	_ZL15transparent_crcmPci
	movl	_ZL5g_795+2(%rip), %eax
	movl	%eax, %edi
	movl	-32(%rbp), %edx
	leaq	.L.str.79(%rip), %rsi
	callq	_ZL15transparent_crcmPci
	movq	_ZL5g_939(%rip), %rdi
	movl	-32(%rbp), %edx
	leaq	.L.str.80(%rip), %rsi
	callq	_ZL15transparent_crcmPci
	movq	_ZL5g_940(%rip), %rdi
	movl	-32(%rbp), %edx
	leaq	.L.str.81(%rip), %rsi
	callq	_ZL15transparent_crcmPci
	movslq	_ZL6g_1113(%rip), %rdi
	movl	-32(%rbp), %edx
	leaq	.L.str.82(%rip), %rsi
	callq	_ZL15transparent_crcmPci
	movswq	_ZL6g_1155(%rip), %rdi
	movl	-32(%rbp), %edx
	leaq	.L.str.83(%rip), %rsi
	callq	_ZL15transparent_crcmPci
	movq	_ZL6g_1282(%rip), %rdi
	movl	-32(%rbp), %edx
	leaq	.L.str.84(%rip), %rsi
	callq	_ZL15transparent_crcmPci
	movl	-32(%rbp), %edx
	movl	$28670, %edi                    # imm = 0x6FFE
	leaq	.L.str.85(%rip), %rsi
	callq	_ZL15transparent_crcmPci
	movl	-32(%rbp), %edx
	movl	$41, %edi
	leaq	.L.str.86(%rip), %rsi
	callq	_ZL15transparent_crcmPci
	movl	-32(%rbp), %edx
	movl	$7, %edi
	leaq	.L.str.87(%rip), %rsi
	callq	_ZL15transparent_crcmPci
	movswq	_ZL6g_1373(%rip), %rdi
	movl	-32(%rbp), %edx
	leaq	.L.str.88(%rip), %rsi
	callq	_ZL15transparent_crcmPci
	movzwl	_ZL6g_1460(%rip), %eax
	movl	%eax, %edi
	movl	-32(%rbp), %edx
	leaq	.L.str.89(%rip), %rsi
	callq	_ZL15transparent_crcmPci
	movzwl	_ZL6g_1461(%rip), %eax
	movl	%eax, %edi
	movl	-32(%rbp), %edx
	leaq	.L.str.90(%rip), %rsi
	callq	_ZL15transparent_crcmPci
	movq	_ZL6g_1488(%rip), %rdi
	movl	-32(%rbp), %edx
	leaq	.L.str.91(%rip), %rsi
	callq	_ZL15transparent_crcmPci
	movl	$0, -20(%rbp)
.LBB0_106:                              # =>This Inner Loop Header: Depth=1
	cmpl	$9, -20(%rbp)
	jge	.LBB0_111
# %bb.107:                              #   in Loop: Header=BB0_106 Depth=1
	movslq	-20(%rbp), %rcx
	leaq	_ZL6g_1502(%rip), %rax
	movsbq	(%rax,%rcx), %rdi
	movl	-32(%rbp), %edx
	leaq	.L.str.92(%rip), %rsi
	callq	_ZL15transparent_crcmPci
	cmpl	$0, -32(%rbp)
	je	.LBB0_109
# %bb.108:                              #   in Loop: Header=BB0_106 Depth=1
	movl	-20(%rbp), %esi
	leaq	.L.str.3(%rip), %rdi
	movb	$0, %al
	callq	printf@PLT
.LBB0_109:                              #   in Loop: Header=BB0_106 Depth=1
	jmp	.LBB0_110
.LBB0_110:                              #   in Loop: Header=BB0_106 Depth=1
	movl	-20(%rbp), %eax
	addl	$1, %eax
	movl	%eax, -20(%rbp)
	jmp	.LBB0_106
.LBB0_111:
	movl	-32(%rbp), %edx
	movq	$-90, %rdi
	leaq	.L.str.93(%rip), %rsi
	callq	_ZL15transparent_crcmPci
	movl	-32(%rbp), %edx
	xorl	%eax, %eax
	movl	%eax, %edi
	leaq	.L.str.94(%rip), %rsi
	callq	_ZL15transparent_crcmPci
	movslq	_ZL6g_1733(%rip), %rdi
	movl	-32(%rbp), %edx
	leaq	.L.str.95(%rip), %rsi
	callq	_ZL15transparent_crcmPci
	movl	_ZL6g_1875(%rip), %eax
	movl	%eax, %eax
	movl	%eax, %edi
	movl	-32(%rbp), %edx
	leaq	.L.str.96(%rip), %rsi
	callq	_ZL15transparent_crcmPci
	movzwl	_ZL6g_1899(%rip), %eax
	movl	%eax, %edi
	movl	-32(%rbp), %edx
	leaq	.L.str.97(%rip), %rsi
	callq	_ZL15transparent_crcmPci
	movslq	_ZL6g_1961(%rip), %rdi
	movl	-32(%rbp), %edx
	leaq	.L.str.98(%rip), %rsi
	callq	_ZL15transparent_crcmPci
	movl	_ZL6g_1987(%rip), %eax
	movl	%eax, %edi
	movl	-32(%rbp), %edx
	leaq	.L.str.99(%rip), %rsi
	callq	_ZL15transparent_crcmPci
	movq	_ZL6g_1988(%rip), %rdi
	movl	-32(%rbp), %edx
	leaq	.L.str.100(%rip), %rsi
	callq	_ZL15transparent_crcmPci
	movq	_ZL6g_2059(%rip), %rdi
	movl	-32(%rbp), %edx
	leaq	.L.str.101(%rip), %rsi
	callq	_ZL15transparent_crcmPci
	movl	_ZL13crc32_context(%rip), %eax
                                        # kill: def $rax killed $eax
	movabsq	$4294967295, %rcx               # imm = 0xFFFFFFFF
	xorq	%rcx, %rax
	movl	%eax, %edi
	movl	-32(%rbp), %esi
	callq	_ZL17platform_main_endji
	xorl	%eax, %eax
	addq	$32, %rsp
	popq	%rbp
	.cfi_def_cfa %rsp, 8
	retq
.Lfunc_end0:
	.size	main, .Lfunc_end0-main
	.cfi_endproc
                                        # -- End function
	.p2align	4, 0x90                         # -- Begin function _ZL19platform_main_beginv
	.type	_ZL19platform_main_beginv,@function
_ZL19platform_main_beginv:              # @_ZL19platform_main_beginv
	.cfi_startproc
# %bb.0:
	pushq	%rbp
	.cfi_def_cfa_offset 16
	.cfi_offset %rbp, -16
	movq	%rsp, %rbp
	.cfi_def_cfa_register %rbp
	popq	%rbp
	.cfi_def_cfa %rsp, 8
	retq
.Lfunc_end1:
	.size	_ZL19platform_main_beginv, .Lfunc_end1-_ZL19platform_main_beginv
	.cfi_endproc
                                        # -- End function
	.p2align	4, 0x90                         # -- Begin function _ZL12crc32_gentabv
	.type	_ZL12crc32_gentabv,@function
_ZL12crc32_gentabv:                     # @_ZL12crc32_gentabv
	.cfi_startproc
# %bb.0:
	pushq	%rbp
	.cfi_def_cfa_offset 16
	.cfi_offset %rbp, -16
	movq	%rsp, %rbp
	.cfi_def_cfa_register %rbp
	movl	$-306674912, -8(%rbp)           # imm = 0xEDB88320
	movl	$0, -12(%rbp)
.LBB2_1:                                # =>This Loop Header: Depth=1
                                        #     Child Loop BB2_3 Depth 2
	cmpl	$256, -12(%rbp)                 # imm = 0x100
	jge	.LBB2_11
# %bb.2:                                #   in Loop: Header=BB2_1 Depth=1
	movl	-12(%rbp), %eax
	movl	%eax, -4(%rbp)
	movl	$8, -16(%rbp)
.LBB2_3:                                #   Parent Loop BB2_1 Depth=1
                                        # =>  This Inner Loop Header: Depth=2
	cmpl	$0, -16(%rbp)
	jle	.LBB2_9
# %bb.4:                                #   in Loop: Header=BB2_3 Depth=2
	movl	-4(%rbp), %eax
	andl	$1, %eax
	cmpl	$0, %eax
	je	.LBB2_6
# %bb.5:                                #   in Loop: Header=BB2_3 Depth=2
	movl	-4(%rbp), %eax
	shrl	$1, %eax
	xorl	$-306674912, %eax               # imm = 0xEDB88320
	movl	%eax, -4(%rbp)
	jmp	.LBB2_7
.LBB2_6:                                #   in Loop: Header=BB2_3 Depth=2
	movl	-4(%rbp), %eax
	shrl	$1, %eax
	movl	%eax, -4(%rbp)
.LBB2_7:                                #   in Loop: Header=BB2_3 Depth=2
	jmp	.LBB2_8
.LBB2_8:                                #   in Loop: Header=BB2_3 Depth=2
	movl	-16(%rbp), %eax
	addl	$-1, %eax
	movl	%eax, -16(%rbp)
	jmp	.LBB2_3
.LBB2_9:                                #   in Loop: Header=BB2_1 Depth=1
	movl	-4(%rbp), %edx
	movslq	-12(%rbp), %rcx
	leaq	_ZL9crc32_tab(%rip), %rax
	movl	%edx, (%rax,%rcx,4)
# %bb.10:                               #   in Loop: Header=BB2_1 Depth=1
	movl	-12(%rbp), %eax
	addl	$1, %eax
	movl	%eax, -12(%rbp)
	jmp	.LBB2_1
.LBB2_11:
	popq	%rbp
	.cfi_def_cfa %rsp, 8
	retq
.Lfunc_end2:
	.size	_ZL12crc32_gentabv, .Lfunc_end2-_ZL12crc32_gentabv
	.cfi_endproc
                                        # -- End function
	.p2align	4, 0x90                         # -- Begin function _ZL6func_1v
	.type	_ZL6func_1v,@function
_ZL6func_1v:                            # @_ZL6func_1v
	.cfi_startproc
# %bb.0:
	pushq	%rbp
	.cfi_def_cfa_offset 16
	.cfi_offset %rbp, -16
	movq	%rsp, %rbp
	.cfi_def_cfa_register %rbp
	subq	$7232, %rsp                     # imm = 0x1C40
	movq	%fs:40, %rax
	movq	%rax, -8(%rbp)
	leaq	_ZL3g_7(%rip), %rax
	movq	%rax, -6312(%rbp)
	leaq	_ZL4g_17(%rip), %rax
	movq	%rax, -6320(%rbp)
	movl	$758680688, -6060(%rbp)         # imm = 0x2D388C70
	movl	$0, -6324(%rbp)
	movq	$0, -6336(%rbp)
	movl	$-2, -6064(%rbp)
	movl	$-3, -6068(%rbp)
	movl	$0, -6072(%rbp)
	movq	.L__const._ZL6func_1v.l_1791(%rip), %rax
	movq	%rax, -112(%rbp)
	movq	.L__const._ZL6func_1v.l_1791+8(%rip), %rax
	movq	%rax, -104(%rbp)
	movq	.L__const._ZL6func_1v.l_1791+16(%rip), %rax
	movq	%rax, -96(%rbp)
	movq	$0, -6080(%rbp)
	leaq	-6080(%rbp), %rax
	movq	%rax, -6088(%rbp)
	leaq	-128(%rbp), %rax
	movq	%rax, -6096(%rbp)
	movq	$0, -6344(%rbp)
	movq	$0, -6104(%rbp)
	leaq	-6104(%rbp), %rax
	movq	%rax, -6112(%rbp)
	leaq	-6112(%rbp), %rax
	movq	%rax, -6352(%rbp)
	movb	$-90, -6353(%rbp)
	movb	$-5, -6354(%rbp)
	movq	$0, -6368(%rbp)
	movw	$-26884, -6370(%rbp)            # imm = 0x96FC
	movq	.L__const._ZL6func_1v.l_2068(%rip), %rax
	movq	%rax, -137(%rbp)
	movb	.L__const._ZL6func_1v.l_2068+8(%rip), %al
	movb	%al, -129(%rbp)
	movb	$-1, -6371(%rbp)
	leaq	_ZL4g_24(%rip), %rax
	movq	%rax, -6384(%rbp)
	movl	$0, -6388(%rbp)
.LBB3_1:                                # =>This Loop Header: Depth=1
                                        #     Child Loop BB3_3 Depth 2
	cmpl	$9, -6388(%rbp)
	jge	.LBB3_8
# %bb.2:                                #   in Loop: Header=BB3_1 Depth=1
	movl	$0, -6392(%rbp)
.LBB3_3:                                #   Parent Loop BB3_1 Depth=1
                                        # =>  This Inner Loop Header: Depth=2
	cmpl	$2, -6392(%rbp)
	jge	.LBB3_6
# %bb.4:                                #   in Loop: Header=BB3_3 Depth=2
	movslq	-6388(%rbp), %rcx
	leaq	-80(%rbp), %rax
	shlq	$3, %rcx
	addq	%rcx, %rax
	movslq	-6392(%rbp), %rcx
	movl	$1703862240, (%rax,%rcx,4)      # imm = 0x658EDFE0
# %bb.5:                                #   in Loop: Header=BB3_3 Depth=2
	movl	-6392(%rbp), %eax
	addl	$1, %eax
	movl	%eax, -6392(%rbp)
	jmp	.LBB3_3
.LBB3_6:                                #   in Loop: Header=BB3_1 Depth=1
	jmp	.LBB3_7
.LBB3_7:                                #   in Loop: Header=BB3_1 Depth=1
	movl	-6388(%rbp), %eax
	addl	$1, %eax
	movl	%eax, -6388(%rbp)
	jmp	.LBB3_1
.LBB3_8:
	movl	$0, -6388(%rbp)
.LBB3_9:                                # =>This Inner Loop Header: Depth=1
	cmpl	$2, -6388(%rbp)
	jge	.LBB3_12
# %bb.10:                               #   in Loop: Header=BB3_9 Depth=1
	movslq	-6388(%rbp), %rax
	leaq	-6088(%rbp), %rcx
	movq	%rcx, -128(%rbp,%rax,8)
# %bb.11:                               #   in Loop: Header=BB3_9 Depth=1
	movl	-6388(%rbp), %eax
	addl	$1, %eax
	movl	%eax, -6388(%rbp)
	jmp	.LBB3_9
.LBB3_12:
	movl	-56(%rbp), %eax
	movl	%eax, %ecx
	movl	$1, %eax
	cmpq	%rcx, %rax
	seta	%al
	andb	$1, %al
	movzbl	%al, %ecx
	movq	-6312(%rbp), %rax
	movl	%ecx, (%rax)
	movq	-6320(%rbp), %rax
	movq	%rax, -7064(%rbp)               # 8-byte Spill
	movl	-64(%rbp), %eax
                                        # kill: def $ax killed $ax killed $eax
	movl	-56(%rbp), %ecx
                                        # kill: def $rcx killed $ecx
	leaq	_ZL3g_7(%rip), %rsi
	movl	$1, %edx
	movzwl	%ax, %edi
	callq	_ZL7func_18tPjjm
	movq	-7064(%rbp), %rdi               # 8-byte Reload
	movq	%rax, %rsi
	movl	-56(%rbp), %eax
                                        # kill: def $ax killed $ax killed $eax
	leaq	_ZL4g_17(%rip), %rcx
	movswl	%ax, %edx
	callq	_ZL7func_11PKjPjsS0_
	movzwl	%ax, %edi
	callq	_ZL32safe_unary_minus_func_uint16_t_ut
	movzwl	%ax, %eax
	movl	%eax, %edi
	movl	$5, %esi
	callq	_ZL29safe_lshift_func_uint64_t_u_umj
	cmpq	$0, %rax
	setne	%al
	xorb	$-1, %al
	andb	$1, %al
	movzbl	%al, %eax
	movl	%eax, %edi
	movl	-56(%rbp), %eax
	movl	%eax, %esi
	callq	_ZL25safe_mod_func_int64_t_s_sll
	cmpq	$1, %rax
	seta	%al
	andb	$1, %al
	movzbl	%al, %eax
                                        # kill: def $rax killed $eax
	movabsq	$4294967295, %rcx               # imm = 0xFFFFFFFF
	andq	%rcx, %rax
	cmpq	$65527, %rax                    # imm = 0xFFF7
	jae	.LBB3_14
# %bb.13:
	movb	$1, %al
	testb	$1, %al
	jne	.LBB3_14
	jmp	.LBB3_19
.LBB3_14:
	leaq	_ZL5g_402(%rip), %rax
	movq	%rax, -6400(%rbp)
	leaq	_ZL5g_673(%rip), %rax
	addq	$12, %rax
	movq	%rax, -6408(%rbp)
	leaq	-192(%rbp), %rdi
	leaq	.L__const._ZL6func_1v.l_1741(%rip), %rsi
	movl	$40, %edx
	callq	memcpy@PLT
	leaq	-6152(%rbp), %rdi
	leaq	.L__const._ZL6func_1v.l_1750(%rip), %rsi
	movl	$40, %edx
	callq	memcpy@PLT
	leaq	-240(%rbp), %rdi
	leaq	.L__const._ZL6func_1v.l_1753(%rip), %rsi
	movl	$40, %edx
	callq	memcpy@PLT
	movq	$0, -6416(%rbp)
	movq	_ZL6g_1430(%rip), %rax
	movq	(%rax), %rax
	movq	(%rax), %rax
	movq	(%rax), %rax
	movswl	(%rax), %eax
	xorl	$-1, %eax
	cltq
	cmpq	$-1, %rax
	setne	%al
	andb	$1, %al
	movzbl	%al, %eax
	movq	-6400(%rbp), %rcx
	movl	%eax, (%rcx)
	movq	-6408(%rbp), %rcx
	movl	%eax, (%rcx)
	xorl	-6060(%rbp), %eax
	movl	%eax, -6060(%rbp)
	movw	_ZL5g_338+16(%rip), %ax
	movzwl	%ax, %ecx
	xorl	%eax, %eax
	cmpl	%ecx, %eax
	sete	%al
	andb	$1, %al
	movzbl	%al, %eax
	movw	%ax, %cx
	movq	_ZL6g_1432(%rip), %rax
	movq	(%rax), %rax
	movswl	%cx, %edi
	movswl	(%rax), %esi
	callq	_ZL25safe_mul_func_int16_t_s_sss
	movb	%al, %cl
	movq	-6400(%rbp), %rax
	movl	(%rax), %eax
                                        # kill: def $al killed $al killed $eax
	movsbl	%cl, %edi
	movsbl	%al, %esi
	callq	_ZL24safe_mod_func_int8_t_s_saa
	movsbq	%al, %rcx
	movb	$1, %al
	cmpq	$65535, %rcx                    # imm = 0xFFFF
	movb	%al, -7065(%rbp)                # 1-byte Spill
	jne	.LBB3_16
# %bb.15:
	movq	_ZL6g_1430(%rip), %rax
	movq	(%rax), %rax
	movq	(%rax), %rax
	movq	(%rax), %rax
	cmpw	$0, (%rax)
	setne	%al
	movb	%al, -7065(%rbp)                # 1-byte Spill
.LBB3_16:
	movb	-7065(%rbp), %al                # 1-byte Reload
	andb	$1, %al
	movzbl	%al, %eax
	cmpl	-6324(%rbp), %eax
	seta	%cl
	andb	$1, %cl
	movl	_ZL4g_24(%rip), %eax
                                        # kill: def $al killed $al killed $eax
	movsbl	%cl, %edi
	movsbl	%al, %esi
	callq	_ZL24safe_div_func_int8_t_s_saa
	movb	%al, %cl
	movb	$1, %al
	cmpb	$0, %cl
	movb	%al, -7066(%rbp)                # 1-byte Spill
	jne	.LBB3_18
# %bb.17:
	movb	$1, %al
	movb	%al, -7066(%rbp)                # 1-byte Spill
	jmp	.LBB3_18
.LBB3_18:
	movb	-7066(%rbp), %al                # 1-byte Reload
	andb	$1, %al
	movzbl	%al, %ecx
	movq	-6400(%rbp), %rax
	movl	%ecx, (%rax)
	movq	_ZL6g_1463(%rip), %rax
	movq	(%rax), %rax
	movq	%rax, -6416(%rbp)
	jmp	.LBB3_145
.LBB3_19:
	movl	$-157390578, -6428(%rbp)        # imm = 0xF69E690E
	movl	$9, -6156(%rbp)
	leaq	-1104(%rbp), %rdi
	leaq	.L__const._ZL6func_1v.l_1788(%rip), %rsi
	movl	$864, %edx                      # imm = 0x360
	callq	memcpy@PLT
	movq	$0, -6440(%rbp)
	leaq	_ZL6g_1432(%rip), %rax
	movq	%rax, -6448(%rbp)
	movb	$2, -6449(%rbp)
	leaq	-128(%rbp), %rax
	movq	%rax, -6464(%rbp)
	leaq	_ZL5g_143(%rip), %rax
	addq	$24, %rax
	movq	%rax, -6472(%rbp)
	movl	$-10, -6476(%rbp)
	movl	$-1, -6480(%rbp)
	leaq	-6200(%rbp), %rdi
	leaq	.L__const._ZL6func_1v.l_2032(%rip), %rsi
	movl	$40, %edx
	callq	memcpy@PLT
	leaq	_ZL6g_1733(%rip), %rax
	movq	%rax, -6488(%rbp)
	movq	$0, -6208(%rbp)
	leaq	-6208(%rbp), %rax
	movq	%rax, -6496(%rbp)
	leaq	-1824(%rbp), %rdi
	leaq	.L__const._ZL6func_1v.l_2050(%rip), %rsi
	movl	$720, %edx                      # imm = 0x2D0
	callq	memcpy@PLT
	movq	$0, -6504(%rbp)
	movl	.L__const._ZL6func_1v.l_2052(%rip), %eax
	movl	%eax, -6216(%rbp)
	movw	.L__const._ZL6func_1v.l_2052+4(%rip), %ax
	movw	%ax, -6212(%rbp)
	leaq	_ZL5g_787(%rip), %rax
	movq	%rax, -6512(%rbp)
	leaq	_ZL4g_24(%rip), %rax
	movq	%rax, -6520(%rbp)
	movq	$-21, _ZL5g_940(%rip)
.LBB3_20:                               # =>This Loop Header: Depth=1
                                        #     Child Loop BB3_22 Depth 2
                                        #       Child Loop BB3_24 Depth 3
                                        #       Child Loop BB3_28 Depth 3
                                        #       Child Loop BB3_32 Depth 3
                                        #       Child Loop BB3_37 Depth 3
                                        #       Child Loop BB3_42 Depth 3
                                        #       Child Loop BB3_51 Depth 3
                                        #       Child Loop BB3_69 Depth 3
                                        #       Child Loop BB3_78 Depth 3
                                        #         Child Loop BB3_85 Depth 4
	cmpq	$21, _ZL5g_940(%rip)
	jge	.LBB3_118
# %bb.21:                               #   in Loop: Header=BB3_20 Depth=1
	movq	$0, -6544(%rbp)
	movq	$0, -6552(%rbp)
	leaq	_ZL6g_1420(%rip), %rax
	movq	%rax, -6560(%rbp)
	leaq	-2112(%rbp), %rdi
	leaq	.L__const._ZL6func_1v.l_1766(%rip), %rsi
	movl	$288, %edx                      # imm = 0x120
	callq	memcpy@PLT
	movq	.L__const._ZL6func_1v.l_1869(%rip), %rax
	movq	%rax, -2144(%rbp)
	movq	.L__const._ZL6func_1v.l_1869+8(%rip), %rax
	movq	%rax, -2136(%rbp)
	movw	.L__const._ZL6func_1v.l_1869+16(%rip), %ax
	movw	%ax, -2128(%rbp)
	movb	$0, -6561(%rbp)
	leaq	_ZL5g_273(%rip), %rax
	addq	$14, %rax
	movq	%rax, -6576(%rbp)
	movl	$15081013, -6580(%rbp)          # imm = 0xE61E35
	leaq	-6068(%rbp), %rax
	movq	%rax, -6592(%rbp)
	movabsq	$-4026904018690593596, %rax     # imm = 0xC81D9021655AACC4
	movq	%rax, -6600(%rbp)
	movb	$-62, -6601(%rbp)
	movq	.L__const._ZL6func_1v.l_1900(%rip), %rax
	movq	%rax, -2159(%rbp)
	movl	.L__const._ZL6func_1v.l_1900+8(%rip), %eax
	movl	%eax, -2151(%rbp)
	movw	.L__const._ZL6func_1v.l_1900+12(%rip), %ax
	movw	%ax, -2147(%rbp)
	movb	.L__const._ZL6func_1v.l_1900+14(%rip), %al
	movb	%al, -2145(%rbp)
	movl	$22972617, -6608(%rbp)          # imm = 0x15E88C9
	movw	$4, -6610(%rbp)
	movq	-6560(%rbp), %rax
	leaq	_ZL6g_1421(%rip), %rcx
	movq	%rcx, (%rax)
	leaq	_ZL6g_1421(%rip), %rax
	movq	%rax, -6336(%rbp)
	movl	$0, -6060(%rbp)
.LBB3_22:                               #   Parent Loop BB3_20 Depth=1
                                        # =>  This Loop Header: Depth=2
                                        #       Child Loop BB3_24 Depth 3
                                        #       Child Loop BB3_28 Depth 3
                                        #       Child Loop BB3_32 Depth 3
                                        #       Child Loop BB3_37 Depth 3
                                        #       Child Loop BB3_42 Depth 3
                                        #       Child Loop BB3_51 Depth 3
                                        #       Child Loop BB3_69 Depth 3
                                        #       Child Loop BB3_78 Depth 3
                                        #         Child Loop BB3_85 Depth 4
	cmpl	$0, -6060(%rbp)
	jl	.LBB3_94
# %bb.23:                               #   in Loop: Header=BB3_22 Depth=2
	movl	$3, -6628(%rbp)
	movl	$-506106961, -6632(%rbp)        # imm = 0xE1D56BAF
	movq	$0, -6640(%rbp)
	movl	$0, -6644(%rbp)
.LBB3_24:                               #   Parent Loop BB3_20 Depth=1
                                        #     Parent Loop BB3_22 Depth=2
                                        # =>    This Inner Loop Header: Depth=3
	cmpl	$5, -6644(%rbp)
	jge	.LBB3_27
# %bb.25:                               #   in Loop: Header=BB3_24 Depth=3
	movslq	-6644(%rbp), %rax
	movb	$1, -6053(%rbp,%rax)
# %bb.26:                               #   in Loop: Header=BB3_24 Depth=3
	movl	-6644(%rbp), %eax
	addl	$1, %eax
	movl	%eax, -6644(%rbp)
	jmp	.LBB3_24
.LBB3_27:                               #   in Loop: Header=BB3_22 Depth=2
	movl	$0, -6644(%rbp)
.LBB3_28:                               #   Parent Loop BB3_20 Depth=1
                                        #     Parent Loop BB3_22 Depth=2
                                        # =>    This Inner Loop Header: Depth=3
	cmpl	$7, -6644(%rbp)
	jge	.LBB3_31
# %bb.29:                               #   in Loop: Header=BB3_28 Depth=3
	movslq	-6644(%rbp), %rax
	movl	$1137118293, -2192(%rbp,%rax,4) # imm = 0x43C70C55
# %bb.30:                               #   in Loop: Header=BB3_28 Depth=3
	movl	-6644(%rbp), %eax
	addl	$1, %eax
	movl	%eax, -6644(%rbp)
	jmp	.LBB3_28
.LBB3_31:                               #   in Loop: Header=BB3_22 Depth=2
	movl	$0, -6644(%rbp)
.LBB3_32:                               #   Parent Loop BB3_20 Depth=1
                                        #     Parent Loop BB3_22 Depth=2
                                        # =>    This Inner Loop Header: Depth=3
	cmpl	$6, -6644(%rbp)
	jge	.LBB3_35
# %bb.33:                               #   in Loop: Header=BB3_32 Depth=3
	movslq	-6644(%rbp), %rax
	movq	$0, -2240(%rbp,%rax,8)
# %bb.34:                               #   in Loop: Header=BB3_32 Depth=3
	movl	-6644(%rbp), %eax
	addl	$1, %eax
	movl	%eax, -6644(%rbp)
	jmp	.LBB3_32
.LBB3_35:                               #   in Loop: Header=BB3_22 Depth=2
	movl	-56(%rbp), %eax
	cmpl	-6428(%rbp), %eax
	setbe	%al
	andb	$1, %al
	movzbl	%al, %edi
	callq	_ZL32safe_unary_minus_func_uint32_t_uj
	cmpl	$0, %eax
	je	.LBB3_50
# %bb.36:                               #   in Loop: Header=BB3_22 Depth=2
	leaq	-3040(%rbp), %rdi
	leaq	.L__const._ZL6func_1v.l_1770(%rip), %rsi
	movl	$800, %edx                      # imm = 0x320
	callq	memcpy@PLT
	movabsq	$2071408640598540482, %rax      # imm = 0x1CBF1F2F0F8D00C2
	movq	%rax, -6656(%rbp)
	movl	$0, -6660(%rbp)
.LBB3_37:                               #   Parent Loop BB3_20 Depth=1
                                        #     Parent Loop BB3_22 Depth=2
                                        # =>    This Inner Loop Header: Depth=3
	cmpl	$10, -6660(%rbp)
	jge	.LBB3_40
# %bb.38:                               #   in Loop: Header=BB3_37 Depth=3
	movslq	-6660(%rbp), %rax
	movl	$1727651833, -3088(%rbp,%rax,4) # imm = 0x66F9DFF9
# %bb.39:                               #   in Loop: Header=BB3_37 Depth=3
	movl	-6660(%rbp), %eax
	addl	$1, %eax
	movl	%eax, -6660(%rbp)
	jmp	.LBB3_37
.LBB3_40:                               #   in Loop: Header=BB3_22 Depth=2
	movl	-6060(%rbp), %eax
	andl	-1828(%rbp), %eax
	cmpl	$0, %eax
	je	.LBB3_48
# %bb.41:                               #   in Loop: Header=BB3_22 Depth=2
	movq	$0, -6680(%rbp)
	leaq	_ZL4g_97(%rip), %rax
	movq	%rax, -6688(%rbp)
	movl	$0, -6692(%rbp)
.LBB3_42:                               #   Parent Loop BB3_20 Depth=1
                                        #     Parent Loop BB3_22 Depth=2
                                        # =>    This Inner Loop Header: Depth=3
	cmpl	$3, -6692(%rbp)
	jge	.LBB3_45
# %bb.43:                               #   in Loop: Header=BB3_42 Depth=3
	movslq	-6692(%rbp), %rax
	leaq	_ZL5g_673(%rip), %rcx
	movq	%rcx, -3120(%rbp,%rax,8)
# %bb.44:                               #   in Loop: Header=BB3_42 Depth=3
	movl	-6692(%rbp), %eax
	addl	$1, %eax
	movl	%eax, -6692(%rbp)
	jmp	.LBB3_42
.LBB3_45:                               #   in Loop: Header=BB3_22 Depth=2
	movq	-3120(%rbp), %rcx
	movq	-6688(%rbp), %rax
	movq	%rcx, (%rax)
	cmpl	$0, -2700(%rbp)
	je	.LBB3_47
# %bb.46:                               #   in Loop: Header=BB3_22 Depth=2
	jmp	.LBB3_93
.LBB3_47:                               #   in Loop: Header=BB3_22 Depth=2
	movq	_ZL4g_97(%rip), %rax
	movslq	(%rax), %rcx
	xorq	$1, %rcx
                                        # kill: def $ecx killed $ecx killed $rcx
	movl	%ecx, (%rax)
	jmp	.LBB3_49
.LBB3_48:                               #   in Loop: Header=BB3_22 Depth=2
	movl	$-310606414, -6696(%rbp)        # imm = 0xED7C85B2
	leaq	_ZL5g_402(%rip), %rax
	movq	%rax, -6704(%rbp)
	leaq	_ZL5g_402(%rip), %rax
	movq	%rax, -6712(%rbp)
	leaq	_ZL4g_24(%rip), %rax
	movq	%rax, -6720(%rbp)
	leaq	_ZL4g_24(%rip), %rax
	movq	%rax, -6728(%rbp)
	leaq	_ZL5g_673(%rip), %rax
	addq	$36, %rax
	movq	%rax, -6736(%rbp)
	leaq	_ZL5g_673(%rip), %rax
	addq	$24, %rax
	movq	%rax, -6744(%rbp)
	leaq	-2112(%rbp), %rax
	addq	$224, %rax
	movq	%rax, -6752(%rbp)
	leaq	_ZL5g_673(%rip), %rax
	addq	$36, %rax
	movq	%rax, -6760(%rbp)
	leaq	-2112(%rbp), %rax
	addq	$16, %rax
	movq	%rax, -6768(%rbp)
	leaq	-6060(%rbp), %rax
	movq	%rax, -3632(%rbp)
	movq	$0, -3624(%rbp)
	leaq	_ZL5g_673(%rip), %rax
	movq	%rax, -3616(%rbp)
	leaq	_ZL5g_673(%rip), %rax
	addq	$36, %rax
	movq	%rax, -3608(%rbp)
	movq	$0, -3600(%rbp)
	leaq	_ZL5g_673(%rip), %rax
	addq	$36, %rax
	movq	%rax, -3592(%rbp)
	leaq	_ZL5g_673(%rip), %rax
	movq	%rax, -3584(%rbp)
	leaq	_ZL5g_673(%rip), %rax
	addq	$36, %rax
	movq	%rax, -3576(%rbp)
	leaq	_ZL5g_673(%rip), %rax
	addq	$36, %rax
	movq	%rax, -3568(%rbp)
	leaq	-2112(%rbp), %rax
	addq	$256, %rax                      # imm = 0x100
	addq	$28, %rax
	movq	%rax, -3560(%rbp)
	leaq	-6060(%rbp), %rax
	movq	%rax, -3552(%rbp)
	leaq	_ZL4g_24(%rip), %rax
	movq	%rax, -3544(%rbp)
	leaq	_ZL5g_673(%rip), %rax
	addq	$36, %rax
	movq	%rax, -3536(%rbp)
	leaq	_ZL5g_673(%rip), %rax
	addq	$36, %rax
	movq	%rax, -3528(%rbp)
	leaq	-6060(%rbp), %rax
	movq	%rax, -3520(%rbp)
	leaq	_ZL5g_673(%rip), %rax
	addq	$36, %rax
	movq	%rax, -3512(%rbp)
	movq	$0, -3504(%rbp)
	movq	$0, -3496(%rbp)
	leaq	_ZL5g_673(%rip), %rax
	addq	$36, %rax
	movq	%rax, -3488(%rbp)
	leaq	-6060(%rbp), %rax
	movq	%rax, -3480(%rbp)
	movq	$0, -3472(%rbp)
	leaq	_ZL4g_24(%rip), %rax
	movq	%rax, -3464(%rbp)
	leaq	-2112(%rbp), %rax
	addq	$256, %rax                      # imm = 0x100
	addq	$28, %rax
	movq	%rax, -3456(%rbp)
	leaq	-6060(%rbp), %rax
	movq	%rax, -3448(%rbp)
	leaq	_ZL5g_673(%rip), %rax
	addq	$36, %rax
	movq	%rax, -3440(%rbp)
	leaq	_ZL4g_24(%rip), %rax
	movq	%rax, -3432(%rbp)
	leaq	_ZL4g_24(%rip), %rax
	movq	%rax, -3424(%rbp)
	leaq	_ZL5g_673(%rip), %rax
	addq	$36, %rax
	movq	%rax, -3416(%rbp)
	leaq	_ZL6g_1113(%rip), %rax
	movq	%rax, -3408(%rbp)
	leaq	_ZL5g_402(%rip), %rax
	movq	%rax, -3400(%rbp)
	leaq	_ZL6g_1113(%rip), %rax
	movq	%rax, -3392(%rbp)
	leaq	_ZL4g_24(%rip), %rax
	movq	%rax, -3384(%rbp)
	movq	$0, -3376(%rbp)
	leaq	-6060(%rbp), %rax
	movq	%rax, -3368(%rbp)
	leaq	-6060(%rbp), %rax
	movq	%rax, -3360(%rbp)
	leaq	-6060(%rbp), %rax
	movq	%rax, -3352(%rbp)
	leaq	-2112(%rbp), %rax
	addq	$256, %rax                      # imm = 0x100
	addq	$28, %rax
	movq	%rax, -3344(%rbp)
	leaq	_ZL4g_24(%rip), %rax
	movq	%rax, -3336(%rbp)
	leaq	_ZL5g_673(%rip), %rax
	addq	$36, %rax
	movq	%rax, -3328(%rbp)
	leaq	_ZL4g_24(%rip), %rax
	movq	%rax, -3320(%rbp)
	leaq	-2112(%rbp), %rax
	addq	$256, %rax                      # imm = 0x100
	addq	$28, %rax
	movq	%rax, -3312(%rbp)
	leaq	-6060(%rbp), %rax
	movq	%rax, -3304(%rbp)
	movq	$0, -3296(%rbp)
	leaq	_ZL5g_673(%rip), %rax
	addq	$36, %rax
	movq	%rax, -3288(%rbp)
	leaq	-6060(%rbp), %rax
	movq	%rax, -3280(%rbp)
	movq	$0, -3272(%rbp)
	leaq	_ZL5g_673(%rip), %rax
	addq	$36, %rax
	movq	%rax, -3264(%rbp)
	leaq	-6060(%rbp), %rax
	movq	%rax, -3256(%rbp)
	leaq	_ZL5g_673(%rip), %rax
	addq	$36, %rax
	movq	%rax, -3248(%rbp)
	leaq	-2112(%rbp), %rax
	addq	$256, %rax                      # imm = 0x100
	addq	$28, %rax
	movq	%rax, -3240(%rbp)
	leaq	_ZL5g_673(%rip), %rax
	addq	$36, %rax
	movq	%rax, -3232(%rbp)
	leaq	_ZL5g_673(%rip), %rax
	addq	$36, %rax
	movq	%rax, -3224(%rbp)
	leaq	-2112(%rbp), %rax
	addq	$256, %rax                      # imm = 0x100
	addq	$28, %rax
	movq	%rax, -3216(%rbp)
	leaq	-6060(%rbp), %rax
	movq	%rax, -3208(%rbp)
	leaq	_ZL4g_24(%rip), %rax
	movq	%rax, -3200(%rbp)
	leaq	_ZL5g_673(%rip), %rax
	addq	$36, %rax
	movq	%rax, -3192(%rbp)
	leaq	_ZL5g_673(%rip), %rax
	movq	%rax, -3184(%rbp)
	movq	$0, -3176(%rbp)
	leaq	-6060(%rbp), %rax
	movq	%rax, -3168(%rbp)
	leaq	_ZL6g_1113(%rip), %rax
	movq	%rax, -3160(%rbp)
	leaq	_ZL6g_1113(%rip), %rax
	movq	%rax, -3152(%rbp)
	leaq	-6060(%rbp), %rax
	movq	%rax, -3144(%rbp)
	movq	$0, -3136(%rbp)
	movq	$1, -6776(%rbp)
	movl	-6696(%rbp), %eax
                                        # kill: def $rax killed $eax
	orq	$1, %rax
                                        # kill: def $eax killed $eax killed $rax
	movl	%eax, -6696(%rbp)
	movq	-6656(%rbp), %rax
	addq	$1, %rax
	movq	%rax, -6656(%rbp)
.LBB3_49:                               #   in Loop: Header=BB3_22 Depth=2
	jmp	.LBB3_77
.LBB3_50:                               #   in Loop: Header=BB3_22 Depth=2
	movq	$-2, -6792(%rbp)
	leaq	-6053(%rbp), %rax
	addq	$4, %rax
	movq	%rax, -6800(%rbp)
	leaq	-3824(%rbp), %rdi
	leaq	.L__const._ZL6func_1v.l_1815(%rip), %rsi
	movl	$192, %edx
	callq	memcpy@PLT
	movl	$0, -6804(%rbp)
	leaq	-2240(%rbp), %rax
	addq	$8, %rax
	movq	%rax, -6816(%rbp)
	movq	$0, _ZL5g_474+24(%rip)
.LBB3_51:                               #   Parent Loop BB3_20 Depth=1
                                        #     Parent Loop BB3_22 Depth=2
                                        # =>    This Inner Loop Header: Depth=3
	cmpq	$0, _ZL5g_474+24(%rip)
	ja	.LBB3_56
# %bb.52:                               #   in Loop: Header=BB3_51 Depth=3
	movq	.L__const._ZL6func_1v.l_1800(%rip), %rax
	movq	%rax, -3856(%rbp)
	movq	.L__const._ZL6func_1v.l_1800+8(%rip), %rax
	movq	%rax, -3848(%rbp)
	movl	.L__const._ZL6func_1v.l_1800+16(%rip), %eax
	movl	%eax, -3840(%rbp)
	leaq	-6064(%rbp), %rax
	movq	%rax, -6224(%rbp)
	leaq	_ZL4g_97(%rip), %rax
	movq	%rax, -6832(%rbp)
	movq	$0, -6840(%rbp)
	leaq	-6224(%rbp), %rax
	movq	%rax, -6848(%rbp)
	movzwl	-3852(%rbp), %edi
	movq	-6312(%rbp), %rax
	movl	(%rax), %esi
	movl	%esi, %ecx
	addl	$1, %ecx
	movl	%ecx, (%rax)
	callq	_ZL25safe_add_func_int32_t_s_sii
	movslq	%eax, %rdi
	andq	-6792(%rbp), %rdi
	movl	$32, %esi
	callq	_ZL29safe_rshift_func_uint64_t_u_umj
	movq	%rax, -7080(%rbp)               # 8-byte Spill
	movq	-6800(%rbp), %rax
	cmpq	-6800(%rbp), %rax
	setne	%al
	andb	$1, %al
	movzbl	%al, %edx
	movq	_ZL6g_1430(%rip), %rax
	movq	(%rax), %rax
	movq	(%rax), %rax
	movq	(%rax), %rcx
	movswl	(%rcx), %eax
	orl	%edx, %eax
                                        # kill: def $ax killed $ax killed $eax
	movw	%ax, (%rcx)
	movswq	%ax, %rcx
	movl	$64192, %eax                    # imm = 0xFAC0
	cmpq	%rcx, %rax
	setne	%al
	andb	$1, %al
	movzbl	%al, %eax
	cmpl	-56(%rbp), %eax
	setne	%al
	andb	$1, %al
	movzbl	%al, %eax
	movl	%eax, -7084(%rbp)               # 4-byte Spill
	xorl	%eax, %eax
                                        # kill: def $rax killed $eax
	cmpq	-6440(%rbp), %rax
	setne	%al
	andb	$1, %al
	movzbl	%al, %eax
	movb	_ZL5g_729(%rip), %cl
	addb	$1, %cl
	movb	%cl, _ZL5g_729(%rip)
	movzbl	%cl, %ecx
	orl	%ecx, %eax
	movl	%eax, -7088(%rbp)               # 4-byte Spill
	movq	-6792(%rbp), %rax
	movslq	-2172(%rbp), %rcx
	orq	%rcx, %rax
	movzwl	-3842(%rbp), %ecx
                                        # kill: def $rcx killed $ecx
	cmpq	%rcx, %rax
	sete	%al
	andb	$1, %al
	movzbl	%al, %eax
	xorl	-104(%rbp), %eax
	movl	%eax, -104(%rbp)
                                        # kill: def $ax killed $ax killed $eax
	movl	$7, %esi
	movswl	%ax, %edi
	callq	_ZL25safe_mod_func_int16_t_s_sss
	movl	-7088(%rbp), %ecx               # 4-byte Reload
	movw	%ax, %dx
	movl	-7084(%rbp), %eax               # 4-byte Reload
	movswl	%dx, %edx
	cmpl	%edx, %ecx
	sete	%cl
	xorb	$-1, %cl
	andb	$1, %cl
	movzbl	%cl, %ecx
	cmpl	%ecx, %eax
	setge	%cl
	andb	$1, %cl
	movl	_ZL5g_585+12(%rip), %eax
	shll	$6, %eax
	sarl	$6, %eax
                                        # kill: def $al killed $al killed $eax
	movsbl	%cl, %edi
	movsbl	%al, %esi
	callq	_ZL24safe_mul_func_int8_t_s_saa
	movb	%al, %cl
	movq	-7080(%rbp), %rax               # 8-byte Reload
	movsbq	%cl, %rcx
	cmpq	%rcx, %rax
	setne	%al
	andb	$1, %al
	movzbl	%al, %eax
                                        # kill: def $rax killed $eax
	cmpq	$0, %rax
	setle	%al
	andb	$1, %al
	movzbl	%al, %ecx
	movq	-6224(%rbp), %rax
	movl	%ecx, (%rax)
	movl	-6060(%rbp), %eax
	addl	$5, %eax
	movslq	%eax, %rcx
	leaq	_ZL5g_788(%rip), %rax
	imulq	$18, %rcx, %rcx
	addq	%rcx, %rax
	movl	-6060(%rbp), %ecx
	addl	$1, %ecx
	movslq	%ecx, %rcx
	imulq	$6, %rcx, %rcx
	addq	%rcx, %rax
	movl	-3680(%rbp), %ecx
	movl	%ecx, (%rax)
	movw	-3676(%rbp), %cx
	movw	%cx, 4(%rax)
	movq	-6848(%rbp), %rax
	leaq	_ZL5g_673(%rip), %rcx
	addq	$28, %rcx
	movq	%rcx, (%rax)
	movl	-6068(%rbp), %eax
	movl	%eax, -7072(%rbp)               # 4-byte Spill
	movl	$1, %edi
	callq	_ZL32safe_unary_minus_func_uint16_t_ut
	movw	%ax, %cx
	movl	-7072(%rbp), %eax               # 4-byte Reload
	movzwl	%cx, %ecx
	cmpl	%ecx, %eax
	setle	%al
	andb	$1, %al
	movb	%al, -7068(%rbp)                # 1-byte Spill
	movsbq	-6049(%rbp), %rcx
	movq	_ZL5g_577(%rip), %rax
	movq	%rcx, (%rax)
	xorl	%eax, %eax
                                        # kill: def $al killed $al killed $eax
	cmpq	$0, %rcx
	movb	%al, -7067(%rbp)                # 1-byte Spill
	je	.LBB3_54
# %bb.53:                               #   in Loop: Header=BB3_51 Depth=3
	movb	$1, %al
	movb	%al, -7067(%rbp)                # 1-byte Spill
	jmp	.LBB3_54
.LBB3_54:                               #   in Loop: Header=BB3_51 Depth=3
	movb	-7068(%rbp), %cl                # 1-byte Reload
	movb	-7067(%rbp), %al                # 1-byte Reload
	andb	$1, %al
	movsbl	%cl, %edi
	movsbl	%al, %esi
	callq	_ZL24safe_div_func_int8_t_s_saa
	movsbl	%al, %eax
                                        # kill: def $ax killed $ax killed $eax
	xorl	%esi, %esi
	movswl	%ax, %edi
	callq	_ZL28safe_lshift_func_int16_t_s_usj
	movl	-6064(%rbp), %eax
	cmpl	-6060(%rbp), %eax
	setge	%al
	andb	$1, %al
	leaq	_ZL4g_24(%rip), %rdx
	leaq	_ZL5g_673+28(%rip), %rcx
	subq	%rdx, %rcx
	sete	%cl
	movzbl	%cl, %edi
	movsbl	%al, %esi
	callq	_ZL24safe_sub_func_int8_t_s_saa
	movsbl	%al, %edi
	movl	_ZL5g_627+44(%rip), %esi
	callq	_ZL25safe_div_func_int32_t_s_sii
	movl	-2172(%rbp), %eax
	cmpl	-6804(%rbp), %eax
	setbe	%al
	andb	$1, %al
	movzbl	%al, %edi
	movl	$133592712, %esi                # imm = 0x7F67688
	callq	_ZL25safe_add_func_int32_t_s_sii
	movl	%eax, %ecx
	movw	-3680(%rbp), %ax
	shlw	$5, %ax
	sarw	$5, %ax
	cwtl
	andl	%ecx, %eax
	movw	%ax, %cx
	movw	-3680(%rbp), %ax
	andw	$2047, %cx                      # imm = 0x7FF
	andw	$-2048, %ax                     # imm = 0xF800
	orw	%cx, %ax
	movw	%ax, -3680(%rbp)
# %bb.55:                               #   in Loop: Header=BB3_51 Depth=3
	movq	_ZL5g_474+24(%rip), %rax
	addq	$1, %rax
	movq	%rax, _ZL5g_474+24(%rip)
	jmp	.LBB3_51
.LBB3_56:                               #   in Loop: Header=BB3_22 Depth=2
	cmpl	$0, -1828(%rbp)
	je	.LBB3_58
# %bb.57:                               #   in Loop: Header=BB3_20 Depth=1
	jmp	.LBB3_94
.LBB3_58:                               #   in Loop: Header=BB3_22 Depth=2
	movb	$1, %al
	cmpq	$0, -6448(%rbp)
	movb	%al, -7089(%rbp)                # 1-byte Spill
	jne	.LBB3_60
# %bb.59:                               #   in Loop: Header=BB3_22 Depth=2
	movq	-2232(%rbp), %rax
	movq	-6816(%rbp), %rcx
	movq	%rax, (%rcx)
	movq	$0, _ZL6g_1836(%rip)
	cmpq	$0, %rax
	sete	%al
	movb	%al, -7089(%rbp)                # 1-byte Spill
.LBB3_60:                               #   in Loop: Header=BB3_22 Depth=2
	movb	-7089(%rbp), %al                # 1-byte Reload
	andb	$1, %al
	movzbl	%al, %eax
                                        # kill: def $rax killed $eax
	cmpq	$2, %rax
	sete	%al
	andb	$1, %al
	movzbl	%al, %edi
	movl	$5, %esi
	callq	_ZL26safe_add_func_uint32_t_u_ujj
	movl	%eax, %ecx
	movq	_ZL5g_583(%rip), %rax
	movq	(%rax), %rax
	movq	_ZL6g_1420(%rip), %rdx
	cmpq	(%rdx), %rax
	sete	%al
	andb	$1, %al
	movzbl	%al, %eax
	cmpl	-6428(%rbp), %eax
	setbe	%al
	andb	$1, %al
	movzbl	%al, %eax
	cmpl	-2092(%rbp), %eax
	setge	%al
	andb	$1, %al
	movzbl	%al, %edx
	movb	$1, %al
	cmpl	%edx, %ecx
	movb	%al, -7090(%rbp)                # 1-byte Spill
	jae	.LBB3_63
# %bb.61:                               #   in Loop: Header=BB3_22 Depth=2
	movb	$1, %al
	testb	$1, %al
	movb	%al, -7090(%rbp)                # 1-byte Spill
	jne	.LBB3_63
	jmp	.LBB3_62
.LBB3_62:                               #   in Loop: Header=BB3_22 Depth=2
	movb	$1, %al
	movb	%al, -7090(%rbp)                # 1-byte Spill
	jmp	.LBB3_63
.LBB3_63:                               #   in Loop: Header=BB3_22 Depth=2
	movb	-7090(%rbp), %al                # 1-byte Reload
	movb	$1, %al
	testb	$1, %al
	jne	.LBB3_64
	jmp	.LBB3_67
.LBB3_64:                               #   in Loop: Header=BB3_22 Depth=2
	movl	_ZL5g_143+12(%rip), %eax
	shll	$6, %eax
	sarl	$6, %eax
	cmpl	$0, %eax
	je	.LBB3_66
# %bb.65:                               #   in Loop: Header=BB3_20 Depth=1
	jmp	.LBB3_94
.LBB3_66:                               #   in Loop: Header=BB3_22 Depth=2
	movl	_ZL5g_474+12(%rip), %eax
	shll	$6, %eax
	sarl	$6, %eax
	cltq
	orq	$-1, %rax
	movl	%eax, %ecx
	movl	_ZL5g_474+12(%rip), %eax
	andl	$67108863, %ecx                 # imm = 0x3FFFFFF
	andl	$-67108864, %eax                # imm = 0xFC000000
	orl	%ecx, %eax
	movl	%eax, _ZL5g_474+12(%rip)
	jmp	.LBB3_68
.LBB3_67:                               #   in Loop: Header=BB3_22 Depth=2
	leaq	_ZL4g_97(%rip), %rax
	movq	%rax, -6864(%rbp)
	leaq	-6096(%rbp), %rax
	movq	%rax, -6872(%rbp)
	movl	_ZL5g_795(%rip), %eax
	movl	%eax, -6232(%rbp)
	movw	_ZL5g_795+4(%rip), %ax
	movw	%ax, -6228(%rbp)
	movq	-6640(%rbp), %rdi
	leaq	-6232(%rbp), %rax
	movl	(%rax), %ecx
	movl	%ecx, (%rsp)
	movw	4(%rax), %ax
	movw	%ax, 4(%rsp)
	callq	_ZL7func_282S0Pj
	movq	%rax, %rcx
	movq	-6864(%rbp), %rax
	movq	%rcx, (%rax)
	movq	-6096(%rbp), %rcx
	movq	-6872(%rbp), %rax
	movq	%rcx, (%rax)
.LBB3_68:                               #   in Loop: Header=BB3_22 Depth=2
	movq	$0, _ZL5g_778(%rip)
.LBB3_69:                               #   Parent Loop BB3_20 Depth=1
                                        #     Parent Loop BB3_22 Depth=2
                                        # =>    This Inner Loop Header: Depth=3
	cmpq	$0, _ZL5g_778(%rip)
	jl	.LBB3_76
# %bb.70:                               #   in Loop: Header=BB3_69 Depth=3
	leaq	_ZL5g_584(%rip), %rax
	movq	%rax, -6880(%rbp)
	movl	$1, -6884(%rbp)
	movq	_ZL5g_583(%rip), %rax
	movq	(%rax), %rcx
	movq	-6880(%rbp), %rax
	movq	%rcx, (%rax)
	cmpl	$0, -1828(%rbp)
	je	.LBB3_72
# %bb.71:                               #   in Loop: Header=BB3_22 Depth=2
	jmp	.LBB3_76
.LBB3_72:                               #   in Loop: Header=BB3_69 Depth=3
	cmpl	$0, -6064(%rbp)
	je	.LBB3_74
# %bb.73:                               #   in Loop: Header=BB3_69 Depth=3
	jmp	.LBB3_75
.LBB3_74:                               #   in Loop: Header=BB3_69 Depth=3
	jmp	.LBB3_75
.LBB3_75:                               #   in Loop: Header=BB3_69 Depth=3
	movq	_ZL5g_778(%rip), %rax
	subq	$1, %rax
	movq	%rax, _ZL5g_778(%rip)
	jmp	.LBB3_69
.LBB3_76:                               #   in Loop: Header=BB3_22 Depth=2
	jmp	.LBB3_77
.LBB3_77:                               #   in Loop: Header=BB3_22 Depth=2
	movb	$0, _ZL5g_568(%rip)
.LBB3_78:                               #   Parent Loop BB3_20 Depth=1
                                        #     Parent Loop BB3_22 Depth=2
                                        # =>    This Loop Header: Depth=3
                                        #         Child Loop BB3_85 Depth 4
	movsbl	_ZL5g_568(%rip), %eax
	cmpl	$5, %eax
	jg	.LBB3_90
# %bb.79:                               #   in Loop: Header=BB3_78 Depth=3
	movl	$-6, -6888(%rbp)
	movl	$944713459, -6892(%rbp)         # imm = 0x384F2EF3
	leaq	-6156(%rbp), %rax
	movq	%rax, -6904(%rbp)
	movl	$0, _ZL5g_787+2(%rip)
# %bb.80:                               #   in Loop: Header=BB3_78 Depth=3
	cmpl	$0, _ZL5g_787+2(%rip)
	ja	.LBB3_82
# %bb.81:
	movl	-6060(%rbp), %eax
	addl	$2, %eax
	cltq
	movl	-112(%rbp,%rax,4), %eax
                                        # kill: def $al killed $al killed $eax
	movb	%al, -6297(%rbp)
	jmp	.LBB3_151
.LBB3_82:                               #   in Loop: Header=BB3_78 Depth=3
	movl	-6324(%rbp), %eax
	andl	-6888(%rbp), %eax
	movl	%eax, -6888(%rbp)
	xorl	%esi, %esi
	movsbl	-6049(%rbp), %edi
	callq	_ZL27safe_rshift_func_int8_t_s_uaj
	movsbl	%al, %eax
	movslq	-6068(%rbp), %rax
	movq	%rax, -7104(%rbp)               # 8-byte Spill
	movl	-1828(%rbp), %eax
	movl	%eax, -7096(%rbp)               # 4-byte Spill
	movslq	-744(%rbp), %rdi
	movl	$25, %esi
	callq	_ZL29safe_rshift_func_uint64_t_u_smi
	movl	-7096(%rbp), %edi               # 4-byte Reload
	movl	%eax, %esi
	callq	_ZL28safe_rshift_func_int32_t_s_uij
	xorl	%ecx, %ecx
                                        # kill: def $rcx killed $ecx
	cmpq	-6344(%rbp), %rcx
	sete	%cl
	andb	$1, %cl
	movzbl	%cl, %ecx
	cmpl	%ecx, %eax
	setle	%al
	andb	$1, %al
	movzbl	%al, %eax
	cmpl	-6888(%rbp), %eax
	seta	%al
	andb	$1, %al
	movzbl	%al, %edi
	movl	-6888(%rbp), %esi
	callq	_ZL25safe_sub_func_int32_t_s_sii
	movl	%eax, %ecx
	xorl	%eax, %eax
                                        # kill: def $al killed $al killed $eax
	cmpl	$0, %ecx
	movb	%al, -7091(%rbp)                # 1-byte Spill
	je	.LBB3_84
# %bb.83:                               #   in Loop: Header=BB3_78 Depth=3
	cmpl	$0, -6888(%rbp)
	setne	%al
	movb	%al, -7091(%rbp)                # 1-byte Spill
.LBB3_84:                               #   in Loop: Header=BB3_78 Depth=3
	movq	-7104(%rbp), %rdi               # 8-byte Reload
	movb	-7091(%rbp), %al                # 1-byte Reload
	andb	$1, %al
	movzbl	%al, %eax
	cmpl	-1916(%rbp), %eax
	setge	%al
	andb	$1, %al
	movzbl	%al, %eax
	xorl	$-1, %eax
	cmpl	-2172(%rbp), %eax
	setne	%al
	andb	$1, %al
	movzbl	%al, %eax
	movq	_ZL6g_1432(%rip), %rcx
	movq	(%rcx), %rcx
	movswl	(%rcx), %ecx
	andl	%ecx, %eax
	movslq	%eax, %rsi
	callq	_ZL26safe_div_func_uint64_t_u_umm
	movl	-6428(%rbp), %eax
                                        # kill: def $rax killed $eax
	orq	$51787, %rax                    # imm = 0xCA4B
	cmpq	$16188, %rax                    # imm = 0x3F3C
	setle	%al
	andb	$1, %al
	movzbl	%al, %eax
	movl	%eax, %ecx
	movl	$190, %eax
	cmpq	%rcx, %rax
	sete	%al
	andb	$1, %al
	movzbl	%al, %eax
	cmpl	-6892(%rbp), %eax
	sete	%al
	andb	$1, %al
	movzbl	%al, %eax
	andl	-6892(%rbp), %eax
	movslq	%eax, %rcx
	movl	$1, %eax
	cmpq	%rcx, %rax
	sete	%al
	andb	$1, %al
	movzbl	%al, %ecx
	movsbq	_ZL5g_568(%rip), %rax
	xorl	-112(%rbp,%rax,4), %ecx
	movl	%ecx, -112(%rbp,%rax,4)
	movq	$0, _ZL5g_499(%rip)
.LBB3_85:                               #   Parent Loop BB3_20 Depth=1
                                        #     Parent Loop BB3_22 Depth=2
                                        #       Parent Loop BB3_78 Depth=3
                                        # =>      This Inner Loop Header: Depth=4
	cmpq	$0, _ZL5g_499(%rip)
	jl	.LBB3_88
# %bb.86:                               #   in Loop: Header=BB3_85 Depth=4
	leaq	_ZL5g_626(%rip), %rax
	movq	%rax, -6920(%rbp)
	movq	$0, -6904(%rbp)
	movq	-6920(%rbp), %rax
	leaq	_ZL5g_627(%rip), %rcx
	addq	$44, %rcx
	movq	%rcx, (%rax)
# %bb.87:                               #   in Loop: Header=BB3_85 Depth=4
	movq	_ZL5g_499(%rip), %rax
	subq	$1, %rax
	movq	%rax, _ZL5g_499(%rip)
	jmp	.LBB3_85
.LBB3_88:                               #   in Loop: Header=BB3_78 Depth=3
	jmp	.LBB3_89
.LBB3_89:                               #   in Loop: Header=BB3_78 Depth=3
	movsbl	_ZL5g_568(%rip), %eax
	addl	$1, %eax
                                        # kill: def $al killed $al killed $eax
	movb	%al, _ZL5g_568(%rip)
	jmp	.LBB3_78
.LBB3_90:                               #   in Loop: Header=BB3_22 Depth=2
	cmpl	$0, -1844(%rbp)
	je	.LBB3_92
# %bb.91:                               #   in Loop: Header=BB3_20 Depth=1
	jmp	.LBB3_94
.LBB3_92:                               #   in Loop: Header=BB3_22 Depth=2
	jmp	.LBB3_93
.LBB3_93:                               #   in Loop: Header=BB3_22 Depth=2
	movl	-6060(%rbp), %eax
	subl	$1, %eax
	movl	%eax, -6060(%rbp)
	jmp	.LBB3_22
.LBB3_94:                               #   in Loop: Header=BB3_20 Depth=1
	movl	-744(%rbp), %eax
	movw	%ax, %cx
	movsbl	-6561(%rbp), %eax
                                        # kill: def $ax killed $ax killed $eax
	movswl	%cx, %edi
	movswl	%ax, %esi
	callq	_ZL25safe_add_func_int16_t_s_sss
	movl	_ZL6g_1875(%rip), %eax
	xorl	-6428(%rbp), %eax
                                        # kill: def $ax killed $ax killed $eax
	movq	-6576(%rbp), %rcx
	movw	%ax, (%rcx)
	movzwl	%ax, %eax
	movl	%eax, -7112(%rbp)               # 4-byte Spill
	movb	$1, %al
	cmpb	$0, -6561(%rbp)
	movb	%al, -7105(%rbp)                # 1-byte Spill
	jne	.LBB3_96
# %bb.95:                               #   in Loop: Header=BB3_20 Depth=1
	movb	$1, %al
	movb	%al, -7105(%rbp)                # 1-byte Spill
	jmp	.LBB3_96
.LBB3_96:                               #   in Loop: Header=BB3_20 Depth=1
	movb	-7105(%rbp), %al                # 1-byte Reload
	andb	$1, %al
	movzbl	%al, %eax
	movl	%eax, -7116(%rbp)               # 4-byte Spill
	cmpl	$0, -1828(%rbp)
	je	.LBB3_99
# %bb.97:                               #   in Loop: Header=BB3_20 Depth=1
	movl	-6324(%rbp), %eax
                                        # kill: def $al killed $al killed $eax
	movl	$118, %edi
	movzbl	%al, %esi
	callq	_ZL25safe_div_func_uint8_t_u_uhh
	movq	_ZL5g_576(%rip), %rax
	movq	(%rax), %rax
	movq	(%rax), %rcx
	movslq	-92(%rbp), %rax
	andq	%rcx, %rax
                                        # kill: def $eax killed $eax killed $rax
	movl	%eax, -92(%rbp)
	movslq	%eax, %rdi
	movl	-6580(%rbp), %eax
	movl	%eax, %esi
	callq	_ZL25safe_mod_func_int64_t_s_sll
	cmpq	$0, %rax
	je	.LBB3_99
# %bb.98:                               #   in Loop: Header=BB3_20 Depth=1
	movb	$1, %al
	xorl	%ecx, %ecx
                                        # kill: def $cl killed $cl killed $ecx
	testb	$1, %cl
	movb	%al, -7117(%rbp)                # 1-byte Spill
	jne	.LBB3_100
	jmp	.LBB3_99
.LBB3_99:                               #   in Loop: Header=BB3_20 Depth=1
	cmpl	$0, -444(%rbp)
	setne	%al
	movb	%al, -7117(%rbp)                # 1-byte Spill
.LBB3_100:                              #   in Loop: Header=BB3_20 Depth=1
	movb	-7117(%rbp), %al                # 1-byte Reload
	andb	$1, %al
	movzbl	%al, %edi
	movq	_ZL4g_80(%rip), %rax
	movl	(%rax), %esi
	callq	_ZL25safe_div_func_int32_t_s_sii
                                        # kill: def $al killed $al killed $eax
	movsbl	%al, %edi
	movsbl	_ZL5g_729(%rip), %esi
	callq	_ZL24safe_mod_func_int8_t_s_saa
	movsbl	%al, %eax
	movw	%ax, %cx
	movq	-6448(%rbp), %rax
	movq	(%rax), %rax
	movq	(%rax), %rax
	movw	%cx, (%rax)
	movl	-1980(%rbp), %eax
                                        # kill: def $ax killed $ax killed $eax
	movswl	%cx, %edi
	movswl	%ax, %esi
	callq	_ZL25safe_sub_func_int16_t_s_sss
	movswq	%ax, %rdi
	movslq	-6072(%rbp), %rsi
	callq	_ZL25safe_mod_func_int64_t_s_sll
	movl	%eax, %edi
	movsbl	-6449(%rbp), %esi
	callq	_ZL25safe_sub_func_int32_t_s_sii
	movl	-7116(%rbp), %ecx               # 4-byte Reload
	movl	%eax, %edx
	movl	-7112(%rbp), %eax               # 4-byte Reload
	cmpl	%edx, %ecx
	setle	%cl
	andb	$1, %cl
	movzbl	%cl, %ecx
	cmpl	%ecx, %eax
	setge	%al
	andb	$1, %al
	movzbl	%al, %eax
	movw	%ax, %cx
	movl	-744(%rbp), %eax
                                        # kill: def $ax killed $ax killed $eax
	movzwl	%cx, %edi
	movzwl	%ax, %esi
	callq	_ZL26safe_add_func_uint16_t_u_utt
	movzwl	%ax, %eax
                                        # kill: def $rax killed $eax
	cmpq	$110, %rax
	setg	%al
	andb	$1, %al
	movzbl	%al, %eax
	cmpl	_ZL5g_794+2(%rip), %eax
	setbe	%al
	andb	$1, %al
	movzbl	%al, %ecx
	movl	_ZL5g_143+16(%rip), %eax
	shll	$25, %eax
	sarl	$25, %eax
	andl	%eax, %ecx
	movq	-6312(%rbp), %rax
	movl	%ecx, (%rax)
	cmpq	$0, -6352(%rbp)
	sete	%cl
	movb	%cl, %al
	andb	$1, %al
	movzbl	%al, %eax
	movl	%eax, -2112(%rbp)
	xorl	%eax, %eax
                                        # kill: def $al killed $al killed $eax
	testb	$1, %cl
	movb	%al, -7118(%rbp)                # 1-byte Spill
	jne	.LBB3_101
	jmp	.LBB3_102
.LBB3_101:                              #   in Loop: Header=BB3_20 Depth=1
	cmpl	$0, -744(%rbp)
	setne	%al
	movb	%al, -7118(%rbp)                # 1-byte Spill
.LBB3_102:                              #   in Loop: Header=BB3_20 Depth=1
	movb	-7118(%rbp), %al                # 1-byte Reload
	andb	$1, %al
	movzbl	%al, %eax
                                        # kill: def $rax killed $eax
	orq	_ZL5g_125(%rip), %rax
	movq	%rax, _ZL5g_125(%rip)
	movq	-6560(%rbp), %rax
	cmpq	$0, (%rax)
	sete	%al
	andb	$1, %al
	movzbl	%al, %ecx
	movq	-6592(%rbp), %rax
	xorl	(%rax), %ecx
	movl	%ecx, (%rax)
	movb	$1, %al
	cmpl	-6072(%rbp), %ecx
	movb	%al, -7119(%rbp)                # 1-byte Spill
	jg	.LBB3_104
# %bb.103:                              #   in Loop: Header=BB3_20 Depth=1
	cmpq	$0, -6600(%rbp)
	setne	%al
	movb	%al, -7119(%rbp)                # 1-byte Spill
.LBB3_104:                              #   in Loop: Header=BB3_20 Depth=1
	movb	-7119(%rbp), %al                # 1-byte Reload
	andb	$1, %al
	movzbl	%al, %eax
                                        # kill: def $rax killed $eax
	cmpq	$-1, %rax
	setg	%al
	andb	$1, %al
	movzbl	%al, %edi
	movsbl	-6601(%rbp), %esi
	callq	_ZL26safe_mul_func_uint32_t_u_ujj
	andl	-6156(%rbp), %eax
	movl	%eax, -6156(%rbp)
                                        # kill: def $al killed $al killed $eax
	movzwl	_ZL6g_1899(%rip), %esi
	movsbl	%al, %edi
	callq	_ZL27safe_rshift_func_int8_t_s_uaj
	movsbq	%al, %rax
	cmpq	-6600(%rbp), %rax
	setbe	%al
	andb	$1, %al
	movzbl	%al, %edi
	movl	$1, %esi
	callq	_ZL29safe_rshift_func_uint32_t_u_sji
	cmpl	$0, %eax
	je	.LBB3_106
# %bb.105:
	leaq	-6272(%rbp), %rdi
	leaq	.L__const._ZL6func_1v.l_1915(%rip), %rsi
	movl	$40, %edx
	callq	memcpy@PLT
	leaq	-3936(%rbp), %rdi
	leaq	.L__const._ZL6func_1v.l_1932(%rip), %rsi
	movl	$72, %edx
	callq	memcpy@PLT
	movb	$117, -6921(%rbp)
	movl	.L__const._ZL6func_1v.l_1947(%rip), %eax
	movl	%eax, -6280(%rbp)
	movw	.L__const._ZL6func_1v.l_1947+4(%rip), %ax
	movw	%ax, -6276(%rbp)
	leaq	-2112(%rbp), %rax
	addq	$256, %rax                      # imm = 0x100
	addq	$28, %rax
	movq	%rax, -6936(%rbp)
	jmp	.LBB3_118
.LBB3_106:                              #   in Loop: Header=BB3_20 Depth=1
	leaq	-3984(%rbp), %rdi
	leaq	.L__const._ZL6func_1v.l_1972(%rip), %rsi
	movl	$36, %edx
	callq	memcpy@PLT
	movl	$0, -6580(%rbp)
# %bb.107:                              #   in Loop: Header=BB3_20 Depth=1
	cmpl	$31, -6580(%rbp)
	jae	.LBB3_113
# %bb.108:
	movq	$0, -6600(%rbp)
.LBB3_109:                              # =>This Inner Loop Header: Depth=1
	cmpq	$1, -6600(%rbp)
	ja	.LBB3_112
# %bb.110:                              #   in Loop: Header=BB3_109 Depth=1
	movq	-6600(%rbp), %rcx
	leaq	_ZL5g_729(%rip), %rax
	shlq	$1, %rcx
	addq	%rcx, %rax
	movq	-6600(%rbp), %rcx
	movb	(%rax,%rcx), %al
	movb	%al, -7120(%rbp)                # 1-byte Spill
	movq	-6600(%rbp), %rcx
	addq	$7, %rcx
	leaq	-1104(%rbp), %rax
	imulq	$96, %rcx, %rcx
	addq	%rcx, %rax
	movq	-6600(%rbp), %rcx
	addq	$5, %rcx
	imulq	$12, %rcx, %rcx
	addq	%rcx, %rax
	movq	-6600(%rbp), %rcx
	movl	4(%rax,%rcx,4), %edi
	movq	_ZL4g_80(%rip), %rax
	movl	(%rax), %esi
	callq	_ZL25safe_sub_func_int32_t_s_sii
	movb	-7120(%rbp), %cl                # 1-byte Reload
                                        # kill: def $al killed $al killed $eax
	movsbl	%cl, %edi
	movsbl	%al, %esi
	callq	_ZL24safe_mul_func_int8_t_s_saa
	movsbl	%al, %ecx
	movq	-6592(%rbp), %rax
	xorl	(%rax), %ecx
	movl	%ecx, (%rax)
# %bb.111:                              #   in Loop: Header=BB3_109 Depth=1
	movq	-6600(%rbp), %rax
	addq	$1, %rax
	movq	%rax, -6600(%rbp)
	jmp	.LBB3_109
.LBB3_112:
	movl	_ZL5g_474+32(%rip), %eax
	shll	$11, %eax
	sarl	$11, %eax
                                        # kill: def $al killed $al killed $eax
	movb	%al, -6297(%rbp)
	jmp	.LBB3_151
.LBB3_113:                              #   in Loop: Header=BB3_20 Depth=1
	movl	-3980(%rbp), %edi
	leaq	-128(%rbp), %rax
	cmpq	$0, %rax
	setne	%al
	andb	$1, %al
	movzbl	%al, %esi
	callq	_ZL25safe_add_func_int32_t_s_sii
	movslq	%eax, %rdx
	movq	_ZL5g_577(%rip), %rax
	xorq	(%rax), %rdx
	movq	%rdx, (%rax)
	movslq	-3956(%rbp), %rax
	orq	%rax, %rdx
	movq	-6592(%rbp), %rax
	movslq	(%rax), %rcx
	andq	%rdx, %rcx
                                        # kill: def $ecx killed $ecx killed $rcx
	movl	%ecx, (%rax)
	movl	-328(%rbp), %eax
	movq	_ZL4g_80(%rip), %rcx
	orl	(%rcx), %eax
	movl	%eax, -7136(%rbp)               # 4-byte Spill
	movw	_ZL5g_338+16(%rip), %ax
	movzwl	%ax, %eax
	movl	%eax, -7132(%rbp)               # 4-byte Spill
	movl	-6156(%rbp), %eax
                                        # kill: def $ax killed $ax killed $eax
	movl	$14, %esi
	movzwl	%ax, %edi
	callq	_ZL29safe_lshift_func_uint16_t_u_utj
	movzwl	%ax, %eax
	movl	%eax, -7128(%rbp)               # 4-byte Spill
	xorl	%eax, %eax
                                        # kill: def $al killed $al killed $eax
	cmpl	$0, -3952(%rbp)
	movb	%al, -7121(%rbp)                # 1-byte Spill
	je	.LBB3_115
# %bb.114:                              #   in Loop: Header=BB3_20 Depth=1
	movb	$1, %al
	movb	%al, -7121(%rbp)                # 1-byte Spill
	jmp	.LBB3_115
.LBB3_115:                              #   in Loop: Header=BB3_20 Depth=1
	movb	-7121(%rbp), %al                # 1-byte Reload
	andb	$1, %al
	movzbl	%al, %edi
	movsbl	-6449(%rbp), %esi
	callq	_ZL26safe_mod_func_uint32_t_u_ujj
	movl	%eax, %ecx
	movl	-7128(%rbp), %eax               # 4-byte Reload
	andl	%ecx, %eax
	movb	%al, %cl
	movl	_ZL6g_1987(%rip), %eax
                                        # kill: def $al killed $al killed $eax
	movsbl	%cl, %edi
	movsbl	%al, %esi
	callq	_ZL24safe_mod_func_int8_t_s_saa
	movb	%al, %cl
	movl	-7132(%rbp), %eax               # 4-byte Reload
	movsbl	%cl, %ecx
	cmpl	%ecx, %eax
	setne	%al
	andb	$1, %al
	movzbl	%al, %eax
	movl	%eax, %edi
	movq	_ZL6g_1988(%rip), %rsi
	callq	_ZL25safe_div_func_int64_t_s_sll
	movl	-7136(%rbp), %edi               # 4-byte Reload
	movl	%eax, %esi
	callq	_ZL26safe_sub_func_uint32_t_u_ujj
	movl	%eax, %eax
                                        # kill: def $rax killed $eax
	movabsq	$4022039325614017286, %rcx      # imm = 0x37D12774FBE00B06
	xorq	%rcx, %rax
                                        # kill: def $al killed $al killed $rax
	movl	$4294967292, %edi               # imm = 0xFFFFFFFC
	movsbl	%al, %esi
	callq	_ZL24safe_mod_func_int8_t_s_saa
	movsbl	%al, %ecx
	movq	-6592(%rbp), %rax
	xorl	(%rax), %ecx
	movl	%ecx, (%rax)
# %bb.116:                              #   in Loop: Header=BB3_20 Depth=1
	jmp	.LBB3_117
.LBB3_117:                              #   in Loop: Header=BB3_20 Depth=1
	movq	_ZL5g_940(%rip), %rax
	addq	$1, %rax
	movq	%rax, _ZL5g_940(%rip)
	jmp	.LBB3_20
.LBB3_118:
	movl	$0, _ZL3g_7(%rip)
.LBB3_119:                              # =>This Loop Header: Depth=1
                                        #     Child Loop BB3_121 Depth 2
	cmpl	$6, _ZL3g_7(%rip)
	ja	.LBB3_138
# %bb.120:                              #   in Loop: Header=BB3_119 Depth=1
	movl	.L__const._ZL6func_1v.l_1989(%rip), %eax
	movl	%eax, -6288(%rbp)
	movw	.L__const._ZL6func_1v.l_1989+4(%rip), %ax
	movw	%ax, -6284(%rbp)
	movq	$0, -6968(%rbp)
	leaq	_ZL5g_402(%rip), %rax
	movq	%rax, -6976(%rbp)
	movq	$0, -5904(%rbp)
	leaq	-1104(%rbp), %rax
	addq	$288, %rax                      # imm = 0x120
	addq	$72, %rax
	movq	%rax, -5896(%rbp)
	leaq	-6072(%rbp), %rax
	movq	%rax, -5888(%rbp)
	leaq	_ZL6g_1113(%rip), %rax
	movq	%rax, -5880(%rbp)
	leaq	_ZL4g_24(%rip), %rax
	movq	%rax, -5872(%rbp)
	leaq	-6156(%rbp), %rax
	movq	%rax, -5864(%rbp)
	leaq	_ZL4g_24(%rip), %rax
	movq	%rax, -5856(%rbp)
	leaq	_ZL6g_1113(%rip), %rax
	movq	%rax, -5848(%rbp)
	leaq	-6072(%rbp), %rax
	movq	%rax, -5840(%rbp)
	leaq	-1104(%rbp), %rax
	addq	$288, %rax                      # imm = 0x120
	addq	$72, %rax
	movq	%rax, -5832(%rbp)
	leaq	-6156(%rbp), %rax
	movq	%rax, -5824(%rbp)
	leaq	_ZL5g_402(%rip), %rax
	movq	%rax, -5816(%rbp)
	movq	$0, -5808(%rbp)
	movq	$0, -5800(%rbp)
	leaq	-1104(%rbp), %rax
	addq	$480, %rax                      # imm = 0x1E0
	addq	$8, %rax
	movq	%rax, -5792(%rbp)
	leaq	_ZL5g_402(%rip), %rax
	movq	%rax, -5784(%rbp)
	leaq	-6068(%rbp), %rax
	movq	%rax, -5776(%rbp)
	leaq	-6072(%rbp), %rax
	movq	%rax, -5768(%rbp)
	leaq	-112(%rbp), %rax
	addq	$20, %rax
	movq	%rax, -5760(%rbp)
	leaq	-112(%rbp), %rax
	addq	$20, %rax
	movq	%rax, -5752(%rbp)
	leaq	_ZL5g_402(%rip), %rax
	movq	%rax, -5744(%rbp)
	leaq	-6068(%rbp), %rax
	movq	%rax, -5736(%rbp)
	leaq	_ZL5g_402(%rip), %rax
	movq	%rax, -5728(%rbp)
	leaq	-6156(%rbp), %rax
	movq	%rax, -5720(%rbp)
	leaq	-6156(%rbp), %rax
	movq	%rax, -5712(%rbp)
	leaq	_ZL5g_402(%rip), %rax
	movq	%rax, -5704(%rbp)
	leaq	-6068(%rbp), %rax
	movq	%rax, -5696(%rbp)
	leaq	_ZL5g_402(%rip), %rax
	movq	%rax, -5688(%rbp)
	movq	$0, -5680(%rbp)
	leaq	-6068(%rbp), %rax
	movq	%rax, -5672(%rbp)
	leaq	-6156(%rbp), %rax
	movq	%rax, -5664(%rbp)
	movq	$0, -5656(%rbp)
	leaq	_ZL6g_1113(%rip), %rax
	movq	%rax, -5648(%rbp)
	leaq	_ZL5g_402(%rip), %rax
	movq	%rax, -5640(%rbp)
	leaq	_ZL5g_673(%rip), %rax
	movq	%rax, -5632(%rbp)
	leaq	-6156(%rbp), %rax
	movq	%rax, -5624(%rbp)
	leaq	-6156(%rbp), %rax
	movq	%rax, -5616(%rbp)
	leaq	-6068(%rbp), %rax
	movq	%rax, -5608(%rbp)
	leaq	-6156(%rbp), %rax
	movq	%rax, -5600(%rbp)
	leaq	-6156(%rbp), %rax
	movq	%rax, -5592(%rbp)
	movq	$0, -5584(%rbp)
	leaq	_ZL5g_673(%rip), %rax
	movq	%rax, -5576(%rbp)
	leaq	_ZL6g_1113(%rip), %rax
	movq	%rax, -5568(%rbp)
	leaq	_ZL5g_673(%rip), %rax
	movq	%rax, -5560(%rbp)
	movq	$0, -5552(%rbp)
	leaq	-6068(%rbp), %rax
	movq	%rax, -5544(%rbp)
	movq	$0, -5536(%rbp)
	leaq	_ZL5g_402(%rip), %rax
	movq	%rax, -5528(%rbp)
	leaq	-6068(%rbp), %rax
	movq	%rax, -5520(%rbp)
	leaq	_ZL5g_402(%rip), %rax
	movq	%rax, -5512(%rbp)
	movq	$0, -5504(%rbp)
	leaq	-1104(%rbp), %rax
	addq	$480, %rax                      # imm = 0x1E0
	addq	$8, %rax
	movq	%rax, -5496(%rbp)
	leaq	_ZL5g_402(%rip), %rax
	movq	%rax, -5488(%rbp)
	leaq	-6068(%rbp), %rax
	movq	%rax, -5480(%rbp)
	leaq	-6072(%rbp), %rax
	movq	%rax, -5472(%rbp)
	leaq	-112(%rbp), %rax
	addq	$20, %rax
	movq	%rax, -5464(%rbp)
	leaq	-112(%rbp), %rax
	addq	$20, %rax
	movq	%rax, -5456(%rbp)
	leaq	-6072(%rbp), %rax
	movq	%rax, -5448(%rbp)
	leaq	-6068(%rbp), %rax
	movq	%rax, -5440(%rbp)
	leaq	_ZL5g_402(%rip), %rax
	movq	%rax, -5432(%rbp)
	leaq	-6068(%rbp), %rax
	movq	%rax, -5424(%rbp)
	leaq	_ZL6g_1113(%rip), %rax
	movq	%rax, -5416(%rbp)
	leaq	-6068(%rbp), %rax
	movq	%rax, -5408(%rbp)
	leaq	-1104(%rbp), %rax
	addq	$480, %rax                      # imm = 0x1E0
	addq	$8, %rax
	movq	%rax, -5400(%rbp)
	leaq	-1104(%rbp), %rax
	addq	$288, %rax                      # imm = 0x120
	addq	$72, %rax
	movq	%rax, -5392(%rbp)
	leaq	-112(%rbp), %rax
	addq	$20, %rax
	movq	%rax, -5384(%rbp)
	leaq	-6156(%rbp), %rax
	movq	%rax, -5376(%rbp)
	leaq	_ZL5g_402(%rip), %rax
	movq	%rax, -5368(%rbp)
	leaq	-6072(%rbp), %rax
	movq	%rax, -5360(%rbp)
	movq	$0, -5352(%rbp)
	leaq	_ZL5g_402(%rip), %rax
	movq	%rax, -5344(%rbp)
	leaq	_ZL5g_673(%rip), %rax
	movq	%rax, -5336(%rbp)
	leaq	-6156(%rbp), %rax
	movq	%rax, -5328(%rbp)
	leaq	-6156(%rbp), %rax
	movq	%rax, -5320(%rbp)
	leaq	-6068(%rbp), %rax
	movq	%rax, -5312(%rbp)
	leaq	-6156(%rbp), %rax
	movq	%rax, -5304(%rbp)
	leaq	-6156(%rbp), %rax
	movq	%rax, -5296(%rbp)
	leaq	_ZL5g_673(%rip), %rax
	movq	%rax, -5288(%rbp)
	leaq	_ZL5g_402(%rip), %rax
	movq	%rax, -5280(%rbp)
	leaq	_ZL6g_1113(%rip), %rax
	movq	%rax, -5272(%rbp)
	leaq	_ZL4g_24(%rip), %rax
	movq	%rax, -5264(%rbp)
	leaq	_ZL6g_1113(%rip), %rax
	movq	%rax, -5256(%rbp)
	leaq	-6072(%rbp), %rax
	movq	%rax, -5248(%rbp)
	leaq	-1104(%rbp), %rax
	addq	$288, %rax                      # imm = 0x120
	addq	$72, %rax
	movq	%rax, -5240(%rbp)
	movq	$0, -5232(%rbp)
	leaq	_ZL5g_402(%rip), %rax
	movq	%rax, -5224(%rbp)
	movq	$0, -5216(%rbp)
	leaq	-6068(%rbp), %rax
	movq	%rax, -5208(%rbp)
	leaq	-6068(%rbp), %rax
	movq	%rax, -5200(%rbp)
	movq	$0, -5192(%rbp)
	leaq	_ZL5g_673(%rip), %rax
	movq	%rax, -5184(%rbp)
	leaq	_ZL4g_24(%rip), %rax
	movq	%rax, -5176(%rbp)
	leaq	-1104(%rbp), %rax
	addq	$288, %rax                      # imm = 0x120
	addq	$72, %rax
	movq	%rax, -5168(%rbp)
	leaq	-1104(%rbp), %rax
	addq	$288, %rax                      # imm = 0x120
	addq	$72, %rax
	movq	%rax, -5160(%rbp)
	leaq	_ZL4g_24(%rip), %rax
	movq	%rax, -5152(%rbp)
	leaq	_ZL5g_673(%rip), %rax
	movq	%rax, -5144(%rbp)
	leaq	-6156(%rbp), %rax
	movq	%rax, -5136(%rbp)
	leaq	_ZL5g_402(%rip), %rax
	movq	%rax, -5128(%rbp)
	leaq	_ZL5g_402(%rip), %rax
	movq	%rax, -5120(%rbp)
	leaq	-112(%rbp), %rax
	addq	$20, %rax
	movq	%rax, -5112(%rbp)
	leaq	-112(%rbp), %rax
	addq	$20, %rax
	movq	%rax, -5104(%rbp)
	leaq	-6068(%rbp), %rax
	movq	%rax, -5096(%rbp)
	leaq	_ZL6g_1113(%rip), %rax
	movq	%rax, -5088(%rbp)
	leaq	-6156(%rbp), %rax
	movq	%rax, -5080(%rbp)
	leaq	-6072(%rbp), %rax
	movq	%rax, -5072(%rbp)
	leaq	-6068(%rbp), %rax
	movq	%rax, -5064(%rbp)
	leaq	_ZL5g_673(%rip), %rax
	movq	%rax, -5056(%rbp)
	leaq	-6068(%rbp), %rax
	movq	%rax, -5048(%rbp)
	leaq	-6072(%rbp), %rax
	movq	%rax, -5040(%rbp)
	leaq	-6156(%rbp), %rax
	movq	%rax, -5032(%rbp)
	leaq	-112(%rbp), %rax
	addq	$20, %rax
	movq	%rax, -5024(%rbp)
	leaq	-6068(%rbp), %rax
	movq	%rax, -5016(%rbp)
	leaq	-112(%rbp), %rax
	addq	$20, %rax
	movq	%rax, -5008(%rbp)
	leaq	-1104(%rbp), %rax
	addq	$480, %rax                      # imm = 0x1E0
	addq	$8, %rax
	movq	%rax, -5000(%rbp)
	movq	$0, -4992(%rbp)
	leaq	_ZL5g_673(%rip), %rax
	movq	%rax, -4984(%rbp)
	leaq	-6156(%rbp), %rax
	movq	%rax, -4976(%rbp)
	movq	$0, -4968(%rbp)
	leaq	_ZL6g_1113(%rip), %rax
	movq	%rax, -4960(%rbp)
	leaq	_ZL5g_402(%rip), %rax
	movq	%rax, -4952(%rbp)
	leaq	_ZL5g_673(%rip), %rax
	movq	%rax, -4944(%rbp)
	leaq	-6156(%rbp), %rax
	movq	%rax, -4936(%rbp)
	movq	$0, -4928(%rbp)
	leaq	_ZL6g_1113(%rip), %rax
	movq	%rax, -4920(%rbp)
	leaq	_ZL5g_402(%rip), %rax
	movq	%rax, -4912(%rbp)
	leaq	_ZL5g_402(%rip), %rax
	movq	%rax, -4904(%rbp)
	leaq	_ZL6g_1113(%rip), %rax
	movq	%rax, -4896(%rbp)
	movq	$0, -4888(%rbp)
	leaq	-6156(%rbp), %rax
	movq	%rax, -4880(%rbp)
	leaq	_ZL5g_673(%rip), %rax
	movq	%rax, -4872(%rbp)
	leaq	_ZL4g_24(%rip), %rax
	movq	%rax, -4864(%rbp)
	movq	$0, -4856(%rbp)
	leaq	-112(%rbp), %rax
	addq	$20, %rax
	movq	%rax, -4848(%rbp)
	leaq	-6068(%rbp), %rax
	movq	%rax, -4840(%rbp)
	leaq	_ZL6g_1113(%rip), %rax
	movq	%rax, -4832(%rbp)
	leaq	-6156(%rbp), %rax
	movq	%rax, -4824(%rbp)
	leaq	-6072(%rbp), %rax
	movq	%rax, -4816(%rbp)
	leaq	-6068(%rbp), %rax
	movq	%rax, -4808(%rbp)
	leaq	_ZL5g_673(%rip), %rax
	movq	%rax, -4800(%rbp)
	leaq	-6068(%rbp), %rax
	movq	%rax, -4792(%rbp)
	leaq	_ZL5g_402(%rip), %rax
	movq	%rax, -4784(%rbp)
	leaq	-112(%rbp), %rax
	addq	$20, %rax
	movq	%rax, -4776(%rbp)
	leaq	_ZL6g_1113(%rip), %rax
	movq	%rax, -4768(%rbp)
	movq	$0, -4760(%rbp)
	leaq	_ZL6g_1113(%rip), %rax
	movq	%rax, -4752(%rbp)
	leaq	-112(%rbp), %rax
	addq	$20, %rax
	movq	%rax, -4744(%rbp)
	leaq	_ZL5g_402(%rip), %rax
	movq	%rax, -4736(%rbp)
	leaq	_ZL5g_402(%rip), %rax
	movq	%rax, -4728(%rbp)
	leaq	-6156(%rbp), %rax
	movq	%rax, -4720(%rbp)
	leaq	_ZL5g_673(%rip), %rax
	movq	%rax, -4712(%rbp)
	leaq	_ZL6g_1113(%rip), %rax
	movq	%rax, -4704(%rbp)
	leaq	-6072(%rbp), %rax
	movq	%rax, -4696(%rbp)
	leaq	-1104(%rbp), %rax
	addq	$288, %rax                      # imm = 0x120
	addq	$72, %rax
	movq	%rax, -4688(%rbp)
	movq	$0, -4680(%rbp)
	leaq	_ZL5g_402(%rip), %rax
	movq	%rax, -4672(%rbp)
	movq	$0, -4664(%rbp)
	leaq	-6068(%rbp), %rax
	movq	%rax, -4656(%rbp)
	leaq	-6068(%rbp), %rax
	movq	%rax, -4648(%rbp)
	movq	$0, -4640(%rbp)
	leaq	_ZL5g_402(%rip), %rax
	movq	%rax, -4632(%rbp)
	leaq	-6156(%rbp), %rax
	movq	%rax, -4624(%rbp)
	leaq	-6072(%rbp), %rax
	movq	%rax, -4616(%rbp)
	leaq	-6072(%rbp), %rax
	movq	%rax, -4608(%rbp)
	leaq	-6156(%rbp), %rax
	movq	%rax, -4600(%rbp)
	movq	$0, -4592(%rbp)
	leaq	_ZL6g_1113(%rip), %rax
	movq	%rax, -4584(%rbp)
	leaq	_ZL5g_402(%rip), %rax
	movq	%rax, -4576(%rbp)
	leaq	_ZL5g_673(%rip), %rax
	movq	%rax, -4568(%rbp)
	leaq	-6156(%rbp), %rax
	movq	%rax, -4560(%rbp)
	leaq	-6156(%rbp), %rax
	movq	%rax, -4552(%rbp)
	leaq	-1104(%rbp), %rax
	addq	$288, %rax                      # imm = 0x120
	addq	$72, %rax
	movq	%rax, -4544(%rbp)
	leaq	-112(%rbp), %rax
	addq	$20, %rax
	movq	%rax, -4536(%rbp)
	leaq	-6156(%rbp), %rax
	movq	%rax, -4528(%rbp)
	leaq	_ZL5g_402(%rip), %rax
	movq	%rax, -4520(%rbp)
	leaq	-6072(%rbp), %rax
	movq	%rax, -4512(%rbp)
	movq	$0, -4504(%rbp)
	leaq	-6072(%rbp), %rax
	movq	%rax, -4496(%rbp)
	leaq	_ZL5g_402(%rip), %rax
	movq	%rax, -4488(%rbp)
	leaq	-6156(%rbp), %rax
	movq	%rax, -4480(%rbp)
	leaq	-112(%rbp), %rax
	addq	$20, %rax
	movq	%rax, -4472(%rbp)
	leaq	_ZL5g_402(%rip), %rax
	movq	%rax, -4464(%rbp)
	movq	$0, -4456(%rbp)
	leaq	-6068(%rbp), %rax
	movq	%rax, -4448(%rbp)
	leaq	-6156(%rbp), %rax
	movq	%rax, -4440(%rbp)
	leaq	_ZL4g_24(%rip), %rax
	movq	%rax, -4432(%rbp)
	leaq	-1104(%rbp), %rax
	addq	$480, %rax                      # imm = 0x1E0
	addq	$8, %rax
	movq	%rax, -4424(%rbp)
	leaq	_ZL6g_1113(%rip), %rax
	movq	%rax, -4416(%rbp)
	leaq	-6156(%rbp), %rax
	movq	%rax, -4408(%rbp)
	movq	$0, -4400(%rbp)
	movq	$0, -4392(%rbp)
	movq	$0, -4384(%rbp)
	leaq	-6156(%rbp), %rax
	movq	%rax, -4376(%rbp)
	leaq	-1104(%rbp), %rax
	addq	$480, %rax                      # imm = 0x1E0
	addq	$8, %rax
	movq	%rax, -4368(%rbp)
	movq	$0, -4360(%rbp)
	movq	$0, -4352(%rbp)
	leaq	-1104(%rbp), %rax
	addq	$480, %rax                      # imm = 0x1E0
	addq	$8, %rax
	movq	%rax, -4344(%rbp)
	leaq	-6156(%rbp), %rax
	movq	%rax, -4336(%rbp)
	movq	$0, -4328(%rbp)
	leaq	-6156(%rbp), %rax
	movq	%rax, -4320(%rbp)
	leaq	_ZL6g_1113(%rip), %rax
	movq	%rax, -4312(%rbp)
	leaq	_ZL5g_402(%rip), %rax
	movq	%rax, -4304(%rbp)
	leaq	-6068(%rbp), %rax
	movq	%rax, -4296(%rbp)
	leaq	_ZL5g_402(%rip), %rax
	movq	%rax, -4288(%rbp)
	movq	$0, -4280(%rbp)
	leaq	-6068(%rbp), %rax
	movq	%rax, -4272(%rbp)
	movq	$0, -4264(%rbp)
	leaq	_ZL5g_673(%rip), %rax
	movq	%rax, -4256(%rbp)
	leaq	_ZL6g_1113(%rip), %rax
	movq	%rax, -4248(%rbp)
	leaq	_ZL5g_673(%rip), %rax
	movq	%rax, -4240(%rbp)
	movq	$0, -4232(%rbp)
	leaq	-1104(%rbp), %rax
	addq	$288, %rax                      # imm = 0x120
	addq	$72, %rax
	movq	%rax, -4224(%rbp)
	leaq	-6068(%rbp), %rax
	movq	%rax, -4216(%rbp)
	leaq	_ZL5g_402(%rip), %rax
	movq	%rax, -4208(%rbp)
	leaq	-6068(%rbp), %rax
	movq	%rax, -4200(%rbp)
	leaq	-1104(%rbp), %rax
	addq	$288, %rax                      # imm = 0x120
	addq	$72, %rax
	movq	%rax, -4192(%rbp)
	leaq	_ZL6g_1113(%rip), %rax
	movq	%rax, -4184(%rbp)
	leaq	-6156(%rbp), %rax
	movq	%rax, -4176(%rbp)
	movq	$0, -4168(%rbp)
	leaq	-6156(%rbp), %rax
	movq	%rax, -4160(%rbp)
	leaq	-1104(%rbp), %rax
	addq	$480, %rax                      # imm = 0x1E0
	addq	$8, %rax
	movq	%rax, -4152(%rbp)
	leaq	-6156(%rbp), %rax
	movq	%rax, -4144(%rbp)
	leaq	_ZL4g_24(%rip), %rax
	movq	%rax, -4136(%rbp)
	leaq	-1104(%rbp), %rax
	addq	$480, %rax                      # imm = 0x1E0
	addq	$8, %rax
	movq	%rax, -4128(%rbp)
	leaq	_ZL6g_1113(%rip), %rax
	movq	%rax, -4120(%rbp)
	leaq	-6156(%rbp), %rax
	movq	%rax, -4112(%rbp)
	movq	$0, -4104(%rbp)
	movq	$0, -4096(%rbp)
	leaq	-6156(%rbp), %rax
	movq	%rax, -4088(%rbp)
	leaq	_ZL6g_1113(%rip), %rax
	movq	%rax, -4080(%rbp)
	leaq	-1104(%rbp), %rax
	addq	$480, %rax                      # imm = 0x1E0
	addq	$8, %rax
	movq	%rax, -4072(%rbp)
	leaq	_ZL6g_1113(%rip), %rax
	movq	%rax, -4064(%rbp)
	leaq	_ZL6g_1113(%rip), %rax
	movq	%rax, -4056(%rbp)
	leaq	-6068(%rbp), %rax
	movq	%rax, -4048(%rbp)
	leaq	-1104(%rbp), %rax
	addq	$480, %rax                      # imm = 0x1E0
	addq	$8, %rax
	movq	%rax, -4040(%rbp)
	leaq	-1104(%rbp), %rax
	addq	$288, %rax                      # imm = 0x120
	addq	$72, %rax
	movq	%rax, -4032(%rbp)
	leaq	-112(%rbp), %rax
	addq	$20, %rax
	movq	%rax, -4024(%rbp)
	leaq	-6156(%rbp), %rax
	movq	%rax, -4016(%rbp)
	leaq	_ZL5g_402(%rip), %rax
	movq	%rax, -4008(%rbp)
	leaq	-6072(%rbp), %rax
	movq	%rax, -4000(%rbp)
	movq	$0, -3992(%rbp)
	movq	$0, -6296(%rbp)
	movl	-6288(%rbp), %eax
	movl	%eax, _ZL5g_789(%rip)
	movw	-6284(%rbp), %ax
	movw	%ax, _ZL5g_789+4(%rip)
	movl	-6480(%rbp), %eax
	addl	$1, %eax
	movl	%eax, -6480(%rbp)
	movw	$2, _ZL6g_1155(%rip)
.LBB3_121:                              #   Parent Loop BB3_119 Depth=1
                                        # =>  This Inner Loop Header: Depth=2
	movswl	_ZL6g_1155(%rip), %eax
	cmpl	$6, %eax
	jg	.LBB3_136
# %bb.122:                              #   in Loop: Header=BB3_121 Depth=2
	movb	$-70, -6989(%rbp)
	leaq	-6296(%rbp), %rax
	movq	%rax, -7000(%rbp)
	movq	$0, -7008(%rbp)
	leaq	_ZL6g_1987(%rip), %rax
	movq	%rax, -7016(%rbp)
	leaq	-6048(%rbp), %rdi
	leaq	.L__const._ZL6func_1v.l_2021(%rip), %rsi
	movl	$144, %edx
	callq	memcpy@PLT
	leaq	_ZL5g_939(%rip), %rax
	movq	%rax, -7024(%rbp)
	movl	$1, -7028(%rbp)
	movl	$9, -7032(%rbp)
	movl	$0, -7036(%rbp)
	movl	$0, -6480(%rbp)
# %bb.123:                              #   in Loop: Header=BB3_121 Depth=2
	cmpl	$6, -6480(%rbp)
	ja	.LBB3_125
# %bb.124:
	movb	-6989(%rbp), %al
	movb	%al, -6297(%rbp)
	jmp	.LBB3_151
.LBB3_125:                              #   in Loop: Header=BB3_121 Depth=2
	movq	$2, _ZL5g_596(%rip)
# %bb.126:                              #   in Loop: Header=BB3_121 Depth=2
	cmpq	$6, _ZL5g_596(%rip)
	ja	.LBB3_128
# %bb.127:
	movw	_ZL5g_790(%rip), %ax
	shlw	$5, %ax
	sarw	$5, %ax
	cwtl
                                        # kill: def $al killed $al killed $eax
	movb	%al, -6297(%rbp)
	jmp	.LBB3_151
.LBB3_128:                              #   in Loop: Header=BB3_121 Depth=2
	movb	$1, %al
	cmpl	$0, -6480(%rbp)
	movb	%al, -7137(%rbp)                # 1-byte Spill
	jne	.LBB3_130
# %bb.129:                              #   in Loop: Header=BB3_121 Depth=2
	cmpl	$0, -92(%rbp)
	setne	%al
	movb	%al, -7137(%rbp)                # 1-byte Spill
.LBB3_130:                              #   in Loop: Header=BB3_121 Depth=2
	movb	-7137(%rbp), %al                # 1-byte Reload
	andb	$1, %al
	movzbl	%al, %eax
                                        # kill: def $rax killed $eax
	movq	%rax, -7168(%rbp)               # 8-byte Spill
	movl	-56(%rbp), %eax
	movl	%eax, -7156(%rbp)               # 4-byte Spill
	movq	-6296(%rbp), %rax
	movq	-7000(%rbp), %rcx
	movq	%rax, (%rcx)
	movq	-6368(%rbp), %rcx
	movq	%rcx, -6368(%rbp)
	cmpq	%rcx, %rax
	sete	%al
	andb	$1, %al
	movzbl	%al, %eax
                                        # kill: def $rax killed $eax
	movq	%rax, -7152(%rbp)               # 8-byte Spill
	movl	-6428(%rbp), %eax
	movl	%eax, -7144(%rbp)               # 4-byte Spill
	leaq	-6096(%rbp), %rax
	cmpq	%rax, -7008(%rbp)
	setne	%al
	andb	$1, %al
	movzbl	%al, %edi
	movq	-7016(%rbp), %rax
	movl	%edi, (%rax)
	movl	-744(%rbp), %esi
	callq	_ZL29safe_lshift_func_uint32_t_u_ujj
	movl	%eax, %eax
                                        # kill: def $rax killed $eax
	cmpq	$9, %rax
	setle	%al
	andb	$1, %al
	movzbl	%al, %eax
                                        # kill: def $ax killed $ax killed $eax
	movl	$42953, %esi                    # imm = 0xA7C9
	movzwl	%ax, %edi
	callq	_ZL26safe_add_func_uint16_t_u_utt
	movw	%ax, %cx
	movl	-7144(%rbp), %eax               # 4-byte Reload
	movzwl	%cx, %ecx
	cmpl	%ecx, %eax
	setbe	%al
	andb	$1, %al
	movzbl	%al, %eax
	movw	%ax, %cx
	movsbl	-6449(%rbp), %eax
                                        # kill: def $ax killed $ax killed $eax
	movswl	%cx, %edi
	movswl	%ax, %esi
	callq	_ZL25safe_mod_func_int16_t_s_sss
	movw	%ax, %cx
	movb	$1, %al
	cmpw	$0, %cx
	movb	%al, -7138(%rbp)                # 1-byte Spill
	jne	.LBB3_132
# %bb.131:                              #   in Loop: Header=BB3_121 Depth=2
	movq	_ZL4g_80(%rip), %rax
	cmpl	$0, (%rax)
	setne	%al
	movb	%al, -7138(%rbp)                # 1-byte Spill
.LBB3_132:                              #   in Loop: Header=BB3_121 Depth=2
	movb	-7138(%rbp), %al                # 1-byte Reload
	andb	$1, %al
	movzbl	%al, %eax
	movsbl	-6449(%rbp), %ecx
	cmpl	%ecx, %eax
	setge	%al
	andb	$1, %al
	movzbl	%al, %eax
	movl	%eax, %edi
	movq	_ZL5g_778(%rip), %rsi
	callq	_ZL26safe_sub_func_uint64_t_u_umm
                                        # kill: def $rcx killed $rax
	movq	-7152(%rbp), %rax               # 8-byte Reload
	leaq	_ZL6g_1006(%rip), %rcx
	cmpq	-6024(%rbp), %rcx
	setne	%cl
	andb	$1, %cl
	movzbl	%cl, %ecx
                                        # kill: def $rcx killed $ecx
	cmpq	$-9, %rcx
	sete	%cl
	andb	$1, %cl
	movzbl	%cl, %ecx
                                        # kill: def $rcx killed $ecx
	movabsq	$7826154417829478816, %rdx      # imm = 0x6C9C15FA701481A0
	xorq	%rdx, %rcx
	orq	%rcx, %rax
	movl	-56(%rbp), %ecx
                                        # kill: def $rcx killed $ecx
	cmpq	%rcx, %rax
	setne	%al
	andb	$1, %al
	movzbl	%al, %eax
	movl	%eax, %edi
	movq	_ZL5g_576(%rip), %rax
	movq	(%rax), %rax
	movq	(%rax), %rsi
	callq	_ZL26safe_div_func_uint64_t_u_umm
                                        # kill: def $al killed $al killed $rax
	movzbl	%al, %edi
	movzbl	_ZL5g_729(%rip), %esi
	callq	_ZL25safe_mod_func_uint8_t_u_uhh
	movl	-7156(%rbp), %esi               # 4-byte Reload
	movzbl	%al, %eax
	andl	%eax, %esi
	movl	$1, %edi
	callq	_ZL28safe_rshift_func_uint8_t_u_uhj
	movzbl	%al, %eax
	movw	%ax, %cx
	movzbl	-6989(%rbp), %eax
                                        # kill: def $ax killed $ax killed $eax
	movzwl	%cx, %edi
	movzwl	%ax, %esi
	callq	_ZL26safe_div_func_uint16_t_u_utt
	movzwl	%ax, %eax
                                        # kill: def $rax killed $eax
	cmpq	$9066, %rax                     # imm = 0x236A
	setne	%al
	andb	$1, %al
	movzbl	%al, %eax
	movl	%eax, %edi
	movq	$-1, %rsi
	callq	_ZL25safe_add_func_int64_t_s_sll
	movq	%rax, %rcx
	movq	-7168(%rbp), %rax               # 8-byte Reload
	cmpq	%rcx, %rax
	setge	%al
	andb	$1, %al
	movzbl	%al, %ecx
	movq	-6976(%rbp), %rax
	movl	%ecx, (%rax)
	movq	_ZL5g_577(%rip), %rax
	movq	(%rax), %rax
	movq	%rax, -7192(%rbp)               # 8-byte Spill
	movq	$-26104, %rdi                   # imm = 0x9A08
	movabsq	$-1145957111856317221, %rsi     # imm = 0xF018BE140BF8BCDB
	callq	_ZL25safe_sub_func_int64_t_s_sll
	movq	%rax, %rcx
	movq	-7192(%rbp), %rax               # 8-byte Reload
	movq	-7024(%rbp), %rdx
	movq	%rcx, (%rdx)
	andq	%rcx, %rax
	movq	%rax, -7184(%rbp)               # 8-byte Spill
	movq	_ZL4g_80(%rip), %rax
	movl	(%rax), %eax
	movl	%eax, -7176(%rbp)               # 4-byte Spill
	movq	-6976(%rbp), %rax
	movl	(%rax), %eax
	movw	%ax, %cx
	movq	_ZL6g_1431(%rip), %rax
	movq	(%rax), %rax
	movq	(%rax), %rax
	movw	(%rax), %ax
	movl	_ZL3g_7(%rip), %edx
	movl	%edx, %esi
	leaq	_ZL5g_665(%rip), %rdx
	movw	%ax, (%rdx,%rsi,2)
	movzwl	%cx, %edi
	movzwl	%ax, %esi
	callq	_ZL26safe_div_func_uint16_t_u_utt
	movl	-7176(%rbp), %edi               # 4-byte Reload
	movzwl	%ax, %eax
	movl	%eax, -7028(%rbp)
	cltq
	cmpq	$9, %rax
	seta	%al
	andb	$1, %al
	movzbl	%al, %eax
	movq	_ZL5g_728(%rip), %rcx
	movzbl	(%rcx), %ecx
	cmpl	%ecx, %eax
	setg	%al
	andb	$1, %al
	movzbl	%al, %eax
	movzbl	-6989(%rbp), %ecx
	cmpl	%ecx, %eax
	setl	%al
	andb	$1, %al
	movzbl	%al, %eax
	movl	%eax, %ecx
	orq	$1, %rcx
	movslq	-7032(%rbp), %rax
	orq	%rcx, %rax
	movl	%eax, %esi
	movl	%esi, -7032(%rbp)
	callq	_ZL26safe_div_func_uint32_t_u_ujj
	movq	_ZL5g_576(%rip), %rax
	movq	(%rax), %rax
	movq	(%rax), %rdi
	movslq	-532(%rbp), %rax
	andq	%rax, %rdi
	movq	-6472(%rbp), %rax
	orq	(%rax), %rdi
	movq	%rdi, (%rax)
	movslq	-6072(%rbp), %rsi
	callq	_ZL26safe_mul_func_uint64_t_u_umm
	movl	%eax, %edi
	movq	_ZL4g_80(%rip), %rax
	movl	(%rax), %esi
	callq	_ZL25safe_sub_func_int32_t_s_sii
	cltq
	cmpq	$8, %rax
	sete	%al
	andb	$1, %al
	movzbl	%al, %ecx
	movb	$1, %al
	cmpl	-92(%rbp), %ecx
	movb	%al, -7169(%rbp)                # 1-byte Spill
	je	.LBB3_134
# %bb.133:                              #   in Loop: Header=BB3_121 Depth=2
	movl	_ZL3g_7(%rip), %eax
	movl	%eax, %ecx
	leaq	_ZL5g_665(%rip), %rax
	cmpw	$0, (%rax,%rcx,2)
	setne	%al
	movb	%al, -7169(%rbp)                # 1-byte Spill
.LBB3_134:                              #   in Loop: Header=BB3_121 Depth=2
	movq	-7184(%rbp), %rax               # 8-byte Reload
	movb	-7169(%rbp), %cl                # 1-byte Reload
	andb	$1, %cl
	movzbl	%cl, %ecx
                                        # kill: def $rcx killed $ecx
	xorq	$-5, %rcx
	movslq	-108(%rbp), %rdx
	cmpq	%rdx, %rcx
	setl	%cl
	andb	$1, %cl
	movzbl	%cl, %ecx
                                        # kill: def $rcx killed $ecx
	cmpq	%rcx, %rax
	setge	%al
	andb	$1, %al
	movzbl	%al, %eax
	movq	_ZL5g_849(%rip), %rcx
	movzbl	(%rcx), %ecx
	cmpl	%ecx, %eax
	setl	%al
	andb	$1, %al
	movzbl	%al, %eax
	andl	-7036(%rbp), %eax
	movl	%eax, -7036(%rbp)
# %bb.135:                              #   in Loop: Header=BB3_121 Depth=2
	movswl	_ZL6g_1155(%rip), %eax
	addl	$1, %eax
                                        # kill: def $ax killed $ax killed $eax
	movw	%ax, _ZL6g_1155(%rip)
	jmp	.LBB3_121
.LBB3_136:                              #   in Loop: Header=BB3_119 Depth=1
	jmp	.LBB3_137
.LBB3_137:                              #   in Loop: Header=BB3_119 Depth=1
	movl	_ZL3g_7(%rip), %eax
	addl	$1, %eax
	movl	%eax, _ZL3g_7(%rip)
	jmp	.LBB3_119
.LBB3_138:
	movl	-92(%rbp), %ecx
	movq	-6488(%rbp), %rax
	movl	%ecx, (%rax)
	movq	-6208(%rbp), %rax
	movq	-6496(%rbp), %rcx
	movq	%rax, (%rcx)
	movq	_ZL6g_2048+296(%rip), %rcx
	movq	%rcx, _ZL6g_2048+240(%rip)
	cmpq	%rcx, %rax
	sete	%al
	andb	$1, %al
	movzbl	%al, %eax
	movl	%eax, %edi
	movl	_ZL5g_513+4(%rip), %eax
	movl	%eax, %esi
	callq	_ZL25safe_div_func_int64_t_s_sll
	movq	-6512(%rbp), %rax
	movl	-6216(%rbp), %ecx
	movl	%ecx, (%rax)
	movw	-6212(%rbp), %cx
	movw	%cx, 4(%rax)
	movq	_ZL5g_935(%rip), %rcx
	xorl	%eax, %eax
                                        # kill: def $rax killed $eax
	cmpq	(%rcx), %rax
	setne	%al
	xorb	$-1, %al
	andb	$1, %al
	movzbl	%al, %eax
	movl	%eax, -7200(%rbp)               # 4-byte Spill
	movw	-6216(%rbp), %ax
	shlw	$5, %ax
	sarw	$5, %ax
	movswl	%ax, %ecx
	xorl	%eax, %eax
                                        # kill: def $al killed $al killed $eax
	cmpl	$0, %ecx
	movb	%al, -7193(%rbp)                # 1-byte Spill
	je	.LBB3_140
# %bb.139:
	movb	$1, %al
	movb	%al, -7193(%rbp)                # 1-byte Spill
	jmp	.LBB3_140
.LBB3_140:
	movb	-7193(%rbp), %al                # 1-byte Reload
	movq	_ZL4g_80(%rip), %rax
	movl	(%rax), %edi
	movswl	-6370(%rbp), %esi
	callq	_ZL29safe_lshift_func_uint32_t_u_ujj
	movl	%eax, %edi
	movq	_ZL6g_2059(%rip), %rax
	movl	%eax, %esi
	callq	_ZL26safe_mod_func_uint32_t_u_ujj
	movl	-7200(%rbp), %ecx               # 4-byte Reload
	movl	%eax, %edx
	xorl	%eax, %eax
                                        # kill: def $al killed $al killed $eax
	cmpl	%edx, %ecx
	movb	%al, -7201(%rbp)                # 1-byte Spill
	jne	.LBB3_142
# %bb.141:
	movw	-6216(%rbp), %ax
	shlw	$5, %ax
	sarw	$5, %ax
	cwtl
	cmpl	$0, %eax
	setne	%al
	movb	%al, -7201(%rbp)                # 1-byte Spill
.LBB3_142:
	movb	-7201(%rbp), %al                # 1-byte Reload
	andb	$1, %al
	movzbl	%al, %eax
                                        # kill: def $ax killed $ax killed $eax
	movl	$60995, %esi                    # imm = 0xEE43
	movzwl	%ax, %edi
	callq	_ZL26safe_mod_func_uint16_t_u_utt
	movb	%al, %cl
	movq	_ZL5g_849(%rip), %rax
	movzbl	%cl, %edi
	movzbl	(%rax), %esi
	callq	_ZL25safe_mul_func_uint8_t_u_uhh
	movq	_ZL5g_850(%rip), %rcx
	movb	%al, (%rcx)
	movzbl	%al, %eax
	movl	%eax, %ecx
	xorl	%eax, %eax
                                        # kill: def $al killed $al killed $eax
	cmpq	$89, %rcx
	movb	%al, -7202(%rbp)                # 1-byte Spill
	je	.LBB3_144
# %bb.143:
	movb	$1, %al
	movb	%al, -7202(%rbp)                # 1-byte Spill
	jmp	.LBB3_144
.LBB3_144:
	movb	-7202(%rbp), %al                # 1-byte Reload
	andb	$1, %al
	movzbl	%al, %eax
	movl	%eax, -92(%rbp)
	movslq	%eax, %rcx
	xorl	%eax, %eax
                                        # kill: def $rax killed $eax
	cmpq	%rcx, %rax
	setl	%al
	andb	$1, %al
	movzbl	%al, %eax
                                        # kill: def $rax killed $eax
	movabsq	$4294967293, %rcx               # imm = 0xFFFFFFFD
	xorq	%rcx, %rax
	movslq	-6064(%rbp), %rcx
	cmpq	%rcx, %rax
	seta	%al
	andb	$1, %al
	movzbl	%al, %ecx
	movq	-6520(%rbp), %rax
	movl	%ecx, (%rax)
.LBB3_145:
	movb	$-4, _ZL5g_124(%rip)
# %bb.146:
	movzbl	_ZL5g_124(%rip), %eax
	cmpl	$53, %eax
	jne	.LBB3_148
# %bb.147:
	movq	$-2, -7056(%rbp)
.LBB3_148:
	movzbl	-134(%rbp), %eax
	movzbl	-134(%rbp), %ecx
	cmpl	%ecx, %eax
	setle	%al
	andb	$1, %al
	movzbl	%al, %eax
	movl	%eax, -7208(%rbp)               # 4-byte Spill
	movzbl	-6354(%rbp), %eax
                                        # kill: def $ax killed $ax killed $eax
	movl	$4294967287, %edi               # imm = 0xFFFFFFF7
	movswl	%ax, %esi
	callq	_ZL25safe_add_func_int16_t_s_sss
	cwtl
	movzbl	_ZL5g_729(%rip), %ecx
	orl	%ecx, %eax
	movw	%ax, %cx
	movq	_ZL6g_1430(%rip), %rax
	movq	(%rax), %rax
	movq	(%rax), %rax
	movq	(%rax), %rax
	movw	(%rax), %ax
	movq	_ZL6g_1430(%rip), %rdx
	movq	(%rdx), %rdx
	movq	(%rdx), %rdx
	movq	(%rdx), %rdx
	movw	%ax, (%rdx)
	movzwl	%cx, %edi
	movzwl	%ax, %esi
	callq	_ZL26safe_mod_func_uint16_t_u_utt
	movzwl	%ax, %eax
	movq	_ZL4g_80(%rip), %rcx
	movl	%eax, (%rcx)
	movzbl	-6371(%rbp), %ecx
	cmpl	%ecx, %eax
	setne	%al
	andb	$1, %al
	movzbl	%al, %eax
	movw	%ax, %cx
	movzbl	-134(%rbp), %eax
                                        # kill: def $ax killed $ax killed $eax
	movswl	%cx, %edi
	movswl	%ax, %esi
	callq	_ZL25safe_add_func_int16_t_s_sss
	movw	%ax, %cx
	movl	-7208(%rbp), %eax               # 4-byte Reload
	movswl	%cx, %ecx
	orl	%ecx, %eax
	movzbl	-6354(%rbp), %ecx
	cmpl	%ecx, %eax
	setge	%al
	andb	$1, %al
	movzbl	%al, %eax
	movw	%ax, %cx
	movl	-6064(%rbp), %eax
                                        # kill: def $ax killed $ax killed $eax
	movzwl	%cx, %edi
	movzwl	%ax, %esi
	callq	_ZL26safe_div_func_uint16_t_u_utt
	movzwl	%ax, %eax
                                        # kill: def $rax killed $eax
	cmpq	$860292030, %rax                # imm = 0x334703BE
	setl	%cl
	andb	$1, %cl
	movl	_ZL5g_585+12(%rip), %eax
	shll	$6, %eax
	sarl	$6, %eax
                                        # kill: def $al killed $al killed $eax
	movzbl	%cl, %edi
	movzbl	%al, %esi
	callq	_ZL25safe_div_func_uint8_t_u_uhh
	movq	_ZL6g_1431(%rip), %rax
	movq	(%rax), %rax
	movq	(%rax), %rcx
	xorl	%eax, %eax
                                        # kill: def $al killed $al killed $eax
	cmpw	$0, (%rcx)
	movb	%al, -7203(%rbp)                # 1-byte Spill
	je	.LBB3_150
# %bb.149:
	movb	$1, %al
	movb	%al, -7203(%rbp)                # 1-byte Spill
	jmp	.LBB3_150
.LBB3_150:
	movb	-7203(%rbp), %al                # 1-byte Reload
	andb	$1, %al
	movzbl	%al, %ecx
	movq	-6384(%rbp), %rax
	movl	%ecx, (%rax)
	movq	-6384(%rbp), %rax
	movl	(%rax), %eax
                                        # kill: def $al killed $al killed $eax
	movb	%al, -6297(%rbp)
.LBB3_151:
	movb	-6297(%rbp), %al
	movb	%al, -7209(%rbp)                # 1-byte Spill
	movq	%fs:40, %rax
	movq	-8(%rbp), %rcx
	cmpq	%rcx, %rax
	jne	.LBB3_153
# %bb.152:
	movb	-7209(%rbp), %al                # 1-byte Reload
	movsbl	%al, %eax
	addq	$7232, %rsp                     # imm = 0x1C40
	popq	%rbp
	.cfi_def_cfa %rsp, 8
	retq
.LBB3_153:
	.cfi_def_cfa %rbp, 16
	callq	__stack_chk_fail@PLT
.Lfunc_end3:
	.size	_ZL6func_1v, .Lfunc_end3-_ZL6func_1v
	.cfi_endproc
                                        # -- End function
	.p2align	4, 0x90                         # -- Begin function _ZL15transparent_crcmPci
	.type	_ZL15transparent_crcmPci,@function
_ZL15transparent_crcmPci:               # @_ZL15transparent_crcmPci
	.cfi_startproc
# %bb.0:
	pushq	%rbp
	.cfi_def_cfa_offset 16
	.cfi_offset %rbp, -16
	movq	%rsp, %rbp
	.cfi_def_cfa_register %rbp
	subq	$32, %rsp
	movq	%rdi, -8(%rbp)
	movq	%rsi, -16(%rbp)
	movl	%edx, -20(%rbp)
	movq	-8(%rbp), %rdi
	callq	_ZL12crc32_8bytesm
	cmpl	$0, -20(%rbp)
	je	.LBB4_2
# %bb.1:
	movq	-16(%rbp), %rsi
	movl	_ZL13crc32_context(%rip), %eax
	movl	%eax, %edx
	movabsq	$4294967295, %rax               # imm = 0xFFFFFFFF
	xorq	%rax, %rdx
	leaq	.L.str.114(%rip), %rdi
	movb	$0, %al
	callq	printf@PLT
.LBB4_2:
	addq	$32, %rsp
	popq	%rbp
	.cfi_def_cfa %rsp, 8
	retq
.Lfunc_end4:
	.size	_ZL15transparent_crcmPci, .Lfunc_end4-_ZL15transparent_crcmPci
	.cfi_endproc
                                        # -- End function
	.p2align	4, 0x90                         # -- Begin function _ZL17platform_main_endji
	.type	_ZL17platform_main_endji,@function
_ZL17platform_main_endji:               # @_ZL17platform_main_endji
	.cfi_startproc
# %bb.0:
	pushq	%rbp
	.cfi_def_cfa_offset 16
	.cfi_offset %rbp, -16
	movq	%rsp, %rbp
	.cfi_def_cfa_register %rbp
	subq	$16, %rsp
	movl	%edi, -4(%rbp)
	movl	%esi, -8(%rbp)
	movl	-4(%rbp), %esi
	leaq	.L.str.129(%rip), %rdi
	movb	$0, %al
	callq	printf@PLT
	addq	$16, %rsp
	popq	%rbp
	.cfi_def_cfa %rsp, 8
	retq
.Lfunc_end5:
	.size	_ZL17platform_main_endji, .Lfunc_end5-_ZL17platform_main_endji
	.cfi_endproc
                                        # -- End function
	.p2align	4, 0x90                         # -- Begin function _ZL25safe_mod_func_int64_t_s_sll
	.type	_ZL25safe_mod_func_int64_t_s_sll,@function
_ZL25safe_mod_func_int64_t_s_sll:       # @_ZL25safe_mod_func_int64_t_s_sll
	.cfi_startproc
# %bb.0:
	pushq	%rbp
	.cfi_def_cfa_offset 16
	.cfi_offset %rbp, -16
	movq	%rsp, %rbp
	.cfi_def_cfa_register %rbp
	movq	%rdi, -8(%rbp)
	movq	%rsi, -16(%rbp)
	cmpq	$0, -16(%rbp)
	je	.LBB6_3
# %bb.1:
	movabsq	$-9223372036854775808, %rax     # imm = 0x8000000000000000
	cmpq	%rax, -8(%rbp)
	jne	.LBB6_4
# %bb.2:
	cmpq	$-1, -16(%rbp)
	jne	.LBB6_4
.LBB6_3:
	movq	-8(%rbp), %rdx
	movq	%rdx, -24(%rbp)                 # 8-byte Spill
	jmp	.LBB6_5
.LBB6_4:
	movq	-8(%rbp), %rax
	cqto
	idivq	-16(%rbp)
	movq	%rdx, -24(%rbp)                 # 8-byte Spill
.LBB6_5:
	movq	-24(%rbp), %rax                 # 8-byte Reload
	popq	%rbp
	.cfi_def_cfa %rsp, 8
	retq
.Lfunc_end6:
	.size	_ZL25safe_mod_func_int64_t_s_sll, .Lfunc_end6-_ZL25safe_mod_func_int64_t_s_sll
	.cfi_endproc
                                        # -- End function
	.p2align	4, 0x90                         # -- Begin function _ZL29safe_lshift_func_uint64_t_u_umj
	.type	_ZL29safe_lshift_func_uint64_t_u_umj,@function
_ZL29safe_lshift_func_uint64_t_u_umj:   # @_ZL29safe_lshift_func_uint64_t_u_umj
	.cfi_startproc
# %bb.0:
	pushq	%rbp
	.cfi_def_cfa_offset 16
	.cfi_offset %rbp, -16
	movq	%rsp, %rbp
	.cfi_def_cfa_register %rbp
	movq	%rdi, -8(%rbp)
	movl	%esi, -12(%rbp)
	cmpl	$32, -12(%rbp)
	jae	.LBB7_2
# %bb.1:
	movq	-8(%rbp), %rax
	movl	-12(%rbp), %ecx
                                        # kill: def $rcx killed $ecx
	movq	$-1, %rdx
                                        # kill: def $cl killed $rcx
	shrq	%cl, %rdx
	movq	%rdx, %rcx
	cmpq	%rcx, %rax
	jbe	.LBB7_3
.LBB7_2:
	movq	-8(%rbp), %rax
	movq	%rax, -24(%rbp)                 # 8-byte Spill
	jmp	.LBB7_4
.LBB7_3:
	movq	-8(%rbp), %rax
	movl	-12(%rbp), %ecx
                                        # kill: def $rcx killed $ecx
                                        # kill: def $cl killed $rcx
	shlq	%cl, %rax
	movq	%rax, -24(%rbp)                 # 8-byte Spill
.LBB7_4:
	movq	-24(%rbp), %rax                 # 8-byte Reload
	popq	%rbp
	.cfi_def_cfa %rsp, 8
	retq
.Lfunc_end7:
	.size	_ZL29safe_lshift_func_uint64_t_u_umj, .Lfunc_end7-_ZL29safe_lshift_func_uint64_t_u_umj
	.cfi_endproc
                                        # -- End function
	.p2align	4, 0x90                         # -- Begin function _ZL32safe_unary_minus_func_uint16_t_ut
	.type	_ZL32safe_unary_minus_func_uint16_t_ut,@function
_ZL32safe_unary_minus_func_uint16_t_ut: # @_ZL32safe_unary_minus_func_uint16_t_ut
	.cfi_startproc
# %bb.0:
	pushq	%rbp
	.cfi_def_cfa_offset 16
	.cfi_offset %rbp, -16
	movq	%rsp, %rbp
	.cfi_def_cfa_register %rbp
	movw	%di, %ax
	movw	%ax, -2(%rbp)
	movzwl	-2(%rbp), %ecx
	xorl	%eax, %eax
	subl	%ecx, %eax
                                        # kill: def $ax killed $ax killed $eax
	movzwl	%ax, %eax
	popq	%rbp
	.cfi_def_cfa %rsp, 8
	retq
.Lfunc_end8:
	.size	_ZL32safe_unary_minus_func_uint16_t_ut, .Lfunc_end8-_ZL32safe_unary_minus_func_uint16_t_ut
	.cfi_endproc
                                        # -- End function
	.p2align	4, 0x90                         # -- Begin function _ZL7func_11PKjPjsS0_
	.type	_ZL7func_11PKjPjsS0_,@function
_ZL7func_11PKjPjsS0_:                   # @_ZL7func_11PKjPjsS0_
	.cfi_startproc
# %bb.0:
	pushq	%rbp
	.cfi_def_cfa_offset 16
	.cfi_offset %rbp, -16
	movq	%rsp, %rbp
	.cfi_def_cfa_register %rbp
	subq	$832, %rsp                      # imm = 0x340
	movw	%dx, %ax
	movq	%fs:40, %rdx
	movq	%rdx, -8(%rbp)
	movq	%rdi, -384(%rbp)
	movq	%rsi, -392(%rbp)
	movw	%ax, -394(%rbp)
	movq	%rcx, -408(%rbp)
	leaq	_ZL4g_24(%rip), %rax
	movq	%rax, -416(%rbp)
	leaq	_ZL4g_24(%rip), %rax
	movq	%rax, -424(%rbp)
	movq	$0, -432(%rbp)
	leaq	_ZL5g_673(%rip), %rax
	addq	$12, %rax
	movq	%rax, -440(%rbp)
	leaq	_ZL4g_24(%rip), %rax
	movq	%rax, -448(%rbp)
	leaq	_ZL5g_673(%rip), %rax
	addq	$36, %rax
	movq	%rax, -456(%rbp)
	leaq	_ZL6g_1113(%rip), %rax
	movq	%rax, -464(%rbp)
	leaq	_ZL5g_673(%rip), %rax
	addq	$36, %rax
	movq	%rax, -472(%rbp)
	movq	$0, -480(%rbp)
	movq	$0, -488(%rbp)
	leaq	_ZL5g_673(%rip), %rax
	addq	$36, %rax
	movq	%rax, -496(%rbp)
	leaq	_ZL5g_673(%rip), %rax
	movq	%rax, -504(%rbp)
	leaq	_ZL5g_673(%rip), %rax
	addq	$16, %rax
	movq	%rax, -512(%rbp)
	movq	$0, -520(%rbp)
	movl	$-1, -524(%rbp)
	leaq	_ZL6g_1113(%rip), %rax
	movq	%rax, -536(%rbp)
	movq	$0, -544(%rbp)
	leaq	_ZL5g_402(%rip), %rax
	movq	%rax, -552(%rbp)
	leaq	_ZL5g_673(%rip), %rax
	addq	$36, %rax
	movq	%rax, -560(%rbp)
	leaq	_ZL5g_673(%rip), %rax
	addq	$28, %rax
	movq	%rax, -568(%rbp)
	leaq	_ZL4g_24(%rip), %rax
	movq	%rax, -576(%rbp)
	movl	$-1069492443, -580(%rbp)        # imm = 0xC040D725
	movq	$0, -264(%rbp)
	leaq	-264(%rbp), %rax
	movq	%rax, -592(%rbp)
	leaq	_ZL5g_576(%rip), %rax
	movq	%rax, -600(%rbp)
	movl	.L__const._ZL7func_11PKjPjsS0_.l_1638(%rip), %eax
	movl	%eax, -272(%rbp)
	movw	.L__const._ZL7func_11PKjPjsS0_.l_1638+4(%rip), %ax
	movw	%ax, -268(%rbp)
	movl	$0, -276(%rbp)
	movb	$-3, -601(%rbp)
	movl	$9, -608(%rbp)
	movb	$1, -609(%rbp)
	leaq	_ZL6g_1705(%rip), %rax
	movq	%rax, -624(%rbp)
	movb	$112, -625(%rbp)
	movb	$1, -626(%rbp)
	movl	$0, -632(%rbp)
.LBB9_1:                                # =>This Inner Loop Header: Depth=1
	cmpl	$3, -632(%rbp)
	jge	.LBB9_4
# %bb.2:                                #   in Loop: Header=BB9_1 Depth=1
	movslq	-632(%rbp), %rax
	leaq	_ZL5g_673(%rip), %rcx
	addq	$20, %rcx
	movq	%rcx, -32(%rbp,%rax,8)
# %bb.3:                                #   in Loop: Header=BB9_1 Depth=1
	movl	-632(%rbp), %eax
	addl	$1, %eax
	movl	%eax, -632(%rbp)
	jmp	.LBB9_1
.LBB9_4:
	jmp	.LBB9_5
.LBB9_5:                                # =>This Loop Header: Depth=1
                                        #     Child Loop BB9_6 Depth 2
                                        #       Child Loop BB9_14 Depth 3
                                        #         Child Loop BB9_16 Depth 4
                                        #         Child Loop BB9_28 Depth 4
                                        #           Child Loop BB9_32 Depth 5
                                        #           Child Loop BB9_40 Depth 5
	movl	-580(%rbp), %eax
	addl	$1, %eax
	movl	%eax, -580(%rbp)
	movl	$0, _ZL3g_7(%rip)
.LBB9_6:                                #   Parent Loop BB9_5 Depth=1
                                        # =>  This Loop Header: Depth=2
                                        #       Child Loop BB9_14 Depth 3
                                        #         Child Loop BB9_16 Depth 4
                                        #         Child Loop BB9_28 Depth 4
                                        #           Child Loop BB9_32 Depth 5
                                        #           Child Loop BB9_40 Depth 5
	cmpl	$5, _ZL3g_7(%rip)
	ja	.LBB9_51
# %bb.7:                                #   in Loop: Header=BB9_6 Depth=2
	movq	.L__const._ZL7func_11PKjPjsS0_.l_1630(%rip), %rax
	movq	%rax, -48(%rbp)
	movq	.L__const._ZL7func_11PKjPjsS0_.l_1630+8(%rip), %rax
	movq	%rax, -40(%rbp)
	movq	.L__const._ZL7func_11PKjPjsS0_.l_1639(%rip), %rax
	movq	%rax, -80(%rbp)
	movq	.L__const._ZL7func_11PKjPjsS0_.l_1639+8(%rip), %rax
	movq	%rax, -72(%rbp)
	movw	.L__const._ZL7func_11PKjPjsS0_.l_1639+16(%rip), %ax
	movw	%ax, -64(%rbp)
	leaq	_ZL5g_789(%rip), %rax
	movq	%rax, -640(%rbp)
	movq	.L__const._ZL7func_11PKjPjsS0_.l_1641(%rip), %rax
	movq	%rax, -112(%rbp)
	movq	.L__const._ZL7func_11PKjPjsS0_.l_1641+8(%rip), %rax
	movq	%rax, -104(%rbp)
	movq	.L__const._ZL7func_11PKjPjsS0_.l_1641+16(%rip), %rax
	movq	%rax, -96(%rbp)
	movq	.L__const._ZL7func_11PKjPjsS0_.l_1641+24(%rip), %rax
	movq	%rax, -88(%rbp)
	movl	$-1, -644(%rbp)
	movl	$-1, -648(%rbp)
	movw	$-3676, -650(%rbp)              # imm = 0xF1A4
	movl	$1659132018, -280(%rbp)         # imm = 0x62E45872
	movl	$-533915358, -656(%rbp)         # imm = 0xE02D1922
	movq	_ZL6g_1432(%rip), %rax
	movq	(%rax), %rcx
	movb	$1, %al
	cmpw	$0, (%rcx)
	movb	%al, -769(%rbp)                 # 1-byte Spill
	jne	.LBB9_9
# %bb.8:                                #   in Loop: Header=BB9_6 Depth=2
	movzwl	-34(%rbp), %eax
	movq	_ZL5g_728(%rip), %rdx
	movb	(%rdx), %cl
	movb	%cl, %sil
	addb	$1, %sil
	movb	%sil, (%rdx)
	movzbl	%cl, %ecx
	xorl	%ecx, %eax
	cmpl	$0, %eax
	setne	%al
	movb	%al, -769(%rbp)                 # 1-byte Spill
.LBB9_9:                                #   in Loop: Header=BB9_6 Depth=2
	movb	-769(%rbp), %al                 # 1-byte Reload
	andb	$1, %al
	movzbl	%al, %eax
	movl	%eax, -780(%rbp)                # 4-byte Spill
	movq	-600(%rbp), %rax
	cmpq	-600(%rbp), %rax
	setne	%al
	andb	$1, %al
	movzbl	%al, %eax
	movl	%eax, -776(%rbp)                # 4-byte Spill
	movq	-640(%rbp), %rax
	movl	-68(%rbp), %ecx
	movl	%ecx, (%rax)
	movw	-64(%rbp), %cx
	movw	%cx, 4(%rax)
	movl	$4294949833, %edi               # imm = 0xFFFFBBC9
	movl	$1, %esi
	callq	_ZL25safe_mul_func_int16_t_s_sss
	movb	%al, %cl
	movb	%cl, _ZL5g_693(%rip)
	xorl	%eax, %eax
                                        # kill: def $al killed $al killed $eax
	cmpb	$0, %cl
	movb	%al, -770(%rbp)                 # 1-byte Spill
	je	.LBB9_11
# %bb.10:                               #   in Loop: Header=BB9_6 Depth=2
	cmpl	$0, -276(%rbp)
	setne	%al
	movb	%al, -770(%rbp)                 # 1-byte Spill
.LBB9_11:                               #   in Loop: Header=BB9_6 Depth=2
	movl	-776(%rbp), %edi                # 4-byte Reload
	movb	-770(%rbp), %al                 # 1-byte Reload
	andb	$1, %al
	movzbl	%al, %esi
	callq	_ZL25safe_mod_func_int32_t_s_sii
	movl	%eax, %ecx
	movl	-780(%rbp), %eax                # 4-byte Reload
	movslq	%ecx, %rdx
	movl	$229, %ecx
	cmpq	%rdx, %rcx
	setle	%cl
	andb	$1, %cl
	movzbl	%cl, %ecx
	cmpl	%ecx, %eax
	setne	%al
	andb	$1, %al
	movzbl	%al, %ecx
	movswl	-394(%rbp), %edx
	movb	$1, %al
	cmpl	%edx, %ecx
	movb	%al, -781(%rbp)                 # 1-byte Spill
	je	.LBB9_13
# %bb.12:                               #   in Loop: Header=BB9_6 Depth=2
	movq	_ZL4g_80(%rip), %rax
	cmpl	$0, (%rax)
	setne	%al
	movb	%al, -781(%rbp)                 # 1-byte Spill
.LBB9_13:                               #   in Loop: Header=BB9_6 Depth=2
	movb	-781(%rbp), %al                 # 1-byte Reload
	andb	$1, %al
	movzbl	%al, %eax
	andl	-644(%rbp), %eax
	movl	%eax, -644(%rbp)
	movb	$0, _ZL5g_666(%rip)
.LBB9_14:                               #   Parent Loop BB9_5 Depth=1
                                        #     Parent Loop BB9_6 Depth=2
                                        # =>    This Loop Header: Depth=3
                                        #         Child Loop BB9_16 Depth 4
                                        #         Child Loop BB9_28 Depth 4
                                        #           Child Loop BB9_32 Depth 5
                                        #           Child Loop BB9_40 Depth 5
	movzbl	_ZL5g_666(%rip), %eax
	cmpl	$5, %eax
	jg	.LBB9_49
# %bb.15:                               #   in Loop: Header=BB9_14 Depth=3
	movl	$-1044573386, -664(%rbp)        # imm = 0xC1BD1336
	leaq	_ZL6g_1461(%rip), %rax
	movq	%rax, -672(%rbp)
	movq	.L__const._ZL7func_11PKjPjsS0_.l_1679(%rip), %rax
	movq	%rax, -176(%rbp)
	movq	.L__const._ZL7func_11PKjPjsS0_.l_1679+8(%rip), %rax
	movq	%rax, -168(%rbp)
	movq	.L__const._ZL7func_11PKjPjsS0_.l_1679+16(%rip), %rax
	movq	%rax, -160(%rbp)
	movq	.L__const._ZL7func_11PKjPjsS0_.l_1679+24(%rip), %rax
	movq	%rax, -152(%rbp)
	movl	.L__const._ZL7func_11PKjPjsS0_.l_1696(%rip), %eax
	movl	%eax, -288(%rbp)
	movw	.L__const._ZL7func_11PKjPjsS0_.l_1696+4(%rip), %ax
	movw	%ax, -284(%rbp)
	movl	.L__const._ZL7func_11PKjPjsS0_.l_1697(%rip), %eax
	movl	%eax, -296(%rbp)
	movw	.L__const._ZL7func_11PKjPjsS0_.l_1697+4(%rip), %ax
	movw	%ax, -292(%rbp)
	leaq	-276(%rbp), %rax
	movq	%rax, -680(%rbp)
	movq	$0, -688(%rbp)
	leaq	_ZL6g_1282(%rip), %rax
	movq	%rax, -304(%rbp)
	leaq	-304(%rbp), %rax
	movq	%rax, -696(%rbp)
	movl	$0, -700(%rbp)
.LBB9_16:                               #   Parent Loop BB9_5 Depth=1
                                        #     Parent Loop BB9_6 Depth=2
                                        #       Parent Loop BB9_14 Depth=3
                                        # =>      This Inner Loop Header: Depth=4
	cmpl	$4, -700(%rbp)
	jge	.LBB9_19
# %bb.17:                               #   in Loop: Header=BB9_16 Depth=4
	movslq	-700(%rbp), %rax
	movq	$0, -144(%rbp,%rax,8)
# %bb.18:                               #   in Loop: Header=BB9_16 Depth=4
	movl	-700(%rbp), %eax
	addl	$1, %eax
	movl	%eax, -700(%rbp)
	jmp	.LBB9_16
.LBB9_19:                               #   in Loop: Header=BB9_14 Depth=3
	leaq	_ZL5g_673(%rip), %rax
	addq	$36, %rax
	movq	%rax, _ZL4g_97(%rip)
	movw	-394(%rbp), %ax
                                        # kill: def $al killed $al killed $ax
	movb	%al, -783(%rbp)                 # 1-byte Spill
	movzbl	_ZL5g_729(%rip), %ecx
	xorl	$-1, %ecx
	movswl	-394(%rbp), %eax
	xorl	%eax, %ecx
	movq	-496(%rbp), %rax
	movl	%ecx, (%rax)
	xorl	%eax, %eax
                                        # kill: def $al killed $al killed $eax
	cmpl	$0, %ecx
	movb	%al, -782(%rbp)                 # 1-byte Spill
	je	.LBB9_21
# %bb.20:                               #   in Loop: Header=BB9_14 Depth=3
	movswl	-394(%rbp), %edi
	movq	_ZL4g_97(%rip), %rax
	movl	(%rax), %esi
	callq	_ZL28safe_lshift_func_int32_t_s_sii
	cmpl	$0, %eax
	setne	%al
	movb	%al, -782(%rbp)                 # 1-byte Spill
.LBB9_21:                               #   in Loop: Header=BB9_14 Depth=3
	movb	-782(%rbp), %al                 # 1-byte Reload
	andb	$1, %al
	movzbl	%al, %eax
                                        # kill: def $ax killed $ax killed $eax
	movzwl	%ax, %edi
	movzwl	-394(%rbp), %esi
	callq	_ZL26safe_div_func_uint16_t_u_utt
	movzwl	%ax, %eax
	movl	%eax, -788(%rbp)                # 4-byte Spill
	movswl	-394(%rbp), %eax
	movl	%eax, -792(%rbp)                # 4-byte Spill
	movswl	-394(%rbp), %ecx
	xorl	%eax, %eax
	cmpl	%ecx, %eax
	setg	%al
	andb	$1, %al
	movzbl	%al, %edi
	movswl	-394(%rbp), %esi
	callq	_ZL26safe_div_func_uint32_t_u_ujj
	movl	-792(%rbp), %ecx                # 4-byte Reload
	movl	-788(%rbp), %esi                # 4-byte Reload
	movl	%eax, %edx
	movb	-783(%rbp), %al                 # 1-byte Reload
	orl	%edx, %ecx
	orl	%ecx, %esi
	movswl	-394(%rbp), %ecx
	xorl	%ecx, %esi
	movsbl	-601(%rbp), %ecx
	xorl	%ecx, %esi
	movsbl	%al, %edi
	callq	_ZL27safe_rshift_func_int8_t_s_uaj
	movsbq	%al, %rax
	cmpq	$7, %rax
	jne	.LBB9_24
# %bb.22:                               #   in Loop: Header=BB9_14 Depth=3
	movl	_ZL5g_474+4(%rip), %eax
	andl	$33554431, %eax                 # imm = 0x1FFFFFF
	cmpl	$0, %eax
	je	.LBB9_24
# %bb.23:                               #   in Loop: Header=BB9_14 Depth=3
	movl	$-1, -704(%rbp)
	leaq	-256(%rbp), %rdi
	leaq	.L__const._ZL7func_11PKjPjsS0_.l_1658(%rip), %rsi
	movl	$72, %edx
	callq	memcpy@PLT
	movw	-650(%rbp), %ax
	addw	$-1, %ax
	movw	%ax, -650(%rbp)
	movswq	-394(%rbp), %rax
	orq	$0, %rax
	movl	%eax, %ecx
	movq	-552(%rbp), %rax
	movl	%ecx, (%rax)
	movl	$11093, %edi                    # imm = 0x2B55
	movl	$5, %esi
	callq	_ZL29safe_rshift_func_uint16_t_u_sti
	movzwl	%ax, %eax
	movl	%eax, %ecx
	movl	$40867, %eax                    # imm = 0x9FA3
	cmpq	%rcx, %rax
	setge	%al
	andb	$1, %al
	movzbl	%al, %ecx
	movq	-424(%rbp), %rax
	andl	(%rax), %ecx
	movl	%ecx, (%rax)
	jmp	.LBB9_25
.LBB9_24:
	movl	-664(%rbp), %eax
                                        # kill: def $ax killed $ax killed $eax
	movw	%ax, -370(%rbp)
	jmp	.LBB9_52
.LBB9_25:                               #   in Loop: Header=BB9_14 Depth=3
	movw	-272(%rbp), %ax
	shlw	$5, %ax
	sarw	$5, %ax
	cwtl
	cmpl	$0, %eax
	je	.LBB9_27
# %bb.26:                               #   in Loop: Header=BB9_5 Depth=1
	jmp	.LBB9_5
.LBB9_27:                               #   in Loop: Header=BB9_14 Depth=3
	movw	$0, _ZL6g_1373(%rip)
.LBB9_28:                               #   Parent Loop BB9_5 Depth=1
                                        #     Parent Loop BB9_6 Depth=2
                                        #       Parent Loop BB9_14 Depth=3
                                        # =>      This Loop Header: Depth=4
                                        #           Child Loop BB9_32 Depth 5
                                        #           Child Loop BB9_40 Depth 5
	movswl	_ZL6g_1373(%rip), %eax
	cmpl	$5, %eax
	jg	.LBB9_47
# %bb.29:                               #   in Loop: Header=BB9_28 Depth=4
	movq	$0, -720(%rbp)
	movl	$-1, -724(%rbp)
	movabsq	$-8135875254343483201, %rax     # imm = 0x8F17908FD7F740BF
	movq	%rax, -736(%rbp)
	movq	-496(%rbp), %rax
	movslq	(%rax), %rcx
	movabsq	$-2308470082, %rdx              # imm = 0xFFFFFFFF76678ABE
	xorq	%rdx, %rcx
                                        # kill: def $ecx killed $ecx killed $rcx
	movl	%ecx, (%rax)
	leaq	_ZL5g_576(%rip), %rax
	movq	%rax, -744(%rbp)
	movl	.L__const._ZL7func_11PKjPjsS0_.l_1698(%rip), %eax
	movl	%eax, -312(%rbp)
	movw	.L__const._ZL7func_11PKjPjsS0_.l_1698+4(%rip), %ax
	movw	%ax, -308(%rbp)
	leaq	-272(%rbp), %rax
	addq	$2, %rax
	movq	%rax, -752(%rbp)
	movq	_ZL5g_935(%rip), %rax
	movq	(%rax), %rax
	cmpq	-744(%rbp), %rax
	setne	%al
	andb	$1, %al
	movzbl	%al, %eax
	xorl	$-1, %eax
                                        # kill: def $ax killed $ax killed $eax
	movl	$31504, %edi                    # imm = 0x7B10
	movzwl	%ax, %esi
	callq	_ZL26safe_mod_func_uint16_t_u_utt
	movzwl	%ax, %eax
	xorl	$-1, %eax
	movl	%eax, -280(%rbp)
	movl	$65533, %edi                    # imm = 0xFFFD
	movl	$9, %esi
	callq	_ZL29safe_lshift_func_uint16_t_u_sti
	movl	$4, %esi
	movzwl	%ax, %edi
	callq	_ZL29safe_rshift_func_uint16_t_u_sti
	movzwl	%ax, %eax
                                        # kill: def $rax killed $eax
	movq	%rax, -800(%rbp)                # 8-byte Spill
	movl	-288(%rbp), %eax
	movl	%eax, -320(%rbp)
	movw	-284(%rbp), %ax
	movw	%ax, -316(%rbp)
	movl	-296(%rbp), %eax
	movl	%eax, -328(%rbp)
	movw	-292(%rbp), %ax
	movw	%ax, -324(%rbp)
	movq	-640(%rbp), %rax
	movl	(%rax), %ecx
	movl	%ecx, -344(%rbp)
	movw	4(%rax), %ax
	movw	%ax, -340(%rbp)
	movl	-312(%rbp), %eax
	movl	%eax, -352(%rbp)
	movw	-308(%rbp), %ax
	movw	%ax, -348(%rbp)
	movl	-272(%rbp), %eax
	movl	%eax, -360(%rbp)
	movw	-268(%rbp), %ax
	movw	%ax, -356(%rbp)
	leaq	-336(%rbp), %rdi
	leaq	-344(%rbp), %rdx
	leaq	-352(%rbp), %rcx
	leaq	-360(%rbp), %rax
	movl	(%rdx), %esi
	movl	%esi, (%rsp)
	movw	4(%rdx), %dx
	movw	%dx, 4(%rsp)
	movl	(%rcx), %edx
	movl	%edx, 8(%rsp)
	movw	4(%rcx), %cx
	movw	%cx, 12(%rsp)
	movl	(%rax), %ecx
	movl	%ecx, 16(%rsp)
	movw	4(%rax), %ax
	movw	%ax, 20(%rsp)
	callq	_ZL7func_312S0S_S_
	leaq	-368(%rbp), %rdi
	leaq	-320(%rbp), %rdx
	leaq	-328(%rbp), %rcx
	leaq	-336(%rbp), %rax
	movl	(%rdx), %esi
	movl	%esi, (%rsp)
	movw	4(%rdx), %dx
	movw	%dx, 4(%rsp)
	movl	(%rcx), %edx
	movl	%edx, 8(%rsp)
	movw	4(%rcx), %cx
	movw	%cx, 12(%rsp)
	movl	(%rax), %ecx
	movl	%ecx, 16(%rsp)
	movw	4(%rax), %ax
	movw	%ax, 20(%rsp)
	callq	_ZL7func_312S0S_S_
	movzbl	_ZL5g_124(%rip), %eax
	movl	%eax, %esi
	movl	$1, %edi
	callq	_ZL25safe_div_func_int64_t_s_sll
	movq	-800(%rbp), %rdi                # 8-byte Reload
	movq	%rax, %rsi
	callq	_ZL25safe_mod_func_int64_t_s_sll
                                        # kill: def $ax killed $ax killed $rax
	movw	%ax, -394(%rbp)
	movswq	%ax, %rax
	cmpq	$37534, %rax                    # imm = 0x929E
	setge	%al
	andb	$1, %al
	movzbl	%al, %eax
	movq	-752(%rbp), %rcx
	movl	%eax, (%rcx)
	xorl	-724(%rbp), %eax
	movw	%ax, %cx
	movq	_ZL6g_1432(%rip), %rax
	movq	(%rax), %rax
	movswl	%cx, %edi
	movswl	(%rax), %esi
	callq	_ZL25safe_div_func_int16_t_s_sss
	movswl	%ax, %edi
	movq	-408(%rbp), %rax
	movl	(%rax), %esi
	callq	_ZL26safe_mul_func_uint32_t_u_ujj
	movl	%eax, %edi
	movq	-736(%rbp), %rax
	movl	%eax, %esi
	callq	_ZL25safe_div_func_int32_t_s_sii
	movl	%eax, %edi
	movq	-384(%rbp), %rax
	movl	(%rax), %esi
	callq	_ZL25safe_add_func_int32_t_s_sii
	movswq	-394(%rbp), %rax
	movq	-600(%rbp), %rcx
	movq	(%rcx), %rcx
	movq	(%rcx), %rcx
	movq	%rax, (%rcx)
	movsbq	-609(%rbp), %rcx
	orq	%rcx, %rax
	movb	%al, %cl
	movq	_ZL5g_728(%rip), %rax
	movsbl	%cl, %edi
	movsbl	(%rax), %esi
	callq	_ZL24safe_add_func_int8_t_s_saa
	movsbl	%al, %eax
	cmpl	-656(%rbp), %eax
	jb	.LBB9_31
# %bb.30:                               #   in Loop: Header=BB9_28 Depth=4
	jmp	.LBB9_31
.LBB9_31:                               #   in Loop: Header=BB9_28 Depth=4
	xorl	%eax, %eax
                                        # kill: def $rax killed $eax
	cmpq	-392(%rbp), %rax
	setne	%al
	andb	$1, %al
	movzbl	%al, %eax
	movl	%eax, %edi
	movl	$28, %esi
	callq	_ZL29safe_rshift_func_uint64_t_u_smi
	movq	%rax, %rdx
	movq	-536(%rbp), %rax
	movslq	(%rax), %rcx
	xorq	%rdx, %rcx
                                        # kill: def $ecx killed $ecx killed $rcx
	movl	%ecx, (%rax)
	movb	$0, -601(%rbp)
.LBB9_32:                               #   Parent Loop BB9_5 Depth=1
                                        #     Parent Loop BB9_6 Depth=2
                                        #       Parent Loop BB9_14 Depth=3
                                        #         Parent Loop BB9_28 Depth=4
                                        # =>        This Inner Loop Header: Depth=5
	movsbl	-601(%rbp), %eax
	cmpl	$1, %eax
	jg	.LBB9_39
# %bb.33:                               #   in Loop: Header=BB9_32 Depth=5
	movsbl	-601(%rbp), %eax
	addl	$4, %eax
	movslq	%eax, %rcx
	leaq	_ZL6g_1355(%rip), %rax
	imulq	$48, %rcx, %rcx
	addq	%rcx, %rax
	movzbl	_ZL5g_666(%rip), %ecx
                                        # kill: def $rcx killed $ecx
	shlq	$3, %rcx
	addq	%rcx, %rax
	movzbl	_ZL5g_666(%rip), %ecx
	movl	%ecx, %edx
	leaq	_ZL6g_1355(%rip), %rcx
	imulq	$48, %rdx, %rdx
	addq	%rdx, %rcx
	movl	_ZL3g_7(%rip), %edx
                                        # kill: def $rdx killed $edx
	shlq	$3, %rdx
	addq	%rdx, %rcx
	cmpq	%rcx, %rax
	setne	%al
	andb	$1, %al
	movzbl	%al, %ecx
	movq	-568(%rbp), %rax
	movl	%ecx, (%rax)
	cmpw	$0, -394(%rbp)
	je	.LBB9_35
# %bb.34:                               #   in Loop: Header=BB9_32 Depth=5
	jmp	.LBB9_38
.LBB9_35:                               #   in Loop: Header=BB9_32 Depth=5
	cmpw	$0, -394(%rbp)
	je	.LBB9_37
# %bb.36:                               #   in Loop: Header=BB9_32 Depth=5
	jmp	.LBB9_38
.LBB9_37:                               #   in Loop: Header=BB9_32 Depth=5
	leaq	-280(%rbp), %rax
	movq	%rax, _ZL4g_97(%rip)
.LBB9_38:                               #   in Loop: Header=BB9_32 Depth=5
	movsbl	-601(%rbp), %eax
	addl	$1, %eax
                                        # kill: def $al killed $al killed $eax
	movb	%al, -601(%rbp)
	jmp	.LBB9_32
.LBB9_39:                               #   in Loop: Header=BB9_28 Depth=4
	movw	$0, _ZL6g_1155(%rip)
.LBB9_40:                               #   Parent Loop BB9_5 Depth=1
                                        #     Parent Loop BB9_6 Depth=2
                                        #       Parent Loop BB9_14 Depth=3
                                        #         Parent Loop BB9_28 Depth=4
                                        # =>        This Inner Loop Header: Depth=5
	movswl	_ZL6g_1155(%rip), %eax
	cmpl	$0, %eax
	jl	.LBB9_45
# %bb.41:                               #   in Loop: Header=BB9_40 Depth=5
	movl	$-1, -764(%rbp)
	movswl	_ZL6g_1373(%rip), %eax
	addl	$2, %eax
	cltq
	movl	-176(%rbp,%rax,4), %eax
	xorl	%eax, %eax
                                        # kill: def $rax killed $eax
	cmpq	-680(%rbp), %rax
	sete	%al
	andb	$1, %al
	movzbl	%al, %eax
	movl	%eax, %edi
	callq	_ZL32safe_unary_minus_func_uint64_t_um
	cmpq	$49982, %rax                    # imm = 0xC33E
	seta	%al
	andb	$1, %al
	movzbl	%al, %eax
	movl	%eax, -724(%rbp)
                                        # kill: def $ax killed $ax killed $eax
	movswl	%ax, %edi
	callq	_ZL31safe_unary_minus_func_int16_t_ss
	movswq	%ax, %rdi
	leaq	_ZL5g_707(%rip), %rax
	cmpq	-688(%rbp), %rax
	setne	%al
	andb	$1, %al
	movzbl	%al, %eax
	movl	%eax, %esi
	callq	_ZL25safe_add_func_int64_t_s_sll
	movq	%rax, %rcx
	movzbl	_ZL5g_729(%rip), %eax
                                        # kill: def $rax killed $eax
	orq	%rcx, %rax
                                        # kill: def $al killed $al killed $rax
	movb	%al, _ZL5g_729(%rip)
	movswq	_ZL6g_1373(%rip), %rcx
	movl	-176(%rbp,%rcx,4), %esi
	movzbl	%al, %edi
	callq	_ZL28safe_rshift_func_uint8_t_u_uhj
	movzbl	%al, %eax
                                        # kill: def $ax killed $ax killed $eax
	movw	%ax, -802(%rbp)                 # 2-byte Spill
	movswq	-394(%rbp), %rdi
	movswl	-394(%rbp), %esi
	callq	_ZL28safe_lshift_func_int64_t_s_ulj
	movw	-802(%rbp), %cx                 # 2-byte Reload
	orq	$10192, %rax                    # imm = 0x27D0
	movq	_ZL6g_1430(%rip), %rdx
	movq	(%rdx), %rdx
	movq	(%rdx), %rdx
	movq	(%rdx), %rdx
	movswq	(%rdx), %rdx
	andq	%rdx, %rax
	movabsq	$-6618481984472394486, %rdx     # imm = 0xA4266DB38B33550A
	andq	%rdx, %rax
                                        # kill: def $ax killed $ax killed $rax
	movzwl	%cx, %edi
	movzwl	%ax, %esi
	callq	_ZL26safe_sub_func_uint16_t_u_utt
	movzwl	%ax, %eax
	movq	_ZL4g_80(%rip), %rcx
	cmpl	(%rcx), %eax
	seta	%al
	andb	$1, %al
	movzbl	%al, %ecx
	movq	-472(%rbp), %rax
	movl	%ecx, (%rax)
	movl	-648(%rbp), %esi
	movl	$4294967292, %edi               # imm = 0xFFFFFFFC
	callq	_ZL27safe_rshift_func_int8_t_s_uaj
	cmpb	$0, %al
	je	.LBB9_43
# %bb.42:                               #   in Loop: Header=BB9_40 Depth=5
	cmpl	$0, -724(%rbp)
	setne	%al
.LBB9_43:                               #   in Loop: Header=BB9_40 Depth=5
	movw	-394(%rbp), %cx
	movw	-68(%rbp), %ax
	shlw	$5, %ax
	sarw	$5, %ax
	cwtl
                                        # kill: def $ax killed $ax killed $eax
	movzwl	%cx, %edi
	movzwl	%ax, %esi
	callq	_ZL26safe_add_func_uint16_t_u_utt
	movswl	%ax, %edi
	movswl	-394(%rbp), %esi
	callq	_ZL25safe_add_func_int16_t_s_sss
                                        # kill: def $al killed $al killed $ax
	xorl	%esi, %esi
	movzbl	%al, %edi
	callq	_ZL28safe_lshift_func_uint8_t_u_uhj
	movzbl	%al, %edi
	movswl	_ZL6g_1373(%rip), %eax
	addl	$2, %eax
	cltq
	movl	-176(%rbp,%rax,4), %esi
	callq	_ZL25safe_div_func_int32_t_s_sii
                                        # kill: def $ax killed $ax killed $eax
	movl	$12, %esi
	movzwl	%ax, %edi
	callq	_ZL29safe_lshift_func_uint16_t_u_sti
	movq	_ZL5g_935(%rip), %rax
	movq	(%rax), %rax
	movq	(%rax), %rax
	cmpq	-696(%rbp), %rax
	sete	%al
	andb	$1, %al
	movzbl	%al, %eax
	xorl	-764(%rbp), %eax
	movl	%eax, -764(%rbp)
# %bb.44:                               #   in Loop: Header=BB9_40 Depth=5
	movswl	_ZL6g_1155(%rip), %eax
	subl	$1, %eax
                                        # kill: def $ax killed $ax killed $eax
	movw	%ax, _ZL6g_1155(%rip)
	jmp	.LBB9_40
.LBB9_45:                               #   in Loop: Header=BB9_28 Depth=4
	jmp	.LBB9_46
.LBB9_46:                               #   in Loop: Header=BB9_28 Depth=4
	movswl	_ZL6g_1373(%rip), %eax
	addl	$1, %eax
                                        # kill: def $ax killed $ax killed $eax
	movw	%ax, _ZL6g_1373(%rip)
	jmp	.LBB9_28
.LBB9_47:                               #   in Loop: Header=BB9_14 Depth=3
	jmp	.LBB9_48
.LBB9_48:                               #   in Loop: Header=BB9_14 Depth=3
	movzbl	_ZL5g_666(%rip), %eax
	addl	$1, %eax
                                        # kill: def $al killed $al killed $eax
	movb	%al, _ZL5g_666(%rip)
	jmp	.LBB9_14
.LBB9_49:                               #   in Loop: Header=BB9_6 Depth=2
	jmp	.LBB9_50
.LBB9_50:                               #   in Loop: Header=BB9_6 Depth=2
	movl	_ZL3g_7(%rip), %eax
	addl	$1, %eax
	movl	%eax, _ZL3g_7(%rip)
	jmp	.LBB9_6
.LBB9_51:
	movl	$-1194364540, _ZL6g_1733(%rip)  # imm = 0xB8CF7184
	movb	-626(%rbp), %al
	addb	$1, %al
	movb	%al, -626(%rbp)
	movw	-394(%rbp), %ax
	movw	%ax, -370(%rbp)
.LBB9_52:
	movw	-370(%rbp), %ax
	movw	%ax, -804(%rbp)                 # 2-byte Spill
	movq	%fs:40, %rax
	movq	-8(%rbp), %rcx
	cmpq	%rcx, %rax
	jne	.LBB9_54
# %bb.53:
	movw	-804(%rbp), %ax                 # 2-byte Reload
	movzwl	%ax, %eax
	addq	$832, %rsp                      # imm = 0x340
	popq	%rbp
	.cfi_def_cfa %rsp, 8
	retq
.LBB9_54:
	.cfi_def_cfa %rbp, 16
	callq	__stack_chk_fail@PLT
.Lfunc_end9:
	.size	_ZL7func_11PKjPjsS0_, .Lfunc_end9-_ZL7func_11PKjPjsS0_
	.cfi_endproc
                                        # -- End function
	.p2align	4, 0x90                         # -- Begin function _ZL7func_18tPjjm
	.type	_ZL7func_18tPjjm,@function
_ZL7func_18tPjjm:                       # @_ZL7func_18tPjjm
	.cfi_startproc
# %bb.0:
	pushq	%rbp
	.cfi_def_cfa_offset 16
	.cfi_offset %rbp, -16
	movq	%rsp, %rbp
	.cfi_def_cfa_register %rbp
	subq	$560, %rsp                      # imm = 0x230
	movw	%di, %ax
	movq	%fs:40, %rdi
	movq	%rdi, -8(%rbp)
	movw	%ax, -202(%rbp)
	movq	%rsi, -216(%rbp)
	movl	%edx, -220(%rbp)
	movq	%rcx, -232(%rbp)
	leaq	_ZL4g_24(%rip), %rax
	movq	%rax, -240(%rbp)
	movl	.L__const._ZL7func_18tPjjm.l_35(%rip), %eax
	movl	%eax, -104(%rbp)
	movw	.L__const._ZL7func_18tPjjm.l_35+4(%rip), %ax
	movw	%ax, -100(%rbp)
	leaq	-64(%rbp), %rdi
	leaq	.L__const._ZL7func_18tPjjm.l_36(%rip), %rsi
	movl	$54, %edx
	callq	memcpy@PLT
	movb	$42, -241(%rbp)
	leaq	_ZL3g_7(%rip), %rax
	movq	%rax, -256(%rbp)
	movq	$0, -264(%rbp)
	leaq	_ZL6g_1113(%rip), %rax
	movq	%rax, -272(%rbp)
	leaq	_ZL5g_461(%rip), %rax
	movq	%rax, -280(%rbp)
	movl	$-1, -284(%rbp)
	movq	-240(%rbp), %rax
	movslq	(%rax), %rcx
	xorq	$3, %rcx
                                        # kill: def $ecx killed $ecx killed $rcx
	movl	%ecx, (%rax)
	movl	-104(%rbp), %eax
	movl	%eax, -120(%rbp)
	movw	-100(%rbp), %ax
	movw	%ax, -116(%rbp)
	movl	-58(%rbp), %eax
	movl	%eax, -128(%rbp)
	movw	-54(%rbp), %ax
	movw	%ax, -124(%rbp)
	movl	-220(%rbp), %eax
	movl	%eax, -436(%rbp)                # 4-byte Spill
	movw	-202(%rbp), %ax
                                        # kill: def $al killed $al killed $ax
	movb	%al, -429(%rbp)                 # 1-byte Spill
	movq	-216(%rbp), %rax
	movl	(%rax), %eax
                                        # kill: def $rax killed $eax
	cmpq	$0, %rax
	sete	%al
	andb	$1, %al
	movzbl	%al, %eax
	movl	%eax, -428(%rbp)                # 4-byte Spill
	movq	-240(%rbp), %rax
	movl	(%rax), %edi
	movl	$42, %esi
	callq	_ZL7func_60il
	movl	_ZL3g_7(%rip), %esi
	movl	_ZL5g_100(%rip), %eax
	movl	%eax, -144(%rbp)
	movw	_ZL5g_100+4(%rip), %ax
	movw	%ax, -140(%rbp)
	movq	-240(%rbp), %rdx
	movl	$27080, %edi                    # imm = 0x69C8
	leaq	-144(%rbp), %rax
	movl	(%rax), %ecx
	movl	%ecx, (%rsp)
	movw	4(%rax), %ax
	movw	%ax, 4(%rsp)
	callq	_ZL7func_55sj2S0Pi
	movq	%rax, %rdi
	movq	-256(%rbp), %rsi
	movl	_ZL4g_17+16(%rip), %eax
	movl	%eax, %edx
	movq	-232(%rbp), %rcx
	callq	_ZL7func_50PjS_lm
	movzwl	%ax, %edi
	orl	$42, %edi
	movl	_ZL5g_790+2(%rip), %esi
	callq	_ZL26safe_mod_func_uint32_t_u_ujj
	movl	%eax, %ecx
	movb	$1, %al
	cmpl	$0, %ecx
	movb	%al, -421(%rbp)                 # 1-byte Spill
	jne	.LBB10_2
# %bb.1:
	movq	-240(%rbp), %rax
	cmpl	$0, (%rax)
	setne	%al
	movb	%al, -421(%rbp)                 # 1-byte Spill
.LBB10_2:
	movb	-421(%rbp), %al                 # 1-byte Reload
	andb	$1, %al
	movzbl	%al, %eax
                                        # kill: def $ax killed $ax killed $eax
	movw	_ZL5g_787(%rip), %cx
	shlw	$5, %cx
	sarw	$5, %cx
	movswl	%cx, %esi
	movzwl	%ax, %edi
	callq	_ZL7func_45ti
	movl	-428(%rbp), %edi                # 4-byte Reload
	movzbl	%al, %eax
	movl	%eax, %edx
	xorq	$150, %rdx
	movq	-272(%rbp), %rax
	movslq	(%rax), %rcx
	orq	%rdx, %rcx
	movl	%ecx, %esi
	movl	%esi, (%rax)
	callq	_ZL29safe_rshift_func_uint32_t_u_sji
	movb	-429(%rbp), %cl                 # 1-byte Reload
                                        # kill: def $al killed $al killed $eax
	movsbl	%cl, %edi
	movsbl	%al, %esi
	callq	_ZL24safe_sub_func_int8_t_s_saa
	movb	%al, %cl
	movl	-436(%rbp), %eax                # 4-byte Reload
	movsbl	%cl, %ecx
	cmpl	%ecx, %eax
	setbe	%al
	andb	$1, %al
	movzbl	%al, %eax
	movl	%eax, %edi
	movq	_ZL5g_577(%rip), %rax
	movq	%rdi, (%rax)
	movabsq	$-413429236176556808, %rsi      # imm = 0xFA43344CD5EF6CF8
	callq	_ZL25safe_add_func_int64_t_s_sll
	movl	%eax, %edi
	movq	-216(%rbp), %rax
	movl	(%rax), %esi
	callq	_ZL28safe_rshift_func_int32_t_s_uij
	movl	-104(%rbp), %eax
	movl	%eax, -136(%rbp)
	movw	-100(%rbp), %ax
	movw	%ax, -132(%rbp)
	leaq	-112(%rbp), %rdi
	leaq	-120(%rbp), %rdx
	leaq	-128(%rbp), %rcx
	leaq	-136(%rbp), %rax
	movl	(%rdx), %esi
	movl	%esi, (%rsp)
	movw	4(%rdx), %dx
	movw	%dx, 4(%rsp)
	movl	(%rcx), %edx
	movl	%edx, 8(%rsp)
	movw	4(%rcx), %cx
	movw	%cx, 12(%rsp)
	movl	(%rax), %ecx
	movl	%ecx, 16(%rsp)
	movw	4(%rax), %ax
	movw	%ax, 20(%rsp)
	callq	_ZL7func_312S0S_S_
	movq	-256(%rbp), %rdi
	leaq	-112(%rbp), %rax
	movl	(%rax), %ecx
	movl	%ecx, (%rsp)
	movw	4(%rax), %ax
	movw	%ax, 4(%rsp)
	callq	_ZL7func_282S0Pj
	movq	%rax, %rdi
	movl	_ZL5g_793+152(%rip), %eax
                                        # kill: def $ax killed $ax killed $eax
	movswl	%ax, %esi
	callq	_ZL7func_25Pis
	movq	_ZL5g_336(%rip), %rax
	movq	(%rax), %rax
	movw	(%rax), %ax
	movzwl	%ax, %eax
                                        # kill: def $rax killed $eax
	xorq	-232(%rbp), %rax
                                        # kill: def $eax killed $eax killed $rax
	movq	-272(%rbp), %rcx
	movl	%eax, (%rcx)
	cmpl	$0, %eax
	je	.LBB10_7
# %bb.3:
	movw	$-5839, -290(%rbp)              # imm = 0xE931
	leaq	_ZL5g_568(%rip), %rax
	movq	%rax, -304(%rbp)
	leaq	-184(%rbp), %rdi
	leaq	.L__const._ZL7func_18tPjjm.l_1551(%rip), %rsi
	movl	$40, %edx
	callq	memcpy@PLT
	leaq	_ZL5g_474(%rip), %rax
	movq	%rax, -312(%rbp)
	leaq	_ZL5g_794(%rip), %rax
	addq	$2, %rax
	movq	%rax, -320(%rbp)
	movw	-290(%rbp), %ax
	addw	$-1, %ax
	movw	%ax, -290(%rbp)
	movl	-220(%rbp), %eax
                                        # kill: def $al killed $al killed $eax
	movb	%al, -441(%rbp)                 # 1-byte Spill
	cmpq	$0, -280(%rbp)
	setne	%al
	andb	$1, %al
	movzbl	%al, %eax
                                        # kill: def $rax killed $eax
	movq	%rax, -456(%rbp)                # 8-byte Spill
	movzwl	_ZL5g_273+244(%rip), %eax
	movl	%eax, %edi
	movl	$18, %esi
	callq	_ZL29safe_rshift_func_uint64_t_u_umj
	movq	%rax, %rcx
	movq	-456(%rbp), %rax                # 8-byte Reload
	andq	%rcx, %rax
	movl	%eax, %ecx
	movq	-240(%rbp), %rax
	movl	%ecx, (%rax)
	movq	-304(%rbp), %rax
	movb	$102, (%rax)
	movl	$102, %edi
	movl	$80, %esi
	callq	_ZL24safe_mul_func_int8_t_s_saa
	movsbl	%al, %ecx
	movl	%ecx, -440(%rbp)                # 4-byte Spill
	movq	-272(%rbp), %rax
	movl	%ecx, (%rax)
	movl	$11, %esi
	movzwl	-290(%rbp), %edi
	callq	_ZL29safe_rshift_func_uint16_t_u_sti
	movb	-441(%rbp), %cl                 # 1-byte Reload
	movw	%ax, %dx
	movl	-440(%rbp), %eax                # 4-byte Reload
	movzwl	%dx, %edx
	movq	-216(%rbp), %rsi
	xorl	(%rsi), %edx
	movl	%edx, (%rsi)
	andl	%edx, %eax
                                        # kill: def $al killed $al killed $eax
	movzbl	%cl, %edi
	movzbl	%al, %esi
	callq	_ZL25safe_mod_func_uint8_t_u_uhh
	movq	-312(%rbp), %rdi
	leaq	-184(%rbp), %rsi
	movl	$40, %edx
	callq	memcpy@PLT
	movw	$19, _ZL6g_1461(%rip)
# %bb.4:
	movzwl	_ZL6g_1461(%rip), %eax
	cmpl	$48, %eax
	jne	.LBB10_6
# %bb.5:
	movq	-320(%rbp), %rax
	movq	%rax, -200(%rbp)
	jmp	.LBB10_23
.LBB10_6:
	jmp	.LBB10_22
.LBB10_7:
	movl	$2, -324(%rbp)
	movl	$-1240945466, -328(%rbp)        # imm = 0xB608ACC6
	movq	$0, _ZL5g_143+24(%rip)
.LBB10_8:                               # =>This Loop Header: Depth=1
                                        #     Child Loop BB10_10 Depth 2
	cmpq	$20, _ZL5g_143+24(%rip)
	je	.LBB10_21
# %bb.9:                                #   in Loop: Header=BB10_8 Depth=1
	movl	$-1, -188(%rbp)
	leaq	_ZL5g_794(%rip), %rax
	addq	$2, %rax
	movq	%rax, -336(%rbp)
	movq	$0, -344(%rbp)
	leaq	-188(%rbp), %rax
	movq	%rax, -352(%rbp)
	leaq	_ZL6g_1113(%rip), %rax
	movq	%rax, -360(%rbp)
	movq	$0, -368(%rbp)
	movl	$-1687317940, -372(%rbp)        # imm = 0x9B6D924C
	leaq	_ZL5g_585(%rip), %rax
	addq	$24, %rax
	movq	%rax, -384(%rbp)
	leaq	_ZL5g_125(%rip), %rax
	movq	%rax, -392(%rbp)
	movq	$0, -400(%rbp)
	leaq	_ZL5g_220(%rip), %rax
	movq	%rax, -408(%rbp)
	leaq	_ZL5g_284(%rip), %rax
	movq	%rax, -416(%rbp)
	movl	$0, -420(%rbp)
.LBB10_10:                              #   Parent Loop BB10_8 Depth=1
                                        # =>  This Inner Loop Header: Depth=2
	cmpl	$3, -420(%rbp)
	jge	.LBB10_13
# %bb.11:                               #   in Loop: Header=BB10_10 Depth=2
	movslq	-420(%rbp), %rax
	leaq	-188(%rbp), %rcx
	movq	%rcx, -96(%rbp,%rax,8)
# %bb.12:                               #   in Loop: Header=BB10_10 Depth=2
	movl	-420(%rbp), %eax
	addl	$1, %eax
	movl	%eax, -420(%rbp)
	jmp	.LBB10_10
.LBB10_13:                              #   in Loop: Header=BB10_8 Depth=1
	movq	_ZL4g_80(%rip), %rax
	movl	(%rax), %eax
	movl	%eax, -472(%rbp)                # 4-byte Spill
	movq	_ZL4g_80(%rip), %rax
	movl	(%rax), %eax
	movl	%eax, -468(%rbp)                # 4-byte Spill
	movq	_ZL6g_1433(%rip), %rcx
	movswq	(%rcx), %rax
	orq	$22501, %rax                    # imm = 0x57E5
                                        # kill: def $ax killed $ax killed $rax
	movw	%ax, (%rcx)
	movswq	%ax, %rax
	cmpq	-232(%rbp), %rax
	setae	%al
	andb	$1, %al
	movzbl	%al, %eax
	movl	%eax, -464(%rbp)                # 4-byte Spill
	xorl	%eax, %eax
                                        # kill: def $al killed $al killed $eax
	cmpq	$0, -232(%rbp)
	movb	%al, -457(%rbp)                 # 1-byte Spill
	je	.LBB10_15
# %bb.14:                               #   in Loop: Header=BB10_8 Depth=1
	movl	-324(%rbp), %eax
	andl	-188(%rbp), %eax
	movl	%eax, %eax
	movl	%eax, %edi
	movl	$51, %esi
	callq	_ZL29safe_lshift_func_uint64_t_u_umj
	movq	_ZL5g_728(%rip), %rcx
	movzbl	(%rcx), %ecx
                                        # kill: def $rcx killed $ecx
	cmpq	%rcx, %rax
	setne	%al
	xorb	$-1, %al
	movb	%al, -457(%rbp)                 # 1-byte Spill
.LBB10_15:                              #   in Loop: Header=BB10_8 Depth=1
	movb	-457(%rbp), %al                 # 1-byte Reload
	andb	$1, %al
	movzbl	%al, %eax
	movl	-220(%rbp), %ecx
	cmpl	-324(%rbp), %ecx
	seta	%cl
	andb	$1, %cl
	movzbl	%cl, %ecx
	cmpl	%ecx, %eax
	setle	%al
	andb	$1, %al
	movl	$2, %esi
	movsbl	%al, %edi
	callq	_ZL27safe_lshift_func_int8_t_s_uaj
	movl	-464(%rbp), %ecx                # 4-byte Reload
	movb	%al, %dl
	movl	-468(%rbp), %eax                # 4-byte Reload
	movsbl	%dl, %edx
	xorl	-284(%rbp), %edx
	cmpl	%edx, %ecx
	setl	%cl
	andb	$1, %cl
	movzbl	%cl, %ecx
	cmpl	%ecx, %eax
	sete	%al
	andb	$1, %al
	movzbl	%al, %eax
	movl	%eax, %ecx
	andq	$4, %rcx
	movb	$1, %al
	cmpq	$0, %rcx
	movb	%al, -473(%rbp)                 # 1-byte Spill
	jne	.LBB10_17
# %bb.16:                               #   in Loop: Header=BB10_8 Depth=1
	movq	-240(%rbp), %rax
	cmpl	$0, (%rax)
	setne	%al
	movb	%al, -473(%rbp)                 # 1-byte Spill
.LBB10_17:                              #   in Loop: Header=BB10_8 Depth=1
	movb	-473(%rbp), %al                 # 1-byte Reload
	andb	$1, %al
	movzbl	%al, %edi
	movl	$20, %esi
	callq	_ZL29safe_rshift_func_uint32_t_u_ujj
	movl	%eax, %ecx
	movl	-472(%rbp), %eax                # 4-byte Reload
	movq	-336(%rbp), %rdx
	movl	%ecx, (%rdx)
	cmpl	%ecx, %eax
	setbe	%al
	andb	$1, %al
	movzbl	%al, %ecx
	movq	-240(%rbp), %rax
	movl	%ecx, (%rax)
	movq	-272(%rbp), %rax
	xorl	(%rax), %ecx
	movl	%ecx, (%rax)
	movl	-372(%rbp), %eax
	addl	$1, %eax
	movl	%eax, -372(%rbp)
	movl	-220(%rbp), %eax
	movl	%eax, %ecx
	movq	%rcx, -520(%rbp)                # 8-byte Spill
	movq	-384(%rbp), %rax
	movq	%rcx, (%rax)
	movq	-392(%rbp), %rax
	movq	%rcx, (%rax)
	movl	_ZL5g_585+16(%rip), %eax
	shll	$25, %eax
	sarl	$25, %eax
	cltq
	movq	%rax, -512(%rbp)                # 8-byte Spill
	movq	_ZL6g_1430(%rip), %rax
	movq	(%rax), %rax
	movq	(%rax), %rax
	movq	(%rax), %rax
	movswl	(%rax), %eax
	movl	%eax, -500(%rbp)                # 4-byte Spill
	movq	_ZL5g_576(%rip), %rax
	movq	(%rax), %rax
	movq	(%rax), %rdi
	movzwl	_ZL5g_273+56(%rip), %eax
	movl	%eax, %esi
	callq	_ZL25safe_sub_func_int64_t_s_sll
	movq	%rax, -496(%rbp)                # 8-byte Spill
	movl	-328(%rbp), %eax
                                        # kill: def $ax killed $ax killed $eax
	movw	%ax, -482(%rbp)                 # 2-byte Spill
	movl	-324(%rbp), %eax
	movl	%eax, -480(%rbp)                # 4-byte Spill
	movl	_ZL5g_143+16(%rip), %ecx
	shrl	$7, %ecx
	andl	$32767, %ecx                    # imm = 0x7FFF
	xorl	%eax, %eax
                                        # kill: def $al killed $al killed $eax
	cmpl	$0, %ecx
	movb	%al, -474(%rbp)                 # 1-byte Spill
	je	.LBB10_19
# %bb.18:                               #   in Loop: Header=BB10_8 Depth=1
	movq	-408(%rbp), %rax
	movsbq	(%rax), %rcx
	andq	$241, %rcx
                                        # kill: def $cl killed $cl killed $rcx
	movb	%cl, (%rax)
	movq	-272(%rbp), %rax
	movslq	(%rax), %rcx
	movl	$3474925456, %eax               # imm = 0xCF1F2790
	cmpq	%rcx, %rax
	setge	%al
	andb	$1, %al
	movzbl	%al, %edi
	movq	-232(%rbp), %rax
	movl	%eax, %esi
	callq	_ZL28safe_rshift_func_int32_t_s_sii
                                        # kill: def $al killed $al killed $eax
	movl	$4294967289, %esi               # imm = 0xFFFFFFF9
	movsbl	%al, %edi
	callq	_ZL24safe_sub_func_int8_t_s_saa
	movb	$1, %al
	movb	%al, -474(%rbp)                 # 1-byte Spill
.LBB10_19:                              #   in Loop: Header=BB10_8 Depth=1
	movl	-480(%rbp), %edi                # 4-byte Reload
	movb	-474(%rbp), %al                 # 1-byte Reload
	andb	$1, %al
	movzbl	%al, %esi
	callq	_ZL26safe_add_func_uint32_t_u_ujj
	movw	-482(%rbp), %cx                 # 2-byte Reload
	cmpl	-324(%rbp), %eax
	sete	%al
	andb	$1, %al
	movzbl	%al, %eax
                                        # kill: def $ax killed $ax killed $eax
	movzwl	%cx, %edi
	movzwl	%ax, %esi
	callq	_ZL26safe_sub_func_uint16_t_u_utt
	movw	%ax, %cx
	movq	-496(%rbp), %rax                # 8-byte Reload
	movzwl	%cx, %esi
	movq	-416(%rbp), %rdx
	movsbl	(%rdx), %ecx
	orl	%esi, %ecx
                                        # kill: def $cl killed $cl killed $ecx
	movb	%cl, (%rdx)
	movsbl	%cl, %ecx
	movq	_ZL5g_849(%rip), %rdx
	movzbl	(%rdx), %edx
	cmpl	%edx, %ecx
	sete	%cl
	andb	$1, %cl
	movzbl	%cl, %ecx
                                        # kill: def $rcx killed $ecx
	orq	%rcx, %rax
                                        # kill: def $ax killed $ax killed $rax
	movl	$6, %esi
	movswl	%ax, %edi
	callq	_ZL25safe_sub_func_int16_t_s_sss
	movw	%ax, %cx
	movl	-500(%rbp), %eax                # 4-byte Reload
	movswl	%cx, %ecx
	cmpl	%ecx, %eax
	setl	%al
	andb	$1, %al
	movzbl	%al, %eax
	movw	%ax, %cx
	movl	-324(%rbp), %eax
                                        # kill: def $ax killed $ax killed $eax
	movswl	%cx, %edi
	movswl	%ax, %esi
	callq	_ZL25safe_sub_func_int16_t_s_sss
	movq	-512(%rbp), %rdi                # 8-byte Reload
	movswq	%ax, %rsi
	callq	_ZL26safe_div_func_uint64_t_u_umm
	movq	-520(%rbp), %rdi                # 8-byte Reload
	movzbl	_ZL5g_124(%rip), %eax
	movl	%eax, %esi
	callq	_ZL26safe_mul_func_uint64_t_u_umm
	movq	-240(%rbp), %rax
	movslq	(%rax), %rcx
	movabsq	$3701352113, %rdx               # imm = 0xDC9E26B1
	xorq	%rdx, %rcx
                                        # kill: def $ecx killed $ecx killed $rcx
	movl	%ecx, (%rax)
# %bb.20:                               #   in Loop: Header=BB10_8 Depth=1
	movq	_ZL5g_143+24(%rip), %rdi
	movl	$5, %esi
	callq	_ZL26safe_add_func_uint64_t_u_umm
	movq	%rax, _ZL5g_143+24(%rip)
	jmp	.LBB10_8
.LBB10_21:
	jmp	.LBB10_22
.LBB10_22:
	leaq	_ZL3g_7(%rip), %rax
	movq	%rax, -200(%rbp)
.LBB10_23:
	movq	-200(%rbp), %rax
	movq	%rax, -528(%rbp)                # 8-byte Spill
	movq	%fs:40, %rax
	movq	-8(%rbp), %rcx
	cmpq	%rcx, %rax
	jne	.LBB10_25
# %bb.24:
	movq	-528(%rbp), %rax                # 8-byte Reload
	addq	$560, %rsp                      # imm = 0x230
	popq	%rbp
	.cfi_def_cfa %rsp, 8
	retq
.LBB10_25:
	.cfi_def_cfa %rbp, 16
	callq	__stack_chk_fail@PLT
.Lfunc_end10:
	.size	_ZL7func_18tPjjm, .Lfunc_end10-_ZL7func_18tPjjm
	.cfi_endproc
                                        # -- End function
	.p2align	4, 0x90                         # -- Begin function _ZL24safe_div_func_int8_t_s_saa
	.type	_ZL24safe_div_func_int8_t_s_saa,@function
_ZL24safe_div_func_int8_t_s_saa:        # @_ZL24safe_div_func_int8_t_s_saa
	.cfi_startproc
# %bb.0:
	pushq	%rbp
	.cfi_def_cfa_offset 16
	.cfi_offset %rbp, -16
	movq	%rsp, %rbp
	.cfi_def_cfa_register %rbp
	movb	%sil, %al
	movb	%dil, %cl
	movb	%cl, -1(%rbp)
	movb	%al, -2(%rbp)
	movsbl	-2(%rbp), %eax
	cmpl	$0, %eax
	je	.LBB11_3
# %bb.1:
	movsbl	-1(%rbp), %eax
	cmpl	$-128, %eax
	jne	.LBB11_4
# %bb.2:
	movsbl	-2(%rbp), %eax
	cmpl	$-1, %eax
	jne	.LBB11_4
.LBB11_3:
	movsbl	-1(%rbp), %eax
	movl	%eax, -8(%rbp)                  # 4-byte Spill
	jmp	.LBB11_5
.LBB11_4:
	movsbl	-1(%rbp), %eax
	movsbl	-2(%rbp), %ecx
	cltd
	idivl	%ecx
	movl	%eax, -8(%rbp)                  # 4-byte Spill
.LBB11_5:
	movl	-8(%rbp), %eax                  # 4-byte Reload
                                        # kill: def $al killed $al killed $eax
	movsbl	%al, %eax
	popq	%rbp
	.cfi_def_cfa %rsp, 8
	retq
.Lfunc_end11:
	.size	_ZL24safe_div_func_int8_t_s_saa, .Lfunc_end11-_ZL24safe_div_func_int8_t_s_saa
	.cfi_endproc
                                        # -- End function
	.p2align	4, 0x90                         # -- Begin function _ZL24safe_mod_func_int8_t_s_saa
	.type	_ZL24safe_mod_func_int8_t_s_saa,@function
_ZL24safe_mod_func_int8_t_s_saa:        # @_ZL24safe_mod_func_int8_t_s_saa
	.cfi_startproc
# %bb.0:
	pushq	%rbp
	.cfi_def_cfa_offset 16
	.cfi_offset %rbp, -16
	movq	%rsp, %rbp
	.cfi_def_cfa_register %rbp
	movb	%sil, %al
	movb	%dil, %cl
	movb	%cl, -1(%rbp)
	movb	%al, -2(%rbp)
	movsbl	-2(%rbp), %eax
	cmpl	$0, %eax
	je	.LBB12_3
# %bb.1:
	movsbl	-1(%rbp), %eax
	cmpl	$-128, %eax
	jne	.LBB12_4
# %bb.2:
	movsbl	-2(%rbp), %eax
	cmpl	$-1, %eax
	jne	.LBB12_4
.LBB12_3:
	movsbl	-1(%rbp), %edx
	movl	%edx, -8(%rbp)                  # 4-byte Spill
	jmp	.LBB12_5
.LBB12_4:
	movsbl	-1(%rbp), %eax
	movsbl	-2(%rbp), %ecx
	cltd
	idivl	%ecx
	movl	%edx, -8(%rbp)                  # 4-byte Spill
.LBB12_5:
	movl	-8(%rbp), %eax                  # 4-byte Reload
                                        # kill: def $al killed $al killed $eax
	movsbl	%al, %eax
	popq	%rbp
	.cfi_def_cfa %rsp, 8
	retq
.Lfunc_end12:
	.size	_ZL24safe_mod_func_int8_t_s_saa, .Lfunc_end12-_ZL24safe_mod_func_int8_t_s_saa
	.cfi_endproc
                                        # -- End function
	.p2align	4, 0x90                         # -- Begin function _ZL25safe_mul_func_int16_t_s_sss
	.type	_ZL25safe_mul_func_int16_t_s_sss,@function
_ZL25safe_mul_func_int16_t_s_sss:       # @_ZL25safe_mul_func_int16_t_s_sss
	.cfi_startproc
# %bb.0:
	pushq	%rbp
	.cfi_def_cfa_offset 16
	.cfi_offset %rbp, -16
	movq	%rsp, %rbp
	.cfi_def_cfa_register %rbp
	movw	%si, %ax
	movw	%di, %cx
	movw	%cx, -2(%rbp)
	movw	%ax, -4(%rbp)
	movswl	-2(%rbp), %eax
	movswl	-4(%rbp), %ecx
	imull	%ecx, %eax
                                        # kill: def $ax killed $ax killed $eax
	cwtl
	popq	%rbp
	.cfi_def_cfa %rsp, 8
	retq
.Lfunc_end13:
	.size	_ZL25safe_mul_func_int16_t_s_sss, .Lfunc_end13-_ZL25safe_mul_func_int16_t_s_sss
	.cfi_endproc
                                        # -- End function
	.p2align	4, 0x90                         # -- Begin function _ZL32safe_unary_minus_func_uint32_t_uj
	.type	_ZL32safe_unary_minus_func_uint32_t_uj,@function
_ZL32safe_unary_minus_func_uint32_t_uj: # @_ZL32safe_unary_minus_func_uint32_t_uj
	.cfi_startproc
# %bb.0:
	pushq	%rbp
	.cfi_def_cfa_offset 16
	.cfi_offset %rbp, -16
	movq	%rsp, %rbp
	.cfi_def_cfa_register %rbp
	movl	%edi, -4(%rbp)
	xorl	%eax, %eax
	subl	-4(%rbp), %eax
	popq	%rbp
	.cfi_def_cfa %rsp, 8
	retq
.Lfunc_end14:
	.size	_ZL32safe_unary_minus_func_uint32_t_uj, .Lfunc_end14-_ZL32safe_unary_minus_func_uint32_t_uj
	.cfi_endproc
                                        # -- End function
	.p2align	4, 0x90                         # -- Begin function _ZL29safe_rshift_func_uint64_t_u_umj
	.type	_ZL29safe_rshift_func_uint64_t_u_umj,@function
_ZL29safe_rshift_func_uint64_t_u_umj:   # @_ZL29safe_rshift_func_uint64_t_u_umj
	.cfi_startproc
# %bb.0:
	pushq	%rbp
	.cfi_def_cfa_offset 16
	.cfi_offset %rbp, -16
	movq	%rsp, %rbp
	.cfi_def_cfa_register %rbp
	movq	%rdi, -8(%rbp)
	movl	%esi, -12(%rbp)
	cmpl	$32, -12(%rbp)
	jb	.LBB15_2
# %bb.1:
	movq	-8(%rbp), %rax
	movq	%rax, -24(%rbp)                 # 8-byte Spill
	jmp	.LBB15_3
.LBB15_2:
	movq	-8(%rbp), %rax
	movl	-12(%rbp), %ecx
                                        # kill: def $rcx killed $ecx
                                        # kill: def $cl killed $rcx
	shrq	%cl, %rax
	movq	%rax, -24(%rbp)                 # 8-byte Spill
.LBB15_3:
	movq	-24(%rbp), %rax                 # 8-byte Reload
	popq	%rbp
	.cfi_def_cfa %rsp, 8
	retq
.Lfunc_end15:
	.size	_ZL29safe_rshift_func_uint64_t_u_umj, .Lfunc_end15-_ZL29safe_rshift_func_uint64_t_u_umj
	.cfi_endproc
                                        # -- End function
	.p2align	4, 0x90                         # -- Begin function _ZL25safe_add_func_int32_t_s_sii
	.type	_ZL25safe_add_func_int32_t_s_sii,@function
_ZL25safe_add_func_int32_t_s_sii:       # @_ZL25safe_add_func_int32_t_s_sii
	.cfi_startproc
# %bb.0:
	pushq	%rbp
	.cfi_def_cfa_offset 16
	.cfi_offset %rbp, -16
	movq	%rsp, %rbp
	.cfi_def_cfa_register %rbp
	movl	%edi, -4(%rbp)
	movl	%esi, -8(%rbp)
	cmpl	$0, -4(%rbp)
	jle	.LBB16_3
# %bb.1:
	cmpl	$0, -8(%rbp)
	jle	.LBB16_3
# %bb.2:
	movl	-4(%rbp), %eax
	movl	$2147483647, %ecx               # imm = 0x7FFFFFFF
	subl	-8(%rbp), %ecx
	cmpl	%ecx, %eax
	jg	.LBB16_6
.LBB16_3:
	cmpl	$0, -4(%rbp)
	jge	.LBB16_7
# %bb.4:
	cmpl	$0, -8(%rbp)
	jge	.LBB16_7
# %bb.5:
	movl	-4(%rbp), %eax
	movl	$2147483648, %ecx               # imm = 0x80000000
	subl	-8(%rbp), %ecx
	cmpl	%ecx, %eax
	jge	.LBB16_7
.LBB16_6:
	movl	-4(%rbp), %eax
	movl	%eax, -12(%rbp)                 # 4-byte Spill
	jmp	.LBB16_8
.LBB16_7:
	movl	-4(%rbp), %eax
	addl	-8(%rbp), %eax
	movl	%eax, -12(%rbp)                 # 4-byte Spill
.LBB16_8:
	movl	-12(%rbp), %eax                 # 4-byte Reload
	popq	%rbp
	.cfi_def_cfa %rsp, 8
	retq
.Lfunc_end16:
	.size	_ZL25safe_add_func_int32_t_s_sii, .Lfunc_end16-_ZL25safe_add_func_int32_t_s_sii
	.cfi_endproc
                                        # -- End function
	.p2align	4, 0x90                         # -- Begin function _ZL24safe_mul_func_int8_t_s_saa
	.type	_ZL24safe_mul_func_int8_t_s_saa,@function
_ZL24safe_mul_func_int8_t_s_saa:        # @_ZL24safe_mul_func_int8_t_s_saa
	.cfi_startproc
# %bb.0:
	pushq	%rbp
	.cfi_def_cfa_offset 16
	.cfi_offset %rbp, -16
	movq	%rsp, %rbp
	.cfi_def_cfa_register %rbp
	movb	%sil, %al
	movb	%dil, %cl
	movb	%cl, -1(%rbp)
	movb	%al, -2(%rbp)
	movsbl	-1(%rbp), %eax
	movsbl	-2(%rbp), %ecx
	imull	%ecx, %eax
                                        # kill: def $al killed $al killed $eax
	movsbl	%al, %eax
	popq	%rbp
	.cfi_def_cfa %rsp, 8
	retq
.Lfunc_end17:
	.size	_ZL24safe_mul_func_int8_t_s_saa, .Lfunc_end17-_ZL24safe_mul_func_int8_t_s_saa
	.cfi_endproc
                                        # -- End function
	.p2align	4, 0x90                         # -- Begin function _ZL25safe_mod_func_int16_t_s_sss
	.type	_ZL25safe_mod_func_int16_t_s_sss,@function
_ZL25safe_mod_func_int16_t_s_sss:       # @_ZL25safe_mod_func_int16_t_s_sss
	.cfi_startproc
# %bb.0:
	pushq	%rbp
	.cfi_def_cfa_offset 16
	.cfi_offset %rbp, -16
	movq	%rsp, %rbp
	.cfi_def_cfa_register %rbp
	movw	%si, %ax
	movw	%di, %cx
	movw	%cx, -2(%rbp)
	movw	%ax, -4(%rbp)
	movswl	-4(%rbp), %eax
	cmpl	$0, %eax
	je	.LBB18_3
# %bb.1:
	movswl	-2(%rbp), %eax
	cmpl	$-32768, %eax                   # imm = 0x8000
	jne	.LBB18_4
# %bb.2:
	movswl	-4(%rbp), %eax
	cmpl	$-1, %eax
	jne	.LBB18_4
.LBB18_3:
	movswl	-2(%rbp), %edx
	movl	%edx, -8(%rbp)                  # 4-byte Spill
	jmp	.LBB18_5
.LBB18_4:
	movswl	-2(%rbp), %eax
	movswl	-4(%rbp), %ecx
	cltd
	idivl	%ecx
	movl	%edx, -8(%rbp)                  # 4-byte Spill
.LBB18_5:
	movl	-8(%rbp), %eax                  # 4-byte Reload
                                        # kill: def $ax killed $ax killed $eax
	cwtl
	popq	%rbp
	.cfi_def_cfa %rsp, 8
	retq
.Lfunc_end18:
	.size	_ZL25safe_mod_func_int16_t_s_sss, .Lfunc_end18-_ZL25safe_mod_func_int16_t_s_sss
	.cfi_endproc
                                        # -- End function
	.p2align	4, 0x90                         # -- Begin function _ZL25safe_div_func_int32_t_s_sii
	.type	_ZL25safe_div_func_int32_t_s_sii,@function
_ZL25safe_div_func_int32_t_s_sii:       # @_ZL25safe_div_func_int32_t_s_sii
	.cfi_startproc
# %bb.0:
	pushq	%rbp
	.cfi_def_cfa_offset 16
	.cfi_offset %rbp, -16
	movq	%rsp, %rbp
	.cfi_def_cfa_register %rbp
	movl	%edi, -4(%rbp)
	movl	%esi, -8(%rbp)
	cmpl	$0, -8(%rbp)
	je	.LBB19_3
# %bb.1:
	cmpl	$-2147483648, -4(%rbp)          # imm = 0x80000000
	jne	.LBB19_4
# %bb.2:
	cmpl	$-1, -8(%rbp)
	jne	.LBB19_4
.LBB19_3:
	movl	-4(%rbp), %eax
	movl	%eax, -12(%rbp)                 # 4-byte Spill
	jmp	.LBB19_5
.LBB19_4:
	movl	-4(%rbp), %eax
	cltd
	idivl	-8(%rbp)
	movl	%eax, -12(%rbp)                 # 4-byte Spill
.LBB19_5:
	movl	-12(%rbp), %eax                 # 4-byte Reload
	popq	%rbp
	.cfi_def_cfa %rsp, 8
	retq
.Lfunc_end19:
	.size	_ZL25safe_div_func_int32_t_s_sii, .Lfunc_end19-_ZL25safe_div_func_int32_t_s_sii
	.cfi_endproc
                                        # -- End function
	.p2align	4, 0x90                         # -- Begin function _ZL24safe_sub_func_int8_t_s_saa
	.type	_ZL24safe_sub_func_int8_t_s_saa,@function
_ZL24safe_sub_func_int8_t_s_saa:        # @_ZL24safe_sub_func_int8_t_s_saa
	.cfi_startproc
# %bb.0:
	pushq	%rbp
	.cfi_def_cfa_offset 16
	.cfi_offset %rbp, -16
	movq	%rsp, %rbp
	.cfi_def_cfa_register %rbp
	movb	%sil, %al
	movb	%dil, %cl
	movb	%cl, -1(%rbp)
	movb	%al, -2(%rbp)
	movsbl	-1(%rbp), %eax
	movsbl	-2(%rbp), %ecx
	subl	%ecx, %eax
                                        # kill: def $al killed $al killed $eax
	movsbl	%al, %eax
	popq	%rbp
	.cfi_def_cfa %rsp, 8
	retq
.Lfunc_end20:
	.size	_ZL24safe_sub_func_int8_t_s_saa, .Lfunc_end20-_ZL24safe_sub_func_int8_t_s_saa
	.cfi_endproc
                                        # -- End function
	.p2align	4, 0x90                         # -- Begin function _ZL28safe_lshift_func_int16_t_s_usj
	.type	_ZL28safe_lshift_func_int16_t_s_usj,@function
_ZL28safe_lshift_func_int16_t_s_usj:    # @_ZL28safe_lshift_func_int16_t_s_usj
	.cfi_startproc
# %bb.0:
	pushq	%rbp
	.cfi_def_cfa_offset 16
	.cfi_offset %rbp, -16
	movq	%rsp, %rbp
	.cfi_def_cfa_register %rbp
	movw	%di, %ax
	movw	%ax, -2(%rbp)
	movl	%esi, -8(%rbp)
	movswl	-2(%rbp), %eax
	cmpl	$0, %eax
	jl	.LBB21_3
# %bb.1:
	cmpl	$32, -8(%rbp)
	jae	.LBB21_3
# %bb.2:
	movswl	-2(%rbp), %eax
	movl	-8(%rbp), %ecx
	movl	$32767, %edx                    # imm = 0x7FFF
                                        # kill: def $cl killed $ecx
	sarl	%cl, %edx
	movl	%edx, %ecx
	cmpl	%ecx, %eax
	jle	.LBB21_4
.LBB21_3:
	movswl	-2(%rbp), %eax
	movl	%eax, -12(%rbp)                 # 4-byte Spill
	jmp	.LBB21_5
.LBB21_4:
	movswl	-2(%rbp), %eax
	movl	-8(%rbp), %ecx
                                        # kill: def $cl killed $ecx
	shll	%cl, %eax
	movl	%eax, -12(%rbp)                 # 4-byte Spill
.LBB21_5:
	movl	-12(%rbp), %eax                 # 4-byte Reload
                                        # kill: def $ax killed $ax killed $eax
	cwtl
	popq	%rbp
	.cfi_def_cfa %rsp, 8
	retq
.Lfunc_end21:
	.size	_ZL28safe_lshift_func_int16_t_s_usj, .Lfunc_end21-_ZL28safe_lshift_func_int16_t_s_usj
	.cfi_endproc
                                        # -- End function
	.p2align	4, 0x90                         # -- Begin function _ZL26safe_add_func_uint32_t_u_ujj
	.type	_ZL26safe_add_func_uint32_t_u_ujj,@function
_ZL26safe_add_func_uint32_t_u_ujj:      # @_ZL26safe_add_func_uint32_t_u_ujj
	.cfi_startproc
# %bb.0:
	pushq	%rbp
	.cfi_def_cfa_offset 16
	.cfi_offset %rbp, -16
	movq	%rsp, %rbp
	.cfi_def_cfa_register %rbp
	movl	%edi, -4(%rbp)
	movl	%esi, -8(%rbp)
	movl	-4(%rbp), %eax
	addl	-8(%rbp), %eax
	popq	%rbp
	.cfi_def_cfa %rsp, 8
	retq
.Lfunc_end22:
	.size	_ZL26safe_add_func_uint32_t_u_ujj, .Lfunc_end22-_ZL26safe_add_func_uint32_t_u_ujj
	.cfi_endproc
                                        # -- End function
	.p2align	4, 0x90                         # -- Begin function _ZL7func_282S0Pj
	.type	_ZL7func_282S0Pj,@function
_ZL7func_282S0Pj:                       # @_ZL7func_282S0Pj
	.cfi_startproc
# %bb.0:
	pushq	%rbp
	.cfi_def_cfa_offset 16
	.cfi_offset %rbp, -16
	movq	%rsp, %rbp
	.cfi_def_cfa_register %rbp
	movq	%rdi, -8(%rbp)
	leaq	_ZL4g_24(%rip), %rax
	movq	%rax, -16(%rbp)
	leaq	_ZL4g_97(%rip), %rax
	movq	%rax, -24(%rbp)
	movq	-16(%rbp), %rcx
	movq	-24(%rbp), %rax
	movq	%rcx, (%rax)
	movl	$22, _ZL5g_790+2(%rip)
.LBB23_1:                               # =>This Inner Loop Header: Depth=1
	cmpl	$20, _ZL5g_790+2(%rip)
	ja	.LBB23_6
# %bb.2:                                #   in Loop: Header=BB23_1 Depth=1
	movw	$3, -26(%rbp)
	cmpw	$0, -26(%rbp)
	je	.LBB23_4
# %bb.3:
	jmp	.LBB23_6
.LBB23_4:                               #   in Loop: Header=BB23_1 Depth=1
	jmp	.LBB23_5
.LBB23_5:                               #   in Loop: Header=BB23_1 Depth=1
	movl	_ZL5g_790+2(%rip), %eax
	addl	$-1, %eax
	movl	%eax, _ZL5g_790+2(%rip)
	jmp	.LBB23_1
.LBB23_6:
	leaq	_ZL6g_1113(%rip), %rax
	popq	%rbp
	.cfi_def_cfa %rsp, 8
	retq
.Lfunc_end23:
	.size	_ZL7func_282S0Pj, .Lfunc_end23-_ZL7func_282S0Pj
	.cfi_endproc
                                        # -- End function
	.p2align	4, 0x90                         # -- Begin function _ZL27safe_rshift_func_int8_t_s_uaj
	.type	_ZL27safe_rshift_func_int8_t_s_uaj,@function
_ZL27safe_rshift_func_int8_t_s_uaj:     # @_ZL27safe_rshift_func_int8_t_s_uaj
	.cfi_startproc
# %bb.0:
	pushq	%rbp
	.cfi_def_cfa_offset 16
	.cfi_offset %rbp, -16
	movq	%rsp, %rbp
	.cfi_def_cfa_register %rbp
	movb	%dil, %al
	movb	%al, -1(%rbp)
	movl	%esi, -8(%rbp)
	movsbl	-1(%rbp), %eax
	cmpl	$0, %eax
	jl	.LBB24_2
# %bb.1:
	cmpl	$32, -8(%rbp)
	jb	.LBB24_3
.LBB24_2:
	movsbl	-1(%rbp), %eax
	movl	%eax, -12(%rbp)                 # 4-byte Spill
	jmp	.LBB24_4
.LBB24_3:
	movsbl	-1(%rbp), %eax
	movl	-8(%rbp), %ecx
                                        # kill: def $cl killed $ecx
	sarl	%cl, %eax
	movl	%eax, -12(%rbp)                 # 4-byte Spill
.LBB24_4:
	movl	-12(%rbp), %eax                 # 4-byte Reload
                                        # kill: def $al killed $al killed $eax
	movsbl	%al, %eax
	popq	%rbp
	.cfi_def_cfa %rsp, 8
	retq
.Lfunc_end24:
	.size	_ZL27safe_rshift_func_int8_t_s_uaj, .Lfunc_end24-_ZL27safe_rshift_func_int8_t_s_uaj
	.cfi_endproc
                                        # -- End function
	.p2align	4, 0x90                         # -- Begin function _ZL26safe_div_func_uint64_t_u_umm
	.type	_ZL26safe_div_func_uint64_t_u_umm,@function
_ZL26safe_div_func_uint64_t_u_umm:      # @_ZL26safe_div_func_uint64_t_u_umm
	.cfi_startproc
# %bb.0:
	pushq	%rbp
	.cfi_def_cfa_offset 16
	.cfi_offset %rbp, -16
	movq	%rsp, %rbp
	.cfi_def_cfa_register %rbp
	movq	%rdi, -8(%rbp)
	movq	%rsi, -16(%rbp)
	cmpq	$0, -16(%rbp)
	jne	.LBB25_2
# %bb.1:
	movq	-8(%rbp), %rax
	movq	%rax, -24(%rbp)                 # 8-byte Spill
	jmp	.LBB25_3
.LBB25_2:
	movq	-8(%rbp), %rax
	xorl	%ecx, %ecx
	movl	%ecx, %edx
	divq	-16(%rbp)
	movq	%rax, -24(%rbp)                 # 8-byte Spill
.LBB25_3:
	movq	-24(%rbp), %rax                 # 8-byte Reload
	popq	%rbp
	.cfi_def_cfa %rsp, 8
	retq
.Lfunc_end25:
	.size	_ZL26safe_div_func_uint64_t_u_umm, .Lfunc_end25-_ZL26safe_div_func_uint64_t_u_umm
	.cfi_endproc
                                        # -- End function
	.p2align	4, 0x90                         # -- Begin function _ZL25safe_sub_func_int32_t_s_sii
	.type	_ZL25safe_sub_func_int32_t_s_sii,@function
_ZL25safe_sub_func_int32_t_s_sii:       # @_ZL25safe_sub_func_int32_t_s_sii
	.cfi_startproc
# %bb.0:
	pushq	%rbp
	.cfi_def_cfa_offset 16
	.cfi_offset %rbp, -16
	movq	%rsp, %rbp
	.cfi_def_cfa_register %rbp
	movl	%edi, -4(%rbp)
	movl	%esi, -8(%rbp)
	movl	-4(%rbp), %eax
	xorl	-8(%rbp), %eax
	movl	-4(%rbp), %ecx
	movl	-4(%rbp), %edx
	xorl	-8(%rbp), %edx
	andl	$-2147483648, %edx              # imm = 0x80000000
	xorl	%edx, %ecx
	subl	-8(%rbp), %ecx
	xorl	-8(%rbp), %ecx
	andl	%ecx, %eax
	cmpl	$0, %eax
	jge	.LBB26_2
# %bb.1:
	movl	-4(%rbp), %eax
	movl	%eax, -12(%rbp)                 # 4-byte Spill
	jmp	.LBB26_3
.LBB26_2:
	movl	-4(%rbp), %eax
	subl	-8(%rbp), %eax
	movl	%eax, -12(%rbp)                 # 4-byte Spill
.LBB26_3:
	movl	-12(%rbp), %eax                 # 4-byte Reload
	popq	%rbp
	.cfi_def_cfa %rsp, 8
	retq
.Lfunc_end26:
	.size	_ZL25safe_sub_func_int32_t_s_sii, .Lfunc_end26-_ZL25safe_sub_func_int32_t_s_sii
	.cfi_endproc
                                        # -- End function
	.p2align	4, 0x90                         # -- Begin function _ZL28safe_rshift_func_int32_t_s_uij
	.type	_ZL28safe_rshift_func_int32_t_s_uij,@function
_ZL28safe_rshift_func_int32_t_s_uij:    # @_ZL28safe_rshift_func_int32_t_s_uij
	.cfi_startproc
# %bb.0:
	pushq	%rbp
	.cfi_def_cfa_offset 16
	.cfi_offset %rbp, -16
	movq	%rsp, %rbp
	.cfi_def_cfa_register %rbp
	movl	%edi, -4(%rbp)
	movl	%esi, -8(%rbp)
	cmpl	$0, -4(%rbp)
	jl	.LBB27_2
# %bb.1:
	cmpl	$32, -8(%rbp)
	jb	.LBB27_3
.LBB27_2:
	movl	-4(%rbp), %eax
	movl	%eax, -12(%rbp)                 # 4-byte Spill
	jmp	.LBB27_4
.LBB27_3:
	movl	-4(%rbp), %eax
	movl	-8(%rbp), %ecx
                                        # kill: def $cl killed $ecx
	sarl	%cl, %eax
	movl	%eax, -12(%rbp)                 # 4-byte Spill
.LBB27_4:
	movl	-12(%rbp), %eax                 # 4-byte Reload
	popq	%rbp
	.cfi_def_cfa %rsp, 8
	retq
.Lfunc_end27:
	.size	_ZL28safe_rshift_func_int32_t_s_uij, .Lfunc_end27-_ZL28safe_rshift_func_int32_t_s_uij
	.cfi_endproc
                                        # -- End function
	.p2align	4, 0x90                         # -- Begin function _ZL29safe_rshift_func_uint64_t_u_smi
	.type	_ZL29safe_rshift_func_uint64_t_u_smi,@function
_ZL29safe_rshift_func_uint64_t_u_smi:   # @_ZL29safe_rshift_func_uint64_t_u_smi
	.cfi_startproc
# %bb.0:
	pushq	%rbp
	.cfi_def_cfa_offset 16
	.cfi_offset %rbp, -16
	movq	%rsp, %rbp
	.cfi_def_cfa_register %rbp
	movq	%rdi, -8(%rbp)
	movl	%esi, -12(%rbp)
	cmpl	$0, -12(%rbp)
	jl	.LBB28_2
# %bb.1:
	cmpl	$32, -12(%rbp)
	jl	.LBB28_3
.LBB28_2:
	movq	-8(%rbp), %rax
	movq	%rax, -24(%rbp)                 # 8-byte Spill
	jmp	.LBB28_4
.LBB28_3:
	movq	-8(%rbp), %rax
	movl	-12(%rbp), %ecx
                                        # kill: def $rcx killed $ecx
                                        # kill: def $cl killed $rcx
	shrq	%cl, %rax
	movq	%rax, -24(%rbp)                 # 8-byte Spill
.LBB28_4:
	movq	-24(%rbp), %rax                 # 8-byte Reload
	popq	%rbp
	.cfi_def_cfa %rsp, 8
	retq
.Lfunc_end28:
	.size	_ZL29safe_rshift_func_uint64_t_u_smi, .Lfunc_end28-_ZL29safe_rshift_func_uint64_t_u_smi
	.cfi_endproc
                                        # -- End function
	.p2align	4, 0x90                         # -- Begin function _ZL29safe_rshift_func_uint32_t_u_sji
	.type	_ZL29safe_rshift_func_uint32_t_u_sji,@function
_ZL29safe_rshift_func_uint32_t_u_sji:   # @_ZL29safe_rshift_func_uint32_t_u_sji
	.cfi_startproc
# %bb.0:
	pushq	%rbp
	.cfi_def_cfa_offset 16
	.cfi_offset %rbp, -16
	movq	%rsp, %rbp
	.cfi_def_cfa_register %rbp
	movl	%edi, -4(%rbp)
	movl	%esi, -8(%rbp)
	cmpl	$0, -8(%rbp)
	jl	.LBB29_2
# %bb.1:
	cmpl	$32, -8(%rbp)
	jl	.LBB29_3
.LBB29_2:
	movl	-4(%rbp), %eax
	movl	%eax, -12(%rbp)                 # 4-byte Spill
	jmp	.LBB29_4
.LBB29_3:
	movl	-4(%rbp), %eax
	movl	-8(%rbp), %ecx
                                        # kill: def $cl killed $ecx
	shrl	%cl, %eax
	movl	%eax, -12(%rbp)                 # 4-byte Spill
.LBB29_4:
	movl	-12(%rbp), %eax                 # 4-byte Reload
	popq	%rbp
	.cfi_def_cfa %rsp, 8
	retq
.Lfunc_end29:
	.size	_ZL29safe_rshift_func_uint32_t_u_sji, .Lfunc_end29-_ZL29safe_rshift_func_uint32_t_u_sji
	.cfi_endproc
                                        # -- End function
	.p2align	4, 0x90                         # -- Begin function _ZL26safe_mul_func_uint32_t_u_ujj
	.type	_ZL26safe_mul_func_uint32_t_u_ujj,@function
_ZL26safe_mul_func_uint32_t_u_ujj:      # @_ZL26safe_mul_func_uint32_t_u_ujj
	.cfi_startproc
# %bb.0:
	pushq	%rbp
	.cfi_def_cfa_offset 16
	.cfi_offset %rbp, -16
	movq	%rsp, %rbp
	.cfi_def_cfa_register %rbp
	movl	%edi, -4(%rbp)
	movl	%esi, -8(%rbp)
	movl	-4(%rbp), %eax
	imull	-8(%rbp), %eax
	popq	%rbp
	.cfi_def_cfa %rsp, 8
	retq
.Lfunc_end30:
	.size	_ZL26safe_mul_func_uint32_t_u_ujj, .Lfunc_end30-_ZL26safe_mul_func_uint32_t_u_ujj
	.cfi_endproc
                                        # -- End function
	.p2align	4, 0x90                         # -- Begin function _ZL25safe_add_func_int16_t_s_sss
	.type	_ZL25safe_add_func_int16_t_s_sss,@function
_ZL25safe_add_func_int16_t_s_sss:       # @_ZL25safe_add_func_int16_t_s_sss
	.cfi_startproc
# %bb.0:
	pushq	%rbp
	.cfi_def_cfa_offset 16
	.cfi_offset %rbp, -16
	movq	%rsp, %rbp
	.cfi_def_cfa_register %rbp
	movw	%si, %ax
	movw	%di, %cx
	movw	%cx, -2(%rbp)
	movw	%ax, -4(%rbp)
	movswl	-2(%rbp), %eax
	movswl	-4(%rbp), %ecx
	addl	%ecx, %eax
                                        # kill: def $ax killed $ax killed $eax
	cwtl
	popq	%rbp
	.cfi_def_cfa %rsp, 8
	retq
.Lfunc_end31:
	.size	_ZL25safe_add_func_int16_t_s_sss, .Lfunc_end31-_ZL25safe_add_func_int16_t_s_sss
	.cfi_endproc
                                        # -- End function
	.p2align	4, 0x90                         # -- Begin function _ZL26safe_add_func_uint16_t_u_utt
	.type	_ZL26safe_add_func_uint16_t_u_utt,@function
_ZL26safe_add_func_uint16_t_u_utt:      # @_ZL26safe_add_func_uint16_t_u_utt
	.cfi_startproc
# %bb.0:
	pushq	%rbp
	.cfi_def_cfa_offset 16
	.cfi_offset %rbp, -16
	movq	%rsp, %rbp
	.cfi_def_cfa_register %rbp
	movw	%si, %ax
	movw	%di, %cx
	movw	%cx, -2(%rbp)
	movw	%ax, -4(%rbp)
	movzwl	-2(%rbp), %eax
	movzwl	-4(%rbp), %ecx
	addl	%ecx, %eax
                                        # kill: def $ax killed $ax killed $eax
	movzwl	%ax, %eax
	popq	%rbp
	.cfi_def_cfa %rsp, 8
	retq
.Lfunc_end32:
	.size	_ZL26safe_add_func_uint16_t_u_utt, .Lfunc_end32-_ZL26safe_add_func_uint16_t_u_utt
	.cfi_endproc
                                        # -- End function
	.p2align	4, 0x90                         # -- Begin function _ZL25safe_sub_func_int16_t_s_sss
	.type	_ZL25safe_sub_func_int16_t_s_sss,@function
_ZL25safe_sub_func_int16_t_s_sss:       # @_ZL25safe_sub_func_int16_t_s_sss
	.cfi_startproc
# %bb.0:
	pushq	%rbp
	.cfi_def_cfa_offset 16
	.cfi_offset %rbp, -16
	movq	%rsp, %rbp
	.cfi_def_cfa_register %rbp
	movw	%si, %ax
	movw	%di, %cx
	movw	%cx, -2(%rbp)
	movw	%ax, -4(%rbp)
	movswl	-2(%rbp), %eax
	movswl	-4(%rbp), %ecx
	subl	%ecx, %eax
                                        # kill: def $ax killed $ax killed $eax
	cwtl
	popq	%rbp
	.cfi_def_cfa %rsp, 8
	retq
.Lfunc_end33:
	.size	_ZL25safe_sub_func_int16_t_s_sss, .Lfunc_end33-_ZL25safe_sub_func_int16_t_s_sss
	.cfi_endproc
                                        # -- End function
	.p2align	4, 0x90                         # -- Begin function _ZL25safe_div_func_uint8_t_u_uhh
	.type	_ZL25safe_div_func_uint8_t_u_uhh,@function
_ZL25safe_div_func_uint8_t_u_uhh:       # @_ZL25safe_div_func_uint8_t_u_uhh
	.cfi_startproc
# %bb.0:
	pushq	%rbp
	.cfi_def_cfa_offset 16
	.cfi_offset %rbp, -16
	movq	%rsp, %rbp
	.cfi_def_cfa_register %rbp
	movb	%sil, %al
	movb	%dil, %cl
	movb	%cl, -1(%rbp)
	movb	%al, -2(%rbp)
	movzbl	-2(%rbp), %eax
	cmpl	$0, %eax
	jne	.LBB34_2
# %bb.1:
	movzbl	-1(%rbp), %eax
	movl	%eax, -8(%rbp)                  # 4-byte Spill
	jmp	.LBB34_3
.LBB34_2:
	movzbl	-1(%rbp), %eax
	movzbl	-2(%rbp), %ecx
	cltd
	idivl	%ecx
	movl	%eax, -8(%rbp)                  # 4-byte Spill
.LBB34_3:
	movl	-8(%rbp), %eax                  # 4-byte Reload
                                        # kill: def $al killed $al killed $eax
	movzbl	%al, %eax
	popq	%rbp
	.cfi_def_cfa %rsp, 8
	retq
.Lfunc_end34:
	.size	_ZL25safe_div_func_uint8_t_u_uhh, .Lfunc_end34-_ZL25safe_div_func_uint8_t_u_uhh
	.cfi_endproc
                                        # -- End function
	.p2align	4, 0x90                         # -- Begin function _ZL26safe_add_func_uint64_t_u_umm
	.type	_ZL26safe_add_func_uint64_t_u_umm,@function
_ZL26safe_add_func_uint64_t_u_umm:      # @_ZL26safe_add_func_uint64_t_u_umm
	.cfi_startproc
# %bb.0:
	pushq	%rbp
	.cfi_def_cfa_offset 16
	.cfi_offset %rbp, -16
	movq	%rsp, %rbp
	.cfi_def_cfa_register %rbp
	movq	%rdi, -8(%rbp)
	movq	%rsi, -16(%rbp)
	movq	-8(%rbp), %rax
	addq	-16(%rbp), %rax
	popq	%rbp
	.cfi_def_cfa %rsp, 8
	retq
.Lfunc_end35:
	.size	_ZL26safe_add_func_uint64_t_u_umm, .Lfunc_end35-_ZL26safe_add_func_uint64_t_u_umm
	.cfi_endproc
                                        # -- End function
	.p2align	4, 0x90                         # -- Begin function _ZL26safe_sub_func_uint32_t_u_ujj
	.type	_ZL26safe_sub_func_uint32_t_u_ujj,@function
_ZL26safe_sub_func_uint32_t_u_ujj:      # @_ZL26safe_sub_func_uint32_t_u_ujj
	.cfi_startproc
# %bb.0:
	pushq	%rbp
	.cfi_def_cfa_offset 16
	.cfi_offset %rbp, -16
	movq	%rsp, %rbp
	.cfi_def_cfa_register %rbp
	movl	%edi, -4(%rbp)
	movl	%esi, -8(%rbp)
	movl	-4(%rbp), %eax
	subl	-8(%rbp), %eax
	popq	%rbp
	.cfi_def_cfa %rsp, 8
	retq
.Lfunc_end36:
	.size	_ZL26safe_sub_func_uint32_t_u_ujj, .Lfunc_end36-_ZL26safe_sub_func_uint32_t_u_ujj
	.cfi_endproc
                                        # -- End function
	.p2align	4, 0x90                         # -- Begin function _ZL25safe_div_func_int64_t_s_sll
	.type	_ZL25safe_div_func_int64_t_s_sll,@function
_ZL25safe_div_func_int64_t_s_sll:       # @_ZL25safe_div_func_int64_t_s_sll
	.cfi_startproc
# %bb.0:
	pushq	%rbp
	.cfi_def_cfa_offset 16
	.cfi_offset %rbp, -16
	movq	%rsp, %rbp
	.cfi_def_cfa_register %rbp
	movq	%rdi, -8(%rbp)
	movq	%rsi, -16(%rbp)
	cmpq	$0, -16(%rbp)
	je	.LBB37_3
# %bb.1:
	movabsq	$-9223372036854775808, %rax     # imm = 0x8000000000000000
	cmpq	%rax, -8(%rbp)
	jne	.LBB37_4
# %bb.2:
	cmpq	$-1, -16(%rbp)
	jne	.LBB37_4
.LBB37_3:
	movq	-8(%rbp), %rax
	movq	%rax, -24(%rbp)                 # 8-byte Spill
	jmp	.LBB37_5
.LBB37_4:
	movq	-8(%rbp), %rax
	cqto
	idivq	-16(%rbp)
	movq	%rax, -24(%rbp)                 # 8-byte Spill
.LBB37_5:
	movq	-24(%rbp), %rax                 # 8-byte Reload
	popq	%rbp
	.cfi_def_cfa %rsp, 8
	retq
.Lfunc_end37:
	.size	_ZL25safe_div_func_int64_t_s_sll, .Lfunc_end37-_ZL25safe_div_func_int64_t_s_sll
	.cfi_endproc
                                        # -- End function
	.p2align	4, 0x90                         # -- Begin function _ZL29safe_lshift_func_uint16_t_u_utj
	.type	_ZL29safe_lshift_func_uint16_t_u_utj,@function
_ZL29safe_lshift_func_uint16_t_u_utj:   # @_ZL29safe_lshift_func_uint16_t_u_utj
	.cfi_startproc
# %bb.0:
	pushq	%rbp
	.cfi_def_cfa_offset 16
	.cfi_offset %rbp, -16
	movq	%rsp, %rbp
	.cfi_def_cfa_register %rbp
	movw	%di, %ax
	movw	%ax, -2(%rbp)
	movl	%esi, -8(%rbp)
	cmpl	$32, -8(%rbp)
	jae	.LBB38_2
# %bb.1:
	movzwl	-2(%rbp), %eax
	movl	-8(%rbp), %ecx
	movl	$65535, %edx                    # imm = 0xFFFF
                                        # kill: def $cl killed $ecx
	sarl	%cl, %edx
	movl	%edx, %ecx
	cmpl	%ecx, %eax
	jle	.LBB38_3
.LBB38_2:
	movzwl	-2(%rbp), %eax
	movl	%eax, -12(%rbp)                 # 4-byte Spill
	jmp	.LBB38_4
.LBB38_3:
	movzwl	-2(%rbp), %eax
	movl	-8(%rbp), %ecx
                                        # kill: def $cl killed $ecx
	shll	%cl, %eax
	movl	%eax, -12(%rbp)                 # 4-byte Spill
.LBB38_4:
	movl	-12(%rbp), %eax                 # 4-byte Reload
                                        # kill: def $ax killed $ax killed $eax
	movzwl	%ax, %eax
	popq	%rbp
	.cfi_def_cfa %rsp, 8
	retq
.Lfunc_end38:
	.size	_ZL29safe_lshift_func_uint16_t_u_utj, .Lfunc_end38-_ZL29safe_lshift_func_uint16_t_u_utj
	.cfi_endproc
                                        # -- End function
	.p2align	4, 0x90                         # -- Begin function _ZL26safe_mod_func_uint32_t_u_ujj
	.type	_ZL26safe_mod_func_uint32_t_u_ujj,@function
_ZL26safe_mod_func_uint32_t_u_ujj:      # @_ZL26safe_mod_func_uint32_t_u_ujj
	.cfi_startproc
# %bb.0:
	pushq	%rbp
	.cfi_def_cfa_offset 16
	.cfi_offset %rbp, -16
	movq	%rsp, %rbp
	.cfi_def_cfa_register %rbp
	movl	%edi, -4(%rbp)
	movl	%esi, -8(%rbp)
	cmpl	$0, -8(%rbp)
	jne	.LBB39_2
# %bb.1:
	movl	-4(%rbp), %edx
	movl	%edx, -12(%rbp)                 # 4-byte Spill
	jmp	.LBB39_3
.LBB39_2:
	movl	-4(%rbp), %eax
	xorl	%edx, %edx
	divl	-8(%rbp)
	movl	%edx, -12(%rbp)                 # 4-byte Spill
.LBB39_3:
	movl	-12(%rbp), %eax                 # 4-byte Reload
	popq	%rbp
	.cfi_def_cfa %rsp, 8
	retq
.Lfunc_end39:
	.size	_ZL26safe_mod_func_uint32_t_u_ujj, .Lfunc_end39-_ZL26safe_mod_func_uint32_t_u_ujj
	.cfi_endproc
                                        # -- End function
	.p2align	4, 0x90                         # -- Begin function _ZL25safe_add_func_int64_t_s_sll
	.type	_ZL25safe_add_func_int64_t_s_sll,@function
_ZL25safe_add_func_int64_t_s_sll:       # @_ZL25safe_add_func_int64_t_s_sll
	.cfi_startproc
# %bb.0:
	pushq	%rbp
	.cfi_def_cfa_offset 16
	.cfi_offset %rbp, -16
	movq	%rsp, %rbp
	.cfi_def_cfa_register %rbp
	movq	%rdi, -8(%rbp)
	movq	%rsi, -16(%rbp)
	cmpq	$0, -8(%rbp)
	jle	.LBB40_3
# %bb.1:
	cmpq	$0, -16(%rbp)
	jle	.LBB40_3
# %bb.2:
	movq	-8(%rbp), %rax
	movabsq	$9223372036854775807, %rcx      # imm = 0x7FFFFFFFFFFFFFFF
	subq	-16(%rbp), %rcx
	cmpq	%rcx, %rax
	jg	.LBB40_6
.LBB40_3:
	cmpq	$0, -8(%rbp)
	jge	.LBB40_7
# %bb.4:
	cmpq	$0, -16(%rbp)
	jge	.LBB40_7
# %bb.5:
	movq	-8(%rbp), %rax
	movabsq	$-9223372036854775808, %rcx     # imm = 0x8000000000000000
	subq	-16(%rbp), %rcx
	cmpq	%rcx, %rax
	jge	.LBB40_7
.LBB40_6:
	movq	-8(%rbp), %rax
	movq	%rax, -24(%rbp)                 # 8-byte Spill
	jmp	.LBB40_8
.LBB40_7:
	movq	-8(%rbp), %rax
	addq	-16(%rbp), %rax
	movq	%rax, -24(%rbp)                 # 8-byte Spill
.LBB40_8:
	movq	-24(%rbp), %rax                 # 8-byte Reload
	popq	%rbp
	.cfi_def_cfa %rsp, 8
	retq
.Lfunc_end40:
	.size	_ZL25safe_add_func_int64_t_s_sll, .Lfunc_end40-_ZL25safe_add_func_int64_t_s_sll
	.cfi_endproc
                                        # -- End function
	.p2align	4, 0x90                         # -- Begin function _ZL26safe_div_func_uint16_t_u_utt
	.type	_ZL26safe_div_func_uint16_t_u_utt,@function
_ZL26safe_div_func_uint16_t_u_utt:      # @_ZL26safe_div_func_uint16_t_u_utt
	.cfi_startproc
# %bb.0:
	pushq	%rbp
	.cfi_def_cfa_offset 16
	.cfi_offset %rbp, -16
	movq	%rsp, %rbp
	.cfi_def_cfa_register %rbp
	movw	%si, %ax
	movw	%di, %cx
	movw	%cx, -2(%rbp)
	movw	%ax, -4(%rbp)
	movzwl	-4(%rbp), %eax
	cmpl	$0, %eax
	jne	.LBB41_2
# %bb.1:
	movzwl	-2(%rbp), %eax
	movl	%eax, -8(%rbp)                  # 4-byte Spill
	jmp	.LBB41_3
.LBB41_2:
	movzwl	-2(%rbp), %eax
	movzwl	-4(%rbp), %ecx
	cltd
	idivl	%ecx
	movl	%eax, -8(%rbp)                  # 4-byte Spill
.LBB41_3:
	movl	-8(%rbp), %eax                  # 4-byte Reload
                                        # kill: def $ax killed $ax killed $eax
	movzwl	%ax, %eax
	popq	%rbp
	.cfi_def_cfa %rsp, 8
	retq
.Lfunc_end41:
	.size	_ZL26safe_div_func_uint16_t_u_utt, .Lfunc_end41-_ZL26safe_div_func_uint16_t_u_utt
	.cfi_endproc
                                        # -- End function
	.p2align	4, 0x90                         # -- Begin function _ZL28safe_rshift_func_uint8_t_u_uhj
	.type	_ZL28safe_rshift_func_uint8_t_u_uhj,@function
_ZL28safe_rshift_func_uint8_t_u_uhj:    # @_ZL28safe_rshift_func_uint8_t_u_uhj
	.cfi_startproc
# %bb.0:
	pushq	%rbp
	.cfi_def_cfa_offset 16
	.cfi_offset %rbp, -16
	movq	%rsp, %rbp
	.cfi_def_cfa_register %rbp
	movb	%dil, %al
	movb	%al, -1(%rbp)
	movl	%esi, -8(%rbp)
	cmpl	$32, -8(%rbp)
	jb	.LBB42_2
# %bb.1:
	movzbl	-1(%rbp), %eax
	movl	%eax, -12(%rbp)                 # 4-byte Spill
	jmp	.LBB42_3
.LBB42_2:
	movzbl	-1(%rbp), %eax
	movl	-8(%rbp), %ecx
                                        # kill: def $cl killed $ecx
	sarl	%cl, %eax
	movl	%eax, -12(%rbp)                 # 4-byte Spill
.LBB42_3:
	movl	-12(%rbp), %eax                 # 4-byte Reload
                                        # kill: def $al killed $al killed $eax
	movzbl	%al, %eax
	popq	%rbp
	.cfi_def_cfa %rsp, 8
	retq
.Lfunc_end42:
	.size	_ZL28safe_rshift_func_uint8_t_u_uhj, .Lfunc_end42-_ZL28safe_rshift_func_uint8_t_u_uhj
	.cfi_endproc
                                        # -- End function
	.p2align	4, 0x90                         # -- Begin function _ZL25safe_mod_func_uint8_t_u_uhh
	.type	_ZL25safe_mod_func_uint8_t_u_uhh,@function
_ZL25safe_mod_func_uint8_t_u_uhh:       # @_ZL25safe_mod_func_uint8_t_u_uhh
	.cfi_startproc
# %bb.0:
	pushq	%rbp
	.cfi_def_cfa_offset 16
	.cfi_offset %rbp, -16
	movq	%rsp, %rbp
	.cfi_def_cfa_register %rbp
	movb	%sil, %al
	movb	%dil, %cl
	movb	%cl, -1(%rbp)
	movb	%al, -2(%rbp)
	movzbl	-2(%rbp), %eax
	cmpl	$0, %eax
	jne	.LBB43_2
# %bb.1:
	movzbl	-1(%rbp), %edx
	movl	%edx, -8(%rbp)                  # 4-byte Spill
	jmp	.LBB43_3
.LBB43_2:
	movzbl	-1(%rbp), %eax
	movzbl	-2(%rbp), %ecx
	cltd
	idivl	%ecx
	movl	%edx, -8(%rbp)                  # 4-byte Spill
.LBB43_3:
	movl	-8(%rbp), %eax                  # 4-byte Reload
                                        # kill: def $al killed $al killed $eax
	movzbl	%al, %eax
	popq	%rbp
	.cfi_def_cfa %rsp, 8
	retq
.Lfunc_end43:
	.size	_ZL25safe_mod_func_uint8_t_u_uhh, .Lfunc_end43-_ZL25safe_mod_func_uint8_t_u_uhh
	.cfi_endproc
                                        # -- End function
	.p2align	4, 0x90                         # -- Begin function _ZL26safe_sub_func_uint64_t_u_umm
	.type	_ZL26safe_sub_func_uint64_t_u_umm,@function
_ZL26safe_sub_func_uint64_t_u_umm:      # @_ZL26safe_sub_func_uint64_t_u_umm
	.cfi_startproc
# %bb.0:
	pushq	%rbp
	.cfi_def_cfa_offset 16
	.cfi_offset %rbp, -16
	movq	%rsp, %rbp
	.cfi_def_cfa_register %rbp
	movq	%rdi, -8(%rbp)
	movq	%rsi, -16(%rbp)
	movq	-8(%rbp), %rax
	subq	-16(%rbp), %rax
	popq	%rbp
	.cfi_def_cfa %rsp, 8
	retq
.Lfunc_end44:
	.size	_ZL26safe_sub_func_uint64_t_u_umm, .Lfunc_end44-_ZL26safe_sub_func_uint64_t_u_umm
	.cfi_endproc
                                        # -- End function
	.p2align	4, 0x90                         # -- Begin function _ZL29safe_lshift_func_uint32_t_u_ujj
	.type	_ZL29safe_lshift_func_uint32_t_u_ujj,@function
_ZL29safe_lshift_func_uint32_t_u_ujj:   # @_ZL29safe_lshift_func_uint32_t_u_ujj
	.cfi_startproc
# %bb.0:
	pushq	%rbp
	.cfi_def_cfa_offset 16
	.cfi_offset %rbp, -16
	movq	%rsp, %rbp
	.cfi_def_cfa_register %rbp
	movl	%edi, -4(%rbp)
	movl	%esi, -8(%rbp)
	cmpl	$32, -8(%rbp)
	jae	.LBB45_2
# %bb.1:
	movl	-4(%rbp), %eax
	movl	-8(%rbp), %ecx
	movl	$4294967295, %edx               # imm = 0xFFFFFFFF
                                        # kill: def $cl killed $ecx
	shrl	%cl, %edx
	movl	%edx, %ecx
	cmpl	%ecx, %eax
	jbe	.LBB45_3
.LBB45_2:
	movl	-4(%rbp), %eax
	movl	%eax, -12(%rbp)                 # 4-byte Spill
	jmp	.LBB45_4
.LBB45_3:
	movl	-4(%rbp), %eax
	movl	-8(%rbp), %ecx
                                        # kill: def $cl killed $ecx
	shll	%cl, %eax
	movl	%eax, -12(%rbp)                 # 4-byte Spill
.LBB45_4:
	movl	-12(%rbp), %eax                 # 4-byte Reload
	popq	%rbp
	.cfi_def_cfa %rsp, 8
	retq
.Lfunc_end45:
	.size	_ZL29safe_lshift_func_uint32_t_u_ujj, .Lfunc_end45-_ZL29safe_lshift_func_uint32_t_u_ujj
	.cfi_endproc
                                        # -- End function
	.p2align	4, 0x90                         # -- Begin function _ZL25safe_sub_func_int64_t_s_sll
	.type	_ZL25safe_sub_func_int64_t_s_sll,@function
_ZL25safe_sub_func_int64_t_s_sll:       # @_ZL25safe_sub_func_int64_t_s_sll
	.cfi_startproc
# %bb.0:
	pushq	%rbp
	.cfi_def_cfa_offset 16
	.cfi_offset %rbp, -16
	movq	%rsp, %rbp
	.cfi_def_cfa_register %rbp
	movq	%rdi, -8(%rbp)
	movq	%rsi, -16(%rbp)
	movq	-8(%rbp), %rax
	xorq	-16(%rbp), %rax
	movq	-8(%rbp), %rcx
	movq	-8(%rbp), %rdx
	xorq	-16(%rbp), %rdx
	movabsq	$-9223372036854775808, %rsi     # imm = 0x8000000000000000
	andq	%rsi, %rdx
	xorq	%rdx, %rcx
	subq	-16(%rbp), %rcx
	xorq	-16(%rbp), %rcx
	andq	%rcx, %rax
	cmpq	$0, %rax
	jge	.LBB46_2
# %bb.1:
	movq	-8(%rbp), %rax
	movq	%rax, -24(%rbp)                 # 8-byte Spill
	jmp	.LBB46_3
.LBB46_2:
	movq	-8(%rbp), %rax
	subq	-16(%rbp), %rax
	movq	%rax, -24(%rbp)                 # 8-byte Spill
.LBB46_3:
	movq	-24(%rbp), %rax                 # 8-byte Reload
	popq	%rbp
	.cfi_def_cfa %rsp, 8
	retq
.Lfunc_end46:
	.size	_ZL25safe_sub_func_int64_t_s_sll, .Lfunc_end46-_ZL25safe_sub_func_int64_t_s_sll
	.cfi_endproc
                                        # -- End function
	.p2align	4, 0x90                         # -- Begin function _ZL26safe_mul_func_uint64_t_u_umm
	.type	_ZL26safe_mul_func_uint64_t_u_umm,@function
_ZL26safe_mul_func_uint64_t_u_umm:      # @_ZL26safe_mul_func_uint64_t_u_umm
	.cfi_startproc
# %bb.0:
	pushq	%rbp
	.cfi_def_cfa_offset 16
	.cfi_offset %rbp, -16
	movq	%rsp, %rbp
	.cfi_def_cfa_register %rbp
	movq	%rdi, -8(%rbp)
	movq	%rsi, -16(%rbp)
	movq	-8(%rbp), %rax
	imulq	-16(%rbp), %rax
	popq	%rbp
	.cfi_def_cfa %rsp, 8
	retq
.Lfunc_end47:
	.size	_ZL26safe_mul_func_uint64_t_u_umm, .Lfunc_end47-_ZL26safe_mul_func_uint64_t_u_umm
	.cfi_endproc
                                        # -- End function
	.p2align	4, 0x90                         # -- Begin function _ZL26safe_div_func_uint32_t_u_ujj
	.type	_ZL26safe_div_func_uint32_t_u_ujj,@function
_ZL26safe_div_func_uint32_t_u_ujj:      # @_ZL26safe_div_func_uint32_t_u_ujj
	.cfi_startproc
# %bb.0:
	pushq	%rbp
	.cfi_def_cfa_offset 16
	.cfi_offset %rbp, -16
	movq	%rsp, %rbp
	.cfi_def_cfa_register %rbp
	movl	%edi, -4(%rbp)
	movl	%esi, -8(%rbp)
	cmpl	$0, -8(%rbp)
	jne	.LBB48_2
# %bb.1:
	movl	-4(%rbp), %eax
	movl	%eax, -12(%rbp)                 # 4-byte Spill
	jmp	.LBB48_3
.LBB48_2:
	movl	-4(%rbp), %eax
	xorl	%edx, %edx
	divl	-8(%rbp)
	movl	%eax, -12(%rbp)                 # 4-byte Spill
.LBB48_3:
	movl	-12(%rbp), %eax                 # 4-byte Reload
	popq	%rbp
	.cfi_def_cfa %rsp, 8
	retq
.Lfunc_end48:
	.size	_ZL26safe_div_func_uint32_t_u_ujj, .Lfunc_end48-_ZL26safe_div_func_uint32_t_u_ujj
	.cfi_endproc
                                        # -- End function
	.p2align	4, 0x90                         # -- Begin function _ZL25safe_mul_func_uint8_t_u_uhh
	.type	_ZL25safe_mul_func_uint8_t_u_uhh,@function
_ZL25safe_mul_func_uint8_t_u_uhh:       # @_ZL25safe_mul_func_uint8_t_u_uhh
	.cfi_startproc
# %bb.0:
	pushq	%rbp
	.cfi_def_cfa_offset 16
	.cfi_offset %rbp, -16
	movq	%rsp, %rbp
	.cfi_def_cfa_register %rbp
	movb	%sil, %al
	movb	%dil, %cl
	movb	%cl, -1(%rbp)
	movb	%al, -2(%rbp)
	movzbl	-1(%rbp), %eax
	movzbl	-2(%rbp), %ecx
	imull	%ecx, %eax
                                        # kill: def $al killed $al killed $eax
	movzbl	%al, %eax
	popq	%rbp
	.cfi_def_cfa %rsp, 8
	retq
.Lfunc_end49:
	.size	_ZL25safe_mul_func_uint8_t_u_uhh, .Lfunc_end49-_ZL25safe_mul_func_uint8_t_u_uhh
	.cfi_endproc
                                        # -- End function
	.p2align	4, 0x90                         # -- Begin function _ZL26safe_mod_func_uint16_t_u_utt
	.type	_ZL26safe_mod_func_uint16_t_u_utt,@function
_ZL26safe_mod_func_uint16_t_u_utt:      # @_ZL26safe_mod_func_uint16_t_u_utt
	.cfi_startproc
# %bb.0:
	pushq	%rbp
	.cfi_def_cfa_offset 16
	.cfi_offset %rbp, -16
	movq	%rsp, %rbp
	.cfi_def_cfa_register %rbp
	movw	%si, %ax
	movw	%di, %cx
	movw	%cx, -2(%rbp)
	movw	%ax, -4(%rbp)
	movzwl	-4(%rbp), %eax
	cmpl	$0, %eax
	jne	.LBB50_2
# %bb.1:
	movzwl	-2(%rbp), %edx
	movl	%edx, -8(%rbp)                  # 4-byte Spill
	jmp	.LBB50_3
.LBB50_2:
	movzwl	-2(%rbp), %eax
	movzwl	-4(%rbp), %ecx
	cltd
	idivl	%ecx
	movl	%edx, -8(%rbp)                  # 4-byte Spill
.LBB50_3:
	movl	-8(%rbp), %eax                  # 4-byte Reload
                                        # kill: def $ax killed $ax killed $eax
	movzwl	%ax, %eax
	popq	%rbp
	.cfi_def_cfa %rsp, 8
	retq
.Lfunc_end50:
	.size	_ZL26safe_mod_func_uint16_t_u_utt, .Lfunc_end50-_ZL26safe_mod_func_uint16_t_u_utt
	.cfi_endproc
                                        # -- End function
	.p2align	4, 0x90                         # -- Begin function _ZL25safe_mod_func_int32_t_s_sii
	.type	_ZL25safe_mod_func_int32_t_s_sii,@function
_ZL25safe_mod_func_int32_t_s_sii:       # @_ZL25safe_mod_func_int32_t_s_sii
	.cfi_startproc
# %bb.0:
	pushq	%rbp
	.cfi_def_cfa_offset 16
	.cfi_offset %rbp, -16
	movq	%rsp, %rbp
	.cfi_def_cfa_register %rbp
	movl	%edi, -4(%rbp)
	movl	%esi, -8(%rbp)
	cmpl	$0, -8(%rbp)
	je	.LBB51_3
# %bb.1:
	cmpl	$-2147483648, -4(%rbp)          # imm = 0x80000000
	jne	.LBB51_4
# %bb.2:
	cmpl	$-1, -8(%rbp)
	jne	.LBB51_4
.LBB51_3:
	movl	-4(%rbp), %edx
	movl	%edx, -12(%rbp)                 # 4-byte Spill
	jmp	.LBB51_5
.LBB51_4:
	movl	-4(%rbp), %eax
	cltd
	idivl	-8(%rbp)
	movl	%edx, -12(%rbp)                 # 4-byte Spill
.LBB51_5:
	movl	-12(%rbp), %eax                 # 4-byte Reload
	popq	%rbp
	.cfi_def_cfa %rsp, 8
	retq
.Lfunc_end51:
	.size	_ZL25safe_mod_func_int32_t_s_sii, .Lfunc_end51-_ZL25safe_mod_func_int32_t_s_sii
	.cfi_endproc
                                        # -- End function
	.p2align	4, 0x90                         # -- Begin function _ZL28safe_lshift_func_int32_t_s_sii
	.type	_ZL28safe_lshift_func_int32_t_s_sii,@function
_ZL28safe_lshift_func_int32_t_s_sii:    # @_ZL28safe_lshift_func_int32_t_s_sii
	.cfi_startproc
# %bb.0:
	pushq	%rbp
	.cfi_def_cfa_offset 16
	.cfi_offset %rbp, -16
	movq	%rsp, %rbp
	.cfi_def_cfa_register %rbp
	movl	%edi, -4(%rbp)
	movl	%esi, -8(%rbp)
	cmpl	$0, -4(%rbp)
	jl	.LBB52_4
# %bb.1:
	cmpl	$0, -8(%rbp)
	jl	.LBB52_4
# %bb.2:
	cmpl	$32, -8(%rbp)
	jge	.LBB52_4
# %bb.3:
	movl	-4(%rbp), %eax
	movl	-8(%rbp), %ecx
	movl	$2147483647, %edx               # imm = 0x7FFFFFFF
                                        # kill: def $cl killed $ecx
	sarl	%cl, %edx
	movl	%edx, %ecx
	cmpl	%ecx, %eax
	jle	.LBB52_5
.LBB52_4:
	movl	-4(%rbp), %eax
	movl	%eax, -12(%rbp)                 # 4-byte Spill
	jmp	.LBB52_6
.LBB52_5:
	movl	-4(%rbp), %eax
	movl	-8(%rbp), %ecx
                                        # kill: def $cl killed $ecx
	shll	%cl, %eax
	movl	%eax, -12(%rbp)                 # 4-byte Spill
.LBB52_6:
	movl	-12(%rbp), %eax                 # 4-byte Reload
	popq	%rbp
	.cfi_def_cfa %rsp, 8
	retq
.Lfunc_end52:
	.size	_ZL28safe_lshift_func_int32_t_s_sii, .Lfunc_end52-_ZL28safe_lshift_func_int32_t_s_sii
	.cfi_endproc
                                        # -- End function
	.p2align	4, 0x90                         # -- Begin function _ZL29safe_rshift_func_uint16_t_u_sti
	.type	_ZL29safe_rshift_func_uint16_t_u_sti,@function
_ZL29safe_rshift_func_uint16_t_u_sti:   # @_ZL29safe_rshift_func_uint16_t_u_sti
	.cfi_startproc
# %bb.0:
	pushq	%rbp
	.cfi_def_cfa_offset 16
	.cfi_offset %rbp, -16
	movq	%rsp, %rbp
	.cfi_def_cfa_register %rbp
	movw	%di, %ax
	movw	%ax, -2(%rbp)
	movl	%esi, -8(%rbp)
	cmpl	$0, -8(%rbp)
	jl	.LBB53_2
# %bb.1:
	cmpl	$32, -8(%rbp)
	jl	.LBB53_3
.LBB53_2:
	movzwl	-2(%rbp), %eax
	movl	%eax, -12(%rbp)                 # 4-byte Spill
	jmp	.LBB53_4
.LBB53_3:
	movzwl	-2(%rbp), %eax
	movl	-8(%rbp), %ecx
                                        # kill: def $cl killed $ecx
	sarl	%cl, %eax
	movl	%eax, -12(%rbp)                 # 4-byte Spill
.LBB53_4:
	movl	-12(%rbp), %eax                 # 4-byte Reload
                                        # kill: def $ax killed $ax killed $eax
	movzwl	%ax, %eax
	popq	%rbp
	.cfi_def_cfa %rsp, 8
	retq
.Lfunc_end53:
	.size	_ZL29safe_rshift_func_uint16_t_u_sti, .Lfunc_end53-_ZL29safe_rshift_func_uint16_t_u_sti
	.cfi_endproc
                                        # -- End function
	.p2align	4, 0x90                         # -- Begin function _ZL24safe_add_func_int8_t_s_saa
	.type	_ZL24safe_add_func_int8_t_s_saa,@function
_ZL24safe_add_func_int8_t_s_saa:        # @_ZL24safe_add_func_int8_t_s_saa
	.cfi_startproc
# %bb.0:
	pushq	%rbp
	.cfi_def_cfa_offset 16
	.cfi_offset %rbp, -16
	movq	%rsp, %rbp
	.cfi_def_cfa_register %rbp
	movb	%sil, %al
	movb	%dil, %cl
	movb	%cl, -1(%rbp)
	movb	%al, -2(%rbp)
	movsbl	-1(%rbp), %eax
	movsbl	-2(%rbp), %ecx
	addl	%ecx, %eax
                                        # kill: def $al killed $al killed $eax
	movsbl	%al, %eax
	popq	%rbp
	.cfi_def_cfa %rsp, 8
	retq
.Lfunc_end54:
	.size	_ZL24safe_add_func_int8_t_s_saa, .Lfunc_end54-_ZL24safe_add_func_int8_t_s_saa
	.cfi_endproc
                                        # -- End function
	.p2align	4, 0x90                         # -- Begin function _ZL25safe_div_func_int16_t_s_sss
	.type	_ZL25safe_div_func_int16_t_s_sss,@function
_ZL25safe_div_func_int16_t_s_sss:       # @_ZL25safe_div_func_int16_t_s_sss
	.cfi_startproc
# %bb.0:
	pushq	%rbp
	.cfi_def_cfa_offset 16
	.cfi_offset %rbp, -16
	movq	%rsp, %rbp
	.cfi_def_cfa_register %rbp
	movw	%si, %ax
	movw	%di, %cx
	movw	%cx, -2(%rbp)
	movw	%ax, -4(%rbp)
	movswl	-4(%rbp), %eax
	cmpl	$0, %eax
	je	.LBB55_3
# %bb.1:
	movswl	-2(%rbp), %eax
	cmpl	$-32768, %eax                   # imm = 0x8000
	jne	.LBB55_4
# %bb.2:
	movswl	-4(%rbp), %eax
	cmpl	$-1, %eax
	jne	.LBB55_4
.LBB55_3:
	movswl	-2(%rbp), %eax
	movl	%eax, -8(%rbp)                  # 4-byte Spill
	jmp	.LBB55_5
.LBB55_4:
	movswl	-2(%rbp), %eax
	movswl	-4(%rbp), %ecx
	cltd
	idivl	%ecx
	movl	%eax, -8(%rbp)                  # 4-byte Spill
.LBB55_5:
	movl	-8(%rbp), %eax                  # 4-byte Reload
                                        # kill: def $ax killed $ax killed $eax
	cwtl
	popq	%rbp
	.cfi_def_cfa %rsp, 8
	retq
.Lfunc_end55:
	.size	_ZL25safe_div_func_int16_t_s_sss, .Lfunc_end55-_ZL25safe_div_func_int16_t_s_sss
	.cfi_endproc
                                        # -- End function
	.p2align	4, 0x90                         # -- Begin function _ZL29safe_lshift_func_uint16_t_u_sti
	.type	_ZL29safe_lshift_func_uint16_t_u_sti,@function
_ZL29safe_lshift_func_uint16_t_u_sti:   # @_ZL29safe_lshift_func_uint16_t_u_sti
	.cfi_startproc
# %bb.0:
	pushq	%rbp
	.cfi_def_cfa_offset 16
	.cfi_offset %rbp, -16
	movq	%rsp, %rbp
	.cfi_def_cfa_register %rbp
	movw	%di, %ax
	movw	%ax, -2(%rbp)
	movl	%esi, -8(%rbp)
	cmpl	$0, -8(%rbp)
	jl	.LBB56_3
# %bb.1:
	cmpl	$32, -8(%rbp)
	jge	.LBB56_3
# %bb.2:
	movzwl	-2(%rbp), %eax
	movl	-8(%rbp), %ecx
	movl	$65535, %edx                    # imm = 0xFFFF
                                        # kill: def $cl killed $ecx
	sarl	%cl, %edx
	movl	%edx, %ecx
	cmpl	%ecx, %eax
	jle	.LBB56_4
.LBB56_3:
	movzwl	-2(%rbp), %eax
	movl	%eax, -12(%rbp)                 # 4-byte Spill
	jmp	.LBB56_5
.LBB56_4:
	movzwl	-2(%rbp), %eax
	movl	-8(%rbp), %ecx
                                        # kill: def $cl killed $ecx
	shll	%cl, %eax
	movl	%eax, -12(%rbp)                 # 4-byte Spill
.LBB56_5:
	movl	-12(%rbp), %eax                 # 4-byte Reload
                                        # kill: def $ax killed $ax killed $eax
	movzwl	%ax, %eax
	popq	%rbp
	.cfi_def_cfa %rsp, 8
	retq
.Lfunc_end56:
	.size	_ZL29safe_lshift_func_uint16_t_u_sti, .Lfunc_end56-_ZL29safe_lshift_func_uint16_t_u_sti
	.cfi_endproc
                                        # -- End function
	.p2align	4, 0x90                         # -- Begin function _ZL7func_312S0S_S_
	.type	_ZL7func_312S0S_S_,@function
_ZL7func_312S0S_S_:                     # @_ZL7func_312S0S_S_
	.cfi_startproc
# %bb.0:
	pushq	%rbp
	.cfi_def_cfa_offset 16
	.cfi_offset %rbp, -16
	movq	%rsp, %rbp
	.cfi_def_cfa_register %rbp
	subq	$4480, %rsp                     # imm = 0x1180
	movq	%rdi, -4392(%rbp)               # 8-byte Spill
	movq	%rdi, %rax
	movq	%rax, -4384(%rbp)               # 8-byte Spill
	leaq	32(%rbp), %rax
	movq	%rax, -4376(%rbp)               # 8-byte Spill
	leaq	24(%rbp), %rax
	movq	%rax, -4368(%rbp)               # 8-byte Spill
	leaq	16(%rbp), %rax
	movq	%rax, -4360(%rbp)               # 8-byte Spill
	movq	%fs:40, %rax
	movq	%rax, -8(%rbp)
	movq	$-2, -4176(%rbp)
	movl	.L__const._ZL7func_312S0S_S_.l_1230(%rip), %eax
	movl	%eax, (%rdi)
	movw	.L__const._ZL7func_312S0S_S_.l_1230+4(%rip), %ax
	movw	%ax, 4(%rdi)
	movl	$1752913620, -4180(%rbp)        # imm = 0x687B56D4
	movl	$-789361698, -4184(%rbp)        # imm = 0xD0F34BDE
	movl	$-543617895, -4188(%rbp)        # imm = 0xDF990C99
	movl	$1, -4192(%rbp)
	movl	$-10, -4196(%rbp)
	movl	$1, -4200(%rbp)
	movl	$-237603442, -4204(%rbp)        # imm = 0xF1D6758E
	leaq	-2016(%rbp), %rdi
	leaq	.L__const._ZL7func_312S0S_S_.l_1273(%rip), %rsi
	movl	$2000, %edx                     # imm = 0x7D0
	callq	memcpy@PLT
	leaq	_ZL5g_474(%rip), %rax
	movq	%rax, -4216(%rbp)
	movl	$0, _ZL5g_100+2(%rip)
.LBB57_1:                               # =>This Loop Header: Depth=1
                                        #     Child Loop BB57_3 Depth 2
	cmpl	$59, _ZL5g_100+2(%rip)
	jb	.LBB57_30
# %bb.2:                                #   in Loop: Header=BB57_1 Depth=1
	leaq	_ZL5g_729(%rip), %rax
	movq	%rax, -4232(%rbp)
	leaq	-3616(%rbp), %rdi
	leaq	.L__const._ZL7func_312S0S_S_.l_1211(%rip), %rsi
	movl	$1600, %edx                     # imm = 0x640
	callq	memcpy@PLT
	leaq	-3616(%rbp), %rax
	addq	$480, %rax                      # imm = 0x1E0
	addq	$112, %rax
	movq	%rax, -4152(%rbp)
	leaq	_ZL5g_673(%rip), %rax
	addq	$20, %rax
	movq	%rax, -4240(%rbp)
	movl	$2083328745, -4244(%rbp)        # imm = 0x7C2D12E9
	movl	$-2, -4248(%rbp)
	movl	$0, -4252(%rbp)
.LBB57_3:                               #   Parent Loop BB57_1 Depth=1
                                        # =>  This Inner Loop Header: Depth=2
	cmpl	$9, -4252(%rbp)
	jge	.LBB57_6
# %bb.4:                                #   in Loop: Header=BB57_3 Depth=2
	movslq	-4252(%rbp), %rax
	movl	$-574189576, -3664(%rbp,%rax,4) # imm = 0xDDC68FF8
# %bb.5:                                #   in Loop: Header=BB57_3 Depth=2
	movl	-4252(%rbp), %eax
	addl	$1, %eax
	movl	%eax, -4252(%rbp)
	jmp	.LBB57_3
.LBB57_6:                               #   in Loop: Header=BB57_1 Depth=1
	movq	-4360(%rbp), %rdx               # 8-byte Reload
	movq	-4376(%rbp), %rcx               # 8-byte Reload
	movq	-4176(%rbp), %rax
	movq	%rax, -4416(%rbp)               # 8-byte Spill
	movq	-4176(%rbp), %rax
	movq	%rax, -4408(%rbp)               # 8-byte Spill
	movq	-4232(%rbp), %rax
	movq	%rax, _ZL5g_849(%rip)
	movq	-3024(%rbp), %rsi
	movq	-4152(%rbp), %rax
	movq	%rsi, (%rax)
	movq	_ZL5g_849(%rip), %rax
	movzbl	(%rax), %eax
	cmpl	2(%rcx), %eax
	sete	%al
	andb	$1, %al
	movzbl	%al, %ecx
	movb	$1, %al
	cmpl	2(%rdx), %ecx
	movb	%al, -4393(%rbp)                # 1-byte Spill
	je	.LBB57_8
# %bb.7:                                #   in Loop: Header=BB57_1 Depth=1
	movb	$1, %al
	movb	%al, -4393(%rbp)                # 1-byte Spill
	jmp	.LBB57_8
.LBB57_8:                               #   in Loop: Header=BB57_1 Depth=1
	movq	-4408(%rbp), %rax               # 8-byte Reload
	movb	-4393(%rbp), %cl                # 1-byte Reload
	andb	$1, %cl
	movzbl	%cl, %ecx
                                        # kill: def $rcx killed $ecx
	cmpq	%rcx, %rax
	sete	%al
	andb	$1, %al
	movzbl	%al, %eax
                                        # kill: def $ax killed $ax killed $eax
	movl	$1, %esi
	movzwl	%ax, %edi
	callq	_ZL26safe_div_func_uint16_t_u_utt
	movl	_ZL5g_474+16(%rip), %eax
	shrl	$7, %eax
	andl	$32767, %eax                    # imm = 0x7FFF
                                        # kill: def $ax killed $ax killed $eax
	movswl	%ax, %edi
	callq	_ZL31safe_unary_minus_func_int16_t_ss
                                        # kill: def $cx killed $ax
	movq	-4360(%rbp), %rax               # 8-byte Reload
	movw	(%rax), %ax
	shlw	$5, %ax
	sarw	$5, %ax
	cwtl
                                        # kill: def $al killed $al killed $eax
	movl	$3, %esi
	movsbl	%al, %edi
	callq	_ZL27safe_rshift_func_int8_t_s_uaj
	movb	%al, %cl
	movq	-4416(%rbp), %rax               # 8-byte Reload
	movsbq	%cl, %rcx
	orq	%rcx, %rax
	cmpq	$0, %rax
	je	.LBB57_27
# %bb.9:                                #   in Loop: Header=BB57_1 Depth=1
	movw	$27898, -4262(%rbp)             # imm = 0x6CFA
	movl	$1, -4268(%rbp)
	leaq	_ZL5g_940(%rip), %rax
	movq	%rax, -4280(%rbp)
	leaq	_ZL5g_939(%rip), %rax
	movq	%rax, -4288(%rbp)
	movw	$-1, -4262(%rbp)
	movq	_ZL5g_577(%rip), %rax
	movabsq	$-1528544523873114051, %rcx     # imm = 0xEAC984DAA72CA83D
	movq	%rcx, (%rax)
	movabsq	$-4983542097243889713, %rdi     # imm = 0xBAD6E6DDD2929FCF
	movl	$2804721725, %esi               # imm = 0xA72CA83D
	callq	_ZL28safe_lshift_func_int64_t_s_sli
	movq	%rax, -4432(%rbp)               # 8-byte Spill
	xorl	%eax, %eax
                                        # kill: def $al killed $al killed $eax
	cmpl	$0, -4268(%rbp)
	movb	%al, -4417(%rbp)                # 1-byte Spill
	je	.LBB57_13
# %bb.10:                               #   in Loop: Header=BB57_1 Depth=1
	movl	_ZL5g_474+4(%rip), %eax
	andl	$33554431, %eax                 # imm = 0x1FFFFFF
	movl	-4268(%rbp), %eax
                                        # kill: def $ax killed $ax killed $eax
	movw	%ax, -4436(%rbp)                # 2-byte Spill
	xorl	%eax, %eax
                                        # kill: def $al killed $al killed $eax
	cmpl	$0, -4268(%rbp)
	movb	%al, -4433(%rbp)                # 1-byte Spill
	je	.LBB57_12
# %bb.11:                               #   in Loop: Header=BB57_1 Depth=1
	movq	-4376(%rbp), %rax               # 8-byte Reload
	movw	(%rax), %ax
	shlw	$5, %ax
	sarw	$5, %ax
	cwtl
	movl	%eax, -4440(%rbp)               # 4-byte Spill
	movq	_ZL5g_336(%rip), %rax
	movq	(%rax), %rax
	movw	(%rax), %ax
	movzwl	%ax, %esi
	xorl	%edi, %edi
	callq	_ZL29safe_rshift_func_uint16_t_u_utj
	movw	%ax, %cx
	movl	-4440(%rbp), %eax               # 4-byte Reload
	movzwl	%cx, %ecx
                                        # kill: def $rcx killed $ecx
	cmpq	$54264, %rcx                    # imm = 0xD3F8
	setl	%cl
	andb	$1, %cl
	movzbl	%cl, %ecx
	cmpl	%ecx, %eax
	setge	%al
	movb	%al, -4433(%rbp)                # 1-byte Spill
.LBB57_12:                              #   in Loop: Header=BB57_1 Depth=1
	movw	-4436(%rbp), %cx                # 2-byte Reload
	movb	-4433(%rbp), %al                # 1-byte Reload
	andb	$1, %al
	movzbl	%al, %eax
	cmpl	-4268(%rbp), %eax
	setg	%al
	andb	$1, %al
	movzbl	%al, %eax
                                        # kill: def $ax killed $ax killed $eax
	movzwl	%cx, %edi
	movzwl	%ax, %esi
	callq	_ZL26safe_mul_func_uint16_t_u_utt
                                        # kill: def $cx killed $ax
	movq	-4360(%rbp), %rax               # 8-byte Reload
	movl	2(%rax), %eax
	movq	_ZL5g_728(%rip), %rcx
	movzbl	(%rcx), %ecx
	cmpl	%ecx, %eax
	setae	%al
	movb	%al, -4417(%rbp)                # 1-byte Spill
.LBB57_13:                              #   in Loop: Header=BB57_1 Depth=1
	movq	-4376(%rbp), %rax               # 8-byte Reload
	movq	-4432(%rbp), %rcx               # 8-byte Reload
	movb	-4417(%rbp), %dl                # 1-byte Reload
	andb	$1, %dl
	movzbl	%dl, %edx
                                        # kill: def $rdx killed $edx
	cmpq	%rdx, %rcx
	sete	%cl
	andb	$1, %cl
	movzbl	%cl, %ecx
                                        # kill: def $rcx killed $ecx
	xorq	_ZL5g_939(%rip), %rcx
	movq	_ZL5g_849(%rip), %rdx
	movzbl	(%rdx), %edx
                                        # kill: def $rdx killed $edx
	cmpq	%rdx, %rcx
	setg	%cl
	andb	$1, %cl
	movzbl	%cl, %edi
	movw	(%rax), %ax
	shlw	$5, %ax
	sarw	$5, %ax
	movswl	%ax, %esi
	callq	_ZL29safe_lshift_func_uint32_t_u_sji
	movl	%eax, %ecx
	movq	-4368(%rbp), %rax               # 8-byte Reload
	movl	%ecx, %ecx
	movl	%ecx, %edi
	movw	(%rax), %ax
	shlw	$5, %ax
	sarw	$5, %ax
	cwtl
	movslq	%eax, %rsi
	callq	_ZL25safe_mul_func_int64_t_s_sll
	cmpq	$0, %rax
	je	.LBB57_15
# %bb.14:                               #   in Loop: Header=BB57_1 Depth=1
	movq	-4360(%rbp), %rcx               # 8-byte Reload
	leaq	_ZL5g_402(%rip), %rax
	movq	%rax, -4296(%rbp)
	movq	-4176(%rbp), %rdx
	movw	(%rcx), %ax
	shlw	$5, %ax
	sarw	$5, %ax
	cwtl
	cltq
	xorq	%rdx, %rax
                                        # kill: def $eax killed $eax killed $rax
                                        # kill: def $ax killed $ax killed $eax
	movw	(%rcx), %dx
	andw	$2047, %ax                      # imm = 0x7FF
	andw	$-2048, %dx                     # imm = 0xF800
	orw	%ax, %dx
	movw	%dx, (%rcx)
	shlw	$5, %ax
	sarw	$5, %ax
	movswl	%ax, %ecx
	movq	-4296(%rbp), %rax
	xorl	(%rax), %ecx
	movl	%ecx, (%rax)
	movq	-4240(%rbp), %rax
	movq	%rax, -4240(%rbp)
	jmp	.LBB57_16
.LBB57_15:
	jmp	.LBB57_38
.LBB57_16:                              #   in Loop: Header=BB57_1 Depth=1
	movq	-4240(%rbp), %rax
	movl	(%rax), %eax
	movl	%eax, -4448(%rbp)               # 4-byte Spill
	movb	$1, %al
	cmpl	$0, -4268(%rbp)
	movb	%al, -4441(%rbp)                # 1-byte Spill
	jne	.LBB57_24
# %bb.17:                               #   in Loop: Header=BB57_1 Depth=1
	movq	-4368(%rbp), %rax               # 8-byte Reload
	movw	(%rax), %ax
	shlw	$5, %ax
	sarw	$5, %ax
	cwtl
                                        # kill: def $al killed $al killed $eax
	movb	%al, -4449(%rbp)                # 1-byte Spill
	movq	_ZL4g_80(%rip), %rax
	movl	(%rax), %eax
	cmpl	-4268(%rbp), %eax
	setne	%al
	andb	$1, %al
	movq	_ZL5g_576(%rip), %rcx
	movq	(%rcx), %rcx
	movq	$0, (%rcx)
	movq	-4280(%rbp), %rcx
	movq	$0, (%rcx)
	movl	$171, %esi
	movzbl	%al, %edi
	callq	_ZL25safe_sub_func_uint8_t_u_uhh
	cmpb	$0, %al
	je	.LBB57_19
# %bb.18:                               #   in Loop: Header=BB57_1 Depth=1
	cmpb	$0, _ZL5g_729(%rip)
	setne	%al
.LBB57_19:                              #   in Loop: Header=BB57_1 Depth=1
	movb	-4449(%rbp), %al                # 1-byte Reload
	xorl	%esi, %esi
	movzbl	%al, %edi
	callq	_ZL25safe_add_func_uint8_t_u_uhh
	movb	%al, %cl
	movb	$1, %al
	cmpb	$0, %cl
	movb	%al, -4450(%rbp)                # 1-byte Spill
	jne	.LBB57_21
# %bb.20:                               #   in Loop: Header=BB57_1 Depth=1
	movb	$1, %al
	movb	%al, -4450(%rbp)                # 1-byte Spill
	jmp	.LBB57_21
.LBB57_21:                              #   in Loop: Header=BB57_1 Depth=1
	movb	-4450(%rbp), %al                # 1-byte Reload
	andb	$1, %al
	movzbl	%al, %eax
	movl	%eax, %ecx
	movb	$1, %al
	movabsq	$6923366639718717825, %rdx      # imm = 0x6014BD46FA395981
	cmpq	%rdx, %rcx
	movb	%al, -4451(%rbp)                # 1-byte Spill
	jl	.LBB57_23
# %bb.22:                               #   in Loop: Header=BB57_1 Depth=1
	movb	$1, %al
	movb	%al, -4451(%rbp)                # 1-byte Spill
	jmp	.LBB57_23
.LBB57_23:                              #   in Loop: Header=BB57_1 Depth=1
	movq	-4368(%rbp), %rcx               # 8-byte Reload
	movb	-4451(%rbp), %al                # 1-byte Reload
	andb	$1, %al
	movzbl	%al, %eax
	movw	(%rcx), %dx
	shlw	$5, %dx
	sarw	$5, %dx
	movswl	%dx, %edx
	xorl	%edx, %eax
	cltq
	movq	-4288(%rbp), %rdx
	movq	%rax, (%rdx)
	movl	2(%rcx), %ecx
                                        # kill: def $rcx killed $ecx
	cmpq	%rcx, %rax
	setg	%al
	movb	%al, -4441(%rbp)                # 1-byte Spill
.LBB57_24:                              #   in Loop: Header=BB57_1 Depth=1
	movq	-4392(%rbp), %rax               # 8-byte Reload
	movl	-4448(%rbp), %ecx               # 4-byte Reload
	movb	-4441(%rbp), %dl                # 1-byte Reload
	andb	$1, %dl
	movzbl	%dl, %edx
	cmpl	%edx, %ecx
	setne	%cl
	andb	$1, %cl
	movzbl	%cl, %ecx
	movw	%cx, %dx
	movw	(%rax), %cx
	andw	$2047, %dx                      # imm = 0x7FF
	andw	$-2048, %cx                     # imm = 0xF800
	orw	%dx, %cx
	movw	%cx, (%rax)
	movl	-4268(%rbp), %ecx
	movq	-4240(%rbp), %rax
	orl	(%rax), %ecx
	movl	%ecx, (%rax)
	movq	-4240(%rbp), %rax
	cmpl	$0, (%rax)
	je	.LBB57_26
# %bb.25:
	jmp	.LBB57_30
.LBB57_26:                              #   in Loop: Header=BB57_1 Depth=1
	jmp	.LBB57_28
.LBB57_27:                              #   in Loop: Header=BB57_1 Depth=1
	movq	$0, -4304(%rbp)
	leaq	-4152(%rbp), %rax
	movq	%rax, -4312(%rbp)
	leaq	_ZL5g_673(%rip), %rax
	addq	$12, %rax
	movq	%rax, -4320(%rbp)
	leaq	-4144(%rbp), %rdi
	leaq	.L__const._ZL7func_312S0S_S_.l_1242(%rip), %rsi
	movl	$480, %edx                      # imm = 0x1E0
	callq	memcpy@PLT
	movl	$-7, -4324(%rbp)
	leaq	-3616(%rbp), %rcx
	addq	$480, %rcx                      # imm = 0x1E0
	addq	$112, %rcx
	movq	-4312(%rbp), %rax
	movq	%rcx, (%rax)
	movl	-4324(%rbp), %eax
	addl	$1, %eax
	movl	%eax, -4324(%rbp)
	movq	-4320(%rbp), %rax
	movl	$-1938311164, (%rax)            # imm = 0x8C77B804
.LBB57_28:                              #   in Loop: Header=BB57_1 Depth=1
	jmp	.LBB57_29
.LBB57_29:                              #   in Loop: Header=BB57_1 Depth=1
	movl	_ZL5g_100+2(%rip), %eax
	addl	$1, %eax
	movl	%eax, _ZL5g_100+2(%rip)
	jmp	.LBB57_1
.LBB57_30:
	movl	$0, _ZL4g_24(%rip)
# %bb.31:
	cmpl	$-25, _ZL4g_24(%rip)
	jl	.LBB57_37
# %bb.32:
	movq	-4376(%rbp), %rax               # 8-byte Reload
	movl	.L__const._ZL7func_312S0S_S_.l_1266(%rip), %ecx
	movl	%ecx, -4160(%rbp)
	movw	.L__const._ZL7func_312S0S_S_.l_1266+4(%rip), %cx
	movw	%cx, -4156(%rbp)
	leaq	_ZL5g_850(%rip), %rcx
	movq	%rcx, -4168(%rbp)
	leaq	-4168(%rbp), %rcx
	movq	%rcx, -4344(%rbp)
	leaq	_ZL5g_673(%rip), %rcx
	addq	$36, %rcx
	movq	%rcx, -4352(%rbp)
	cmpl	$0, 2(%rax)
	je	.LBB57_34
# %bb.33:
	jmp	.LBB57_37
.LBB57_34:
	movq	-4368(%rbp), %rcx               # 8-byte Reload
	movq	-4392(%rbp), %rax               # 8-byte Reload
	movl	2(%rcx), %edx
	movl	%edx, -4468(%rbp)               # 4-byte Spill
	movw	(%rcx), %cx
	shlw	$5, %cx
	sarw	$5, %cx
	movswl	%cx, %ecx
	movslq	%ecx, %rdi
	movw	(%rax), %cx
	andw	$-2048, %cx                     # imm = 0xF800
	orw	$2047, %cx                      # imm = 0x7FF
	movw	%cx, (%rax)
	movq	$-1, %rsi
	callq	_ZL25safe_div_func_int64_t_s_sll
	movq	-4360(%rbp), %rcx               # 8-byte Reload
	movq	%rax, %rdx
	movq	-4368(%rbp), %rax               # 8-byte Reload
	movq	%rdx, -4464(%rbp)               # 8-byte Spill
	movq	_ZL5g_576(%rip), %rdx
	movq	(%rdx), %rdx
	cmpq	$0, (%rdx)
	setne	%dl
	xorb	$-1, %dl
	andb	$1, %dl
	movzbl	%dl, %edx
                                        # kill: def $dx killed $dx killed $edx
	movw	%dx, -4454(%rbp)                # 2-byte Spill
	movw	(%rcx), %cx
	shlw	$5, %cx
	sarw	$5, %cx
	movswl	%cx, %ecx
	leaq	-4168(%rbp), %rdx
	cmpq	%rdx, -4344(%rbp)
	sete	%dl
	andb	$1, %dl
	movzbl	%dl, %edx
	movw	(%rax), %ax
	shlw	$5, %ax
	sarw	$5, %ax
	cwtl
	andl	%eax, %edx
	xorl	%eax, %eax
                                        # kill: def $al killed $al killed $eax
	cmpl	%edx, %ecx
	movb	%al, -4452(%rbp)                # 1-byte Spill
	jg	.LBB57_36
# %bb.35:
	movb	$1, %al
	movb	%al, -4452(%rbp)                # 1-byte Spill
	jmp	.LBB57_36
.LBB57_36:
	movw	-4454(%rbp), %cx                # 2-byte Reload
	movb	-4452(%rbp), %al                # 1-byte Reload
	andb	$1, %al
	movzbl	%al, %eax
                                        # kill: def $ax killed $ax killed $eax
	movswl	%cx, %edi
	movswl	%ax, %esi
	callq	_ZL25safe_add_func_int16_t_s_sss
                                        # kill: def $al killed $al killed $ax
	movl	$19, %edi
	movzbl	%al, %esi
	callq	_ZL25safe_mod_func_uint8_t_u_uhh
	movq	-4368(%rbp), %rsi               # 8-byte Reload
	movq	-4464(%rbp), %rcx               # 8-byte Reload
	movb	%al, %dl
	movq	-4376(%rbp), %rax               # 8-byte Reload
	movzbl	%dl, %edx
	movw	(%rsi), %si
	shlw	$5, %si
	sarw	$5, %si
	movswl	%si, %esi
	xorl	%esi, %edx
	movslq	%edx, %rdx
	cmpq	$60562, %rdx                    # imm = 0xEC92
	setne	%dl
	andb	$1, %dl
	movzbl	%dl, %esi
	movq	-4352(%rbp), %rdx
	orl	(%rdx), %esi
	movl	%esi, (%rdx)
	cmpq	-4176(%rbp), %rcx
	setne	%cl
	andb	$1, %cl
	movzbl	%cl, %ecx
	movl	%ecx, %edi
	movl	2(%rax), %eax
	movl	%eax, %esi
	callq	_ZL26safe_div_func_uint64_t_u_umm
	movl	-4468(%rbp), %edi               # 4-byte Reload
	movl	%eax, %esi
	callq	_ZL26safe_mul_func_uint32_t_u_ujj
	movq	_ZL5g_728(%rip), %rcx
	movzbl	(%rcx), %ecx
	cmpl	%ecx, %eax
	setne	%al
	andb	$1, %al
	movzbl	%al, %ecx
	movw	_ZL5g_787(%rip), %ax
	shlw	$5, %ax
	sarw	$5, %ax
	cwtl
	andl	%ecx, %eax
	movw	%ax, %cx
	movw	_ZL5g_787(%rip), %ax
	andw	$2047, %cx                      # imm = 0x7FF
	andw	$-2048, %ax                     # imm = 0xF800
	orw	%cx, %ax
	movw	%ax, _ZL5g_787(%rip)
	jmp	.LBB57_38
.LBB57_37:
	leaq	-2016(%rbp), %rsi
	addq	$800, %rsi                      # imm = 0x320
	addq	$280, %rsi                      # imm = 0x118
	movq	-4216(%rbp), %rdi
	movl	$40, %edx
	callq	memcpy@PLT
.LBB57_38:
	movq	%fs:40, %rax
	movq	-8(%rbp), %rcx
	cmpq	%rcx, %rax
	jne	.LBB57_40
# %bb.39:
	movq	-4384(%rbp), %rax               # 8-byte Reload
	addq	$4480, %rsp                     # imm = 0x1180
	popq	%rbp
	.cfi_def_cfa %rsp, 8
	retq
.LBB57_40:
	.cfi_def_cfa %rbp, 16
	callq	__stack_chk_fail@PLT
.Lfunc_end57:
	.size	_ZL7func_312S0S_S_, .Lfunc_end57-_ZL7func_312S0S_S_
	.cfi_endproc
                                        # -- End function
	.p2align	4, 0x90                         # -- Begin function _ZL28safe_lshift_func_uint8_t_u_uhj
	.type	_ZL28safe_lshift_func_uint8_t_u_uhj,@function
_ZL28safe_lshift_func_uint8_t_u_uhj:    # @_ZL28safe_lshift_func_uint8_t_u_uhj
	.cfi_startproc
# %bb.0:
	pushq	%rbp
	.cfi_def_cfa_offset 16
	.cfi_offset %rbp, -16
	movq	%rsp, %rbp
	.cfi_def_cfa_register %rbp
	movb	%dil, %al
	movb	%al, -1(%rbp)
	movl	%esi, -8(%rbp)
	cmpl	$32, -8(%rbp)
	jae	.LBB58_2
# %bb.1:
	movzbl	-1(%rbp), %eax
	movl	-8(%rbp), %ecx
	movl	$255, %edx
                                        # kill: def $cl killed $ecx
	sarl	%cl, %edx
	movl	%edx, %ecx
	cmpl	%ecx, %eax
	jle	.LBB58_3
.LBB58_2:
	movzbl	-1(%rbp), %eax
	movl	%eax, -12(%rbp)                 # 4-byte Spill
	jmp	.LBB58_4
.LBB58_3:
	movzbl	-1(%rbp), %eax
	movl	-8(%rbp), %ecx
                                        # kill: def $cl killed $ecx
	shll	%cl, %eax
	movl	%eax, -12(%rbp)                 # 4-byte Spill
.LBB58_4:
	movl	-12(%rbp), %eax                 # 4-byte Reload
                                        # kill: def $al killed $al killed $eax
	movzbl	%al, %eax
	popq	%rbp
	.cfi_def_cfa %rsp, 8
	retq
.Lfunc_end58:
	.size	_ZL28safe_lshift_func_uint8_t_u_uhj, .Lfunc_end58-_ZL28safe_lshift_func_uint8_t_u_uhj
	.cfi_endproc
                                        # -- End function
	.p2align	4, 0x90                         # -- Begin function _ZL26safe_sub_func_uint16_t_u_utt
	.type	_ZL26safe_sub_func_uint16_t_u_utt,@function
_ZL26safe_sub_func_uint16_t_u_utt:      # @_ZL26safe_sub_func_uint16_t_u_utt
	.cfi_startproc
# %bb.0:
	pushq	%rbp
	.cfi_def_cfa_offset 16
	.cfi_offset %rbp, -16
	movq	%rsp, %rbp
	.cfi_def_cfa_register %rbp
	movw	%si, %ax
	movw	%di, %cx
	movw	%cx, -2(%rbp)
	movw	%ax, -4(%rbp)
	movzwl	-2(%rbp), %eax
	movzwl	-4(%rbp), %ecx
	subl	%ecx, %eax
                                        # kill: def $ax killed $ax killed $eax
	movzwl	%ax, %eax
	popq	%rbp
	.cfi_def_cfa %rsp, 8
	retq
.Lfunc_end59:
	.size	_ZL26safe_sub_func_uint16_t_u_utt, .Lfunc_end59-_ZL26safe_sub_func_uint16_t_u_utt
	.cfi_endproc
                                        # -- End function
	.p2align	4, 0x90                         # -- Begin function _ZL31safe_unary_minus_func_int16_t_ss
	.type	_ZL31safe_unary_minus_func_int16_t_ss,@function
_ZL31safe_unary_minus_func_int16_t_ss:  # @_ZL31safe_unary_minus_func_int16_t_ss
	.cfi_startproc
# %bb.0:
	pushq	%rbp
	.cfi_def_cfa_offset 16
	.cfi_offset %rbp, -16
	movq	%rsp, %rbp
	.cfi_def_cfa_register %rbp
	movw	%di, %ax
	movw	%ax, -2(%rbp)
	movswl	-2(%rbp), %ecx
	xorl	%eax, %eax
	subl	%ecx, %eax
                                        # kill: def $ax killed $ax killed $eax
	cwtl
	popq	%rbp
	.cfi_def_cfa %rsp, 8
	retq
.Lfunc_end60:
	.size	_ZL31safe_unary_minus_func_int16_t_ss, .Lfunc_end60-_ZL31safe_unary_minus_func_int16_t_ss
	.cfi_endproc
                                        # -- End function
	.p2align	4, 0x90                         # -- Begin function _ZL32safe_unary_minus_func_uint64_t_um
	.type	_ZL32safe_unary_minus_func_uint64_t_um,@function
_ZL32safe_unary_minus_func_uint64_t_um: # @_ZL32safe_unary_minus_func_uint64_t_um
	.cfi_startproc
# %bb.0:
	pushq	%rbp
	.cfi_def_cfa_offset 16
	.cfi_offset %rbp, -16
	movq	%rsp, %rbp
	.cfi_def_cfa_register %rbp
	movq	%rdi, -8(%rbp)
	xorl	%eax, %eax
                                        # kill: def $rax killed $eax
	subq	-8(%rbp), %rax
	popq	%rbp
	.cfi_def_cfa %rsp, 8
	retq
.Lfunc_end61:
	.size	_ZL32safe_unary_minus_func_uint64_t_um, .Lfunc_end61-_ZL32safe_unary_minus_func_uint64_t_um
	.cfi_endproc
                                        # -- End function
	.p2align	4, 0x90                         # -- Begin function _ZL28safe_lshift_func_int64_t_s_ulj
	.type	_ZL28safe_lshift_func_int64_t_s_ulj,@function
_ZL28safe_lshift_func_int64_t_s_ulj:    # @_ZL28safe_lshift_func_int64_t_s_ulj
	.cfi_startproc
# %bb.0:
	pushq	%rbp
	.cfi_def_cfa_offset 16
	.cfi_offset %rbp, -16
	movq	%rsp, %rbp
	.cfi_def_cfa_register %rbp
	movq	%rdi, -8(%rbp)
	movl	%esi, -12(%rbp)
	cmpq	$0, -8(%rbp)
	jl	.LBB62_3
# %bb.1:
	cmpl	$32, -12(%rbp)
	jae	.LBB62_3
# %bb.2:
	movq	-8(%rbp), %rax
	movl	-12(%rbp), %ecx
                                        # kill: def $rcx killed $ecx
	movabsq	$9223372036854775807, %rdx      # imm = 0x7FFFFFFFFFFFFFFF
                                        # kill: def $cl killed $rcx
	sarq	%cl, %rdx
	movq	%rdx, %rcx
	cmpq	%rcx, %rax
	jle	.LBB62_4
.LBB62_3:
	movq	-8(%rbp), %rax
	movq	%rax, -24(%rbp)                 # 8-byte Spill
	jmp	.LBB62_5
.LBB62_4:
	movq	-8(%rbp), %rax
	movl	-12(%rbp), %ecx
                                        # kill: def $rcx killed $ecx
                                        # kill: def $cl killed $rcx
	shlq	%cl, %rax
	movq	%rax, -24(%rbp)                 # 8-byte Spill
.LBB62_5:
	movq	-24(%rbp), %rax                 # 8-byte Reload
	popq	%rbp
	.cfi_def_cfa %rsp, 8
	retq
.Lfunc_end62:
	.size	_ZL28safe_lshift_func_int64_t_s_ulj, .Lfunc_end62-_ZL28safe_lshift_func_int64_t_s_ulj
	.cfi_endproc
                                        # -- End function
	.p2align	4, 0x90                         # -- Begin function _ZL25safe_mul_func_int64_t_s_sll
	.type	_ZL25safe_mul_func_int64_t_s_sll,@function
_ZL25safe_mul_func_int64_t_s_sll:       # @_ZL25safe_mul_func_int64_t_s_sll
	.cfi_startproc
# %bb.0:
	pushq	%rbp
	.cfi_def_cfa_offset 16
	.cfi_offset %rbp, -16
	movq	%rsp, %rbp
	.cfi_def_cfa_register %rbp
	movq	%rdi, -8(%rbp)
	movq	%rsi, -16(%rbp)
	cmpq	$0, -8(%rbp)
	jle	.LBB63_3
# %bb.1:
	cmpq	$0, -16(%rbp)
	jle	.LBB63_3
# %bb.2:
	movq	-8(%rbp), %rax
	movq	%rax, -24(%rbp)                 # 8-byte Spill
	movabsq	$9223372036854775807, %rax      # imm = 0x7FFFFFFFFFFFFFFF
	cqto
	idivq	-16(%rbp)
	movq	%rax, %rcx
	movq	-24(%rbp), %rax                 # 8-byte Reload
	cmpq	%rcx, %rax
	jg	.LBB63_13
.LBB63_3:
	cmpq	$0, -8(%rbp)
	jle	.LBB63_6
# %bb.4:
	cmpq	$0, -16(%rbp)
	jg	.LBB63_6
# %bb.5:
	movq	-16(%rbp), %rax
	movq	%rax, -32(%rbp)                 # 8-byte Spill
	movabsq	$-9223372036854775808, %rax     # imm = 0x8000000000000000
	cqto
	idivq	-8(%rbp)
	movq	%rax, %rcx
	movq	-32(%rbp), %rax                 # 8-byte Reload
	cmpq	%rcx, %rax
	jl	.LBB63_13
.LBB63_6:
	cmpq	$0, -8(%rbp)
	jg	.LBB63_9
# %bb.7:
	cmpq	$0, -16(%rbp)
	jle	.LBB63_9
# %bb.8:
	movq	-8(%rbp), %rax
	movq	%rax, -40(%rbp)                 # 8-byte Spill
	movabsq	$-9223372036854775808, %rax     # imm = 0x8000000000000000
	cqto
	idivq	-16(%rbp)
	movq	%rax, %rcx
	movq	-40(%rbp), %rax                 # 8-byte Reload
	cmpq	%rcx, %rax
	jl	.LBB63_13
.LBB63_9:
	cmpq	$0, -8(%rbp)
	jg	.LBB63_14
# %bb.10:
	cmpq	$0, -16(%rbp)
	jg	.LBB63_14
# %bb.11:
	cmpq	$0, -8(%rbp)
	je	.LBB63_14
# %bb.12:
	movq	-16(%rbp), %rax
	movq	%rax, -48(%rbp)                 # 8-byte Spill
	movabsq	$9223372036854775807, %rax      # imm = 0x7FFFFFFFFFFFFFFF
	cqto
	idivq	-8(%rbp)
	movq	%rax, %rcx
	movq	-48(%rbp), %rax                 # 8-byte Reload
	cmpq	%rcx, %rax
	jge	.LBB63_14
.LBB63_13:
	movq	-8(%rbp), %rax
	movq	%rax, -56(%rbp)                 # 8-byte Spill
	jmp	.LBB63_15
.LBB63_14:
	movq	-8(%rbp), %rax
	imulq	-16(%rbp), %rax
	movq	%rax, -56(%rbp)                 # 8-byte Spill
.LBB63_15:
	movq	-56(%rbp), %rax                 # 8-byte Reload
	popq	%rbp
	.cfi_def_cfa %rsp, 8
	retq
.Lfunc_end63:
	.size	_ZL25safe_mul_func_int64_t_s_sll, .Lfunc_end63-_ZL25safe_mul_func_int64_t_s_sll
	.cfi_endproc
                                        # -- End function
	.p2align	4, 0x90                         # -- Begin function _ZL29safe_lshift_func_uint32_t_u_sji
	.type	_ZL29safe_lshift_func_uint32_t_u_sji,@function
_ZL29safe_lshift_func_uint32_t_u_sji:   # @_ZL29safe_lshift_func_uint32_t_u_sji
	.cfi_startproc
# %bb.0:
	pushq	%rbp
	.cfi_def_cfa_offset 16
	.cfi_offset %rbp, -16
	movq	%rsp, %rbp
	.cfi_def_cfa_register %rbp
	movl	%edi, -4(%rbp)
	movl	%esi, -8(%rbp)
	cmpl	$0, -8(%rbp)
	jl	.LBB64_3
# %bb.1:
	cmpl	$32, -8(%rbp)
	jge	.LBB64_3
# %bb.2:
	movl	-4(%rbp), %eax
	movl	-8(%rbp), %ecx
	movl	$4294967295, %edx               # imm = 0xFFFFFFFF
                                        # kill: def $cl killed $ecx
	shrl	%cl, %edx
	movl	%edx, %ecx
	cmpl	%ecx, %eax
	jbe	.LBB64_4
.LBB64_3:
	movl	-4(%rbp), %eax
	movl	%eax, -12(%rbp)                 # 4-byte Spill
	jmp	.LBB64_5
.LBB64_4:
	movl	-4(%rbp), %eax
	movl	-8(%rbp), %ecx
                                        # kill: def $cl killed $ecx
	shll	%cl, %eax
	movl	%eax, -12(%rbp)                 # 4-byte Spill
.LBB64_5:
	movl	-12(%rbp), %eax                 # 4-byte Reload
	popq	%rbp
	.cfi_def_cfa %rsp, 8
	retq
.Lfunc_end64:
	.size	_ZL29safe_lshift_func_uint32_t_u_sji, .Lfunc_end64-_ZL29safe_lshift_func_uint32_t_u_sji
	.cfi_endproc
                                        # -- End function
	.p2align	4, 0x90                         # -- Begin function _ZL28safe_lshift_func_int64_t_s_sli
	.type	_ZL28safe_lshift_func_int64_t_s_sli,@function
_ZL28safe_lshift_func_int64_t_s_sli:    # @_ZL28safe_lshift_func_int64_t_s_sli
	.cfi_startproc
# %bb.0:
	pushq	%rbp
	.cfi_def_cfa_offset 16
	.cfi_offset %rbp, -16
	movq	%rsp, %rbp
	.cfi_def_cfa_register %rbp
	movq	%rdi, -8(%rbp)
	movl	%esi, -12(%rbp)
	cmpq	$0, -8(%rbp)
	jl	.LBB65_4
# %bb.1:
	cmpl	$0, -12(%rbp)
	jl	.LBB65_4
# %bb.2:
	cmpl	$32, -12(%rbp)
	jge	.LBB65_4
# %bb.3:
	movq	-8(%rbp), %rax
	movl	-12(%rbp), %ecx
                                        # kill: def $rcx killed $ecx
	movabsq	$9223372036854775807, %rdx      # imm = 0x7FFFFFFFFFFFFFFF
                                        # kill: def $cl killed $rcx
	sarq	%cl, %rdx
	movq	%rdx, %rcx
	cmpq	%rcx, %rax
	jle	.LBB65_5
.LBB65_4:
	movq	-8(%rbp), %rax
	movq	%rax, -24(%rbp)                 # 8-byte Spill
	jmp	.LBB65_6
.LBB65_5:
	movq	-8(%rbp), %rax
	movl	-12(%rbp), %ecx
                                        # kill: def $rcx killed $ecx
                                        # kill: def $cl killed $rcx
	shlq	%cl, %rax
	movq	%rax, -24(%rbp)                 # 8-byte Spill
.LBB65_6:
	movq	-24(%rbp), %rax                 # 8-byte Reload
	popq	%rbp
	.cfi_def_cfa %rsp, 8
	retq
.Lfunc_end65:
	.size	_ZL28safe_lshift_func_int64_t_s_sli, .Lfunc_end65-_ZL28safe_lshift_func_int64_t_s_sli
	.cfi_endproc
                                        # -- End function
	.p2align	4, 0x90                         # -- Begin function _ZL26safe_mul_func_uint16_t_u_utt
	.type	_ZL26safe_mul_func_uint16_t_u_utt,@function
_ZL26safe_mul_func_uint16_t_u_utt:      # @_ZL26safe_mul_func_uint16_t_u_utt
	.cfi_startproc
# %bb.0:
	pushq	%rbp
	.cfi_def_cfa_offset 16
	.cfi_offset %rbp, -16
	movq	%rsp, %rbp
	.cfi_def_cfa_register %rbp
	movw	%si, %ax
	movw	%di, %cx
	movw	%cx, -2(%rbp)
	movw	%ax, -4(%rbp)
	movzwl	-2(%rbp), %eax
	movzwl	-4(%rbp), %ecx
	imull	%ecx, %eax
                                        # kill: def $ax killed $ax killed $eax
	movzwl	%ax, %eax
	popq	%rbp
	.cfi_def_cfa %rsp, 8
	retq
.Lfunc_end66:
	.size	_ZL26safe_mul_func_uint16_t_u_utt, .Lfunc_end66-_ZL26safe_mul_func_uint16_t_u_utt
	.cfi_endproc
                                        # -- End function
	.p2align	4, 0x90                         # -- Begin function _ZL29safe_rshift_func_uint16_t_u_utj
	.type	_ZL29safe_rshift_func_uint16_t_u_utj,@function
_ZL29safe_rshift_func_uint16_t_u_utj:   # @_ZL29safe_rshift_func_uint16_t_u_utj
	.cfi_startproc
# %bb.0:
	pushq	%rbp
	.cfi_def_cfa_offset 16
	.cfi_offset %rbp, -16
	movq	%rsp, %rbp
	.cfi_def_cfa_register %rbp
	movw	%di, %ax
	movw	%ax, -2(%rbp)
	movl	%esi, -8(%rbp)
	cmpl	$32, -8(%rbp)
	jb	.LBB67_2
# %bb.1:
	movzwl	-2(%rbp), %eax
	movl	%eax, -12(%rbp)                 # 4-byte Spill
	jmp	.LBB67_3
.LBB67_2:
	movzwl	-2(%rbp), %eax
	movl	-8(%rbp), %ecx
                                        # kill: def $cl killed $ecx
	sarl	%cl, %eax
	movl	%eax, -12(%rbp)                 # 4-byte Spill
.LBB67_3:
	movl	-12(%rbp), %eax                 # 4-byte Reload
                                        # kill: def $ax killed $ax killed $eax
	movzwl	%ax, %eax
	popq	%rbp
	.cfi_def_cfa %rsp, 8
	retq
.Lfunc_end67:
	.size	_ZL29safe_rshift_func_uint16_t_u_utj, .Lfunc_end67-_ZL29safe_rshift_func_uint16_t_u_utj
	.cfi_endproc
                                        # -- End function
	.p2align	4, 0x90                         # -- Begin function _ZL25safe_add_func_uint8_t_u_uhh
	.type	_ZL25safe_add_func_uint8_t_u_uhh,@function
_ZL25safe_add_func_uint8_t_u_uhh:       # @_ZL25safe_add_func_uint8_t_u_uhh
	.cfi_startproc
# %bb.0:
	pushq	%rbp
	.cfi_def_cfa_offset 16
	.cfi_offset %rbp, -16
	movq	%rsp, %rbp
	.cfi_def_cfa_register %rbp
	movb	%sil, %al
	movb	%dil, %cl
	movb	%cl, -1(%rbp)
	movb	%al, -2(%rbp)
	movzbl	-1(%rbp), %eax
	movzbl	-2(%rbp), %ecx
	addl	%ecx, %eax
                                        # kill: def $al killed $al killed $eax
	movzbl	%al, %eax
	popq	%rbp
	.cfi_def_cfa %rsp, 8
	retq
.Lfunc_end68:
	.size	_ZL25safe_add_func_uint8_t_u_uhh, .Lfunc_end68-_ZL25safe_add_func_uint8_t_u_uhh
	.cfi_endproc
                                        # -- End function
	.p2align	4, 0x90                         # -- Begin function _ZL25safe_sub_func_uint8_t_u_uhh
	.type	_ZL25safe_sub_func_uint8_t_u_uhh,@function
_ZL25safe_sub_func_uint8_t_u_uhh:       # @_ZL25safe_sub_func_uint8_t_u_uhh
	.cfi_startproc
# %bb.0:
	pushq	%rbp
	.cfi_def_cfa_offset 16
	.cfi_offset %rbp, -16
	movq	%rsp, %rbp
	.cfi_def_cfa_register %rbp
	movb	%sil, %al
	movb	%dil, %cl
	movb	%cl, -1(%rbp)
	movb	%al, -2(%rbp)
	movzbl	-1(%rbp), %eax
	movzbl	-2(%rbp), %ecx
	subl	%ecx, %eax
                                        # kill: def $al killed $al killed $eax
	movzbl	%al, %eax
	popq	%rbp
	.cfi_def_cfa %rsp, 8
	retq
.Lfunc_end69:
	.size	_ZL25safe_sub_func_uint8_t_u_uhh, .Lfunc_end69-_ZL25safe_sub_func_uint8_t_u_uhh
	.cfi_endproc
                                        # -- End function
	.p2align	4, 0x90                         # -- Begin function _ZL7func_25Pis
	.type	_ZL7func_25Pis,@function
_ZL7func_25Pis:                         # @_ZL7func_25Pis
	.cfi_startproc
# %bb.0:
	pushq	%rbp
	.cfi_def_cfa_offset 16
	.cfi_offset %rbp, -16
	movq	%rsp, %rbp
	.cfi_def_cfa_register %rbp
	subq	$3040, %rsp                     # imm = 0xBE0
	movw	%si, %ax
	movq	%fs:40, %rcx
	movq	%rcx, -8(%rbp)
	movq	%rdi, -2768(%rbp)
	movw	%ax, -2770(%rbp)
	movabsq	$-2569883167008336228, %rax     # imm = 0xDC55F0E01C36569C
	movq	%rax, -2784(%rbp)
	movl	$0, -2788(%rbp)
	movl	$-1839170260, -2792(%rbp)       # imm = 0x92607D2C
	movabsq	$-2028604714464563436, %rax     # imm = 0xE3D8F2C29CA82F14
	movq	%rax, -2800(%rbp)
	leaq	-336(%rbp), %rdi
	leaq	.L__const._ZL7func_25Pis.l_1388(%rip), %rsi
	movl	$320, %edx                      # imm = 0x140
	callq	memcpy@PLT
	leaq	_ZL5g_474(%rip), %rax
	movq	%rax, -2712(%rbp)
	leaq	-2712(%rbp), %rax
	movq	%rax, -2808(%rbp)
	movl	$-47944981, -2812(%rbp)         # imm = 0xFD246AEB
	leaq	_ZL6g_1505(%rip), %rax
	movq	%rax, -2824(%rbp)
	leaq	-592(%rbp), %rdi
	leaq	.L__const._ZL7func_25Pis.l_1509(%rip), %rsi
	movl	$256, %edx                      # imm = 0x100
	callq	memcpy@PLT
	movl	$0, -2828(%rbp)
.LBB70_1:                               # =>This Inner Loop Header: Depth=1
	cmpl	$2, -2828(%rbp)
	jge	.LBB70_4
# %bb.2:                                #   in Loop: Header=BB70_1 Depth=1
	movslq	-2828(%rbp), %rax
	movl	$-4, -16(%rbp,%rax,4)
# %bb.3:                                #   in Loop: Header=BB70_1 Depth=1
	movl	-2828(%rbp), %eax
	addl	$1, %eax
	movl	%eax, -2828(%rbp)
	jmp	.LBB70_1
.LBB70_4:
	movq	-2768(%rbp), %rax
	movl	(%rax), %ecx
	movq	_ZL4g_97(%rip), %rax
	andl	(%rax), %ecx
	movl	%ecx, (%rax)
	movq	$0, _ZL5g_596(%rip)
.LBB70_5:                               # =>This Loop Header: Depth=1
                                        #     Child Loop BB70_7 Depth 2
                                        #     Child Loop BB70_11 Depth 2
                                        #     Child Loop BB70_15 Depth 2
	cmpq	$27, _ZL5g_596(%rip)
	ja	.LBB70_23
# %bb.6:                                #   in Loop: Header=BB70_5 Depth=1
	movl	$-1217144171, -2840(%rbp)       # imm = 0xB773DA95
	leaq	_ZL5g_143(%rip), %rax
	movq	%rax, -2848(%rbp)
	leaq	-656(%rbp), %rax
	addq	$8, %rax
	movq	%rax, -2856(%rbp)
	leaq	_ZL5g_273(%rip), %rax
	addq	$14, %rax
	movq	%rax, -2720(%rbp)
	movq	$0, -2864(%rbp)
	movl	$-8, -2868(%rbp)
	movq	.L__const._ZL7func_25Pis.l_1316(%rip), %rax
	movq	%rax, -672(%rbp)
	movl	.L__const._ZL7func_25Pis.l_1316+8(%rip), %eax
	movl	%eax, -664(%rbp)
	movw	$9631, -2870(%rbp)              # imm = 0x259F
	movl	$0, -2876(%rbp)
	movl	$-6, -2880(%rbp)
	movl	$0, -2884(%rbp)
	movl	$0, -2888(%rbp)
	movl	$241101023, -2892(%rbp)         # imm = 0xE5EE8DF
	movl	$-1299368351, -2896(%rbp)       # imm = 0xB28D3661
	movl	$744138318, -2900(%rbp)         # imm = 0x2C5AA64E
	leaq	-2720(%rbp), %rax
	movq	%rax, -2728(%rbp)
	leaq	-2728(%rbp), %rax
	movq	%rax, -2736(%rbp)
	leaq	-2736(%rbp), %rax
	movq	%rax, -2912(%rbp)
	movq	$0, -2920(%rbp)
	leaq	-336(%rbp), %rax
	addq	$240, %rax
	addq	$48, %rax
	movq	%rax, -2928(%rbp)
	leaq	-720(%rbp), %rdi
	leaq	.L__const._ZL7func_25Pis.l_1517(%rip), %rsi
	movl	$40, %edx
	callq	memcpy@PLT
	movl	$0, -2932(%rbp)
.LBB70_7:                               #   Parent Loop BB70_5 Depth=1
                                        # =>  This Inner Loop Header: Depth=2
	cmpl	$8, -2932(%rbp)
	jge	.LBB70_10
# %bb.8:                                #   in Loop: Header=BB70_7 Depth=2
	movslq	-2932(%rbp), %rax
	leaq	_ZL5g_693(%rip), %rcx
	movq	%rcx, -656(%rbp,%rax,8)
# %bb.9:                                #   in Loop: Header=BB70_7 Depth=2
	movl	-2932(%rbp), %eax
	addl	$1, %eax
	movl	%eax, -2932(%rbp)
	jmp	.LBB70_7
.LBB70_10:                              #   in Loop: Header=BB70_5 Depth=1
	movw	$0, _ZL6g_1155(%rip)
.LBB70_11:                              #   Parent Loop BB70_5 Depth=1
                                        # =>  This Inner Loop Header: Depth=2
	movswl	_ZL6g_1155(%rip), %eax
	cmpl	$10, %eax
	jge	.LBB70_14
# %bb.12:                               #   in Loop: Header=BB70_11 Depth=2
	movswq	_ZL6g_1155(%rip), %rcx
	leaq	_ZL5g_938(%rip), %rax
	leaq	_ZL6g_1282(%rip), %rdx
	movq	%rdx, (%rax,%rcx,8)
# %bb.13:                               #   in Loop: Header=BB70_11 Depth=2
	movswl	_ZL6g_1155(%rip), %eax
	addl	$1, %eax
                                        # kill: def $ax killed $ax killed $eax
	movw	%ax, _ZL6g_1155(%rip)
	jmp	.LBB70_11
.LBB70_14:                              #   in Loop: Header=BB70_5 Depth=1
	movq	$0, _ZL5g_717(%rip)
.LBB70_15:                              #   Parent Loop BB70_5 Depth=1
                                        # =>  This Inner Loop Header: Depth=2
	cmpq	$4, _ZL5g_717(%rip)
	jg	.LBB70_21
# %bb.16:                               #   in Loop: Header=BB70_15 Depth=2
	leaq	-1376(%rbp), %rdi
	leaq	.L__const._ZL7func_25Pis.l_1285(%rip), %rsi
	movl	$648, %edx                      # imm = 0x288
	callq	memcpy@PLT
	leaq	_ZL5g_143(%rip), %rax
	movq	%rax, -2744(%rbp)
	leaq	-2744(%rbp), %rax
	movq	%rax, -2944(%rbp)
	leaq	-1440(%rbp), %rdi
	leaq	.L__const._ZL7func_25Pis.l_1315(%rip), %rsi
	movl	$54, %edx
	callq	memcpy@PLT
	movq	$0, -2952(%rbp)
	leaq	-1552(%rbp), %rdi
	leaq	.L__const._ZL7func_25Pis.l_1351(%rip), %rsi
	movl	$112, %edx
	callq	memcpy@PLT
	leaq	-1664(%rbp), %rdi
	leaq	.L__const._ZL7func_25Pis.l_1411(%rip), %rsi
	movl	$108, %edx
	callq	memcpy@PLT
	movq	.L__const._ZL7func_25Pis.l_1459(%rip), %rax
	movq	%rax, -1696(%rbp)
	movq	.L__const._ZL7func_25Pis.l_1459+8(%rip), %rax
	movq	%rax, -1688(%rbp)
	movq	.L__const._ZL7func_25Pis.l_1459+16(%rip), %rax
	movq	%rax, -1680(%rbp)
	movq	.L__const._ZL7func_25Pis.l_1459+24(%rip), %rax
	movq	%rax, -1672(%rbp)
	leaq	-1696(%rbp), %rax
	addq	$16, %rax
	movq	%rax, -2752(%rbp)
	leaq	-2096(%rbp), %rdi
	movq	$0, -2096(%rbp)
	leaq	-2752(%rbp), %rax
	movq	%rax, -2088(%rbp)
	leaq	-2752(%rbp), %rax
	movq	%rax, -2080(%rbp)
	movq	$0, -2072(%rbp)
	leaq	-2752(%rbp), %rax
	movq	%rax, -2064(%rbp)
	addq	$40, %rdi
	leaq	-2752(%rbp), %rax
	movq	%rax, -2056(%rbp)
	leaq	-2752(%rbp), %rax
	movq	%rax, -2048(%rbp)
	leaq	-2752(%rbp), %rax
	movq	%rax, -2040(%rbp)
	leaq	-2752(%rbp), %rax
	movq	%rax, -2032(%rbp)
	leaq	-2752(%rbp), %rax
	movq	%rax, -2024(%rbp)
	addq	$40, %rdi
	leaq	-2752(%rbp), %rax
	movq	%rax, -2016(%rbp)
	movq	$0, -2008(%rbp)
	leaq	-2752(%rbp), %rax
	movq	%rax, -2000(%rbp)
	leaq	-2752(%rbp), %rax
	movq	%rax, -1992(%rbp)
	movq	$0, -1984(%rbp)
	addq	$40, %rdi
	leaq	-2752(%rbp), %rax
	movq	%rax, -1976(%rbp)
	movq	$0, -1968(%rbp)
	movq	$0, -1960(%rbp)
	leaq	-2752(%rbp), %rax
	movq	%rax, -1952(%rbp)
	movq	$0, -1944(%rbp)
	addq	$40, %rdi
	movq	%rdi, -3024(%rbp)               # 8-byte Spill
	xorl	%esi, %esi
	movl	$40, %edx
	callq	memset@PLT
	movq	-3024(%rbp), %rdi               # 8-byte Reload
	leaq	-2752(%rbp), %rax
	movq	%rax, -1920(%rbp)
	addq	$40, %rdi
	leaq	-2752(%rbp), %rax
	movq	%rax, -1896(%rbp)
	movq	$0, -1888(%rbp)
	leaq	-2752(%rbp), %rax
	movq	%rax, -1880(%rbp)
	leaq	-2752(%rbp), %rax
	movq	%rax, -1872(%rbp)
	movq	$0, -1864(%rbp)
	addq	$40, %rdi
	leaq	-2752(%rbp), %rax
	movq	%rax, -1856(%rbp)
	leaq	-2752(%rbp), %rax
	movq	%rax, -1848(%rbp)
	leaq	-2752(%rbp), %rax
	movq	%rax, -1840(%rbp)
	leaq	-2752(%rbp), %rax
	movq	%rax, -1832(%rbp)
	leaq	-2752(%rbp), %rax
	movq	%rax, -1824(%rbp)
	addq	$40, %rdi
	xorl	%esi, %esi
	movl	$40, %edx
	callq	memset@PLT
	leaq	-2752(%rbp), %rax
	movq	%rax, -1800(%rbp)
	leaq	-2752(%rbp), %rax
	movq	%rax, -1776(%rbp)
	leaq	-2752(%rbp), %rax
	movq	%rax, -1768(%rbp)
	leaq	-2752(%rbp), %rax
	movq	%rax, -1760(%rbp)
	leaq	-2752(%rbp), %rax
	movq	%rax, -1752(%rbp)
	leaq	-2752(%rbp), %rax
	movq	%rax, -1744(%rbp)
	movq	$0, -1736(%rbp)
	leaq	-2752(%rbp), %rax
	movq	%rax, -1728(%rbp)
	leaq	-2752(%rbp), %rax
	movq	%rax, -1720(%rbp)
	movq	$0, -1712(%rbp)
	leaq	-2752(%rbp), %rax
	movq	%rax, -1704(%rbp)
	leaq	-2096(%rbp), %rax
	addq	$40, %rax
	addq	$8, %rax
	movq	%rax, -2760(%rbp)
	leaq	-2760(%rbp), %rax
	movq	%rax, -2704(%rbp)
	leaq	-2760(%rbp), %rax
	movq	%rax, -2696(%rbp)
	leaq	-2760(%rbp), %rax
	movq	%rax, -2688(%rbp)
	leaq	-2760(%rbp), %rax
	movq	%rax, -2680(%rbp)
	leaq	-2760(%rbp), %rax
	movq	%rax, -2672(%rbp)
	movq	$0, -2664(%rbp)
	leaq	-2760(%rbp), %rax
	movq	%rax, -2656(%rbp)
	movq	$0, -2648(%rbp)
	leaq	-2760(%rbp), %rax
	movq	%rax, -2640(%rbp)
	movq	$0, -2632(%rbp)
	leaq	-2760(%rbp), %rax
	movq	%rax, -2624(%rbp)
	leaq	-2760(%rbp), %rax
	movq	%rax, -2616(%rbp)
	leaq	-2760(%rbp), %rax
	movq	%rax, -2608(%rbp)
	leaq	-2760(%rbp), %rax
	movq	%rax, -2600(%rbp)
	leaq	-2760(%rbp), %rax
	movq	%rax, -2592(%rbp)
	movq	$0, -2584(%rbp)
	leaq	-2760(%rbp), %rax
	movq	%rax, -2576(%rbp)
	movq	$0, -2568(%rbp)
	leaq	-2760(%rbp), %rax
	movq	%rax, -2560(%rbp)
	movq	$0, -2552(%rbp)
	leaq	-2760(%rbp), %rax
	movq	%rax, -2544(%rbp)
	leaq	-2760(%rbp), %rax
	movq	%rax, -2536(%rbp)
	leaq	-2760(%rbp), %rax
	movq	%rax, -2528(%rbp)
	leaq	-2760(%rbp), %rax
	movq	%rax, -2520(%rbp)
	leaq	-2760(%rbp), %rax
	movq	%rax, -2512(%rbp)
	movq	$0, -2504(%rbp)
	leaq	-2760(%rbp), %rax
	movq	%rax, -2496(%rbp)
	movq	$0, -2488(%rbp)
	leaq	-2760(%rbp), %rax
	movq	%rax, -2480(%rbp)
	movq	$0, -2472(%rbp)
	leaq	-2760(%rbp), %rax
	movq	%rax, -2464(%rbp)
	leaq	-2760(%rbp), %rax
	movq	%rax, -2456(%rbp)
	leaq	-2760(%rbp), %rax
	movq	%rax, -2448(%rbp)
	leaq	-2760(%rbp), %rax
	movq	%rax, -2440(%rbp)
	leaq	-2760(%rbp), %rax
	movq	%rax, -2432(%rbp)
	movq	$0, -2424(%rbp)
	leaq	-2760(%rbp), %rax
	movq	%rax, -2416(%rbp)
	movq	$0, -2408(%rbp)
	leaq	-2760(%rbp), %rax
	movq	%rax, -2400(%rbp)
	movq	$0, -2392(%rbp)
	leaq	-2760(%rbp), %rax
	movq	%rax, -2384(%rbp)
	leaq	-2760(%rbp), %rax
	movq	%rax, -2376(%rbp)
	leaq	-2760(%rbp), %rax
	movq	%rax, -2368(%rbp)
	leaq	-2760(%rbp), %rax
	movq	%rax, -2360(%rbp)
	leaq	-2760(%rbp), %rax
	movq	%rax, -2352(%rbp)
	movq	$0, -2344(%rbp)
	leaq	-2760(%rbp), %rax
	movq	%rax, -2336(%rbp)
	movq	$0, -2328(%rbp)
	leaq	-2760(%rbp), %rax
	movq	%rax, -2320(%rbp)
	movq	$0, -2312(%rbp)
	leaq	-2760(%rbp), %rax
	movq	%rax, -2304(%rbp)
	leaq	-2760(%rbp), %rax
	movq	%rax, -2296(%rbp)
	leaq	-2760(%rbp), %rax
	movq	%rax, -2288(%rbp)
	leaq	-2760(%rbp), %rax
	movq	%rax, -2280(%rbp)
	leaq	-2760(%rbp), %rax
	movq	%rax, -2272(%rbp)
	movq	$0, -2264(%rbp)
	leaq	-2760(%rbp), %rax
	movq	%rax, -2256(%rbp)
	movq	$0, -2248(%rbp)
	leaq	-2760(%rbp), %rax
	movq	%rax, -2240(%rbp)
	movq	$0, -2232(%rbp)
	leaq	-2760(%rbp), %rax
	movq	%rax, -2224(%rbp)
	leaq	-2760(%rbp), %rax
	movq	%rax, -2216(%rbp)
	leaq	-2760(%rbp), %rax
	movq	%rax, -2208(%rbp)
	leaq	-2760(%rbp), %rax
	movq	%rax, -2200(%rbp)
	leaq	-2760(%rbp), %rax
	movq	%rax, -2192(%rbp)
	movq	$0, -2184(%rbp)
	leaq	-2760(%rbp), %rax
	movq	%rax, -2176(%rbp)
	movq	$0, -2168(%rbp)
	leaq	-2760(%rbp), %rax
	movq	%rax, -2160(%rbp)
	movq	$0, -2152(%rbp)
	leaq	-2760(%rbp), %rax
	movq	%rax, -2144(%rbp)
	leaq	-2760(%rbp), %rax
	movq	%rax, -2136(%rbp)
	leaq	-2760(%rbp), %rax
	movq	%rax, -2128(%rbp)
	leaq	-2760(%rbp), %rax
	movq	%rax, -2120(%rbp)
	leaq	-2760(%rbp), %rax
	movq	%rax, -2112(%rbp)
	movw	$30304, -2954(%rbp)             # imm = 0x7660
	movw	$-1, -2956(%rbp)
	leaq	_ZL6g_1502(%rip), %rax
	addq	$7, %rax
	movq	%rax, -2968(%rbp)
	movq	-2784(%rbp), %rax
	addq	$1, %rax
	movq	%rax, -2784(%rbp)
	movq	_ZL5g_143+24(%rip), %rax
	movq	%rax, -3016(%rbp)               # 8-byte Spill
	movl	-2788(%rbp), %eax
                                        # kill: def $al killed $al killed $eax
	movb	%al, -3001(%rbp)                # 1-byte Spill
	movswq	-2770(%rbp), %rdi
	movl	$3077823125, %esi               # imm = 0xB773DA95
	callq	_ZL26safe_mul_func_uint64_t_u_umm
	movq	%rax, -3000(%rbp)               # 8-byte Spill
	movq	-2848(%rbp), %rax
	movq	-2744(%rbp), %rcx
	movq	-2944(%rbp), %rdx
	movq	%rcx, (%rdx)
	cmpq	%rcx, %rax
	sete	%al
	andb	$1, %al
	movzbl	%al, %eax
	movl	%eax, -2988(%rbp)               # 4-byte Spill
	movq	-2720(%rbp), %rcx
	movb	$1, %al
	cmpq	-2864(%rbp), %rcx
	movb	%al, -2981(%rbp)                # 1-byte Spill
	je	.LBB70_19
# %bb.17:                               #   in Loop: Header=BB70_15 Depth=2
	movq	_ZL6g_1012(%rip), %rcx
	movb	$1, %al
	cmpw	$0, (%rcx)
	movb	%al, -2981(%rbp)                # 1-byte Spill
	jne	.LBB70_19
# %bb.18:                               #   in Loop: Header=BB70_15 Depth=2
	cmpw	$0, -2770(%rbp)
	setne	%al
	movb	%al, -2981(%rbp)                # 1-byte Spill
.LBB70_19:                              #   in Loop: Header=BB70_15 Depth=2
	movl	-2988(%rbp), %edi               # 4-byte Reload
	movb	-2981(%rbp), %al                # 1-byte Reload
	movl	$4294967295, %esi               # imm = 0xFFFFFFFF
	callq	_ZL26safe_mul_func_uint32_t_u_ujj
                                        # kill: def $ax killed $ax killed $eax
	movl	$15, %esi
	movswl	%ax, %edi
	callq	_ZL28safe_rshift_func_int16_t_s_usj
	movb	-3001(%rbp), %cl                # 1-byte Reload
	movw	%ax, %dx
	movq	-3000(%rbp), %rax               # 8-byte Reload
	movswq	%dx, %rdx
	cmpq	$7, %rdx
	setbe	%dl
	andb	$1, %dl
	movzbl	%dl, %edx
	cmpl	_ZL5g_790+2(%rip), %edx
	sete	%dl
	andb	$1, %dl
	movzbl	%dl, %edx
                                        # kill: def $rdx killed $edx
	cmpq	%rdx, %rax
	setae	%al
	andb	$1, %al
	movsbl	%cl, %edi
	movsbl	%al, %esi
	callq	_ZL24safe_sub_func_int8_t_s_saa
	movb	%al, %cl
	movw	-2770(%rbp), %ax
                                        # kill: def $al killed $al killed $ax
	movsbl	%cl, %edi
	movsbl	%al, %esi
	callq	_ZL24safe_mod_func_int8_t_s_saa
	movsbl	%al, %eax
	movw	%ax, %cx
	movl	_ZL5g_474+12(%rip), %eax
	shll	$6, %eax
	sarl	$6, %eax
                                        # kill: def $ax killed $ax killed $eax
	movswl	%cx, %edi
	movswl	%ax, %esi
	callq	_ZL25safe_mod_func_int16_t_s_sss
	movswq	%ax, %rdi
	movq	_ZL5g_577(%rip), %rax
	movq	%rdi, (%rax)
	movl	$20, %esi
	callq	_ZL28safe_lshift_func_int64_t_s_sli
	cmpq	$4, %rax
	setl	%al
	andb	$1, %al
	movzbl	%al, %eax
	movq	_ZL6g_1012(%rip), %rcx
	movzwl	(%rcx), %ecx
	cmpl	%ecx, %eax
	setl	%al
	andb	$1, %al
	movzbl	%al, %edi
	movq	-2768(%rbp), %rax
	movl	(%rax), %esi
	callq	_ZL26safe_div_func_uint32_t_u_ujj
	movl	%eax, %ecx
	movq	-3016(%rbp), %rax               # 8-byte Reload
	movl	%ecx, %ecx
                                        # kill: def $rcx killed $ecx
	cmpq	%rcx, %rax
	setb	%al
	andb	$1, %al
	movzbl	%al, %eax
	orl	-2868(%rbp), %eax
	movl	%eax, -2868(%rbp)
# %bb.20:                               #   in Loop: Header=BB70_15 Depth=2
	movq	_ZL5g_717(%rip), %rax
	addq	$1, %rax
	movq	%rax, _ZL5g_717(%rip)
	jmp	.LBB70_15
.LBB70_21:                              #   in Loop: Header=BB70_5 Depth=1
	jmp	.LBB70_22
.LBB70_22:                              #   in Loop: Header=BB70_5 Depth=1
	movq	_ZL5g_596(%rip), %rax
	addq	$1, %rax
	movq	%rax, _ZL5g_596(%rip)
	jmp	.LBB70_5
.LBB70_23:
	movq	_ZL6g_1011(%rip), %rax
	movq	(%rax), %rax
	movw	(%rax), %ax
	movw	%ax, -3026(%rbp)                # 2-byte Spill
	movq	%fs:40, %rax
	movq	-8(%rbp), %rcx
	cmpq	%rcx, %rax
	jne	.LBB70_25
# %bb.24:
	movw	-3026(%rbp), %ax                # 2-byte Reload
	movzwl	%ax, %eax
	addq	$3040, %rsp                     # imm = 0xBE0
	popq	%rbp
	.cfi_def_cfa %rsp, 8
	retq
.LBB70_25:
	.cfi_def_cfa %rbp, 16
	callq	__stack_chk_fail@PLT
.Lfunc_end70:
	.size	_ZL7func_25Pis, .Lfunc_end70-_ZL7func_25Pis
	.cfi_endproc
                                        # -- End function
	.p2align	4, 0x90                         # -- Begin function _ZL7func_45ti
	.type	_ZL7func_45ti,@function
_ZL7func_45ti:                          # @_ZL7func_45ti
	.cfi_startproc
# %bb.0:
	pushq	%rbp
	.cfi_def_cfa_offset 16
	.cfi_offset %rbp, -16
	movq	%rsp, %rbp
	.cfi_def_cfa_register %rbp
	subq	$352, %rsp                      # imm = 0x160
	movw	%di, %ax
	movq	%fs:40, %rcx
	movq	%rcx, -8(%rbp)
	movw	%ax, -180(%rbp)
	movl	%esi, -184(%rbp)
	leaq	_ZL5g_717(%rip), %rax
	movq	%rax, -104(%rbp)
	leaq	-104(%rbp), %rax
	movq	%rax, -112(%rbp)
	leaq	-112(%rbp), %rax
	movq	%rax, -120(%rbp)
	leaq	-120(%rbp), %rax
	movq	%rax, -192(%rbp)
	movl	$1, -124(%rbp)
	movw	$5536, -194(%rbp)               # imm = 0x15A0
	movl	$9, -200(%rbp)
	leaq	_ZL5g_673(%rip), %rax
	addq	$36, %rax
	movq	%rax, -208(%rbp)
	movl	$1766250633, -212(%rbp)         # imm = 0x6946D889
	movw	$8, -214(%rbp)
	movl	$-1393828877, -220(%rbp)        # imm = 0xACEBDBF3
	movl	$-1, -224(%rbp)
	movl	$0, -228(%rbp)
	movl	$-1, -232(%rbp)
	movl	$1650316026, -236(%rbp)         # imm = 0x625DD2FA
	leaq	-48(%rbp), %rdi
	leaq	.L__const._ZL7func_45ti.l_1176(%rip), %rsi
	movl	$40, %edx
	callq	memcpy@PLT
	leaq	-168(%rbp), %rdi
	leaq	.L__const._ZL7func_45ti.l_1192(%rip), %rsi
	movl	$40, %edx
	callq	memcpy@PLT
	movb	$-1, -237(%rbp)
	movq	-192(%rbp), %rax
	movl	-124(%rbp), %eax
	orl	_ZL5g_100+2(%rip), %eax
	movq	-192(%rbp), %rax
	movq	(%rax), %rax
	movq	(%rax), %rax
	movq	(%rax), %rax
	movq	%rax, -312(%rbp)                # 8-byte Spill
	xorl	%eax, %eax
                                        # kill: def $al killed $al killed $eax
	cmpl	$0, -124(%rbp)
	movb	%al, -297(%rbp)                 # 1-byte Spill
	je	.LBB71_4
# %bb.1:
	movswl	_ZL6g_1155(%rip), %eax
	movl	%eax, -320(%rbp)                # 4-byte Spill
	movl	$4294967295, %edi               # imm = 0xFFFFFFFF
	movl	$1, %esi
	callq	_ZL26safe_sub_func_uint32_t_u_ujj
	movl	%eax, %ecx
	movl	-320(%rbp), %eax                # 4-byte Reload
	cmpl	%ecx, %eax
	setbe	%al
	andb	$1, %al
	movzbl	%al, %eax
                                        # kill: def $ax killed $ax killed $eax
	movw	%ax, -316(%rbp)                 # 2-byte Spill
	movl	-124(%rbp), %eax
	movb	%al, %cl
	movl	-124(%rbp), %eax
                                        # kill: def $al killed $al killed $eax
	movzbl	%cl, %edi
	movzbl	%al, %esi
	callq	_ZL25safe_sub_func_uint8_t_u_uhh
	movl	$111, %esi
	movsbl	%al, %edi
	callq	_ZL24safe_sub_func_int8_t_s_saa
	movw	-316(%rbp), %cx                 # 2-byte Reload
	movsbl	%al, %eax
                                        # kill: def $ax killed $ax killed $eax
	movswl	%cx, %edi
	movswl	%ax, %esi
	callq	_ZL25safe_mul_func_int16_t_s_sss
	movw	%ax, %cx
	xorl	%eax, %eax
                                        # kill: def $al killed $al killed $eax
	cmpw	$0, %cx
	movb	%al, -313(%rbp)                 # 1-byte Spill
	je	.LBB71_3
# %bb.2:
	xorl	%eax, %eax
                                        # kill: def $al killed $al killed $eax
	movb	%al, -313(%rbp)                 # 1-byte Spill
	jmp	.LBB71_3
.LBB71_3:
	movb	-313(%rbp), %al                 # 1-byte Reload
	andb	$1, %al
	movzbl	%al, %eax
	movzwl	-180(%rbp), %ecx
	orl	%ecx, %eax
	cmpl	$0, %eax
	setne	%al
	movb	%al, -297(%rbp)                 # 1-byte Spill
.LBB71_4:
	movb	-297(%rbp), %al                 # 1-byte Reload
	andb	$1, %al
	movzbl	%al, %eax
	cmpl	-184(%rbp), %eax
	setne	%cl
	andb	$1, %cl
	movl	-124(%rbp), %eax
                                        # kill: def $al killed $al killed $eax
	movsbl	%cl, %edi
	movsbl	%al, %esi
	callq	_ZL24safe_sub_func_int8_t_s_saa
	movsbl	%al, %edi
	movl	$5536, %esi                     # imm = 0x15A0
	callq	_ZL26safe_mod_func_uint32_t_u_ujj
                                        # kill: def $ecx killed $eax
	movq	-312(%rbp), %rax                # 8-byte Reload
	movq	-112(%rbp), %rcx
	cmpq	(%rcx), %rax
	sete	%al
	andb	$1, %al
	movzbl	%al, %ecx
	movzwl	-180(%rbp), %edx
	xorl	%eax, %eax
                                        # kill: def $al killed $al killed $eax
	cmpl	%edx, %ecx
	movb	%al, -321(%rbp)                 # 1-byte Spill
	jl	.LBB71_6
# %bb.5:
	cmpl	$0, -200(%rbp)
	setne	%al
	movb	%al, -321(%rbp)                 # 1-byte Spill
.LBB71_6:
	movb	-321(%rbp), %al                 # 1-byte Reload
	movq	-208(%rbp), %rcx
	movslq	(%rcx), %rax
	andq	$1067213575, %rax               # imm = 0x3F9C6307
                                        # kill: def $eax killed $eax killed $rax
	movl	%eax, (%rcx)
	cmpl	$0, %eax
	je	.LBB71_8
# %bb.7:
	leaq	_ZL5g_673(%rip), %rax
