	.text
	.file	"diriter.cpp"
	.file	0 "/home/kai/src/ll2x" "cpp/diriter.cpp" md5 0xce2783818a8069fb247b8ac3cf10a46a
	.file	1 "/usr/bin/../lib/gcc/x86_64-linux-gnu/11/../../../../include/c++/11" "iostream"
	.file	2 "/usr/bin/../lib/gcc/x86_64-linux-gnu/11/../../../../include/c++/11/ext" "concurrence.h"
	.file	3 "/usr/bin/../lib/gcc/x86_64-linux-gnu/11/../../../../include/c++/11/bits" "fs_fwd.h" md5 0x473ddbab2f988f5606e2f88d815cf1db
	.file	4 "/usr/bin/../lib/gcc/x86_64-linux-gnu/11/../../../../include/c++/11/bits" "fs_path.h" md5 0x8877eb003169ec54e3ef21d88efdadbc
	.file	5 "/usr/bin/../lib/gcc/x86_64-linux-gnu/11/../../../../include/c++/11/bits" "char_traits.h"
	.file	6 "/usr/bin/../lib/gcc/x86_64-linux-gnu/11/../../../../include/x86_64-linux-gnu/c++/11/bits" "c++config.h" md5 0xb580bd6c81b6bfb6402fbc5dbb4852dd
	.file	7 "/usr/bin/../lib/gcc/x86_64-linux-gnu/11/../../../../include/c++/11/ext" "new_allocator.h" md5 0x4493add5a3fa57e0ec30b90cd4e81c11
	.file	8 "/usr/bin/../lib/gcc/x86_64-linux-gnu/11/../../../../include/x86_64-linux-gnu/c++/11/bits" "c++allocator.h" md5 0xfcdcf111c9228da351f93cd81039e6d6
	.file	9 "/usr/bin/../lib/gcc/x86_64-linux-gnu/11/../../../../include/c++/11/bits" "allocator.h" md5 0x73bb75b771508fea2005b03d4edcd63f
	.file	10 "/usr/bin/../lib/gcc/x86_64-linux-gnu/11/../../../../include/c++/11/bits" "alloc_traits.h" md5 0x58570f452bb65bce7518e3bf3b7a6e72
	.file	11 "/usr/bin/../lib/gcc/x86_64-linux-gnu/11/../../../../include/c++/11/ext" "alloc_traits.h"
	.file	12 "/usr/bin/../lib/gcc/x86_64-linux-gnu/11/../../../../include/c++/11/bits" "basic_string.h"
	.file	13 "/usr/bin/../lib/gcc/x86_64-linux-gnu/11/../../../../include/c++/11" "string_view"
	.file	14 "/usr/bin/../lib/gcc/x86_64-linux-gnu/11/../../../../include/c++/11/bits" "stl_iterator.h" md5 0x43ad7d2b85ae23c8eccc761a6b4418f9
	.file	15 "/usr/bin/../lib/gcc/x86_64-linux-gnu/11/../../../../include/c++/11/bits" "stl_iterator_base_types.h"
	.file	16 "/usr/bin/../lib/gcc/x86_64-linux-gnu/11/../../../../include/c++/11/bits" "stringfwd.h"
	.file	17 "/usr/bin/../lib/gcc/x86_64-linux-gnu/11/../../../../include/c++/11/bits" "stl_pair.h" md5 0x7f4523a2a9644730e7f1af988b6f398d
	.file	18 "/usr/bin/../lib/gcc/x86_64-linux-gnu/11/../../../../include/c++/11" "type_traits"
	.file	19 "/usr/bin/../lib/gcc/x86_64-linux-gnu/11/../../../../include/c++/11/bits" "ios_base.h"
	.file	20 "/usr/bin/../lib/gcc/x86_64-linux-gnu/11/../../../../include/c++/11/bits" "shared_ptr_base.h" md5 0x903a445df4ef3034a2163ac5a9adc8da
	.file	21 "/usr/bin/../lib/gcc/x86_64-linux-gnu/11/../../../../include/c++/11" "new"
	.file	22 "/usr/bin/../lib/gcc/x86_64-linux-gnu/11/../../../../include/c++/11/bits" "fs_dir.h" md5 0x42e0fac7ef6d3d3217e48ce36672e534
	.file	23 "/usr/bin/../lib/gcc/x86_64-linux-gnu/11/../../../../include/c++/11/bits" "postypes.h"
	.file	24 "/usr/bin/../lib/gcc/x86_64-linux-gnu/11/../../../../include/c++/11" "tuple"
	.file	25 "/usr/bin/../lib/gcc/x86_64-linux-gnu/11/../../../../include/c++/11/bits" "uses_allocator.h" md5 0x3232586c3c5b827a38bfdd0f1cb692d3
	.file	26 "/usr/bin/../lib/gcc/x86_64-linux-gnu/11/../../../../include/c++/11/bits" "unique_ptr.h" md5 0x4b5ae66ad1eb2fe06e6955f59533f596
	.file	27 "/usr/bin/../lib/gcc/x86_64-linux-gnu/11/../../../../include/c++/11/bits" "basic_ios.h"
	.file	28 "/usr/bin/../lib/gcc/x86_64-linux-gnu/11/../../../../include/c++/11" "streambuf"
	.file	29 "/usr/bin/../lib/gcc/x86_64-linux-gnu/11/../../../../include/c++/11/bits" "streambuf.tcc"
	.file	30 "/usr/bin/../lib/gcc/x86_64-linux-gnu/11/../../../../include/c++/11/bits" "basic_ios.tcc"
	.file	31 "/usr/bin/../lib/gcc/x86_64-linux-gnu/11/../../../../include/c++/11" "ostream"
	.file	32 "/usr/bin/../lib/gcc/x86_64-linux-gnu/11/../../../../include/c++/11/bits" "ostream.tcc"
	.file	33 "/usr/bin/../lib/gcc/x86_64-linux-gnu/11/../../../../include/c++/11" "sstream"
	.file	34 "/usr/bin/../lib/gcc/x86_64-linux-gnu/11/../../../../include/c++/11/bits" "sstream.tcc"
	.file	35 "/usr/bin/../lib/gcc/x86_64-linux-gnu/11/../../../../include/c++/11/bits" "quoted_string.h"
	.file	36 "/usr/include/x86_64-linux-gnu/bits/types" "__mbstate_t.h" md5 0x82911a3e689448e3691ded3e0b471a55
	.file	37 "/usr/include/x86_64-linux-gnu/bits/types" "mbstate_t.h" md5 0xba8742313715e20e434cf6ccb2db98e3
	.file	38 "/usr/bin/../lib/gcc/x86_64-linux-gnu/11/../../../../include/c++/11" "cwchar"
	.file	39 "/usr/include/x86_64-linux-gnu/bits/types" "wint_t.h" md5 0xaa31b53ef28dc23152ceb41e2763ded3
	.file	40 "/usr/include" "wchar.h" md5 0x484b7adbbc849bb51cdbcb2d985b07a0
	.file	41 "/usr/include/x86_64-linux-gnu/bits/types" "struct_FILE.h" md5 0x1bad07471b7974df4ecc1d1c2ca207e6
	.file	42 "/usr/include/x86_64-linux-gnu/bits" "types.h" md5 0xd108b5f93a74c50510d7d9bc0ab36df9
	.file	43 "/usr/lib/llvm-14/lib/clang/14.0.0/include" "stddef.h" md5 0x2499dd2361b915724b073282bea3a7bc
	.file	44 "/usr/include/x86_64-linux-gnu/bits/types" "__FILE.h" md5 0x72a8fe90981f484acae7c6f3dfc5c2b7
	.file	45 "/usr/include/x86_64-linux-gnu/bits/types" "struct_tm.h" md5 0x9e5545b565ef031c4cd0faf90b69386f
	.file	46 "/usr/bin/../lib/gcc/x86_64-linux-gnu/11/../../../../include/c++/11/bits" "exception_ptr.h" md5 0xcb9f7e096e8ea7c4f5d31c641a5113f0
	.file	47 "/usr/bin/../lib/gcc/x86_64-linux-gnu/11/../../../../include/c++/11/debug" "debug.h" md5 0x982c0103e1e5f86b0818efdfc5273c3c
	.file	48 "/usr/include/x86_64-linux-gnu/bits" "stdint-intn.h" md5 0x55bcbdc3159515ebd91d351a70d505f4
	.file	49 "/usr/bin/../lib/gcc/x86_64-linux-gnu/11/../../../../include/c++/11" "cstdint"
	.file	50 "/usr/include" "stdint.h" md5 0xa48e64edacc5b19f56c99745232c963c
	.file	51 "/usr/include/x86_64-linux-gnu/bits" "stdint-uintn.h" md5 0x2bf2ae53c58c01b1a1b9383b5195125c
	.file	52 "/usr/bin/../lib/gcc/x86_64-linux-gnu/11/../../../../include/c++/11" "clocale"
	.file	53 "/usr/include" "locale.h" md5 0xa1d177e0f311dc60a74cb347049d75bc
	.file	54 "/usr/include" "ctype.h" md5 0x3ab3dd7fdf2578005732722ee2393e59
	.file	55 "/usr/bin/../lib/gcc/x86_64-linux-gnu/11/../../../../include/c++/11" "cctype"
	.file	56 "/usr/include" "stdlib.h" md5 0x02258fad21adf111bb9df9825e61954a
	.file	57 "/usr/bin/../lib/gcc/x86_64-linux-gnu/11/../../../../include/c++/11/bits" "std_abs.h"
	.file	58 "/usr/bin/../lib/gcc/x86_64-linux-gnu/11/../../../../include/c++/11" "cstdlib"
	.file	59 "/usr/include/x86_64-linux-gnu/bits" "stdlib-float.h" md5 0xadfe1626ff4efc68ac58c367ff5f206b
	.file	60 "/usr/include/x86_64-linux-gnu/bits" "stdlib-bsearch.h" md5 0x724ededa330cc3e0cbd34c5b4030a6f6
	.file	61 "/usr/include/x86_64-linux-gnu/bits/types" "FILE.h" md5 0x571f9fb6223c42439075fdde11a0de5d
	.file	62 "/usr/bin/../lib/gcc/x86_64-linux-gnu/11/../../../../include/c++/11" "cstdio"
	.file	63 "/usr/include/x86_64-linux-gnu/bits/types" "__fpos_t.h" md5 0x32de8bdaf3551a6c0a9394f9af4389ce
	.file	64 "/usr/include" "stdio.h" md5 0xf31eefcc3f15835fc5a4023a625cf609
	.file	65 "/usr/include/x86_64-linux-gnu/bits" "stdio.h" md5 0xc10e343656e7a2bf1044ef4e4442d902
	.file	66 "/usr/include/x86_64-linux-gnu/bits/types" "clock_t.h" md5 0x1aade99fd778d1551600c7ca1410b9f1
	.file	67 "/usr/bin/../lib/gcc/x86_64-linux-gnu/11/../../../../include/c++/11" "ctime"
	.file	68 "/usr/include/x86_64-linux-gnu/bits/types" "time_t.h" md5 0x5c299a4954617c88bb03645c7864e1b1
	.file	69 "/usr/include" "time.h" md5 0xdb37158473a25e1d89b19f8bc6892801
	.file	70 "/usr/include/x86_64-linux-gnu/bits/types" "struct_timespec.h" md5 0x55dc154df3f21a5aa944dcafba9b43f6
	.file	71 "/usr/bin/../lib/gcc/x86_64-linux-gnu/11/../../../../include/c++/11" "chrono"
	.file	72 "/usr/include" "wctype.h" md5 0x9bcd8e8b8cd2078c8a6c42e262af7d7b
	.file	73 "/usr/bin/../lib/gcc/x86_64-linux-gnu/11/../../../../include/c++/11" "cwctype"
	.file	74 "/usr/include/x86_64-linux-gnu/bits" "wctype-wchar.h" md5 0x48fed714a84c77fca0455b433489fc47
	.globl	main                            # -- Begin function main
	.p2align	4, 0x90
	.type	main,@function
main:                                   # @main
.Lfunc_begin0:
	.loc	0 4 0                           # cpp/diriter.cpp:4:0
	.cfi_startproc
# %bb.0:
	subq	$296, %rsp                      # imm = 0x128
	.cfi_def_cfa_offset 304
.Ltmp0:
	.loc	0 5 2 prologue_end              # cpp/diriter.cpp:5:2
	leaq	248(%rsp), %rax
	.loc	0 5 30 is_stmt 0                # cpp/diriter.cpp:5:30
	leaq	248(%rsp), %rdi
	leaq	.L.str(%rip), %rsi
	movl	$2, %edx
	callq	_ZNSt10filesystem7__cxx114pathC2IA2_cS1_EERKT_NS1_6formatE
.Ltmp1:
	.loc	0 7 26 is_stmt 1                # cpp/diriter.cpp:7:26
	leaq	232(%rsp), %rax
.Ltmp2:
	.loc	22 387 7                        # /usr/bin/../lib/gcc/x86_64-linux-gnu/11/../../../../include/c++/11/bits/fs_dir.h:387:7
	leaq	232(%rsp), %rdi
	leaq	248(%rsp), %rsi
	xorl	%edx, %edx
	xorl	%eax, %eax
	movl	%eax, %ecx
	callq	_ZNSt10filesystem7__cxx1118directory_iteratorC2ERKNS0_4pathENS_17directory_optionsEPSt10error_code@PLT
.Ltmp3:
	.loc	0 7 24                          # cpp/diriter.cpp:7:24
	leaq	216(%rsp), %rax
.Ltmp4:
	.loc	20 1152 7                       # /usr/bin/../lib/gcc/x86_64-linux-gnu/11/../../../../include/c++/11/bits/shared_ptr_base.h:1152:7
	movq	232(%rsp), %rax
	movq	%rax, 192(%rsp)                 # 8-byte Spill
.Ltmp5:
	.loc	20 709 19                       # /usr/bin/../lib/gcc/x86_64-linux-gnu/11/../../../../include/c++/11/bits/shared_ptr_base.h:709:19
	leaq	232(%rsp), %rax
	addq	$8, %rax
	movq	%rax, 200(%rsp)                 # 8-byte Spill
	movq	240(%rsp), %rax
	movq	%rax, 208(%rsp)                 # 8-byte Spill
.Ltmp6:
	.loc	20 711 12                       # /usr/bin/../lib/gcc/x86_64-linux-gnu/11/../../../../include/c++/11/bits/shared_ptr_base.h:711:12
	cmpq	$0, %rax
.Ltmp7:
	.loc	20 711 6 is_stmt 0              # /usr/bin/../lib/gcc/x86_64-linux-gnu/11/../../../../include/c++/11/bits/shared_ptr_base.h:711:6
	je	.LBB0_17
# %bb.1:
	.loc	20 0 6                          # /usr/bin/../lib/gcc/x86_64-linux-gnu/11/../../../../include/c++/11/bits/shared_ptr_base.h:0:6
	movq	208(%rsp), %rax                 # 8-byte Reload
.Ltmp8:
	.loc	20 148 43 is_stmt 1             # /usr/bin/../lib/gcc/x86_64-linux-gnu/11/../../../../include/c++/11/bits/shared_ptr_base.h:148:43
	addq	$8, %rax
	movq	%rax, 184(%rsp)                 # 8-byte Spill
.Ltmp9:
	.file	75 "/usr/bin/../lib/gcc/x86_64-linux-gnu/11/../../../../include/c++/11/ext" "atomicity.h"
	.loc	75 52 12                        # /usr/bin/../lib/gcc/x86_64-linux-gnu/11/../../../../include/c++/11/ext/atomicity.h:52:12
	movq	__libc_single_threaded@GOTPCREL(%rip), %rax
	cmpb	$0, (%rax)
.Ltmp10:
	.loc	75 108 9                        # /usr/bin/../lib/gcc/x86_64-linux-gnu/11/../../../../include/c++/11/ext/atomicity.h:108:9
	je	.LBB0_3
# %bb.2:
	.loc	75 0 9 is_stmt 0                # /usr/bin/../lib/gcc/x86_64-linux-gnu/11/../../../../include/c++/11/ext/atomicity.h:0:9
	movq	208(%rsp), %rax                 # 8-byte Reload
	movq	192(%rsp), %rcx                 # 8-byte Reload
	movq	184(%rsp), %rdx                 # 8-byte Reload
.Ltmp11:
	.loc	75 92 12 is_stmt 1              # /usr/bin/../lib/gcc/x86_64-linux-gnu/11/../../../../include/c++/11/ext/atomicity.h:92:12
	movl	(%rdx), %esi
	addl	$1, %esi
	movl	%esi, (%rdx)
.Ltmp12:
	.loc	20 1162 9                       # /usr/bin/../lib/gcc/x86_64-linux-gnu/11/../../../../include/c++/11/bits/shared_ptr_base.h:1162:9
	movq	%rcx, 216(%rsp)
.Ltmp13:
	.loc	20 587 45                       # /usr/bin/../lib/gcc/x86_64-linux-gnu/11/../../../../include/c++/11/bits/shared_ptr_base.h:587:45
	leaq	216(%rsp), %rcx
	addq	$8, %rcx
.Ltmp14:
	.loc	20 735 8                        # /usr/bin/../lib/gcc/x86_64-linux-gnu/11/../../../../include/c++/11/bits/shared_ptr_base.h:735:8
	movq	%rax, 224(%rsp)
	movq	%rcx, 168(%rsp)                 # 8-byte Spill
	movq	%rax, 176(%rsp)                 # 8-byte Spill
.Ltmp15:
	.loc	20 711 6                        # /usr/bin/../lib/gcc/x86_64-linux-gnu/11/../../../../include/c++/11/bits/shared_ptr_base.h:711:6
	jmp	.LBB0_4
.Ltmp16:
.LBB0_3:
	.loc	20 0 6 is_stmt 0                # /usr/bin/../lib/gcc/x86_64-linux-gnu/11/../../../../include/c++/11/bits/shared_ptr_base.h:0:6
	movq	208(%rsp), %rdx                 # 8-byte Reload
	movq	192(%rsp), %rax                 # 8-byte Reload
	movq	200(%rsp), %rcx                 # 8-byte Reload
	movq	184(%rsp), %rsi                 # 8-byte Reload
.Ltmp17:
	.loc	75 71 5 is_stmt 1               # /usr/bin/../lib/gcc/x86_64-linux-gnu/11/../../../../include/c++/11/ext/atomicity.h:71:5
	lock		incl	(%rsi)
.Ltmp18:
	.loc	20 709 19                       # /usr/bin/../lib/gcc/x86_64-linux-gnu/11/../../../../include/c++/11/bits/shared_ptr_base.h:709:19
	movq	(%rcx), %rcx
.Ltmp19:
	.loc	20 1162 9                       # /usr/bin/../lib/gcc/x86_64-linux-gnu/11/../../../../include/c++/11/bits/shared_ptr_base.h:1162:9
	movq	%rax, 216(%rsp)
.Ltmp20:
	.loc	20 587 45                       # /usr/bin/../lib/gcc/x86_64-linux-gnu/11/../../../../include/c++/11/bits/shared_ptr_base.h:587:45
	leaq	216(%rsp), %rax
	addq	$8, %rax
.Ltmp21:
	.loc	20 735 8                        # /usr/bin/../lib/gcc/x86_64-linux-gnu/11/../../../../include/c++/11/bits/shared_ptr_base.h:735:8
	movq	%rdx, 224(%rsp)
.Ltmp22:
	.loc	20 711 12                       # /usr/bin/../lib/gcc/x86_64-linux-gnu/11/../../../../include/c++/11/bits/shared_ptr_base.h:711:12
	cmpq	$0, %rcx
	movq	%rax, %rdx
	movq	%rdx, 168(%rsp)                 # 8-byte Spill
	movq	%rcx, 176(%rsp)                 # 8-byte Spill
	movq	%rax, 160(%rsp)                 # 8-byte Spill
.Ltmp23:
	.loc	20 711 6 is_stmt 0              # /usr/bin/../lib/gcc/x86_64-linux-gnu/11/../../../../include/c++/11/bits/shared_ptr_base.h:711:6
	je	.LBB0_16
.LBB0_4:
	.loc	20 0 6                          # /usr/bin/../lib/gcc/x86_64-linux-gnu/11/../../../../include/c++/11/bits/shared_ptr_base.h:0:6
	movq	168(%rsp), %rcx                 # 8-byte Reload
	movq	176(%rsp), %rax                 # 8-byte Reload
	movq	%rax, 136(%rsp)                 # 8-byte Spill
	movq	%rcx, 144(%rsp)                 # 8-byte Spill
.Ltmp24:
	.loc	20 148 43 is_stmt 1             # /usr/bin/../lib/gcc/x86_64-linux-gnu/11/../../../../include/c++/11/bits/shared_ptr_base.h:148:43
	addq	$8, %rax
	movq	%rax, 152(%rsp)                 # 8-byte Spill
.Ltmp25:
	.loc	75 52 12                        # /usr/bin/../lib/gcc/x86_64-linux-gnu/11/../../../../include/c++/11/ext/atomicity.h:52:12
	movq	__libc_single_threaded@GOTPCREL(%rip), %rax
	cmpb	$0, (%rax)
.Ltmp26:
	.loc	75 108 9                        # /usr/bin/../lib/gcc/x86_64-linux-gnu/11/../../../../include/c++/11/ext/atomicity.h:108:9
	je	.LBB0_6
# %bb.5:
	.loc	75 0 9 is_stmt 0                # /usr/bin/../lib/gcc/x86_64-linux-gnu/11/../../../../include/c++/11/ext/atomicity.h:0:9
	movq	152(%rsp), %rax                 # 8-byte Reload
.Ltmp27:
	.loc	75 92 12 is_stmt 1              # /usr/bin/../lib/gcc/x86_64-linux-gnu/11/../../../../include/c++/11/ext/atomicity.h:92:12
	movl	(%rax), %ecx
	addl	$1, %ecx
	movl	%ecx, (%rax)
.Ltmp28:
	.loc	75 98 9                         # /usr/bin/../lib/gcc/x86_64-linux-gnu/11/../../../../include/c++/11/ext/atomicity.h:98:9
	jmp	.LBB0_7
.Ltmp29:
.LBB0_6:
	.loc	75 0 9 is_stmt 0                # /usr/bin/../lib/gcc/x86_64-linux-gnu/11/../../../../include/c++/11/ext/atomicity.h:0:9
	movq	152(%rsp), %rax                 # 8-byte Reload
.Ltmp30:
	.loc	75 71 5 is_stmt 1               # /usr/bin/../lib/gcc/x86_64-linux-gnu/11/../../../../include/c++/11/ext/atomicity.h:71:5
	lock		incl	(%rax)
.Ltmp31:
	.loc	75 52 12                        # /usr/bin/../lib/gcc/x86_64-linux-gnu/11/../../../../include/c++/11/ext/atomicity.h:52:12
	movq	__libc_single_threaded@GOTPCREL(%rip), %rax
	cmpb	$0, (%rax)
.Ltmp32:
	.loc	75 98 9                         # /usr/bin/../lib/gcc/x86_64-linux-gnu/11/../../../../include/c++/11/ext/atomicity.h:98:9
	je	.LBB0_8
.LBB0_7:
	.loc	75 0 9 is_stmt 0                # /usr/bin/../lib/gcc/x86_64-linux-gnu/11/../../../../include/c++/11/ext/atomicity.h:0:9
	movq	152(%rsp), %rcx                 # 8-byte Reload
.Ltmp33:
	.loc	75 84 29 is_stmt 1              # /usr/bin/../lib/gcc/x86_64-linux-gnu/11/../../../../include/c++/11/ext/atomicity.h:84:29
	movl	(%rcx), %eax
	.loc	75 85 12                        # /usr/bin/../lib/gcc/x86_64-linux-gnu/11/../../../../include/c++/11/ext/atomicity.h:85:12
	movl	%eax, %edx
	addl	$-1, %edx
	movl	%edx, (%rcx)
	movl	%eax, 132(%rsp)                 # 4-byte Spill
.Ltmp34:
	.loc	75 99 7                         # /usr/bin/../lib/gcc/x86_64-linux-gnu/11/../../../../include/c++/11/ext/atomicity.h:99:7
	jmp	.LBB0_9
.LBB0_8:
	.loc	75 0 7 is_stmt 0                # /usr/bin/../lib/gcc/x86_64-linux-gnu/11/../../../../include/c++/11/ext/atomicity.h:0:7
	movq	152(%rsp), %rcx                 # 8-byte Reload
	movl	$-1, %eax
.Ltmp35:
	.loc	75 66 12 is_stmt 1              # /usr/bin/../lib/gcc/x86_64-linux-gnu/11/../../../../include/c++/11/ext/atomicity.h:66:12
	lock		xaddl	%eax, (%rcx)
	movl	%eax, 132(%rsp)                 # 4-byte Spill
.Ltmp36:
.LBB0_9:
	.loc	75 0 12 is_stmt 0               # /usr/bin/../lib/gcc/x86_64-linux-gnu/11/../../../../include/c++/11/ext/atomicity.h:0:12
	movl	132(%rsp), %eax                 # 4-byte Reload
	.loc	20 165 64 is_stmt 1             # /usr/bin/../lib/gcc/x86_64-linux-gnu/11/../../../../include/c++/11/bits/shared_ptr_base.h:165:64
	cmpl	$1, %eax
.Ltmp37:
	.loc	20 165 6 is_stmt 0              # /usr/bin/../lib/gcc/x86_64-linux-gnu/11/../../../../include/c++/11/bits/shared_ptr_base.h:165:6
	jne	.LBB0_15
# %bb.10:
	.loc	20 0 6                          # /usr/bin/../lib/gcc/x86_64-linux-gnu/11/../../../../include/c++/11/bits/shared_ptr_base.h:0:6
	movq	136(%rsp), %rdi                 # 8-byte Reload
.Ltmp38:
	.loc	20 168 6 is_stmt 1              # /usr/bin/../lib/gcc/x86_64-linux-gnu/11/../../../../include/c++/11/bits/shared_ptr_base.h:168:6
	movq	(%rdi), %rax
	callq	*16(%rax)
.Ltmp39:
	.loc	20 0 6 is_stmt 0                # /usr/bin/../lib/gcc/x86_64-linux-gnu/11/../../../../include/c++/11/bits/shared_ptr_base.h:0:6
	movq	136(%rsp), %rax                 # 8-byte Reload
.Ltmp40:
	.loc	20 180 50 is_stmt 1             # /usr/bin/../lib/gcc/x86_64-linux-gnu/11/../../../../include/c++/11/bits/shared_ptr_base.h:180:50
	addq	$12, %rax
	movq	%rax, 120(%rsp)                 # 8-byte Spill
.Ltmp41:
	.loc	75 52 12                        # /usr/bin/../lib/gcc/x86_64-linux-gnu/11/../../../../include/c++/11/ext/atomicity.h:52:12
	movq	__libc_single_threaded@GOTPCREL(%rip), %rax
	cmpb	$0, (%rax)
.Ltmp42:
	.loc	75 98 9                         # /usr/bin/../lib/gcc/x86_64-linux-gnu/11/../../../../include/c++/11/ext/atomicity.h:98:9
	je	.LBB0_12
# %bb.11:
	.loc	75 0 9 is_stmt 0                # /usr/bin/../lib/gcc/x86_64-linux-gnu/11/../../../../include/c++/11/ext/atomicity.h:0:9
	movq	120(%rsp), %rcx                 # 8-byte Reload
.Ltmp43:
	.loc	75 84 29 is_stmt 1              # /usr/bin/../lib/gcc/x86_64-linux-gnu/11/../../../../include/c++/11/ext/atomicity.h:84:29
	movl	(%rcx), %eax
	.loc	75 85 12                        # /usr/bin/../lib/gcc/x86_64-linux-gnu/11/../../../../include/c++/11/ext/atomicity.h:85:12
	movl	%eax, %edx
	addl	$-1, %edx
	movl	%edx, (%rcx)
	movl	%eax, 116(%rsp)                 # 4-byte Spill
.Ltmp44:
	.loc	75 99 7                         # /usr/bin/../lib/gcc/x86_64-linux-gnu/11/../../../../include/c++/11/ext/atomicity.h:99:7
	jmp	.LBB0_13
.LBB0_12:
	.loc	75 0 7 is_stmt 0                # /usr/bin/../lib/gcc/x86_64-linux-gnu/11/../../../../include/c++/11/ext/atomicity.h:0:7
	movq	120(%rsp), %rcx                 # 8-byte Reload
	movl	$-1, %eax
.Ltmp45:
	.loc	75 66 12 is_stmt 1              # /usr/bin/../lib/gcc/x86_64-linux-gnu/11/../../../../include/c++/11/ext/atomicity.h:66:12
	lock		xaddl	%eax, (%rcx)
	movl	%eax, 116(%rsp)                 # 4-byte Spill
.Ltmp46:
.LBB0_13:
	.loc	75 0 12 is_stmt 0               # /usr/bin/../lib/gcc/x86_64-linux-gnu/11/../../../../include/c++/11/ext/atomicity.h:0:12
	movl	116(%rsp), %eax                 # 4-byte Reload
	.loc	20 181 18 is_stmt 1             # /usr/bin/../lib/gcc/x86_64-linux-gnu/11/../../../../include/c++/11/bits/shared_ptr_base.h:181:18
	cmpl	$1, %eax
.Ltmp47:
	.loc	20 180 10                       # /usr/bin/../lib/gcc/x86_64-linux-gnu/11/../../../../include/c++/11/bits/shared_ptr_base.h:180:10
	jne	.LBB0_15
# %bb.14:
	.loc	20 0 10 is_stmt 0               # /usr/bin/../lib/gcc/x86_64-linux-gnu/11/../../../../include/c++/11/bits/shared_ptr_base.h:0:10
	movq	136(%rsp), %rdi                 # 8-byte Reload
.Ltmp48:
	.loc	20 184 10 is_stmt 1             # /usr/bin/../lib/gcc/x86_64-linux-gnu/11/../../../../include/c++/11/bits/shared_ptr_base.h:184:10
	movq	(%rdi), %rax
	callq	*24(%rax)
.Ltmp49:
.LBB0_15:
	.loc	20 0 10 is_stmt 0               # /usr/bin/../lib/gcc/x86_64-linux-gnu/11/../../../../include/c++/11/bits/shared_ptr_base.h:0:10
	movq	144(%rsp), %rax                 # 8-byte Reload
.Ltmp50:
	.loc	22 431 2 is_stmt 1              # /usr/bin/../lib/gcc/x86_64-linux-gnu/11/../../../../include/c++/11/bits/fs_dir.h:431:2
	cmpq	$0, (%rax)
	movq	%rax, 160(%rsp)                 # 8-byte Spill
.Ltmp51:
	.loc	0 7 24                          # cpp/diriter.cpp:7:24
	je	.LBB0_17
.LBB0_16:
	.loc	0 0 24 is_stmt 0                # cpp/diriter.cpp:0:24
	movq	160(%rsp), %rax                 # 8-byte Reload
	movq	%rax, 104(%rsp)                 # 8-byte Spill
	.loc	0 7 2                           # cpp/diriter.cpp:7:2
	xorl	%eax, %eax
	movl	%eax, 112(%rsp)                 # 4-byte Spill
	jmp	.LBB0_32
.LBB0_17:
	.loc	0 0 2                           # cpp/diriter.cpp:0:2
	movq	200(%rsp), %rax                 # 8-byte Reload
.Ltmp52:
	.loc	20 704 6 is_stmt 1              # /usr/bin/../lib/gcc/x86_64-linux-gnu/11/../../../../include/c++/11/bits/shared_ptr_base.h:704:6
	movq	(%rax), %rax
	movq	%rax, 96(%rsp)                  # 8-byte Spill
	.loc	20 704 12 is_stmt 0             # /usr/bin/../lib/gcc/x86_64-linux-gnu/11/../../../../include/c++/11/bits/shared_ptr_base.h:704:12
	cmpq	$0, %rax
.Ltmp53:
	.loc	20 704 6                        # /usr/bin/../lib/gcc/x86_64-linux-gnu/11/../../../../include/c++/11/bits/shared_ptr_base.h:704:6
	je	.LBB0_27
# %bb.18:
	.loc	20 0 6                          # /usr/bin/../lib/gcc/x86_64-linux-gnu/11/../../../../include/c++/11/bits/shared_ptr_base.h:0:6
	movq	96(%rsp), %rax                  # 8-byte Reload
.Ltmp54:
	.loc	20 165 46 is_stmt 1             # /usr/bin/../lib/gcc/x86_64-linux-gnu/11/../../../../include/c++/11/bits/shared_ptr_base.h:165:46
	addq	$8, %rax
	movq	%rax, 88(%rsp)                  # 8-byte Spill
.Ltmp55:
	.loc	75 52 12                        # /usr/bin/../lib/gcc/x86_64-linux-gnu/11/../../../../include/c++/11/ext/atomicity.h:52:12
	movq	__libc_single_threaded@GOTPCREL(%rip), %rax
	cmpb	$0, (%rax)
.Ltmp56:
	.loc	75 98 9                         # /usr/bin/../lib/gcc/x86_64-linux-gnu/11/../../../../include/c++/11/ext/atomicity.h:98:9
	je	.LBB0_20
# %bb.19:
	.loc	75 0 9 is_stmt 0                # /usr/bin/../lib/gcc/x86_64-linux-gnu/11/../../../../include/c++/11/ext/atomicity.h:0:9
	movq	88(%rsp), %rcx                  # 8-byte Reload
.Ltmp57:
	.loc	75 84 29 is_stmt 1              # /usr/bin/../lib/gcc/x86_64-linux-gnu/11/../../../../include/c++/11/ext/atomicity.h:84:29
	movl	(%rcx), %eax
	.loc	75 85 12                        # /usr/bin/../lib/gcc/x86_64-linux-gnu/11/../../../../include/c++/11/ext/atomicity.h:85:12
	movl	%eax, %edx
	addl	$-1, %edx
	movl	%edx, (%rcx)
	movl	%eax, 84(%rsp)                  # 4-byte Spill
.Ltmp58:
	.loc	75 99 7                         # /usr/bin/../lib/gcc/x86_64-linux-gnu/11/../../../../include/c++/11/ext/atomicity.h:99:7
	jmp	.LBB0_21
.LBB0_20:
	.loc	75 0 7 is_stmt 0                # /usr/bin/../lib/gcc/x86_64-linux-gnu/11/../../../../include/c++/11/ext/atomicity.h:0:7
	movq	88(%rsp), %rcx                  # 8-byte Reload
	movl	$-1, %eax
.Ltmp59:
	.loc	75 66 12 is_stmt 1              # /usr/bin/../lib/gcc/x86_64-linux-gnu/11/../../../../include/c++/11/ext/atomicity.h:66:12
	lock		xaddl	%eax, (%rcx)
	movl	%eax, 84(%rsp)                  # 4-byte Spill
.Ltmp60:
.LBB0_21:
	.loc	75 0 12 is_stmt 0               # /usr/bin/../lib/gcc/x86_64-linux-gnu/11/../../../../include/c++/11/ext/atomicity.h:0:12
	movl	84(%rsp), %eax                  # 4-byte Reload
	.loc	20 165 64 is_stmt 1             # /usr/bin/../lib/gcc/x86_64-linux-gnu/11/../../../../include/c++/11/bits/shared_ptr_base.h:165:64
	cmpl	$1, %eax
.Ltmp61:
	.loc	20 165 6 is_stmt 0              # /usr/bin/../lib/gcc/x86_64-linux-gnu/11/../../../../include/c++/11/bits/shared_ptr_base.h:165:6
	jne	.LBB0_27
# %bb.22:
	.loc	20 0 6                          # /usr/bin/../lib/gcc/x86_64-linux-gnu/11/../../../../include/c++/11/bits/shared_ptr_base.h:0:6
	movq	96(%rsp), %rdi                  # 8-byte Reload
.Ltmp62:
	.loc	20 168 6 is_stmt 1              # /usr/bin/../lib/gcc/x86_64-linux-gnu/11/../../../../include/c++/11/bits/shared_ptr_base.h:168:6
	movq	(%rdi), %rax
	callq	*16(%rax)
.Ltmp63:
	.loc	20 0 6 is_stmt 0                # /usr/bin/../lib/gcc/x86_64-linux-gnu/11/../../../../include/c++/11/bits/shared_ptr_base.h:0:6
	movq	96(%rsp), %rax                  # 8-byte Reload
.Ltmp64:
	.loc	20 180 50 is_stmt 1             # /usr/bin/../lib/gcc/x86_64-linux-gnu/11/../../../../include/c++/11/bits/shared_ptr_base.h:180:50
	addq	$12, %rax
	movq	%rax, 72(%rsp)                  # 8-byte Spill
.Ltmp65:
	.loc	75 52 12                        # /usr/bin/../lib/gcc/x86_64-linux-gnu/11/../../../../include/c++/11/ext/atomicity.h:52:12
	movq	__libc_single_threaded@GOTPCREL(%rip), %rax
	cmpb	$0, (%rax)
.Ltmp66:
	.loc	75 98 9                         # /usr/bin/../lib/gcc/x86_64-linux-gnu/11/../../../../include/c++/11/ext/atomicity.h:98:9
	je	.LBB0_24
# %bb.23:
	.loc	75 0 9 is_stmt 0                # /usr/bin/../lib/gcc/x86_64-linux-gnu/11/../../../../include/c++/11/ext/atomicity.h:0:9
	movq	72(%rsp), %rcx                  # 8-byte Reload
.Ltmp67:
	.loc	75 84 29 is_stmt 1              # /usr/bin/../lib/gcc/x86_64-linux-gnu/11/../../../../include/c++/11/ext/atomicity.h:84:29
	movl	(%rcx), %eax
	.loc	75 85 12                        # /usr/bin/../lib/gcc/x86_64-linux-gnu/11/../../../../include/c++/11/ext/atomicity.h:85:12
	movl	%eax, %edx
	addl	$-1, %edx
	movl	%edx, (%rcx)
	movl	%eax, 68(%rsp)                  # 4-byte Spill
.Ltmp68:
	.loc	75 99 7                         # /usr/bin/../lib/gcc/x86_64-linux-gnu/11/../../../../include/c++/11/ext/atomicity.h:99:7
	jmp	.LBB0_25
.LBB0_24:
	.loc	75 0 7 is_stmt 0                # /usr/bin/../lib/gcc/x86_64-linux-gnu/11/../../../../include/c++/11/ext/atomicity.h:0:7
	movq	72(%rsp), %rcx                  # 8-byte Reload
	movl	$-1, %eax
.Ltmp69:
	.loc	75 66 12 is_stmt 1              # /usr/bin/../lib/gcc/x86_64-linux-gnu/11/../../../../include/c++/11/ext/atomicity.h:66:12
	lock		xaddl	%eax, (%rcx)
	movl	%eax, 68(%rsp)                  # 4-byte Spill
.Ltmp70:
.LBB0_25:
	.loc	75 0 12 is_stmt 0               # /usr/bin/../lib/gcc/x86_64-linux-gnu/11/../../../../include/c++/11/ext/atomicity.h:0:12
	movl	68(%rsp), %eax                  # 4-byte Reload
	.loc	20 181 18 is_stmt 1             # /usr/bin/../lib/gcc/x86_64-linux-gnu/11/../../../../include/c++/11/bits/shared_ptr_base.h:181:18
	cmpl	$1, %eax
.Ltmp71:
	.loc	20 180 10                       # /usr/bin/../lib/gcc/x86_64-linux-gnu/11/../../../../include/c++/11/bits/shared_ptr_base.h:180:10
	jne	.LBB0_27
# %bb.26:
	.loc	20 0 10 is_stmt 0               # /usr/bin/../lib/gcc/x86_64-linux-gnu/11/../../../../include/c++/11/bits/shared_ptr_base.h:0:10
	movq	96(%rsp), %rdi                  # 8-byte Reload
.Ltmp72:
	.loc	20 184 10 is_stmt 1             # /usr/bin/../lib/gcc/x86_64-linux-gnu/11/../../../../include/c++/11/bits/shared_ptr_base.h:184:10
	movq	(%rdi), %rax
	callq	*24(%rax)
.Ltmp73:
.LBB0_27:
	.loc	4 313 21                        # /usr/bin/../lib/gcc/x86_64-linux-gnu/11/../../../../include/c++/11/bits/fs_path.h:313:21
	leaq	248(%rsp), %rax
	addq	$32, %rax
	movq	%rax, 48(%rsp)                  # 8-byte Spill
.Ltmp74:
	.loc	26 360 6                        # /usr/bin/../lib/gcc/x86_64-linux-gnu/11/../../../../include/c++/11/bits/unique_ptr.h:360:6
	movq	280(%rsp), %rax
	movq	%rax, 56(%rsp)                  # 8-byte Spill
	.loc	26 360 12 is_stmt 0             # /usr/bin/../lib/gcc/x86_64-linux-gnu/11/../../../../include/c++/11/bits/unique_ptr.h:360:12
	cmpq	$0, %rax
.Ltmp75:
	.loc	26 360 6                        # /usr/bin/../lib/gcc/x86_64-linux-gnu/11/../../../../include/c++/11/bits/unique_ptr.h:360:6
	je	.LBB0_29
# %bb.28:
	.loc	26 0 6                          # /usr/bin/../lib/gcc/x86_64-linux-gnu/11/../../../../include/c++/11/bits/unique_ptr.h:0:6
	movq	56(%rsp), %rsi                  # 8-byte Reload
	movq	48(%rsp), %rdi                  # 8-byte Reload
.Ltmp76:
	.loc	26 361 4 is_stmt 1              # /usr/bin/../lib/gcc/x86_64-linux-gnu/11/../../../../include/c++/11/bits/unique_ptr.h:361:4
	callq	_ZNKSt10filesystem7__cxx114path5_List13_Impl_deleterclEPNS2_5_ImplE@PLT
.Ltmp77:
.LBB0_29:
	.loc	26 0 4 is_stmt 0                # /usr/bin/../lib/gcc/x86_64-linux-gnu/11/../../../../include/c++/11/bits/unique_ptr.h:0:4
	movq	48(%rsp), %rax                  # 8-byte Reload
	.loc	26 362 8 is_stmt 1              # /usr/bin/../lib/gcc/x86_64-linux-gnu/11/../../../../include/c++/11/bits/unique_ptr.h:362:8
	movq	$0, (%rax)
.Ltmp78:
	.loc	12 195 28                       # /usr/bin/../lib/gcc/x86_64-linux-gnu/11/../../../../include/c++/11/bits/basic_string.h:195:28
	movq	248(%rsp), %rax
	movq	%rax, 40(%rsp)                  # 8-byte Spill
.Ltmp79:
	.loc	12 211 57                       # /usr/bin/../lib/gcc/x86_64-linux-gnu/11/../../../../include/c++/11/bits/basic_string.h:211:57
	leaq	248(%rsp), %rcx
	addq	$16, %rcx
.Ltmp80:
	.loc	12 230 26                       # /usr/bin/../lib/gcc/x86_64-linux-gnu/11/../../../../include/c++/11/bits/basic_string.h:230:26
	cmpq	%rcx, %rax
.Ltmp81:
	.loc	12 239 6                        # /usr/bin/../lib/gcc/x86_64-linux-gnu/11/../../../../include/c++/11/bits/basic_string.h:239:6
	je	.LBB0_31
# %bb.30:
	.loc	12 0 6 is_stmt 0                # /usr/bin/../lib/gcc/x86_64-linux-gnu/11/../../../../include/c++/11/bits/basic_string.h:0:6
	movq	40(%rsp), %rdi                  # 8-byte Reload
.Ltmp82:
	.loc	7 145 2 is_stmt 1               # /usr/bin/../lib/gcc/x86_64-linux-gnu/11/../../../../include/c++/11/ext/new_allocator.h:145:2
	callq	_ZdlPv@PLT
.Ltmp83:
.LBB0_31:
	.loc	0 10 1                          # cpp/diriter.cpp:10:1
	xorl	%eax, %eax
	.loc	0 10 1 epilogue_begin is_stmt 0 # cpp/diriter.cpp:10:1
	addq	$296, %rsp                      # imm = 0x128
	.cfi_def_cfa_offset 8
	retq
.LBB0_32:                               # =>This Inner Loop Header: Depth=1
	.cfi_def_cfa_offset 304
	.loc	0 0 1                           # cpp/diriter.cpp:0:1
	movl	112(%rsp), %eax                 # 4-byte Reload
	movl	%eax, 12(%rsp)                  # 4-byte Spill
.Ltmp84:
	.loc	0 7 24 is_stmt 1                # cpp/diriter.cpp:7:24
	leaq	216(%rsp), %rdi
	callq	_ZNKSt10filesystem7__cxx1118directory_iteratordeEv@PLT
.Ltmp85:
	.loc	0 0 24 is_stmt 0                # cpp/diriter.cpp:0:24
	movl	12(%rsp), %esi                  # 4-byte Reload
	movq	%rax, 24(%rsp)                  # 8-byte Spill
.Ltmp86:
	.loc	0 8 17 is_stmt 1                # cpp/diriter.cpp:8:17
	movl	%esi, %eax
	addl	$1, %eax
	movl	%eax, 36(%rsp)                  # 4-byte Spill
	.loc	0 8 13 is_stmt 0                # cpp/diriter.cpp:8:13
	movq	_ZSt4cout@GOTPCREL(%rip), %rdi
	callq	_ZNSolsEi@PLT
.Ltmp87:
	movq	%rax, %rdi
	movq	%rdi, 16(%rsp)                  # 8-byte Spill
.Ltmp88:
	.loc	31 616 2 is_stmt 1              # /usr/bin/../lib/gcc/x86_64-linux-gnu/11/../../../../include/c++/11/ostream:616:2
	leaq	.L.str.1(%rip), %rsi
	movl	$2, %edx
	callq	_ZSt16__ostream_insertIcSt11char_traitsIcEERSt13basic_ostreamIT_T0_ES6_PKS3_l@PLT
.Ltmp89:
	.loc	31 0 2 is_stmt 0                # /usr/bin/../lib/gcc/x86_64-linux-gnu/11/../../../../include/c++/11/ostream:0:2
	movq	16(%rsp), %rdi                  # 8-byte Reload
	movq	24(%rsp), %rsi                  # 8-byte Reload
.Ltmp90:
	.loc	0 8 28 is_stmt 1                # cpp/diriter.cpp:8:28
	callq	_ZNSt10filesystem7__cxx11lsIcSt11char_traitsIcEEERSt13basic_ostreamIT_T0_ES8_RKNS0_4pathE
.Ltmp91:
	movq	%rax, %rdi
	movb	$10, 295(%rsp)
.Ltmp92:
	.loc	31 525 14                       # /usr/bin/../lib/gcc/x86_64-linux-gnu/11/../../../../include/c++/11/ostream:525:14
	leaq	295(%rsp), %rsi
	movl	$1, %edx
	callq	_ZSt16__ostream_insertIcSt11char_traitsIcEERSt13basic_ostreamIT_T0_ES6_PKS3_l@PLT
.Ltmp93:
	.loc	0 7 24                          # cpp/diriter.cpp:7:24
	leaq	216(%rsp), %rdi
	callq	_ZNSt10filesystem7__cxx1118directory_iteratorppEv@PLT
.Ltmp94:
	.loc	0 0 24 is_stmt 0                # cpp/diriter.cpp:0:24
	movq	104(%rsp), %rcx                 # 8-byte Reload
                                        # kill: def $rdx killed $rax
	movl	36(%rsp), %eax                  # 4-byte Reload
.Ltmp95:
	.loc	22 431 2 is_stmt 1              # /usr/bin/../lib/gcc/x86_64-linux-gnu/11/../../../../include/c++/11/bits/fs_dir.h:431:2
	cmpq	$0, (%rcx)
	movl	%eax, 112(%rsp)                 # 4-byte Spill
.Ltmp96:
	.loc	0 7 24                          # cpp/diriter.cpp:7:24
	je	.LBB0_17
	jmp	.LBB0_32
.Ltmp97:
.Lfunc_end0:
	.size	main, .Lfunc_end0-main
	.cfi_endproc
	.file	76 "/usr/bin/../lib/gcc/x86_64-linux-gnu/11/../../../../include/x86_64-linux-gnu/c++/11/bits" "atomic_word.h" md5 0x1e8289689465816810a529017de58414
                                        # -- End function
	.section	.text._ZNSt10filesystem7__cxx114pathC2IA2_cS1_EERKT_NS1_6formatE,"axG",@progbits,_ZNSt10filesystem7__cxx114pathC2IA2_cS1_EERKT_NS1_6formatE,comdat
	.weak	_ZNSt10filesystem7__cxx114pathC2IA2_cS1_EERKT_NS1_6formatE # -- Begin function _ZNSt10filesystem7__cxx114pathC2IA2_cS1_EERKT_NS1_6formatE
	.p2align	4, 0x90
	.type	_ZNSt10filesystem7__cxx114pathC2IA2_cS1_EERKT_NS1_6formatE,@function
_ZNSt10filesystem7__cxx114pathC2IA2_cS1_EERKT_NS1_6formatE: # @_ZNSt10filesystem7__cxx114pathC2IA2_cS1_EERKT_NS1_6formatE
.Lfunc_begin1:
	.loc	4 290 0                         # /usr/bin/../lib/gcc/x86_64-linux-gnu/11/../../../../include/c++/11/bits/fs_path.h:290:0
	.cfi_startproc
# %bb.0:
	subq	$56, %rsp
	.cfi_def_cfa_offset 64
	movq	%rsi, 24(%rsp)                  # 8-byte Spill
	movq	%rdi, %rax
	movq	24(%rsp), %rdi                  # 8-byte Reload
	movq	%rax, 32(%rsp)                  # 8-byte Spill
.Ltmp98:
	.loc	5 399 9 prologue_end            # /usr/bin/../lib/gcc/x86_64-linux-gnu/11/../../../../include/c++/11/bits/char_traits.h:399:9
	callq	strlen@PLT
.Ltmp99:
	.loc	5 0 9 is_stmt 0                 # /usr/bin/../lib/gcc/x86_64-linux-gnu/11/../../../../include/c++/11/bits/char_traits.h:0:9
	movq	32(%rsp), %rdi                  # 8-byte Reload
	movq	%rax, 40(%rsp)                  # 8-byte Spill
.Ltmp100:
	.loc	12 201 51 is_stmt 1             # /usr/bin/../lib/gcc/x86_64-linux-gnu/11/../../../../include/c++/11/bits/basic_string.h:201:51
	movq	%rdi, %rcx
	addq	$16, %rcx
	movq	%rcx, 48(%rsp)                  # 8-byte Spill
.Ltmp101:
	.loc	12 165 25                       # /usr/bin/../lib/gcc/x86_64-linux-gnu/11/../../../../include/c++/11/bits/basic_string.h:165:25
	movq	%rcx, (%rdi)
.Ltmp102:
	.file	77 "/usr/bin/../lib/gcc/x86_64-linux-gnu/11/../../../../include/c++/11/bits" "basic_string.tcc"
	.loc	77 217 13                       # /usr/bin/../lib/gcc/x86_64-linux-gnu/11/../../../../include/c++/11/bits/basic_string.tcc:217:13
	cmpq	$15, %rax
.Ltmp103:
	.loc	77 217 6 is_stmt 0              # /usr/bin/../lib/gcc/x86_64-linux-gnu/11/../../../../include/c++/11/bits/basic_string.tcc:217:6
	ja	.LBB1_2
# %bb.1:
	.loc	77 0 6                          # /usr/bin/../lib/gcc/x86_64-linux-gnu/11/../../../../include/c++/11/bits/basic_string.tcc:0:6
	movq	48(%rsp), %rax                  # 8-byte Reload
	movq	%rax, 16(%rsp)                  # 8-byte Spill
	.loc	77 217 6                        # /usr/bin/../lib/gcc/x86_64-linux-gnu/11/../../../../include/c++/11/bits/basic_string.tcc:217:6
	jmp	.LBB1_7
.LBB1_2:
	.loc	77 0 6                          # /usr/bin/../lib/gcc/x86_64-linux-gnu/11/../../../../include/c++/11/bits/basic_string.tcc:0:6
	movq	40(%rsp), %rax                  # 8-byte Reload
.Ltmp104:
	.loc	77 137 22 is_stmt 1             # /usr/bin/../lib/gcc/x86_64-linux-gnu/11/../../../../include/c++/11/bits/basic_string.tcc:137:22
	cmpq	$0, %rax
.Ltmp105:
	.loc	77 137 11 is_stmt 0             # /usr/bin/../lib/gcc/x86_64-linux-gnu/11/../../../../include/c++/11/bits/basic_string.tcc:137:11
	jge	.LBB1_4
# %bb.3:
.Ltmp106:
	.loc	77 138 2 is_stmt 1              # /usr/bin/../lib/gcc/x86_64-linux-gnu/11/../../../../include/c++/11/bits/basic_string.tcc:138:2
	leaq	.L.str.3(%rip), %rdi
	callq	_ZSt20__throw_length_errorPKc@PLT
.Ltmp107:
.LBB1_4:
	.loc	77 0 2 is_stmt 0                # /usr/bin/../lib/gcc/x86_64-linux-gnu/11/../../../../include/c++/11/bits/basic_string.tcc:0:2
	movq	40(%rsp), %rax                  # 8-byte Reload
	.loc	77 153 69 is_stmt 1             # /usr/bin/../lib/gcc/x86_64-linux-gnu/11/../../../../include/c++/11/bits/basic_string.tcc:153:69
	addq	$1, %rax
	movq	%rax, 8(%rsp)                   # 8-byte Spill
.Ltmp108:
	.loc	7 111 27                        # /usr/bin/../lib/gcc/x86_64-linux-gnu/11/../../../../include/c++/11/ext/new_allocator.h:111:27
	cmpq	$0, %rax
.Ltmp109:
	.loc	7 111 6 is_stmt 0               # /usr/bin/../lib/gcc/x86_64-linux-gnu/11/../../../../include/c++/11/ext/new_allocator.h:111:6
	jge	.LBB1_6
# %bb.5:
.Ltmp110:
	.loc	7 117 6 is_stmt 1               # /usr/bin/../lib/gcc/x86_64-linux-gnu/11/../../../../include/c++/11/ext/new_allocator.h:117:6
	callq	_ZSt17__throw_bad_allocv@PLT
.Ltmp111:
.LBB1_6:
	.loc	7 0 6 is_stmt 0                 # /usr/bin/../lib/gcc/x86_64-linux-gnu/11/../../../../include/c++/11/ext/new_allocator.h:0:6
	movq	8(%rsp), %rdi                   # 8-byte Reload
	.loc	7 127 27 is_stmt 1              # /usr/bin/../lib/gcc/x86_64-linux-gnu/11/../../../../include/c++/11/ext/new_allocator.h:127:27
	callq	_Znwm@PLT
.Ltmp112:
	.loc	7 0 27 is_stmt 0                # /usr/bin/../lib/gcc/x86_64-linux-gnu/11/../../../../include/c++/11/ext/new_allocator.h:0:27
	movq	40(%rsp), %rdx                  # 8-byte Reload
	movq	32(%rsp), %rcx                  # 8-byte Reload
.Ltmp113:
	.loc	12 187 26 is_stmt 1             # /usr/bin/../lib/gcc/x86_64-linux-gnu/11/../../../../include/c++/11/bits/basic_string.h:187:26
	movq	%rax, (%rcx)
.Ltmp114:
	.loc	12 219 31                       # /usr/bin/../lib/gcc/x86_64-linux-gnu/11/../../../../include/c++/11/bits/basic_string.h:219:31
	movq	%rdx, 16(%rcx)
	movq	%rax, 16(%rsp)                  # 8-byte Spill
.Ltmp115:
.LBB1_7:
	.loc	12 0 31 is_stmt 0               # /usr/bin/../lib/gcc/x86_64-linux-gnu/11/../../../../include/c++/11/bits/basic_string.h:0:31
	movq	40(%rsp), %rax                  # 8-byte Reload
	movq	16(%rsp), %rcx                  # 8-byte Reload
	movq	%rcx, (%rsp)                    # 8-byte Spill
.Ltmp116:
	.loc	12 356 6 is_stmt 1              # /usr/bin/../lib/gcc/x86_64-linux-gnu/11/../../../../include/c++/11/bits/basic_string.h:356:6
	testq	%rax, %rax
	je	.LBB1_10
	jmp	.LBB1_11
.LBB1_11:
	.loc	12 0 6 is_stmt 0                # /usr/bin/../lib/gcc/x86_64-linux-gnu/11/../../../../include/c++/11/bits/basic_string.h:0:6
	movq	40(%rsp), %rax                  # 8-byte Reload
	.loc	12 356 6                        # /usr/bin/../lib/gcc/x86_64-linux-gnu/11/../../../../include/c++/11/bits/basic_string.h:356:6
	subq	$1, %rax
	jne	.LBB1_9
	jmp	.LBB1_8
.LBB1_8:
	.loc	12 0 6                          # /usr/bin/../lib/gcc/x86_64-linux-gnu/11/../../../../include/c++/11/bits/basic_string.h:0:6
	movq	(%rsp), %rax                    # 8-byte Reload
	movq	24(%rsp), %rcx                  # 8-byte Reload
.Ltmp117:
	.loc	5 357 16 is_stmt 1              # /usr/bin/../lib/gcc/x86_64-linux-gnu/11/../../../../include/c++/11/bits/char_traits.h:357:16
	movb	(%rcx), %cl
	.loc	5 357 14 is_stmt 0              # /usr/bin/../lib/gcc/x86_64-linux-gnu/11/../../../../include/c++/11/bits/char_traits.h:357:14
	movb	%cl, (%rax)
.Ltmp118:
	.loc	12 357 4                        # /usr/bin/../lib/gcc/x86_64-linux-gnu/11/../../../../include/c++/11/bits/basic_string.h:357:4
	jmp	.LBB1_10
.LBB1_9:
	.loc	12 0 4                          # /usr/bin/../lib/gcc/x86_64-linux-gnu/11/../../../../include/c++/11/bits/basic_string.h:0:4
	movq	40(%rsp), %rdx                  # 8-byte Reload
	movq	24(%rsp), %rsi                  # 8-byte Reload
	movq	(%rsp), %rdi                    # 8-byte Reload
.Ltmp119:
	.loc	5 437 33 is_stmt 1              # /usr/bin/../lib/gcc/x86_64-linux-gnu/11/../../../../include/c++/11/bits/char_traits.h:437:33
	callq	memcpy@PLT
.Ltmp120:
.LBB1_10:
	.loc	5 0 33 is_stmt 0                # /usr/bin/../lib/gcc/x86_64-linux-gnu/11/../../../../include/c++/11/bits/char_traits.h:0:33
	movq	32(%rsp), %rdi                  # 8-byte Reload
	movq	(%rsp), %rax                    # 8-byte Reload
	movq	40(%rsp), %rcx                  # 8-byte Reload
.Ltmp121:
	.loc	12 191 26 is_stmt 1             # /usr/bin/../lib/gcc/x86_64-linux-gnu/11/../../../../include/c++/11/bits/basic_string.h:191:26
	movq	%rcx, 8(%rdi)
.Ltmp122:
	.loc	5 357 14                        # /usr/bin/../lib/gcc/x86_64-linux-gnu/11/../../../../include/c++/11/bits/char_traits.h:357:14
	movb	$0, (%rax,%rcx)
.Ltmp123:
	.loc	4 288 7                         # /usr/bin/../lib/gcc/x86_64-linux-gnu/11/../../../../include/c++/11/bits/fs_path.h:288:7
	addq	$32, %rdi
	callq	_ZNSt10filesystem7__cxx114path5_ListC1Ev@PLT
.Ltmp124:
	.loc	4 0 7 is_stmt 0                 # /usr/bin/../lib/gcc/x86_64-linux-gnu/11/../../../../include/c++/11/bits/fs_path.h:0:7
	movq	32(%rsp), %rdi                  # 8-byte Reload
.Ltmp125:
	.loc	4 290 9 epilogue_begin is_stmt 1 # /usr/bin/../lib/gcc/x86_64-linux-gnu/11/../../../../include/c++/11/bits/fs_path.h:290:9
	addq	$56, %rsp
	.cfi_def_cfa_offset 8
.Ltmp126:
	jmp	_ZNSt10filesystem7__cxx114path14_M_split_cmptsEv@PLT # TAILCALL
.Ltmp127:
.Lfunc_end1:
	.size	_ZNSt10filesystem7__cxx114pathC2IA2_cS1_EERKT_NS1_6formatE, .Lfunc_end1-_ZNSt10filesystem7__cxx114pathC2IA2_cS1_EERKT_NS1_6formatE
	.cfi_endproc
	.file	78 "/usr/bin/../lib/gcc/x86_64-linux-gnu/11/../../../../include/c++/11/bits" "cpp_type_traits.h"
                                        # -- End function
	.section	.text._ZNSt10filesystem7__cxx11lsIcSt11char_traitsIcEEERSt13basic_ostreamIT_T0_ES8_RKNS0_4pathE,"axG",@progbits,_ZNSt10filesystem7__cxx11lsIcSt11char_traitsIcEEERSt13basic_ostreamIT_T0_ES8_RKNS0_4pathE,comdat
	.weak	_ZNSt10filesystem7__cxx11lsIcSt11char_traitsIcEEERSt13basic_ostreamIT_T0_ES8_RKNS0_4pathE # -- Begin function _ZNSt10filesystem7__cxx11lsIcSt11char_traitsIcEEERSt13basic_ostreamIT_T0_ES8_RKNS0_4pathE
	.p2align	4, 0x90
	.type	_ZNSt10filesystem7__cxx11lsIcSt11char_traitsIcEEERSt13basic_ostreamIT_T0_ES8_RKNS0_4pathE,@function
_ZNSt10filesystem7__cxx11lsIcSt11char_traitsIcEEERSt13basic_ostreamIT_T0_ES8_RKNS0_4pathE: # @_ZNSt10filesystem7__cxx11lsIcSt11char_traitsIcEEERSt13basic_ostreamIT_T0_ES8_RKNS0_4pathE
.Lfunc_begin2:
	.loc	4 499 0                         # /usr/bin/../lib/gcc/x86_64-linux-gnu/11/../../../../include/c++/11/bits/fs_path.h:499:0
	.cfi_startproc
# %bb.0:
	subq	$120, %rsp
	.cfi_def_cfa_offset 128
	movq	%rdi, 32(%rsp)                  # 8-byte Spill
.Ltmp128:
	.loc	4 500 10 prologue_end           # /usr/bin/../lib/gcc/x86_64-linux-gnu/11/../../../../include/c++/11/bits/fs_path.h:500:10
	leaq	104(%rsp), %rax
	movq	%rax, 40(%rsp)                  # 8-byte Spill
	leaq	104(%rsp), %rax
	.loc	4 500 22 is_stmt 0              # /usr/bin/../lib/gcc/x86_64-linux-gnu/11/../../../../include/c++/11/bits/fs_path.h:500:22
	leaq	72(%rsp), %rax
.Ltmp129:
	.loc	12 195 28 is_stmt 1             # /usr/bin/../lib/gcc/x86_64-linux-gnu/11/../../../../include/c++/11/bits/basic_string.h:195:28
	movq	(%rsi), %rax
	movq	%rax, 48(%rsp)                  # 8-byte Spill
.Ltmp130:
	.loc	12 927 16                       # /usr/bin/../lib/gcc/x86_64-linux-gnu/11/../../../../include/c++/11/bits/basic_string.h:927:16
	movq	8(%rsi), %rax
	movq	%rax, 56(%rsp)                  # 8-byte Spill
.Ltmp131:
	.loc	12 201 51                       # /usr/bin/../lib/gcc/x86_64-linux-gnu/11/../../../../include/c++/11/bits/basic_string.h:201:51
	leaq	72(%rsp), %rcx
	addq	$16, %rcx
	movq	%rcx, 64(%rsp)                  # 8-byte Spill
.Ltmp132:
	.loc	12 165 25                       # /usr/bin/../lib/gcc/x86_64-linux-gnu/11/../../../../include/c++/11/bits/basic_string.h:165:25
	movq	%rcx, 72(%rsp)
.Ltmp133:
	.loc	77 217 13                       # /usr/bin/../lib/gcc/x86_64-linux-gnu/11/../../../../include/c++/11/bits/basic_string.tcc:217:13
	cmpq	$15, %rax
.Ltmp134:
	.loc	77 217 6 is_stmt 0              # /usr/bin/../lib/gcc/x86_64-linux-gnu/11/../../../../include/c++/11/bits/basic_string.tcc:217:6
	ja	.LBB2_2
# %bb.1:
	.loc	77 0 6                          # /usr/bin/../lib/gcc/x86_64-linux-gnu/11/../../../../include/c++/11/bits/basic_string.tcc:0:6
	movq	64(%rsp), %rax                  # 8-byte Reload
	movq	%rax, 24(%rsp)                  # 8-byte Spill
	.loc	77 217 6                        # /usr/bin/../lib/gcc/x86_64-linux-gnu/11/../../../../include/c++/11/bits/basic_string.tcc:217:6
	jmp	.LBB2_7
.LBB2_2:
	.loc	77 0 6                          # /usr/bin/../lib/gcc/x86_64-linux-gnu/11/../../../../include/c++/11/bits/basic_string.tcc:0:6
	movq	56(%rsp), %rax                  # 8-byte Reload
.Ltmp135:
	.loc	77 137 22 is_stmt 1             # /usr/bin/../lib/gcc/x86_64-linux-gnu/11/../../../../include/c++/11/bits/basic_string.tcc:137:22
	cmpq	$0, %rax
.Ltmp136:
	.loc	77 137 11 is_stmt 0             # /usr/bin/../lib/gcc/x86_64-linux-gnu/11/../../../../include/c++/11/bits/basic_string.tcc:137:11
	jge	.LBB2_4
# %bb.3:
.Ltmp137:
	.loc	77 138 2 is_stmt 1              # /usr/bin/../lib/gcc/x86_64-linux-gnu/11/../../../../include/c++/11/bits/basic_string.tcc:138:2
	leaq	.L.str.3(%rip), %rdi
	callq	_ZSt20__throw_length_errorPKc@PLT
.Ltmp138:
.LBB2_4:
	.loc	77 0 2 is_stmt 0                # /usr/bin/../lib/gcc/x86_64-linux-gnu/11/../../../../include/c++/11/bits/basic_string.tcc:0:2
	movq	56(%rsp), %rax                  # 8-byte Reload
	.loc	77 153 69 is_stmt 1             # /usr/bin/../lib/gcc/x86_64-linux-gnu/11/../../../../include/c++/11/bits/basic_string.tcc:153:69
	addq	$1, %rax
	movq	%rax, 16(%rsp)                  # 8-byte Spill
.Ltmp139:
	.loc	7 111 27                        # /usr/bin/../lib/gcc/x86_64-linux-gnu/11/../../../../include/c++/11/ext/new_allocator.h:111:27
	cmpq	$0, %rax
.Ltmp140:
	.loc	7 111 6 is_stmt 0               # /usr/bin/../lib/gcc/x86_64-linux-gnu/11/../../../../include/c++/11/ext/new_allocator.h:111:6
	jge	.LBB2_6
# %bb.5:
.Ltmp141:
	.loc	7 117 6 is_stmt 1               # /usr/bin/../lib/gcc/x86_64-linux-gnu/11/../../../../include/c++/11/ext/new_allocator.h:117:6
	callq	_ZSt17__throw_bad_allocv@PLT
.Ltmp142:
.LBB2_6:
	.loc	7 0 6 is_stmt 0                 # /usr/bin/../lib/gcc/x86_64-linux-gnu/11/../../../../include/c++/11/ext/new_allocator.h:0:6
	movq	16(%rsp), %rdi                  # 8-byte Reload
	.loc	7 127 27 is_stmt 1              # /usr/bin/../lib/gcc/x86_64-linux-gnu/11/../../../../include/c++/11/ext/new_allocator.h:127:27
	callq	_Znwm@PLT
.Ltmp143:
	.loc	7 0 27 is_stmt 0                # /usr/bin/../lib/gcc/x86_64-linux-gnu/11/../../../../include/c++/11/ext/new_allocator.h:0:27
	movq	56(%rsp), %rcx                  # 8-byte Reload
.Ltmp144:
	.loc	12 187 26 is_stmt 1             # /usr/bin/../lib/gcc/x86_64-linux-gnu/11/../../../../include/c++/11/bits/basic_string.h:187:26
	movq	%rax, 72(%rsp)
.Ltmp145:
	.loc	12 219 31                       # /usr/bin/../lib/gcc/x86_64-linux-gnu/11/../../../../include/c++/11/bits/basic_string.h:219:31
	movq	%rcx, 88(%rsp)
	movq	%rax, 24(%rsp)                  # 8-byte Spill
.Ltmp146:
.LBB2_7:
	.loc	12 0 31 is_stmt 0               # /usr/bin/../lib/gcc/x86_64-linux-gnu/11/../../../../include/c++/11/bits/basic_string.h:0:31
	movq	56(%rsp), %rax                  # 8-byte Reload
	movq	24(%rsp), %rcx                  # 8-byte Reload
	movq	%rcx, 8(%rsp)                   # 8-byte Spill
.Ltmp147:
	.loc	12 356 6 is_stmt 1              # /usr/bin/../lib/gcc/x86_64-linux-gnu/11/../../../../include/c++/11/bits/basic_string.h:356:6
	testq	%rax, %rax
	je	.LBB2_10
	jmp	.LBB2_13
.LBB2_13:
	.loc	12 0 6 is_stmt 0                # /usr/bin/../lib/gcc/x86_64-linux-gnu/11/../../../../include/c++/11/bits/basic_string.h:0:6
	movq	56(%rsp), %rax                  # 8-byte Reload
	.loc	12 356 6                        # /usr/bin/../lib/gcc/x86_64-linux-gnu/11/../../../../include/c++/11/bits/basic_string.h:356:6
	subq	$1, %rax
	jne	.LBB2_9
	jmp	.LBB2_8
.LBB2_8:
	.loc	12 0 6                          # /usr/bin/../lib/gcc/x86_64-linux-gnu/11/../../../../include/c++/11/bits/basic_string.h:0:6
	movq	8(%rsp), %rax                   # 8-byte Reload
	movq	48(%rsp), %rcx                  # 8-byte Reload
.Ltmp148:
	.loc	5 357 16 is_stmt 1              # /usr/bin/../lib/gcc/x86_64-linux-gnu/11/../../../../include/c++/11/bits/char_traits.h:357:16
	movb	(%rcx), %cl
	.loc	5 357 14 is_stmt 0              # /usr/bin/../lib/gcc/x86_64-linux-gnu/11/../../../../include/c++/11/bits/char_traits.h:357:14
	movb	%cl, (%rax)
.Ltmp149:
	.loc	12 357 4                        # /usr/bin/../lib/gcc/x86_64-linux-gnu/11/../../../../include/c++/11/bits/basic_string.h:357:4
	jmp	.LBB2_10
.LBB2_9:
	.loc	12 0 4                          # /usr/bin/../lib/gcc/x86_64-linux-gnu/11/../../../../include/c++/11/bits/basic_string.h:0:4
	movq	56(%rsp), %rdx                  # 8-byte Reload
	movq	48(%rsp), %rsi                  # 8-byte Reload
	movq	8(%rsp), %rdi                   # 8-byte Reload
.Ltmp150:
	.loc	5 437 33 is_stmt 1              # /usr/bin/../lib/gcc/x86_64-linux-gnu/11/../../../../include/c++/11/bits/char_traits.h:437:33
	callq	memcpy@PLT
.Ltmp151:
.LBB2_10:
	.loc	5 0 33 is_stmt 0                # /usr/bin/../lib/gcc/x86_64-linux-gnu/11/../../../../include/c++/11/bits/char_traits.h:0:33
	movq	40(%rsp), %rsi                  # 8-byte Reload
	movq	32(%rsp), %rdi                  # 8-byte Reload
	movq	8(%rsp), %rax                   # 8-byte Reload
	movq	56(%rsp), %rcx                  # 8-byte Reload
.Ltmp152:
	.loc	12 191 26 is_stmt 1             # /usr/bin/../lib/gcc/x86_64-linux-gnu/11/../../../../include/c++/11/bits/basic_string.h:191:26
	movq	%rcx, 80(%rsp)
.Ltmp153:
	.loc	5 357 14                        # /usr/bin/../lib/gcc/x86_64-linux-gnu/11/../../../../include/c++/11/bits/char_traits.h:357:14
	movb	$0, (%rax,%rcx)
.Ltmp154:
	.loc	4 500 10                        # /usr/bin/../lib/gcc/x86_64-linux-gnu/11/../../../../include/c++/11/bits/fs_path.h:500:10
	leaq	72(%rsp), %rax
	movq	%rax, 104(%rsp)
	movq	$23586, 112(%rsp)               # imm = 0x5C22
	.loc	4 500 7 is_stmt 0               # /usr/bin/../lib/gcc/x86_64-linux-gnu/11/../../../../include/c++/11/bits/fs_path.h:500:7
	callq	_ZNSt8__detaillsIcSt11char_traitsIcERKNSt7__cxx1112basic_stringIcS2_SaIcEEEEERSt13basic_ostreamIT_T0_ESD_RKNS_14_Quoted_stringIT1_SA_EE
.Ltmp155:
	.loc	4 0 7                           # /usr/bin/../lib/gcc/x86_64-linux-gnu/11/../../../../include/c++/11/bits/fs_path.h:0:7
	movq	64(%rsp), %rcx                  # 8-byte Reload
.Ltmp156:
	.loc	12 195 28 is_stmt 1             # /usr/bin/../lib/gcc/x86_64-linux-gnu/11/../../../../include/c++/11/bits/basic_string.h:195:28
	movq	72(%rsp), %rax
	movq	%rax, (%rsp)                    # 8-byte Spill
.Ltmp157:
	.loc	12 230 26                       # /usr/bin/../lib/gcc/x86_64-linux-gnu/11/../../../../include/c++/11/bits/basic_string.h:230:26
	cmpq	%rcx, %rax
.Ltmp158:
	.loc	12 239 6                        # /usr/bin/../lib/gcc/x86_64-linux-gnu/11/../../../../include/c++/11/bits/basic_string.h:239:6
	je	.LBB2_12
# %bb.11:
	.loc	12 0 6 is_stmt 0                # /usr/bin/../lib/gcc/x86_64-linux-gnu/11/../../../../include/c++/11/bits/basic_string.h:0:6
	movq	(%rsp), %rdi                    # 8-byte Reload
.Ltmp159:
	.loc	7 145 2 is_stmt 1               # /usr/bin/../lib/gcc/x86_64-linux-gnu/11/../../../../include/c++/11/ext/new_allocator.h:145:2
	callq	_ZdlPv@PLT
.Ltmp160:
.LBB2_12:
	.loc	7 0 2 is_stmt 0                 # /usr/bin/../lib/gcc/x86_64-linux-gnu/11/../../../../include/c++/11/ext/new_allocator.h:0:2
	movq	32(%rsp), %rax                  # 8-byte Reload
	.loc	4 501 2 epilogue_begin is_stmt 1 # /usr/bin/../lib/gcc/x86_64-linux-gnu/11/../../../../include/c++/11/bits/fs_path.h:501:2
	addq	$120, %rsp
	.cfi_def_cfa_offset 8
	retq
.Ltmp161:
.Lfunc_end2:
	.size	_ZNSt10filesystem7__cxx11lsIcSt11char_traitsIcEEERSt13basic_ostreamIT_T0_ES8_RKNS0_4pathE, .Lfunc_end2-_ZNSt10filesystem7__cxx11lsIcSt11char_traitsIcEEERSt13basic_ostreamIT_T0_ES8_RKNS0_4pathE
	.cfi_endproc
                                        # -- End function
	.section	.text._ZNSt8__detaillsIcSt11char_traitsIcERKNSt7__cxx1112basic_stringIcS2_SaIcEEEEERSt13basic_ostreamIT_T0_ESD_RKNS_14_Quoted_stringIT1_SA_EE,"axG",@progbits,_ZNSt8__detaillsIcSt11char_traitsIcERKNSt7__cxx1112basic_stringIcS2_SaIcEEEEERSt13basic_ostreamIT_T0_ESD_RKNS_14_Quoted_stringIT1_SA_EE,comdat
	.weak	_ZNSt8__detaillsIcSt11char_traitsIcERKNSt7__cxx1112basic_stringIcS2_SaIcEEEEERSt13basic_ostreamIT_T0_ESD_RKNS_14_Quoted_stringIT1_SA_EE # -- Begin function _ZNSt8__detaillsIcSt11char_traitsIcERKNSt7__cxx1112basic_stringIcS2_SaIcEEEEERSt13basic_ostreamIT_T0_ESD_RKNS_14_Quoted_stringIT1_SA_EE
	.p2align	4, 0x90
	.type	_ZNSt8__detaillsIcSt11char_traitsIcERKNSt7__cxx1112basic_stringIcS2_SaIcEEEEERSt13basic_ostreamIT_T0_ESD_RKNS_14_Quoted_stringIT1_SA_EE,@function
_ZNSt8__detaillsIcSt11char_traitsIcERKNSt7__cxx1112basic_stringIcS2_SaIcEEEEERSt13basic_ostreamIT_T0_ESD_RKNS_14_Quoted_stringIT1_SA_EE: # @_ZNSt8__detaillsIcSt11char_traitsIcERKNSt7__cxx1112basic_stringIcS2_SaIcEEEEERSt13basic_ostreamIT_T0_ESD_RKNS_14_Quoted_stringIT1_SA_EE
.Lfunc_begin3:
	.loc	35 119 0                        # /usr/bin/../lib/gcc/x86_64-linux-gnu/11/../../../../include/c++/11/bits/quoted_string.h:119:0
	.cfi_startproc
# %bb.0:
	subq	$600, %rsp                      # imm = 0x258
	.cfi_def_cfa_offset 608
	movq	%rdi, 88(%rsp)                  # 8-byte Spill
	movq	%rsi, 160(%rsp)                 # 8-byte Spill
.Ltmp162:
	.loc	35 120 2 prologue_end           # /usr/bin/../lib/gcc/x86_64-linux-gnu/11/../../../../include/c++/11/bits/quoted_string.h:120:2
	leaq	216(%rsp), %rax
	movq	%rax, 112(%rsp)                 # 8-byte Spill
.Ltmp163:
	.loc	33 792 7                        # /usr/bin/../lib/gcc/x86_64-linux-gnu/11/../../../../include/c++/11/sstream:792:7
	leaq	216(%rsp), %rdi
	addq	$112, %rdi
.Ltmp164:
	.loc	27 461 9                        # /usr/bin/../lib/gcc/x86_64-linux-gnu/11/../../../../include/c++/11/bits/basic_ios.h:461:9
	callq	_ZNSt8ios_baseC2Ev@PLT
.Ltmp165:
	.loc	27 463 7                        # /usr/bin/../lib/gcc/x86_64-linux-gnu/11/../../../../include/c++/11/bits/basic_ios.h:463:7
	movq	_ZTVSt9basic_iosIcSt11char_traitsIcEE@GOTPCREL(%rip), %rax
	addq	$16, %rax
	movq	%rax, 328(%rsp)
	.loc	27 461 21                       # /usr/bin/../lib/gcc/x86_64-linux-gnu/11/../../../../include/c++/11/bits/basic_ios.h:461:21
	movq	$0, 544(%rsp)
	.loc	27 461 32 is_stmt 0             # /usr/bin/../lib/gcc/x86_64-linux-gnu/11/../../../../include/c++/11/bits/basic_ios.h:461:32
	movb	$0, 552(%rsp)
	.loc	27 461 54                       # /usr/bin/../lib/gcc/x86_64-linux-gnu/11/../../../../include/c++/11/bits/basic_ios.h:461:54
	movb	$0, 553(%rsp)
	.loc	27 462 2 is_stmt 1              # /usr/bin/../lib/gcc/x86_64-linux-gnu/11/../../../../include/c++/11/bits/basic_ios.h:462:2
	leaq	216(%rsp), %rdi
	addq	$344, %rdi                      # imm = 0x158
	xorl	%esi, %esi
	movl	$32, %edx
	callq	memset@PLT
.Ltmp166:
	.loc	27 0 2 is_stmt 0                # /usr/bin/../lib/gcc/x86_64-linux-gnu/11/../../../../include/c++/11/bits/basic_ios.h:0:2
	movq	112(%rsp), %rdi                 # 8-byte Reload
.Ltmp167:
	.loc	31 398 7 is_stmt 1              # /usr/bin/../lib/gcc/x86_64-linux-gnu/11/../../../../include/c++/11/ostream:398:7
	movq	_ZTTNSt7__cxx1119basic_ostringstreamIcSt11char_traitsIcESaIcEEE@GOTPCREL(%rip), %rax
	movq	8(%rax), %rax
	leaq	216(%rsp), %rcx
	movq	%rcx, 96(%rsp)                  # 8-byte Spill
	movq	%rax, 216(%rsp)
	movq	_ZTTNSt7__cxx1119basic_ostringstreamIcSt11char_traitsIcESaIcEEE@GOTPCREL(%rip), %rcx
	movq	16(%rcx), %rcx
	movq	-24(%rax), %rax
	movq	%rcx, 216(%rsp,%rax)
.Ltmp168:
	.loc	31 398 15 is_stmt 0             # /usr/bin/../lib/gcc/x86_64-linux-gnu/11/../../../../include/c++/11/ostream:398:15
	movq	216(%rsp), %rax
	addq	-24(%rax), %rdi
	xorl	%eax, %eax
	movl	%eax, %esi
	callq	_ZNSt9basic_iosIcSt11char_traitsIcEE4initEPSt15basic_streambufIcS1_E@PLT
.Ltmp169:
	.loc	33 792 7 is_stmt 1              # /usr/bin/../lib/gcc/x86_64-linux-gnu/11/../../../../include/c++/11/sstream:792:7
	movq	_ZTVNSt7__cxx1119basic_ostringstreamIcSt11char_traitsIcESaIcEEE@GOTPCREL(%rip), %rax
	addq	$24, %rax
	movq	%rax, 216(%rsp)
	movq	_ZTVNSt7__cxx1119basic_ostringstreamIcSt11char_traitsIcESaIcEEE@GOTPCREL(%rip), %rax
	addq	$64, %rax
	movq	%rax, 328(%rsp)
	.loc	33 791 27                       # /usr/bin/../lib/gcc/x86_64-linux-gnu/11/../../../../include/c++/11/sstream:791:27
	leaq	216(%rsp), %rax
	addq	$8, %rax
	movq	%rax, 120(%rsp)                 # 8-byte Spill
.Ltmp170:
	.loc	28 472 7                        # /usr/bin/../lib/gcc/x86_64-linux-gnu/11/../../../../include/c++/11/streambuf:472:7
	movq	_ZTVSt15basic_streambufIcSt11char_traitsIcEE@GOTPCREL(%rip), %rax
	addq	$16, %rax
	movq	%rax, 224(%rsp)
	.loc	28 469 9                        # /usr/bin/../lib/gcc/x86_64-linux-gnu/11/../../../../include/c++/11/streambuf:469:9
	leaq	216(%rsp), %rdi
	addq	$16, %rdi
	.loc	28 471 7                        # /usr/bin/../lib/gcc/x86_64-linux-gnu/11/../../../../include/c++/11/streambuf:471:7
	leaq	216(%rsp), %rax
	addq	$64, %rax
	movq	%rax, 104(%rsp)                 # 8-byte Spill
	.loc	28 469 23                       # /usr/bin/../lib/gcc/x86_64-linux-gnu/11/../../../../include/c++/11/streambuf:469:23
	xorl	%esi, %esi
	movl	$48, %edx
	callq	memset@PLT
.Ltmp171:
	.loc	28 0 23 is_stmt 0               # /usr/bin/../lib/gcc/x86_64-linux-gnu/11/../../../../include/c++/11/streambuf:0:23
	movq	104(%rsp), %rdi                 # 8-byte Reload
	.loc	28 471 21 is_stmt 1             # /usr/bin/../lib/gcc/x86_64-linux-gnu/11/../../../../include/c++/11/streambuf:471:21
	callq	_ZNSt6localeC1Ev@PLT
.Ltmp172:
	.loc	28 0 21 is_stmt 0               # /usr/bin/../lib/gcc/x86_64-linux-gnu/11/../../../../include/c++/11/streambuf:0:21
	movq	112(%rsp), %rdi                 # 8-byte Reload
	movq	120(%rsp), %rsi                 # 8-byte Reload
.Ltmp173:
	.loc	33 128 7 is_stmt 1              # /usr/bin/../lib/gcc/x86_64-linux-gnu/11/../../../../include/c++/11/sstream:128:7
	movq	_ZTVNSt7__cxx1115basic_stringbufIcSt11char_traitsIcESaIcEEE@GOTPCREL(%rip), %rax
	addq	$16, %rax
	movq	%rax, 224(%rsp)
	.loc	33 127 29                       # /usr/bin/../lib/gcc/x86_64-linux-gnu/11/../../../../include/c++/11/sstream:127:29
	movl	$16, 288(%rsp)
	.loc	33 127 46 is_stmt 0             # /usr/bin/../lib/gcc/x86_64-linux-gnu/11/../../../../include/c++/11/sstream:127:46
	leaq	216(%rsp), %rax
	addq	$80, %rax
	movq	%rax, 128(%rsp)                 # 8-byte Spill
.Ltmp174:
	.loc	12 201 51 is_stmt 1             # /usr/bin/../lib/gcc/x86_64-linux-gnu/11/../../../../include/c++/11/bits/basic_string.h:201:51
	leaq	216(%rsp), %rax
	addq	$96, %rax
	movq	%rax, 136(%rsp)                 # 8-byte Spill
.Ltmp175:
	.loc	12 168 36                       # /usr/bin/../lib/gcc/x86_64-linux-gnu/11/../../../../include/c++/11/bits/basic_string.h:168:36
	movq	%rax, 296(%rsp)
.Ltmp176:
	.loc	12 191 26                       # /usr/bin/../lib/gcc/x86_64-linux-gnu/11/../../../../include/c++/11/bits/basic_string.h:191:26
	movq	$0, 304(%rsp)
.Ltmp177:
	.loc	5 357 14                        # /usr/bin/../lib/gcc/x86_64-linux-gnu/11/../../../../include/c++/11/bits/char_traits.h:357:14
	movb	$0, 312(%rsp)
.Ltmp178:
	.loc	33 792 15                       # /usr/bin/../lib/gcc/x86_64-linux-gnu/11/../../../../include/c++/11/sstream:792:15
	movq	216(%rsp), %rax
	addq	-24(%rax), %rdi
	callq	_ZNSt9basic_iosIcSt11char_traitsIcEE4initEPSt15basic_streambufIcS1_E@PLT
.Ltmp179:
	.loc	33 0 15 is_stmt 0               # /usr/bin/../lib/gcc/x86_64-linux-gnu/11/../../../../include/c++/11/sstream:0:15
	movq	160(%rsp), %rsi                 # 8-byte Reload
.Ltmp180:
	.loc	35 121 2 is_stmt 1              # /usr/bin/../lib/gcc/x86_64-linux-gnu/11/../../../../include/c++/11/bits/quoted_string.h:121:2
	leaq	216(%rsp), %rdi
	movq	%rdi, 144(%rsp)                 # 8-byte Spill
	.loc	35 121 18 is_stmt 0             # /usr/bin/../lib/gcc/x86_64-linux-gnu/11/../../../../include/c++/11/bits/quoted_string.h:121:18
	movq	%rsi, %rax
	addq	$8, %rax
	movq	%rax, 152(%rsp)                 # 8-byte Spill
	movb	8(%rsi), %al
	movb	%al, 596(%rsp)
.Ltmp181:
	.loc	31 525 14 is_stmt 1             # /usr/bin/../lib/gcc/x86_64-linux-gnu/11/../../../../include/c++/11/ostream:525:14
	leaq	596(%rsp), %rsi
	movl	$1, %edx
	callq	_ZSt16__ostream_insertIcSt11char_traitsIcEERSt13basic_ostreamIT_T0_ES6_PKS3_l@PLT
.Ltmp182:
	.loc	31 0 14 is_stmt 0               # /usr/bin/../lib/gcc/x86_64-linux-gnu/11/../../../../include/c++/11/ostream:0:14
	movq	160(%rsp), %rsi                 # 8-byte Reload
.Ltmp183:
	.loc	35 122 24 is_stmt 1             # /usr/bin/../lib/gcc/x86_64-linux-gnu/11/../../../../include/c++/11/bits/quoted_string.h:122:24
	movq	(%rsi), %rax
.Ltmp184:
	.loc	12 195 28                       # /usr/bin/../lib/gcc/x86_64-linux-gnu/11/../../../../include/c++/11/bits/basic_string.h:195:28
	movq	(%rax), %rcx
	movq	%rcx, 168(%rsp)                 # 8-byte Spill
.Ltmp185:
	.loc	12 921 16                       # /usr/bin/../lib/gcc/x86_64-linux-gnu/11/../../../../include/c++/11/bits/basic_string.h:921:16
	movq	8(%rax), %rax
.Ltmp186:
	.loc	12 841 41                       # /usr/bin/../lib/gcc/x86_64-linux-gnu/11/../../../../include/c++/11/bits/basic_string.h:841:41
	addq	%rax, %rcx
	movq	%rcx, 176(%rsp)                 # 8-byte Spill
.Ltmp187:
	.loc	14 1108 27                      # /usr/bin/../lib/gcc/x86_64-linux-gnu/11/../../../../include/c++/11/bits/stl_iterator.h:1108:27
	cmpq	$0, %rax
.Ltmp188:
	.loc	35 122 16                       # /usr/bin/../lib/gcc/x86_64-linux-gnu/11/../../../../include/c++/11/bits/quoted_string.h:122:16
	je	.LBB3_2
# %bb.1:
	.loc	35 0 16 is_stmt 0               # /usr/bin/../lib/gcc/x86_64-linux-gnu/11/../../../../include/c++/11/bits/quoted_string.h:0:16
	movq	168(%rsp), %rax                 # 8-byte Reload
	movq	160(%rsp), %rcx                 # 8-byte Reload
	addq	$9, %rcx
	movq	%rcx, 72(%rsp)                  # 8-byte Spill
	movq	%rax, 80(%rsp)                  # 8-byte Spill
	.loc	35 122 16                       # /usr/bin/../lib/gcc/x86_64-linux-gnu/11/../../../../include/c++/11/bits/quoted_string.h:122:16
	jmp	.LBB3_10
.Ltmp189:
.LBB3_2:
	.loc	35 0 16                         # /usr/bin/../lib/gcc/x86_64-linux-gnu/11/../../../../include/c++/11/bits/quoted_string.h:0:16
	movq	144(%rsp), %rdi                 # 8-byte Reload
	movq	152(%rsp), %rax                 # 8-byte Reload
	.loc	35 128 18 is_stmt 1             # /usr/bin/../lib/gcc/x86_64-linux-gnu/11/../../../../include/c++/11/bits/quoted_string.h:128:18
	movb	(%rax), %al
	movb	%al, 597(%rsp)
	leaq	597(%rsp), %rsi
	movl	$1, %edx
.Ltmp190:
	.loc	31 525 14                       # /usr/bin/../lib/gcc/x86_64-linux-gnu/11/../../../../include/c++/11/ostream:525:14
	callq	_ZSt16__ostream_insertIcSt11char_traitsIcEERSt13basic_ostreamIT_T0_ES6_PKS3_l@PLT
.Ltmp191:
	.loc	31 0 14 is_stmt 0               # /usr/bin/../lib/gcc/x86_64-linux-gnu/11/../../../../include/c++/11/ostream:0:14
	leaq	184(%rsp), %rax
.Ltmp192:
	.loc	12 201 51 is_stmt 1             # /usr/bin/../lib/gcc/x86_64-linux-gnu/11/../../../../include/c++/11/bits/basic_string.h:201:51
	leaq	200(%rsp), %rax
	movq	%rax, 48(%rsp)                  # 8-byte Spill
.Ltmp193:
	.loc	12 165 25                       # /usr/bin/../lib/gcc/x86_64-linux-gnu/11/../../../../include/c++/11/bits/basic_string.h:165:25
	movq	%rax, 184(%rsp)
.Ltmp194:
	.loc	12 191 9                        # /usr/bin/../lib/gcc/x86_64-linux-gnu/11/../../../../include/c++/11/bits/basic_string.h:191:9
	leaq	192(%rsp), %rax
	movq	%rax, 56(%rsp)                  # 8-byte Spill
	.loc	12 191 26 is_stmt 0             # /usr/bin/../lib/gcc/x86_64-linux-gnu/11/../../../../include/c++/11/bits/basic_string.h:191:26
	movq	$0, 192(%rsp)
.Ltmp195:
	.loc	5 357 14 is_stmt 1              # /usr/bin/../lib/gcc/x86_64-linux-gnu/11/../../../../include/c++/11/bits/char_traits.h:357:14
	movb	$0, 200(%rsp)
.Ltmp196:
	.loc	33 431 17                       # /usr/bin/../lib/gcc/x86_64-linux-gnu/11/../../../../include/c++/11/sstream:431:17
	movq	248(%rsp), %rcx
.Ltmp197:
	.loc	28 537 29                       # /usr/bin/../lib/gcc/x86_64-linux-gnu/11/../../../../include/c++/11/streambuf:537:29
	movq	264(%rsp), %rdx
.Ltmp198:
	.loc	33 431 17                       # /usr/bin/../lib/gcc/x86_64-linux-gnu/11/../../../../include/c++/11/sstream:431:17
	testq	%rdx, %rdx
	sete	%al
.Ltmp199:
	.loc	33 431 17 is_stmt 0             # /usr/bin/../lib/gcc/x86_64-linux-gnu/11/../../../../include/c++/11/sstream:431:17
	movq	%rdx, %rsi
	subq	%rcx, %rsi
	cmovaq	%rdx, %rcx
	movq	%rcx, 64(%rsp)                  # 8-byte Spill
.Ltmp200:
	.loc	33 245 17 is_stmt 1             # /usr/bin/../lib/gcc/x86_64-linux-gnu/11/../../../../include/c++/11/sstream:245:17
	testq	%rcx, %rcx
	sete	%cl
	orb	%cl, %al
.Ltmp201:
	.loc	33 245 17 is_stmt 0             # /usr/bin/../lib/gcc/x86_64-linux-gnu/11/../../../../include/c++/11/sstream:245:17
	testb	$1, %al
	jne	.LBB3_4
# %bb.3:
	.loc	33 0 17                         # /usr/bin/../lib/gcc/x86_64-linux-gnu/11/../../../../include/c++/11/sstream:0:17
	movq	64(%rsp), %r8                   # 8-byte Reload
.Ltmp202:
	.loc	28 534 30 is_stmt 1             # /usr/bin/../lib/gcc/x86_64-linux-gnu/11/../../../../include/c++/11/streambuf:534:30
	movq	256(%rsp), %rcx
.Ltmp203:
	.loc	12 2150 20                      # /usr/bin/../lib/gcc/x86_64-linux-gnu/11/../../../../include/c++/11/bits/basic_string.h:2150:20
	subq	%rcx, %r8
.Ltmp204:
	.loc	12 1960 9                       # /usr/bin/../lib/gcc/x86_64-linux-gnu/11/../../../../include/c++/11/bits/basic_string.h:1960:9
	leaq	184(%rsp), %rdi
	xorl	%eax, %eax
	movl	%eax, %edx
	movq	%rdx, %rsi
	callq	_ZNSt7__cxx1112basic_stringIcSt11char_traitsIcESaIcEE10_M_replaceEmmPKcm
.Ltmp205:
	.loc	33 246 4                        # /usr/bin/../lib/gcc/x86_64-linux-gnu/11/../../../../include/c++/11/sstream:246:4
	jmp	.LBB3_5
.LBB3_4:
	.loc	33 0 4 is_stmt 0                # /usr/bin/../lib/gcc/x86_64-linux-gnu/11/../../../../include/c++/11/sstream:0:4
	movq	128(%rsp), %rsi                 # 8-byte Reload
.Ltmp206:
	.loc	12 1387 8 is_stmt 1             # /usr/bin/../lib/gcc/x86_64-linux-gnu/11/../../../../include/c++/11/bits/basic_string.h:1387:8
	leaq	184(%rsp), %rdi
	callq	_ZNSt7__cxx1112basic_stringIcSt11char_traitsIcESaIcEE9_M_assignERKS4_
.Ltmp207:
.LBB3_5:
	.loc	12 0 8 is_stmt 0                # /usr/bin/../lib/gcc/x86_64-linux-gnu/11/../../../../include/c++/11/bits/basic_string.h:0:8
	movq	88(%rsp), %rdi                  # 8-byte Reload
	movq	56(%rsp), %rax                  # 8-byte Reload
.Ltmp208:
	.loc	12 195 28 is_stmt 1             # /usr/bin/../lib/gcc/x86_64-linux-gnu/11/../../../../include/c++/11/bits/basic_string.h:195:28
	movq	184(%rsp), %rsi
.Ltmp209:
	.loc	12 921 16                       # /usr/bin/../lib/gcc/x86_64-linux-gnu/11/../../../../include/c++/11/bits/basic_string.h:921:16
	movq	(%rax), %rdx
.Ltmp210:
	.loc	12 6536 14                      # /usr/bin/../lib/gcc/x86_64-linux-gnu/11/../../../../include/c++/11/bits/basic_string.h:6536:14
	callq	_ZSt16__ostream_insertIcSt11char_traitsIcEERSt13basic_ostreamIT_T0_ES6_PKS3_l@PLT
.Ltmp211:
	.loc	12 0 14 is_stmt 0               # /usr/bin/../lib/gcc/x86_64-linux-gnu/11/../../../../include/c++/11/bits/basic_string.h:0:14
	movq	48(%rsp), %rcx                  # 8-byte Reload
	movq	%rax, 32(%rsp)                  # 8-byte Spill
.Ltmp212:
	.loc	12 195 28 is_stmt 1             # /usr/bin/../lib/gcc/x86_64-linux-gnu/11/../../../../include/c++/11/bits/basic_string.h:195:28
	movq	184(%rsp), %rax
	movq	%rax, 40(%rsp)                  # 8-byte Spill
.Ltmp213:
	.loc	12 230 26                       # /usr/bin/../lib/gcc/x86_64-linux-gnu/11/../../../../include/c++/11/bits/basic_string.h:230:26
	cmpq	%rcx, %rax
.Ltmp214:
	.loc	12 239 6                        # /usr/bin/../lib/gcc/x86_64-linux-gnu/11/../../../../include/c++/11/bits/basic_string.h:239:6
	je	.LBB3_7
# %bb.6:
	.loc	12 0 6 is_stmt 0                # /usr/bin/../lib/gcc/x86_64-linux-gnu/11/../../../../include/c++/11/bits/basic_string.h:0:6
	movq	40(%rsp), %rdi                  # 8-byte Reload
.Ltmp215:
	.loc	7 145 2 is_stmt 1               # /usr/bin/../lib/gcc/x86_64-linux-gnu/11/../../../../include/c++/11/ext/new_allocator.h:145:2
	callq	_ZdlPv@PLT
.Ltmp216:
.LBB3_7:
	.loc	7 0 2 is_stmt 0                 # /usr/bin/../lib/gcc/x86_64-linux-gnu/11/../../../../include/c++/11/ext/new_allocator.h:0:2
	movq	136(%rsp), %rcx                 # 8-byte Reload
	movq	112(%rsp), %rax                 # 8-byte Reload
	movq	96(%rsp), %rsi                  # 8-byte Reload
.Ltmp217:
	.loc	33 837 7 is_stmt 1              # /usr/bin/../lib/gcc/x86_64-linux-gnu/11/../../../../include/c++/11/sstream:837:7
	movq	_ZTTNSt7__cxx1119basic_ostringstreamIcSt11char_traitsIcESaIcEEE@GOTPCREL(%rip), %rdx
	movq	(%rdx), %rdx
	movq	%rdx, (%rsi)
	movq	_ZTTNSt7__cxx1119basic_ostringstreamIcSt11char_traitsIcESaIcEEE@GOTPCREL(%rip), %rsi
	movq	24(%rsi), %rsi
	movq	-24(%rdx), %rdx
	movq	%rsi, (%rax,%rdx)
.Ltmp218:
	.loc	34 291 25                       # /usr/bin/../lib/gcc/x86_64-linux-gnu/11/../../../../include/c++/11/bits/sstream.tcc:291:25
	leaq	216(%rsp), %rax
	addq	$8, %rax
	movq	%rax, 16(%rsp)                  # 8-byte Spill
	movq	_ZTVNSt7__cxx1115basic_stringbufIcSt11char_traitsIcESaIcEEE@GOTPCREL(%rip), %rax
	addq	$16, %rax
	movq	%rax, 224(%rsp)
.Ltmp219:
	.loc	12 195 28                       # /usr/bin/../lib/gcc/x86_64-linux-gnu/11/../../../../include/c++/11/bits/basic_string.h:195:28
	movq	296(%rsp), %rax
	movq	%rax, 24(%rsp)                  # 8-byte Spill
.Ltmp220:
	.loc	12 230 26                       # /usr/bin/../lib/gcc/x86_64-linux-gnu/11/../../../../include/c++/11/bits/basic_string.h:230:26
	cmpq	%rcx, %rax
.Ltmp221:
	.loc	12 239 6                        # /usr/bin/../lib/gcc/x86_64-linux-gnu/11/../../../../include/c++/11/bits/basic_string.h:239:6
	je	.LBB3_9
# %bb.8:
	.loc	12 0 6 is_stmt 0                # /usr/bin/../lib/gcc/x86_64-linux-gnu/11/../../../../include/c++/11/bits/basic_string.h:0:6
	movq	24(%rsp), %rdi                  # 8-byte Reload
.Ltmp222:
	.loc	7 145 2 is_stmt 1               # /usr/bin/../lib/gcc/x86_64-linux-gnu/11/../../../../include/c++/11/ext/new_allocator.h:145:2
	callq	_ZdlPv@PLT
.Ltmp223:
.LBB3_9:
	.loc	7 0 2 is_stmt 0                 # /usr/bin/../lib/gcc/x86_64-linux-gnu/11/../../../../include/c++/11/ext/new_allocator.h:0:2
	movq	104(%rsp), %rdi                 # 8-byte Reload
	movq	16(%rsp), %rax                  # 8-byte Reload
.Ltmp224:
	.loc	28 203 7 is_stmt 1              # /usr/bin/../lib/gcc/x86_64-linux-gnu/11/../../../../include/c++/11/streambuf:203:7
	movq	_ZTVSt15basic_streambufIcSt11char_traitsIcEE@GOTPCREL(%rip), %rcx
	addq	$16, %rcx
	movq	%rcx, (%rax)
.Ltmp225:
	.loc	28 203 9 is_stmt 0              # /usr/bin/../lib/gcc/x86_64-linux-gnu/11/../../../../include/c++/11/streambuf:203:9
	callq	_ZNSt6localeD1Ev@PLT
.Ltmp226:
	.loc	27 282 22 is_stmt 1             # /usr/bin/../lib/gcc/x86_64-linux-gnu/11/../../../../include/c++/11/bits/basic_ios.h:282:22
	leaq	216(%rsp), %rdi
	addq	$112, %rdi
	callq	_ZNSt8ios_baseD2Ev@PLT
.Ltmp227:
	.loc	27 0 22 is_stmt 0               # /usr/bin/../lib/gcc/x86_64-linux-gnu/11/../../../../include/c++/11/bits/basic_ios.h:0:22
	movq	32(%rsp), %rax                  # 8-byte Reload
.Ltmp228:
	.loc	35 131 7 epilogue_begin is_stmt 1 # /usr/bin/../lib/gcc/x86_64-linux-gnu/11/../../../../include/c++/11/bits/quoted_string.h:131:7
	addq	$600, %rsp                      # imm = 0x258
	.cfi_def_cfa_offset 8
	retq
.LBB3_10:                               # =>This Inner Loop Header: Depth=1
	.cfi_def_cfa_offset 608
	.loc	35 0 7 is_stmt 0                # /usr/bin/../lib/gcc/x86_64-linux-gnu/11/../../../../include/c++/11/bits/quoted_string.h:0:7
	movq	72(%rsp), %rdx                  # 8-byte Reload
	movq	152(%rsp), %rax                 # 8-byte Reload
	movq	80(%rsp), %rcx                  # 8-byte Reload
	movq	%rcx, (%rsp)                    # 8-byte Spill
.Ltmp229:
	.loc	35 122 16 is_stmt 1             # /usr/bin/../lib/gcc/x86_64-linux-gnu/11/../../../../include/c++/11/bits/quoted_string.h:122:16
	movb	(%rcx), %cl
	movb	%cl, 14(%rsp)                   # 1-byte Spill
.Ltmp230:
	.loc	35 124 23                       # /usr/bin/../lib/gcc/x86_64-linux-gnu/11/../../../../include/c++/11/bits/quoted_string.h:124:23
	movb	(%rax), %sil
	.loc	35 124 14 is_stmt 0             # /usr/bin/../lib/gcc/x86_64-linux-gnu/11/../../../../include/c++/11/bits/quoted_string.h:124:14
	movb	%cl, %al
	subb	%sil, %al
	sete	%al
	movb	(%rdx), %dl
	movb	%dl, 15(%rsp)                   # 1-byte Spill
	subb	%dl, %cl
	sete	%cl
	.loc	35 124 32                       # /usr/bin/../lib/gcc/x86_64-linux-gnu/11/../../../../include/c++/11/bits/quoted_string.h:124:32
	orb	%cl, %al
	testb	$1, %al
	jne	.LBB3_11
	jmp	.LBB3_12
.LBB3_11:                               #   in Loop: Header=BB3_10 Depth=1
	.loc	35 0 32                         # /usr/bin/../lib/gcc/x86_64-linux-gnu/11/../../../../include/c++/11/bits/quoted_string.h:0:32
	movq	144(%rsp), %rdi                 # 8-byte Reload
	movb	15(%rsp), %al                   # 1-byte Reload
	movb	%al, 598(%rsp)
.Ltmp231:
	.loc	31 525 14 is_stmt 1             # /usr/bin/../lib/gcc/x86_64-linux-gnu/11/../../../../include/c++/11/ostream:525:14
	leaq	598(%rsp), %rsi
	movl	$1, %edx
	callq	_ZSt16__ostream_insertIcSt11char_traitsIcEERSt13basic_ostreamIT_T0_ES6_PKS3_l@PLT
.Ltmp232:
.LBB3_12:                               #   in Loop: Header=BB3_10 Depth=1
	.loc	31 0 14 is_stmt 0               # /usr/bin/../lib/gcc/x86_64-linux-gnu/11/../../../../include/c++/11/ostream:0:14
	movq	144(%rsp), %rdi                 # 8-byte Reload
	movb	14(%rsp), %al                   # 1-byte Reload
	movb	%al, 599(%rsp)
.Ltmp233:
	.loc	31 525 14                       # /usr/bin/../lib/gcc/x86_64-linux-gnu/11/../../../../include/c++/11/ostream:525:14
	leaq	599(%rsp), %rsi
	movl	$1, %edx
	callq	_ZSt16__ostream_insertIcSt11char_traitsIcEERSt13basic_ostreamIT_T0_ES6_PKS3_l@PLT
.Ltmp234:
	.loc	31 0 14                         # /usr/bin/../lib/gcc/x86_64-linux-gnu/11/../../../../include/c++/11/ostream:0:14
	movq	176(%rsp), %rcx                 # 8-byte Reload
                                        # kill: def $rdx killed $rax
	movq	(%rsp), %rax                    # 8-byte Reload
.Ltmp235:
	.loc	14 1037 2 is_stmt 1             # /usr/bin/../lib/gcc/x86_64-linux-gnu/11/../../../../include/c++/11/bits/stl_iterator.h:1037:2
	addq	$1, %rax
.Ltmp236:
	.loc	14 1108 27                      # /usr/bin/../lib/gcc/x86_64-linux-gnu/11/../../../../include/c++/11/bits/stl_iterator.h:1108:27
	cmpq	%rcx, %rax
	movq	%rax, 80(%rsp)                  # 8-byte Spill
.Ltmp237:
	.loc	35 122 16                       # /usr/bin/../lib/gcc/x86_64-linux-gnu/11/../../../../include/c++/11/bits/quoted_string.h:122:16
	je	.LBB3_2
	jmp	.LBB3_10
.Ltmp238:
.Lfunc_end3:
	.size	_ZNSt8__detaillsIcSt11char_traitsIcERKNSt7__cxx1112basic_stringIcS2_SaIcEEEEERSt13basic_ostreamIT_T0_ESD_RKNS_14_Quoted_stringIT1_SA_EE, .Lfunc_end3-_ZNSt8__detaillsIcSt11char_traitsIcERKNSt7__cxx1112basic_stringIcS2_SaIcEEEEERSt13basic_ostreamIT_T0_ESD_RKNS_14_Quoted_stringIT1_SA_EE
	.cfi_endproc
	.file	79 "<stdin>"
                                        # -- End function
	.section	.text._ZNSt7__cxx1112basic_stringIcSt11char_traitsIcESaIcEE10_M_replaceEmmPKcm,"axG",@progbits,_ZNSt7__cxx1112basic_stringIcSt11char_traitsIcESaIcEE10_M_replaceEmmPKcm,comdat
	.weak	_ZNSt7__cxx1112basic_stringIcSt11char_traitsIcESaIcEE10_M_replaceEmmPKcm # -- Begin function _ZNSt7__cxx1112basic_stringIcSt11char_traitsIcESaIcEE10_M_replaceEmmPKcm
	.p2align	4, 0x90
	.type	_ZNSt7__cxx1112basic_stringIcSt11char_traitsIcESaIcEE10_M_replaceEmmPKcm,@function
_ZNSt7__cxx1112basic_stringIcSt11char_traitsIcESaIcEE10_M_replaceEmmPKcm: # @_ZNSt7__cxx1112basic_stringIcSt11char_traitsIcESaIcEE10_M_replaceEmmPKcm
.Lfunc_begin4:
	.loc	77 451 0                        # /usr/bin/../lib/gcc/x86_64-linux-gnu/11/../../../../include/c++/11/bits/basic_string.tcc:451:0
	.cfi_startproc
# %bb.0:
	subq	$184, %rsp
	.cfi_def_cfa_offset 192
	movq	%rdx, %rax
	movq	%rdi, 128(%rsp)                 # 8-byte Spill
	movq	%rsi, 136(%rsp)                 # 8-byte Spill
	movq	%rax, 144(%rsp)                 # 8-byte Spill
	movq	%rcx, 152(%rsp)                 # 8-byte Spill
	movq	%r8, 160(%rsp)                  # 8-byte Spill
.Ltmp239:
	.loc	12 921 16 prologue_end          # /usr/bin/../lib/gcc/x86_64-linux-gnu/11/../../../../include/c++/11/bits/basic_string.h:921:16
	movq	%rdi, %rcx
	addq	$8, %rcx
	movq	%rcx, 168(%rsp)                 # 8-byte Spill
	movq	8(%rdi), %rcx
	movq	%rcx, 176(%rsp)                 # 8-byte Spill
.Ltmp240:
	.loc	12 330 39                       # /usr/bin/../lib/gcc/x86_64-linux-gnu/11/../../../../include/c++/11/bits/basic_string.h:330:39
	movabsq	$9223372036854775807, %rdx      # imm = 0x7FFFFFFFFFFFFFFF
	addq	%rdx, %rax
	.loc	12 330 23 is_stmt 0             # /usr/bin/../lib/gcc/x86_64-linux-gnu/11/../../../../include/c++/11/bits/basic_string.h:330:23
	subq	%rcx, %rax
	.loc	12 330 47                       # /usr/bin/../lib/gcc/x86_64-linux-gnu/11/../../../../include/c++/11/bits/basic_string.h:330:47
	cmpq	%r8, %rax
.Ltmp241:
	.loc	12 330 6                        # /usr/bin/../lib/gcc/x86_64-linux-gnu/11/../../../../include/c++/11/bits/basic_string.h:330:6
	jae	.LBB4_2
# %bb.1:
.Ltmp242:
	.loc	12 331 4 is_stmt 1              # /usr/bin/../lib/gcc/x86_64-linux-gnu/11/../../../../include/c++/11/bits/basic_string.h:331:4
	leaq	.L.str.5(%rip), %rdi
	callq	_ZSt20__throw_length_errorPKc@PLT
.Ltmp243:
.LBB4_2:
	.loc	12 0 4 is_stmt 0                # /usr/bin/../lib/gcc/x86_64-linux-gnu/11/../../../../include/c++/11/bits/basic_string.h:0:4
	movq	128(%rsp), %rdx                 # 8-byte Reload
	movq	176(%rsp), %rcx                 # 8-byte Reload
	movq	144(%rsp), %rsi                 # 8-byte Reload
	movq	160(%rsp), %rax                 # 8-byte Reload
	.loc	77 455 47 is_stmt 1             # /usr/bin/../lib/gcc/x86_64-linux-gnu/11/../../../../include/c++/11/bits/basic_string.tcc:455:47
	subq	%rsi, %rax
	.loc	77 455 56 is_stmt 0             # /usr/bin/../lib/gcc/x86_64-linux-gnu/11/../../../../include/c++/11/bits/basic_string.tcc:455:56
	addq	%rcx, %rax
	movq	%rax, 112(%rsp)                 # 8-byte Spill
.Ltmp244:
	.loc	12 195 28 is_stmt 1             # /usr/bin/../lib/gcc/x86_64-linux-gnu/11/../../../../include/c++/11/bits/basic_string.h:195:28
	movq	(%rdx), %rsi
	movq	%rsi, 120(%rsp)                 # 8-byte Spill
.Ltmp245:
	.loc	12 211 57                       # /usr/bin/../lib/gcc/x86_64-linux-gnu/11/../../../../include/c++/11/bits/basic_string.h:211:57
	movq	%rdx, %rdi
	addq	$16, %rdi
.Ltmp246:
	.loc	12 978 9                        # /usr/bin/../lib/gcc/x86_64-linux-gnu/11/../../../../include/c++/11/bits/basic_string.h:978:9
	movl	$15, %ecx
.Ltmp247:
	.loc	12 230 26                       # /usr/bin/../lib/gcc/x86_64-linux-gnu/11/../../../../include/c++/11/bits/basic_string.h:230:26
	cmpq	%rdi, %rsi
.Ltmp248:
	.loc	12 978 9                        # /usr/bin/../lib/gcc/x86_64-linux-gnu/11/../../../../include/c++/11/bits/basic_string.h:978:9
	cmovneq	16(%rdx), %rcx
.Ltmp249:
	.loc	77 457 22                       # /usr/bin/../lib/gcc/x86_64-linux-gnu/11/../../../../include/c++/11/bits/basic_string.tcc:457:22
	cmpq	%rcx, %rax
.Ltmp250:
	.loc	77 457 11 is_stmt 0             # /usr/bin/../lib/gcc/x86_64-linux-gnu/11/../../../../include/c++/11/bits/basic_string.tcc:457:11
	ja	.LBB4_34
# %bb.3:
	.loc	77 0 11                         # /usr/bin/../lib/gcc/x86_64-linux-gnu/11/../../../../include/c++/11/bits/basic_string.tcc:0:11
	movq	152(%rsp), %rdx                 # 8-byte Reload
	movq	176(%rsp), %rsi                 # 8-byte Reload
	movq	120(%rsp), %rcx                 # 8-byte Reload
	movq	136(%rsp), %rax                 # 8-byte Reload
	movq	144(%rsp), %rdi                 # 8-byte Reload
.Ltmp251:
	.loc	77 459 34 is_stmt 1             # /usr/bin/../lib/gcc/x86_64-linux-gnu/11/../../../../include/c++/11/bits/basic_string.tcc:459:34
	movq	%rcx, %r8
	addq	%rax, %r8
	movq	%r8, 96(%rsp)                   # 8-byte Spill
	.loc	77 461 52                       # /usr/bin/../lib/gcc/x86_64-linux-gnu/11/../../../../include/c++/11/bits/basic_string.tcc:461:52
	addq	%rax, %rdi
	movq	%rsi, %rax
	subq	%rdi, %rax
	movq	%rax, 104(%rsp)                 # 8-byte Spill
.Ltmp252:
	.file	80 "/usr/bin/../lib/gcc/x86_64-linux-gnu/11/../../../../include/c++/11/bits" "stl_function.h" md5 0x42c8c895e947368df44a306d292f341c
	.loc	80 457 31                       # /usr/bin/../lib/gcc/x86_64-linux-gnu/11/../../../../include/c++/11/bits/stl_function.h:457:31
	movq	%rcx, %rax
	subq	%rdx, %rax
	seta	%al
.Ltmp253:
	.loc	12 348 3                        # /usr/bin/../lib/gcc/x86_64-linux-gnu/11/../../../../include/c++/11/bits/basic_string.h:348:3
	addq	%rsi, %rcx
	subq	%rdx, %rcx
	setb	%cl
	orb	%cl, %al
.Ltmp254:
	.loc	77 462 8                        # /usr/bin/../lib/gcc/x86_64-linux-gnu/11/../../../../include/c++/11/bits/basic_string.tcc:462:8
	testb	$1, %al
	jne	.LBB4_4
	jmp	.LBB4_11
.LBB4_4:
	.loc	77 0 8 is_stmt 0                # /usr/bin/../lib/gcc/x86_64-linux-gnu/11/../../../../include/c++/11/bits/basic_string.tcc:0:8
	movq	160(%rsp), %rax                 # 8-byte Reload
	movq	144(%rsp), %rdx                 # 8-byte Reload
	movq	104(%rsp), %rcx                 # 8-byte Reload
.Ltmp255:
	.loc	77 464 12 is_stmt 1             # /usr/bin/../lib/gcc/x86_64-linux-gnu/11/../../../../include/c++/11/bits/basic_string.tcc:464:12
	cmpq	$0, %rcx
	sete	%cl
	cmpq	%rdx, %rax
	sete	%al
	.loc	77 464 23 is_stmt 0             # /usr/bin/../lib/gcc/x86_64-linux-gnu/11/../../../../include/c++/11/bits/basic_string.tcc:464:23
	orb	%cl, %al
	testb	$1, %al
	jne	.LBB4_8
# %bb.5:
	.loc	77 0 23                         # /usr/bin/../lib/gcc/x86_64-linux-gnu/11/../../../../include/c++/11/bits/basic_string.tcc:0:23
	movq	104(%rsp), %rax                 # 8-byte Reload
	movq	144(%rsp), %rdx                 # 8-byte Reload
	movq	96(%rsp), %rcx                  # 8-byte Reload
	movq	160(%rsp), %rdi                 # 8-byte Reload
	.loc	77 465 21 is_stmt 1             # /usr/bin/../lib/gcc/x86_64-linux-gnu/11/../../../../include/c++/11/bits/basic_string.tcc:465:21
	movq	%rcx, %rsi
	addq	%rdi, %rsi
	movq	%rsi, 80(%rsp)                  # 8-byte Spill
	.loc	77 465 35 is_stmt 0             # /usr/bin/../lib/gcc/x86_64-linux-gnu/11/../../../../include/c++/11/bits/basic_string.tcc:465:35
	addq	%rdx, %rcx
	movq	%rcx, 88(%rsp)                  # 8-byte Spill
.Ltmp256:
	.loc	12 365 6 is_stmt 1              # /usr/bin/../lib/gcc/x86_64-linux-gnu/11/../../../../include/c++/11/bits/basic_string.h:365:6
	cmpq	$1, %rax
	jne	.LBB4_7
# %bb.6:
	.loc	12 0 6 is_stmt 0                # /usr/bin/../lib/gcc/x86_64-linux-gnu/11/../../../../include/c++/11/bits/basic_string.h:0:6
	movq	80(%rsp), %rax                  # 8-byte Reload
	movq	88(%rsp), %rcx                  # 8-byte Reload
.Ltmp257:
	.loc	5 357 16 is_stmt 1              # /usr/bin/../lib/gcc/x86_64-linux-gnu/11/../../../../include/c++/11/bits/char_traits.h:357:16
	movb	(%rcx), %cl
	.loc	5 357 14 is_stmt 0              # /usr/bin/../lib/gcc/x86_64-linux-gnu/11/../../../../include/c++/11/bits/char_traits.h:357:14
	movb	%cl, (%rax)
.Ltmp258:
	.loc	12 366 4 is_stmt 1              # /usr/bin/../lib/gcc/x86_64-linux-gnu/11/../../../../include/c++/11/bits/basic_string.h:366:4
	jmp	.LBB4_8
.LBB4_7:
	.loc	12 0 4 is_stmt 0                # /usr/bin/../lib/gcc/x86_64-linux-gnu/11/../../../../include/c++/11/bits/basic_string.h:0:4
	movq	104(%rsp), %rdx                 # 8-byte Reload
	movq	88(%rsp), %rsi                  # 8-byte Reload
	movq	80(%rsp), %rdi                  # 8-byte Reload
.Ltmp259:
	.loc	5 425 33 is_stmt 1              # /usr/bin/../lib/gcc/x86_64-linux-gnu/11/../../../../include/c++/11/bits/char_traits.h:425:33
	callq	memmove@PLT
.Ltmp260:
.LBB4_8:
	.loc	5 0 33 is_stmt 0                # /usr/bin/../lib/gcc/x86_64-linux-gnu/11/../../../../include/c++/11/bits/char_traits.h:0:33
	movq	160(%rsp), %rax                 # 8-byte Reload
	.loc	77 466 12 is_stmt 1             # /usr/bin/../lib/gcc/x86_64-linux-gnu/11/../../../../include/c++/11/bits/basic_string.tcc:466:12
	testq	%rax, %rax
	je	.LBB4_35
	jmp	.LBB4_38
.LBB4_38:
	.loc	77 0 12 is_stmt 0               # /usr/bin/../lib/gcc/x86_64-linux-gnu/11/../../../../include/c++/11/bits/basic_string.tcc:0:12
	movq	160(%rsp), %rax                 # 8-byte Reload
	.loc	77 466 12                       # /usr/bin/../lib/gcc/x86_64-linux-gnu/11/../../../../include/c++/11/bits/basic_string.tcc:466:12
	subq	$1, %rax
	jne	.LBB4_10
	jmp	.LBB4_9
.LBB4_9:
	.loc	77 0 12                         # /usr/bin/../lib/gcc/x86_64-linux-gnu/11/../../../../include/c++/11/bits/basic_string.tcc:0:12
	movq	96(%rsp), %rax                  # 8-byte Reload
	movq	152(%rsp), %rcx                 # 8-byte Reload
.Ltmp261:
	.loc	5 357 16 is_stmt 1              # /usr/bin/../lib/gcc/x86_64-linux-gnu/11/../../../../include/c++/11/bits/char_traits.h:357:16
	movb	(%rcx), %cl
	.loc	5 357 14 is_stmt 0              # /usr/bin/../lib/gcc/x86_64-linux-gnu/11/../../../../include/c++/11/bits/char_traits.h:357:14
	movb	%cl, (%rax)
.Ltmp262:
	.loc	12 357 4                        # /usr/bin/../lib/gcc/x86_64-linux-gnu/11/../../../../include/c++/11/bits/basic_string.h:357:4
	jmp	.LBB4_35
.LBB4_10:
	.loc	12 0 4                          # /usr/bin/../lib/gcc/x86_64-linux-gnu/11/../../../../include/c++/11/bits/basic_string.h:0:4
	movq	160(%rsp), %rdx                 # 8-byte Reload
	movq	152(%rsp), %rsi                 # 8-byte Reload
	movq	96(%rsp), %rdi                  # 8-byte Reload
.Ltmp263:
	.loc	5 437 33 is_stmt 1              # /usr/bin/../lib/gcc/x86_64-linux-gnu/11/../../../../include/c++/11/bits/char_traits.h:437:33
	callq	memcpy@PLT
.Ltmp264:
	.loc	5 437 2 is_stmt 0               # /usr/bin/../lib/gcc/x86_64-linux-gnu/11/../../../../include/c++/11/bits/char_traits.h:437:2
	jmp	.LBB4_35
.Ltmp265:
.LBB4_11:
	.loc	5 0 2                           # /usr/bin/../lib/gcc/x86_64-linux-gnu/11/../../../../include/c++/11/bits/char_traits.h:0:2
	movq	144(%rsp), %rcx                 # 8-byte Reload
	movq	160(%rsp), %rax                 # 8-byte Reload
	cmpq	%rcx, %rax
	seta	%dl
	movb	%dl, 79(%rsp)                   # 1-byte Spill
.Ltmp266:
	.loc	77 472 19 is_stmt 1             # /usr/bin/../lib/gcc/x86_64-linux-gnu/11/../../../../include/c++/11/bits/basic_string.tcc:472:19
	addq	$-1, %rax
	cmpq	%rcx, %rax
	jae	.LBB4_15
# %bb.12:
	.loc	77 0 19 is_stmt 0               # /usr/bin/../lib/gcc/x86_64-linux-gnu/11/../../../../include/c++/11/bits/basic_string.tcc:0:19
	movq	160(%rsp), %rax                 # 8-byte Reload
.Ltmp267:
	.loc	12 365 6 is_stmt 1              # /usr/bin/../lib/gcc/x86_64-linux-gnu/11/../../../../include/c++/11/bits/basic_string.h:365:6
	cmpq	$1, %rax
	jne	.LBB4_14
# %bb.13:
	.loc	12 0 6 is_stmt 0                # /usr/bin/../lib/gcc/x86_64-linux-gnu/11/../../../../include/c++/11/bits/basic_string.h:0:6
	movq	96(%rsp), %rax                  # 8-byte Reload
	movq	152(%rsp), %rcx                 # 8-byte Reload
.Ltmp268:
	.loc	5 357 16 is_stmt 1              # /usr/bin/../lib/gcc/x86_64-linux-gnu/11/../../../../include/c++/11/bits/char_traits.h:357:16
	movb	(%rcx), %cl
	.loc	5 357 14 is_stmt 0              # /usr/bin/../lib/gcc/x86_64-linux-gnu/11/../../../../include/c++/11/bits/char_traits.h:357:14
	movb	%cl, (%rax)
.Ltmp269:
	.loc	12 366 4 is_stmt 1              # /usr/bin/../lib/gcc/x86_64-linux-gnu/11/../../../../include/c++/11/bits/basic_string.h:366:4
	jmp	.LBB4_15
.LBB4_14:
	.loc	12 0 4 is_stmt 0                # /usr/bin/../lib/gcc/x86_64-linux-gnu/11/../../../../include/c++/11/bits/basic_string.h:0:4
	movq	160(%rsp), %rdx                 # 8-byte Reload
	movq	152(%rsp), %rsi                 # 8-byte Reload
	movq	96(%rsp), %rdi                  # 8-byte Reload
.Ltmp270:
	.loc	5 425 33 is_stmt 1              # /usr/bin/../lib/gcc/x86_64-linux-gnu/11/../../../../include/c++/11/bits/char_traits.h:425:33
	callq	memmove@PLT
.Ltmp271:
.LBB4_15:
	.loc	5 0 33 is_stmt 0                # /usr/bin/../lib/gcc/x86_64-linux-gnu/11/../../../../include/c++/11/bits/char_traits.h:0:33
	movq	160(%rsp), %rax                 # 8-byte Reload
	movq	144(%rsp), %rdx                 # 8-byte Reload
	movq	104(%rsp), %rcx                 # 8-byte Reload
.Ltmp272:
	.loc	77 474 12 is_stmt 1             # /usr/bin/../lib/gcc/x86_64-linux-gnu/11/../../../../include/c++/11/bits/basic_string.tcc:474:12
	cmpq	$0, %rcx
	sete	%cl
	cmpq	%rdx, %rax
	sete	%al
	.loc	77 474 23 is_stmt 0             # /usr/bin/../lib/gcc/x86_64-linux-gnu/11/../../../../include/c++/11/bits/basic_string.tcc:474:23
	orb	%cl, %al
	testb	$1, %al
	jne	.LBB4_19
# %bb.16:
	.loc	77 0 23                         # /usr/bin/../lib/gcc/x86_64-linux-gnu/11/../../../../include/c++/11/bits/basic_string.tcc:0:23
	movq	104(%rsp), %rax                 # 8-byte Reload
	movq	144(%rsp), %rdx                 # 8-byte Reload
	movq	96(%rsp), %rcx                  # 8-byte Reload
	movq	160(%rsp), %rdi                 # 8-byte Reload
	.loc	77 475 21 is_stmt 1             # /usr/bin/../lib/gcc/x86_64-linux-gnu/11/../../../../include/c++/11/bits/basic_string.tcc:475:21
	movq	%rcx, %rsi
	addq	%rdi, %rsi
	movq	%rsi, 56(%rsp)                  # 8-byte Spill
	.loc	77 475 35 is_stmt 0             # /usr/bin/../lib/gcc/x86_64-linux-gnu/11/../../../../include/c++/11/bits/basic_string.tcc:475:35
	addq	%rdx, %rcx
	movq	%rcx, 64(%rsp)                  # 8-byte Spill
.Ltmp273:
	.loc	12 365 6 is_stmt 1              # /usr/bin/../lib/gcc/x86_64-linux-gnu/11/../../../../include/c++/11/bits/basic_string.h:365:6
	cmpq	$1, %rax
	jne	.LBB4_18
# %bb.17:
	.loc	12 0 6 is_stmt 0                # /usr/bin/../lib/gcc/x86_64-linux-gnu/11/../../../../include/c++/11/bits/basic_string.h:0:6
	movq	56(%rsp), %rax                  # 8-byte Reload
	movq	64(%rsp), %rcx                  # 8-byte Reload
.Ltmp274:
	.loc	5 357 16 is_stmt 1              # /usr/bin/../lib/gcc/x86_64-linux-gnu/11/../../../../include/c++/11/bits/char_traits.h:357:16
	movb	(%rcx), %cl
	.loc	5 357 14 is_stmt 0              # /usr/bin/../lib/gcc/x86_64-linux-gnu/11/../../../../include/c++/11/bits/char_traits.h:357:14
	movb	%cl, (%rax)
.Ltmp275:
	.loc	12 366 4 is_stmt 1              # /usr/bin/../lib/gcc/x86_64-linux-gnu/11/../../../../include/c++/11/bits/basic_string.h:366:4
	jmp	.LBB4_19
.LBB4_18:
	.loc	12 0 4 is_stmt 0                # /usr/bin/../lib/gcc/x86_64-linux-gnu/11/../../../../include/c++/11/bits/basic_string.h:0:4
	movq	104(%rsp), %rdx                 # 8-byte Reload
	movq	64(%rsp), %rsi                  # 8-byte Reload
	movq	56(%rsp), %rdi                  # 8-byte Reload
.Ltmp276:
	.loc	5 425 33 is_stmt 1              # /usr/bin/../lib/gcc/x86_64-linux-gnu/11/../../../../include/c++/11/bits/char_traits.h:425:33
	callq	memmove@PLT
.Ltmp277:
.LBB4_19:
	.loc	5 0 33 is_stmt 0                # /usr/bin/../lib/gcc/x86_64-linux-gnu/11/../../../../include/c++/11/bits/char_traits.h:0:33
	movb	79(%rsp), %al                   # 1-byte Reload
	.loc	77 476 12 is_stmt 1             # /usr/bin/../lib/gcc/x86_64-linux-gnu/11/../../../../include/c++/11/bits/basic_string.tcc:476:12
	testb	$1, %al
	jne	.LBB4_20
	jmp	.LBB4_35
.LBB4_20:
	.loc	77 0 12 is_stmt 0               # /usr/bin/../lib/gcc/x86_64-linux-gnu/11/../../../../include/c++/11/bits/basic_string.tcc:0:12
	movq	144(%rsp), %rdx                 # 8-byte Reload
	movq	96(%rsp), %rcx                  # 8-byte Reload
	movq	160(%rsp), %rsi                 # 8-byte Reload
	movq	152(%rsp), %rax                 # 8-byte Reload
.Ltmp278:
	.loc	77 478 13 is_stmt 1             # /usr/bin/../lib/gcc/x86_64-linux-gnu/11/../../../../include/c++/11/bits/basic_string.tcc:478:13
	addq	%rsi, %rax
	.loc	77 478 29 is_stmt 0             # /usr/bin/../lib/gcc/x86_64-linux-gnu/11/../../../../include/c++/11/bits/basic_string.tcc:478:29
	addq	%rdx, %rcx
	movq	%rcx, 48(%rsp)                  # 8-byte Spill
	.loc	77 478 22                       # /usr/bin/../lib/gcc/x86_64-linux-gnu/11/../../../../include/c++/11/bits/basic_string.tcc:478:22
	cmpq	%rcx, %rax
.Ltmp279:
	.loc	77 478 9                        # /usr/bin/../lib/gcc/x86_64-linux-gnu/11/../../../../include/c++/11/bits/basic_string.tcc:478:9
	ja	.LBB4_24
# %bb.21:
	.loc	77 0 9                          # /usr/bin/../lib/gcc/x86_64-linux-gnu/11/../../../../include/c++/11/bits/basic_string.tcc:0:9
	movq	160(%rsp), %rax                 # 8-byte Reload
.Ltmp280:
	.loc	12 365 6 is_stmt 1              # /usr/bin/../lib/gcc/x86_64-linux-gnu/11/../../../../include/c++/11/bits/basic_string.h:365:6
	cmpq	$1, %rax
	jne	.LBB4_23
# %bb.22:
	.loc	12 0 6 is_stmt 0                # /usr/bin/../lib/gcc/x86_64-linux-gnu/11/../../../../include/c++/11/bits/basic_string.h:0:6
	movq	96(%rsp), %rax                  # 8-byte Reload
	movq	152(%rsp), %rcx                 # 8-byte Reload
.Ltmp281:
	.loc	5 357 16 is_stmt 1              # /usr/bin/../lib/gcc/x86_64-linux-gnu/11/../../../../include/c++/11/bits/char_traits.h:357:16
	movb	(%rcx), %cl
	.loc	5 357 14 is_stmt 0              # /usr/bin/../lib/gcc/x86_64-linux-gnu/11/../../../../include/c++/11/bits/char_traits.h:357:14
	movb	%cl, (%rax)
.Ltmp282:
	.loc	12 366 4 is_stmt 1              # /usr/bin/../lib/gcc/x86_64-linux-gnu/11/../../../../include/c++/11/bits/basic_string.h:366:4
	jmp	.LBB4_35
.LBB4_23:
	.loc	12 0 4 is_stmt 0                # /usr/bin/../lib/gcc/x86_64-linux-gnu/11/../../../../include/c++/11/bits/basic_string.h:0:4
	movq	160(%rsp), %rdx                 # 8-byte Reload
	movq	152(%rsp), %rsi                 # 8-byte Reload
	movq	96(%rsp), %rdi                  # 8-byte Reload
.Ltmp283:
	.loc	5 425 33 is_stmt 1              # /usr/bin/../lib/gcc/x86_64-linux-gnu/11/../../../../include/c++/11/bits/char_traits.h:425:33
	callq	memmove@PLT
.Ltmp284:
	.loc	5 425 2 is_stmt 0               # /usr/bin/../lib/gcc/x86_64-linux-gnu/11/../../../../include/c++/11/bits/char_traits.h:425:2
	jmp	.LBB4_35
.Ltmp285:
.LBB4_24:
	.loc	5 0 2                           # /usr/bin/../lib/gcc/x86_64-linux-gnu/11/../../../../include/c++/11/bits/char_traits.h:0:2
	movq	48(%rsp), %rax                  # 8-byte Reload
	movq	152(%rsp), %rcx                 # 8-byte Reload
.Ltmp286:
	.loc	77 480 18 is_stmt 1             # /usr/bin/../lib/gcc/x86_64-linux-gnu/11/../../../../include/c++/11/bits/basic_string.tcc:480:18
	cmpq	%rcx, %rax
.Ltmp287:
	.loc	77 480 14 is_stmt 0             # /usr/bin/../lib/gcc/x86_64-linux-gnu/11/../../../../include/c++/11/bits/basic_string.tcc:480:14
	ja	.LBB4_28
# %bb.25:
	.loc	77 0 14                         # /usr/bin/../lib/gcc/x86_64-linux-gnu/11/../../../../include/c++/11/bits/basic_string.tcc:0:14
	movq	160(%rsp), %rax                 # 8-byte Reload
	movq	96(%rsp), %rcx                  # 8-byte Reload
	movq	144(%rsp), %rdi                 # 8-byte Reload
	movq	152(%rsp), %rdx                 # 8-byte Reload
.Ltmp288:
	.loc	77 484 46 is_stmt 1             # /usr/bin/../lib/gcc/x86_64-linux-gnu/11/../../../../include/c++/11/bits/basic_string.tcc:484:46
	addq	%rax, %rdx
	movq	%rcx, %rsi
	addq	%rdi, %rsi
	subq	%rsi, %rdx
	.loc	77 485 32                       # /usr/bin/../lib/gcc/x86_64-linux-gnu/11/../../../../include/c++/11/bits/basic_string.tcc:485:32
	addq	%rdx, %rcx
	movq	%rcx, 40(%rsp)                  # 8-byte Spill
.Ltmp289:
	.loc	12 356 6                        # /usr/bin/../lib/gcc/x86_64-linux-gnu/11/../../../../include/c++/11/bits/basic_string.h:356:6
	cmpq	$1, %rax
	jne	.LBB4_27
# %bb.26:
	.loc	12 0 6 is_stmt 0                # /usr/bin/../lib/gcc/x86_64-linux-gnu/11/../../../../include/c++/11/bits/basic_string.h:0:6
	movq	96(%rsp), %rax                  # 8-byte Reload
	movq	40(%rsp), %rcx                  # 8-byte Reload
.Ltmp290:
	.loc	5 357 16 is_stmt 1              # /usr/bin/../lib/gcc/x86_64-linux-gnu/11/../../../../include/c++/11/bits/char_traits.h:357:16
	movb	(%rcx), %cl
	.loc	5 357 14 is_stmt 0              # /usr/bin/../lib/gcc/x86_64-linux-gnu/11/../../../../include/c++/11/bits/char_traits.h:357:14
	movb	%cl, (%rax)
.Ltmp291:
	.loc	12 357 4                        # /usr/bin/../lib/gcc/x86_64-linux-gnu/11/../../../../include/c++/11/bits/basic_string.h:357:4
	jmp	.LBB4_35
.LBB4_27:
	.loc	12 0 4                          # /usr/bin/../lib/gcc/x86_64-linux-gnu/11/../../../../include/c++/11/bits/basic_string.h:0:4
	movq	160(%rsp), %rdx                 # 8-byte Reload
	movq	40(%rsp), %rsi                  # 8-byte Reload
	movq	96(%rsp), %rdi                  # 8-byte Reload
.Ltmp292:
	.loc	5 437 33 is_stmt 1              # /usr/bin/../lib/gcc/x86_64-linux-gnu/11/../../../../include/c++/11/bits/char_traits.h:437:33
	callq	memcpy@PLT
.Ltmp293:
	.loc	5 437 2 is_stmt 0               # /usr/bin/../lib/gcc/x86_64-linux-gnu/11/../../../../include/c++/11/bits/char_traits.h:437:2
	jmp	.LBB4_35
.Ltmp294:
.LBB4_28:
	.loc	5 0 2                           # /usr/bin/../lib/gcc/x86_64-linux-gnu/11/../../../../include/c++/11/bits/char_traits.h:0:2
	movq	152(%rsp), %rcx                 # 8-byte Reload
	movq	48(%rsp), %rax                  # 8-byte Reload
.Ltmp295:
	.loc	12 365 6 is_stmt 1              # /usr/bin/../lib/gcc/x86_64-linux-gnu/11/../../../../include/c++/11/bits/basic_string.h:365:6
	subq	%rcx, %rax
	movq	%rax, 32(%rsp)                  # 8-byte Spill
	je	.LBB4_31
	jmp	.LBB4_36
.LBB4_36:
	.loc	12 0 6 is_stmt 0                # /usr/bin/../lib/gcc/x86_64-linux-gnu/11/../../../../include/c++/11/bits/basic_string.h:0:6
	movq	32(%rsp), %rax                  # 8-byte Reload
	.loc	12 365 6                        # /usr/bin/../lib/gcc/x86_64-linux-gnu/11/../../../../include/c++/11/bits/basic_string.h:365:6
	subq	$1, %rax
	jne	.LBB4_30
	jmp	.LBB4_29
.LBB4_29:
	.loc	12 0 6                          # /usr/bin/../lib/gcc/x86_64-linux-gnu/11/../../../../include/c++/11/bits/basic_string.h:0:6
	movq	96(%rsp), %rax                  # 8-byte Reload
	movq	152(%rsp), %rcx                 # 8-byte Reload
.Ltmp296:
	.loc	5 357 16 is_stmt 1              # /usr/bin/../lib/gcc/x86_64-linux-gnu/11/../../../../include/c++/11/bits/char_traits.h:357:16
	movb	(%rcx), %cl
	.loc	5 357 14 is_stmt 0              # /usr/bin/../lib/gcc/x86_64-linux-gnu/11/../../../../include/c++/11/bits/char_traits.h:357:14
	movb	%cl, (%rax)
.Ltmp297:
	.loc	12 366 4 is_stmt 1              # /usr/bin/../lib/gcc/x86_64-linux-gnu/11/../../../../include/c++/11/bits/basic_string.h:366:4
	jmp	.LBB4_31
.LBB4_30:
	.loc	12 0 4 is_stmt 0                # /usr/bin/../lib/gcc/x86_64-linux-gnu/11/../../../../include/c++/11/bits/basic_string.h:0:4
	movq	32(%rsp), %rdx                  # 8-byte Reload
	movq	152(%rsp), %rsi                 # 8-byte Reload
	movq	96(%rsp), %rdi                  # 8-byte Reload
.Ltmp298:
	.loc	5 425 33 is_stmt 1              # /usr/bin/../lib/gcc/x86_64-linux-gnu/11/../../../../include/c++/11/bits/char_traits.h:425:33
	callq	memmove@PLT
.Ltmp299:
.LBB4_31:
	.loc	5 0 33 is_stmt 0                # /usr/bin/../lib/gcc/x86_64-linux-gnu/11/../../../../include/c++/11/bits/char_traits.h:0:33
	movq	32(%rsp), %rcx                  # 8-byte Reload
	movq	160(%rsp), %rax                 # 8-byte Reload
	movq	96(%rsp), %rdx                  # 8-byte Reload
	.loc	77 491 27 is_stmt 1             # /usr/bin/../lib/gcc/x86_64-linux-gnu/11/../../../../include/c++/11/bits/basic_string.tcc:491:27
	movq	%rdx, %rsi
	addq	%rcx, %rsi
	movq	%rsi, 8(%rsp)                   # 8-byte Spill
	.loc	77 491 42 is_stmt 0             # /usr/bin/../lib/gcc/x86_64-linux-gnu/11/../../../../include/c++/11/bits/basic_string.tcc:491:42
	addq	%rax, %rdx
	movq	%rdx, 16(%rsp)                  # 8-byte Spill
.Ltmp300:
	.loc	12 356 6 is_stmt 1              # /usr/bin/../lib/gcc/x86_64-linux-gnu/11/../../../../include/c++/11/bits/basic_string.h:356:6
	subq	%rcx, %rax
	movq	%rax, 24(%rsp)                  # 8-byte Spill
	je	.LBB4_35
	jmp	.LBB4_37
.LBB4_37:
	.loc	12 0 6 is_stmt 0                # /usr/bin/../lib/gcc/x86_64-linux-gnu/11/../../../../include/c++/11/bits/basic_string.h:0:6
	movq	24(%rsp), %rax                  # 8-byte Reload
	.loc	12 356 6                        # /usr/bin/../lib/gcc/x86_64-linux-gnu/11/../../../../include/c++/11/bits/basic_string.h:356:6
	subq	$1, %rax
	jne	.LBB4_33
	jmp	.LBB4_32
.LBB4_32:
	.loc	12 0 6                          # /usr/bin/../lib/gcc/x86_64-linux-gnu/11/../../../../include/c++/11/bits/basic_string.h:0:6
	movq	8(%rsp), %rax                   # 8-byte Reload
	movq	16(%rsp), %rcx                  # 8-byte Reload
.Ltmp301:
	.loc	5 357 16 is_stmt 1              # /usr/bin/../lib/gcc/x86_64-linux-gnu/11/../../../../include/c++/11/bits/char_traits.h:357:16
	movb	(%rcx), %cl
	.loc	5 357 14 is_stmt 0              # /usr/bin/../lib/gcc/x86_64-linux-gnu/11/../../../../include/c++/11/bits/char_traits.h:357:14
	movb	%cl, (%rax)
.Ltmp302:
	.loc	12 357 4                        # /usr/bin/../lib/gcc/x86_64-linux-gnu/11/../../../../include/c++/11/bits/basic_string.h:357:4
	jmp	.LBB4_35
.LBB4_33:
	.loc	12 0 4                          # /usr/bin/../lib/gcc/x86_64-linux-gnu/11/../../../../include/c++/11/bits/basic_string.h:0:4
	movq	24(%rsp), %rdx                  # 8-byte Reload
	movq	16(%rsp), %rsi                  # 8-byte Reload
	movq	8(%rsp), %rdi                   # 8-byte Reload
.Ltmp303:
	.loc	5 437 33 is_stmt 1              # /usr/bin/../lib/gcc/x86_64-linux-gnu/11/../../../../include/c++/11/bits/char_traits.h:437:33
	callq	memcpy@PLT
.Ltmp304:
	.loc	5 437 2 is_stmt 0               # /usr/bin/../lib/gcc/x86_64-linux-gnu/11/../../../../include/c++/11/bits/char_traits.h:437:2
	jmp	.LBB4_35
.Ltmp305:
.LBB4_34:
	.loc	5 0 2                           # /usr/bin/../lib/gcc/x86_64-linux-gnu/11/../../../../include/c++/11/bits/char_traits.h:0:2
	movq	160(%rsp), %r8                  # 8-byte Reload
	movq	152(%rsp), %rcx                 # 8-byte Reload
	movq	144(%rsp), %rdx                 # 8-byte Reload
	movq	136(%rsp), %rsi                 # 8-byte Reload
	movq	128(%rsp), %rdi                 # 8-byte Reload
	.loc	77 498 8 is_stmt 1              # /usr/bin/../lib/gcc/x86_64-linux-gnu/11/../../../../include/c++/11/bits/basic_string.tcc:498:8
	callq	_ZNSt7__cxx1112basic_stringIcSt11char_traitsIcESaIcEE9_M_mutateEmmPKcm
.Ltmp306:
.LBB4_35:
	.loc	77 0 8 is_stmt 0                # /usr/bin/../lib/gcc/x86_64-linux-gnu/11/../../../../include/c++/11/bits/basic_string.tcc:0:8
	movq	128(%rsp), %rax                 # 8-byte Reload
	movq	112(%rsp), %rdx                 # 8-byte Reload
	movq	168(%rsp), %rcx                 # 8-byte Reload
.Ltmp307:
	.loc	12 191 26 is_stmt 1             # /usr/bin/../lib/gcc/x86_64-linux-gnu/11/../../../../include/c++/11/bits/basic_string.h:191:26
	movq	%rdx, (%rcx)
.Ltmp308:
	.loc	12 195 28                       # /usr/bin/../lib/gcc/x86_64-linux-gnu/11/../../../../include/c++/11/bits/basic_string.h:195:28
	movq	(%rax), %rcx
.Ltmp309:
	.loc	5 357 14                        # /usr/bin/../lib/gcc/x86_64-linux-gnu/11/../../../../include/c++/11/bits/char_traits.h:357:14
	movb	$0, (%rcx,%rdx)
.Ltmp310:
	.loc	77 501 7 epilogue_begin         # /usr/bin/../lib/gcc/x86_64-linux-gnu/11/../../../../include/c++/11/bits/basic_string.tcc:501:7
	addq	$184, %rsp
	.cfi_def_cfa_offset 8
	retq
.Ltmp311:
.Lfunc_end4:
	.size	_ZNSt7__cxx1112basic_stringIcSt11char_traitsIcESaIcEE10_M_replaceEmmPKcm, .Lfunc_end4-_ZNSt7__cxx1112basic_stringIcSt11char_traitsIcESaIcEE10_M_replaceEmmPKcm
	.cfi_endproc
                                        # -- End function
	.section	.text._ZNSt7__cxx1112basic_stringIcSt11char_traitsIcESaIcEE9_M_mutateEmmPKcm,"axG",@progbits,_ZNSt7__cxx1112basic_stringIcSt11char_traitsIcESaIcEE9_M_mutateEmmPKcm,comdat
	.weak	_ZNSt7__cxx1112basic_stringIcSt11char_traitsIcESaIcEE9_M_mutateEmmPKcm # -- Begin function _ZNSt7__cxx1112basic_stringIcSt11char_traitsIcESaIcEE9_M_mutateEmmPKcm
	.p2align	4, 0x90
	.type	_ZNSt7__cxx1112basic_stringIcSt11char_traitsIcESaIcEE9_M_mutateEmmPKcm,@function
_ZNSt7__cxx1112basic_stringIcSt11char_traitsIcESaIcEE9_M_mutateEmmPKcm: # @_ZNSt7__cxx1112basic_stringIcSt11char_traitsIcESaIcEE9_M_mutateEmmPKcm
.Lfunc_begin5:
	.loc	77 303 0                        # /usr/bin/../lib/gcc/x86_64-linux-gnu/11/../../../../include/c++/11/bits/basic_string.tcc:303:0
	.cfi_startproc
# %bb.0:
	subq	$184, %rsp
	.cfi_def_cfa_offset 192
	movq	%r8, %rax
	movq	%rdi, 104(%rsp)                 # 8-byte Spill
	movq	%rsi, 112(%rsp)                 # 8-byte Spill
	movq	%rdx, 120(%rsp)                 # 8-byte Spill
	movq	%rcx, 128(%rsp)                 # 8-byte Spill
	movq	%rax, 136(%rsp)                 # 8-byte Spill
.Ltmp312:
	.loc	12 927 16 prologue_end          # /usr/bin/../lib/gcc/x86_64-linux-gnu/11/../../../../include/c++/11/bits/basic_string.h:927:16
	movq	8(%rdi), %rcx
.Ltmp313:
	.loc	77 304 53                       # /usr/bin/../lib/gcc/x86_64-linux-gnu/11/../../../../include/c++/11/bits/basic_string.tcc:304:53
	movq	%rdx, %r8
	addq	%rsi, %r8
	movq	%rcx, %rsi
	subq	%r8, %rsi
	movq	%rsi, 144(%rsp)                 # 8-byte Spill
	.loc	77 306 43                       # /usr/bin/../lib/gcc/x86_64-linux-gnu/11/../../../../include/c++/11/bits/basic_string.tcc:306:43
	subq	%rdx, %rax
	.loc	77 306 52 is_stmt 0             # /usr/bin/../lib/gcc/x86_64-linux-gnu/11/../../../../include/c++/11/bits/basic_string.tcc:306:52
	addq	%rcx, %rax
	movq	%rax, 152(%rsp)                 # 8-byte Spill
.Ltmp314:
	.loc	12 195 28 is_stmt 1             # /usr/bin/../lib/gcc/x86_64-linux-gnu/11/../../../../include/c++/11/bits/basic_string.h:195:28
	movq	(%rdi), %rdx
.Ltmp315:
	.loc	12 211 57                       # /usr/bin/../lib/gcc/x86_64-linux-gnu/11/../../../../include/c++/11/bits/basic_string.h:211:57
	movq	%rdi, %rsi
	addq	$16, %rsi
	movq	%rsi, 160(%rsp)                 # 8-byte Spill
.Ltmp316:
	.loc	12 978 9                        # /usr/bin/../lib/gcc/x86_64-linux-gnu/11/../../../../include/c++/11/bits/basic_string.h:978:9
	movq	%rdi, %rcx
	addq	$16, %rcx
	movq	%rcx, 168(%rsp)                 # 8-byte Spill
	movl	$15, %ecx
.Ltmp317:
	.loc	12 230 26                       # /usr/bin/../lib/gcc/x86_64-linux-gnu/11/../../../../include/c++/11/bits/basic_string.h:230:26
	cmpq	%rsi, %rdx
.Ltmp318:
	.loc	12 978 9                        # /usr/bin/../lib/gcc/x86_64-linux-gnu/11/../../../../include/c++/11/bits/basic_string.h:978:9
	cmovneq	16(%rdi), %rcx
	movq	%rcx, 176(%rsp)                 # 8-byte Spill
.Ltmp319:
	.loc	77 137 22                       # /usr/bin/../lib/gcc/x86_64-linux-gnu/11/../../../../include/c++/11/bits/basic_string.tcc:137:22
	cmpq	$0, %rax
.Ltmp320:
	.loc	77 137 11 is_stmt 0             # /usr/bin/../lib/gcc/x86_64-linux-gnu/11/../../../../include/c++/11/bits/basic_string.tcc:137:11
	jge	.LBB5_2
# %bb.1:
.Ltmp321:
	.loc	77 138 2 is_stmt 1              # /usr/bin/../lib/gcc/x86_64-linux-gnu/11/../../../../include/c++/11/bits/basic_string.tcc:138:2
	leaq	.L.str.3(%rip), %rdi
	callq	_ZSt20__throw_length_errorPKc@PLT
.Ltmp322:
.LBB5_2:
	.loc	77 0 2 is_stmt 0                # /usr/bin/../lib/gcc/x86_64-linux-gnu/11/../../../../include/c++/11/bits/basic_string.tcc:0:2
	movq	152(%rsp), %rax                 # 8-byte Reload
	movq	176(%rsp), %rcx                 # 8-byte Reload
.Ltmp323:
	.loc	77 143 22 is_stmt 1             # /usr/bin/../lib/gcc/x86_64-linux-gnu/11/../../../../include/c++/11/bits/basic_string.tcc:143:22
	cmpq	%rcx, %rax
	movq	%rax, 96(%rsp)                  # 8-byte Spill
	.loc	77 143 39 is_stmt 0             # /usr/bin/../lib/gcc/x86_64-linux-gnu/11/../../../../include/c++/11/bits/basic_string.tcc:143:39
	jbe	.LBB5_5
# %bb.3:
	.loc	77 0 39                         # /usr/bin/../lib/gcc/x86_64-linux-gnu/11/../../../../include/c++/11/bits/basic_string.tcc:0:39
	movq	152(%rsp), %rax                 # 8-byte Reload
	movq	176(%rsp), %rcx                 # 8-byte Reload
	.loc	77 143 57                       # /usr/bin/../lib/gcc/x86_64-linux-gnu/11/../../../../include/c++/11/bits/basic_string.tcc:143:57
	shlq	$1, %rcx
	movq	%rcx, 88(%rsp)                  # 8-byte Spill
	.loc	77 143 53                       # /usr/bin/../lib/gcc/x86_64-linux-gnu/11/../../../../include/c++/11/bits/basic_string.tcc:143:53
	cmpq	%rcx, %rax
	movq	%rax, 96(%rsp)                  # 8-byte Spill
.Ltmp324:
	.loc	77 143 11                       # /usr/bin/../lib/gcc/x86_64-linux-gnu/11/../../../../include/c++/11/bits/basic_string.tcc:143:11
	jae	.LBB5_5
# %bb.4:
	.loc	77 0 11                         # /usr/bin/../lib/gcc/x86_64-linux-gnu/11/../../../../include/c++/11/bits/basic_string.tcc:0:11
	movq	88(%rsp), %rcx                  # 8-byte Reload
.Ltmp325:
	.loc	77 147 8 is_stmt 1              # /usr/bin/../lib/gcc/x86_64-linux-gnu/11/../../../../include/c++/11/bits/basic_string.tcc:147:8
	movabsq	$9223372036854775807, %rax      # imm = 0x7FFFFFFFFFFFFFFF
	cmpq	%rax, %rcx
	cmovbq	%rcx, %rax
	movq	%rax, 96(%rsp)                  # 8-byte Spill
.Ltmp326:
.LBB5_5:
	.loc	77 0 8 is_stmt 0                # /usr/bin/../lib/gcc/x86_64-linux-gnu/11/../../../../include/c++/11/bits/basic_string.tcc:0:8
	movq	96(%rsp), %rax                  # 8-byte Reload
	movq	%rax, 72(%rsp)                  # 8-byte Spill
	.loc	77 153 69 is_stmt 1             # /usr/bin/../lib/gcc/x86_64-linux-gnu/11/../../../../include/c++/11/bits/basic_string.tcc:153:69
	addq	$1, %rax
	movq	%rax, 80(%rsp)                  # 8-byte Spill
.Ltmp327:
	.loc	7 111 27                        # /usr/bin/../lib/gcc/x86_64-linux-gnu/11/../../../../include/c++/11/ext/new_allocator.h:111:27
	cmpq	$0, %rax
.Ltmp328:
	.loc	7 111 6 is_stmt 0               # /usr/bin/../lib/gcc/x86_64-linux-gnu/11/../../../../include/c++/11/ext/new_allocator.h:111:6
	jge	.LBB5_7
# %bb.6:
.Ltmp329:
	.loc	7 117 6 is_stmt 1               # /usr/bin/../lib/gcc/x86_64-linux-gnu/11/../../../../include/c++/11/ext/new_allocator.h:117:6
	callq	_ZSt17__throw_bad_allocv@PLT
.Ltmp330:
.LBB5_7:
	.loc	7 0 6 is_stmt 0                 # /usr/bin/../lib/gcc/x86_64-linux-gnu/11/../../../../include/c++/11/ext/new_allocator.h:0:6
	movq	80(%rsp), %rdi                  # 8-byte Reload
	.loc	7 127 27 is_stmt 1              # /usr/bin/../lib/gcc/x86_64-linux-gnu/11/../../../../include/c++/11/ext/new_allocator.h:127:27
	callq	_Znwm@PLT
.Ltmp331:
	movq	%rax, %rcx
	movq	112(%rsp), %rax                 # 8-byte Reload
	movq	%rcx, 64(%rsp)                  # 8-byte Spill
.Ltmp332:
	.loc	77 309 11                       # /usr/bin/../lib/gcc/x86_64-linux-gnu/11/../../../../include/c++/11/bits/basic_string.tcc:309:11
	cmpq	$0, %rax
.Ltmp333:
	.loc	77 309 11 is_stmt 0             # /usr/bin/../lib/gcc/x86_64-linux-gnu/11/../../../../include/c++/11/bits/basic_string.tcc:309:11
	je	.LBB5_11
# %bb.8:
	.loc	77 0 11                         # /usr/bin/../lib/gcc/x86_64-linux-gnu/11/../../../../include/c++/11/bits/basic_string.tcc:0:11
	movq	112(%rsp), %rax                 # 8-byte Reload
	movq	104(%rsp), %rcx                 # 8-byte Reload
.Ltmp334:
	.loc	12 195 28 is_stmt 1             # /usr/bin/../lib/gcc/x86_64-linux-gnu/11/../../../../include/c++/11/bits/basic_string.h:195:28
	movq	(%rcx), %rcx
	movq	%rcx, 56(%rsp)                  # 8-byte Spill
.Ltmp335:
	.loc	12 356 6                        # /usr/bin/../lib/gcc/x86_64-linux-gnu/11/../../../../include/c++/11/bits/basic_string.h:356:6
	cmpq	$1, %rax
	jne	.LBB5_10
# %bb.9:
	.loc	12 0 6 is_stmt 0                # /usr/bin/../lib/gcc/x86_64-linux-gnu/11/../../../../include/c++/11/bits/basic_string.h:0:6
	movq	64(%rsp), %rax                  # 8-byte Reload
	movq	56(%rsp), %rcx                  # 8-byte Reload
.Ltmp336:
	.loc	5 357 16 is_stmt 1              # /usr/bin/../lib/gcc/x86_64-linux-gnu/11/../../../../include/c++/11/bits/char_traits.h:357:16
	movb	(%rcx), %cl
	.loc	5 357 14 is_stmt 0              # /usr/bin/../lib/gcc/x86_64-linux-gnu/11/../../../../include/c++/11/bits/char_traits.h:357:14
	movb	%cl, (%rax)
.Ltmp337:
	.loc	12 357 4                        # /usr/bin/../lib/gcc/x86_64-linux-gnu/11/../../../../include/c++/11/bits/basic_string.h:357:4
	jmp	.LBB5_11
.LBB5_10:
	.loc	12 0 4                          # /usr/bin/../lib/gcc/x86_64-linux-gnu/11/../../../../include/c++/11/bits/basic_string.h:0:4
	movq	112(%rsp), %rdx                 # 8-byte Reload
	movq	56(%rsp), %rsi                  # 8-byte Reload
	movq	64(%rsp), %rdi                  # 8-byte Reload
.Ltmp338:
	.loc	5 437 33 is_stmt 1              # /usr/bin/../lib/gcc/x86_64-linux-gnu/11/../../../../include/c++/11/bits/char_traits.h:437:33
	callq	memcpy@PLT
.Ltmp339:
.LBB5_11:
	.loc	5 0 33 is_stmt 0                # /usr/bin/../lib/gcc/x86_64-linux-gnu/11/../../../../include/c++/11/bits/char_traits.h:0:33
	movq	136(%rsp), %rcx                 # 8-byte Reload
	movq	128(%rsp), %rax                 # 8-byte Reload
.Ltmp340:
	.loc	77 311 11 is_stmt 1             # /usr/bin/../lib/gcc/x86_64-linux-gnu/11/../../../../include/c++/11/bits/basic_string.tcc:311:11
	cmpq	$0, %rax
	setne	%al
	cmpq	$0, %rcx
	setne	%cl
	.loc	77 311 15 is_stmt 0             # /usr/bin/../lib/gcc/x86_64-linux-gnu/11/../../../../include/c++/11/bits/basic_string.tcc:311:15
	andb	%cl, %al
	testb	$1, %al
	jne	.LBB5_12
	jmp	.LBB5_15
.LBB5_12:
	.loc	77 0 15                         # /usr/bin/../lib/gcc/x86_64-linux-gnu/11/../../../../include/c++/11/bits/basic_string.tcc:0:15
	movq	136(%rsp), %rax                 # 8-byte Reload
	movq	112(%rsp), %rdx                 # 8-byte Reload
	movq	64(%rsp), %rcx                  # 8-byte Reload
	.loc	77 312 20 is_stmt 1             # /usr/bin/../lib/gcc/x86_64-linux-gnu/11/../../../../include/c++/11/bits/basic_string.tcc:312:20
	addq	%rdx, %rcx
	movq	%rcx, 48(%rsp)                  # 8-byte Spill
.Ltmp341:
	.loc	12 356 6                        # /usr/bin/../lib/gcc/x86_64-linux-gnu/11/../../../../include/c++/11/bits/basic_string.h:356:6
	cmpq	$1, %rax
	jne	.LBB5_14
# %bb.13:
	.loc	12 0 6 is_stmt 0                # /usr/bin/../lib/gcc/x86_64-linux-gnu/11/../../../../include/c++/11/bits/basic_string.h:0:6
	movq	48(%rsp), %rax                  # 8-byte Reload
	movq	128(%rsp), %rcx                 # 8-byte Reload
.Ltmp342:
	.loc	5 357 16 is_stmt 1              # /usr/bin/../lib/gcc/x86_64-linux-gnu/11/../../../../include/c++/11/bits/char_traits.h:357:16
	movb	(%rcx), %cl
	.loc	5 357 14 is_stmt 0              # /usr/bin/../lib/gcc/x86_64-linux-gnu/11/../../../../include/c++/11/bits/char_traits.h:357:14
	movb	%cl, (%rax)
.Ltmp343:
	.loc	12 357 4                        # /usr/bin/../lib/gcc/x86_64-linux-gnu/11/../../../../include/c++/11/bits/basic_string.h:357:4
	jmp	.LBB5_15
.LBB5_14:
	.loc	12 0 4                          # /usr/bin/../lib/gcc/x86_64-linux-gnu/11/../../../../include/c++/11/bits/basic_string.h:0:4
	movq	136(%rsp), %rdx                 # 8-byte Reload
	movq	128(%rsp), %rsi                 # 8-byte Reload
	movq	48(%rsp), %rdi                  # 8-byte Reload
.Ltmp344:
	.loc	5 437 33 is_stmt 1              # /usr/bin/../lib/gcc/x86_64-linux-gnu/11/../../../../include/c++/11/bits/char_traits.h:437:33
	callq	memcpy@PLT
.Ltmp345:
.LBB5_15:
	.loc	5 0 33 is_stmt 0                # /usr/bin/../lib/gcc/x86_64-linux-gnu/11/../../../../include/c++/11/bits/char_traits.h:0:33
	movq	144(%rsp), %rax                 # 8-byte Reload
.Ltmp346:
	.loc	77 313 11 is_stmt 1             # /usr/bin/../lib/gcc/x86_64-linux-gnu/11/../../../../include/c++/11/bits/basic_string.tcc:313:11
	cmpq	$0, %rax
.Ltmp347:
	.loc	77 313 11 is_stmt 0             # /usr/bin/../lib/gcc/x86_64-linux-gnu/11/../../../../include/c++/11/bits/basic_string.tcc:313:11
	jne	.LBB5_17
# %bb.16:
	.loc	77 0 11                         # /usr/bin/../lib/gcc/x86_64-linux-gnu/11/../../../../include/c++/11/bits/basic_string.tcc:0:11
	movq	104(%rsp), %rax                 # 8-byte Reload
.Ltmp348:
	.loc	12 195 28 is_stmt 1             # /usr/bin/../lib/gcc/x86_64-linux-gnu/11/../../../../include/c++/11/bits/basic_string.h:195:28
	movq	(%rax), %rax
	movq	%rax, 40(%rsp)                  # 8-byte Spill
.Ltmp349:
	.loc	77 313 11                       # /usr/bin/../lib/gcc/x86_64-linux-gnu/11/../../../../include/c++/11/bits/basic_string.tcc:313:11
	jmp	.LBB5_20
.LBB5_17:
	.loc	77 0 11 is_stmt 0               # /usr/bin/../lib/gcc/x86_64-linux-gnu/11/../../../../include/c++/11/bits/basic_string.tcc:0:11
	movq	144(%rsp), %rax                 # 8-byte Reload
	movq	120(%rsp), %rdx                 # 8-byte Reload
	movq	112(%rsp), %rsi                 # 8-byte Reload
	movq	104(%rsp), %rcx                 # 8-byte Reload
	movq	136(%rsp), %r8                  # 8-byte Reload
	movq	64(%rsp), %rdi                  # 8-byte Reload
.Ltmp350:
	.loc	77 314 20 is_stmt 1             # /usr/bin/../lib/gcc/x86_64-linux-gnu/11/../../../../include/c++/11/bits/basic_string.tcc:314:20
	addq	%rsi, %rdi
	.loc	77 314 28 is_stmt 0             # /usr/bin/../lib/gcc/x86_64-linux-gnu/11/../../../../include/c++/11/bits/basic_string.tcc:314:28
	addq	%r8, %rdi
	movq	%rdi, 16(%rsp)                  # 8-byte Spill
.Ltmp351:
	.loc	12 195 28 is_stmt 1             # /usr/bin/../lib/gcc/x86_64-linux-gnu/11/../../../../include/c++/11/bits/basic_string.h:195:28
	movq	(%rcx), %rcx
	movq	%rcx, 24(%rsp)                  # 8-byte Spill
.Ltmp352:
	.loc	77 315 19                       # /usr/bin/../lib/gcc/x86_64-linux-gnu/11/../../../../include/c++/11/bits/basic_string.tcc:315:19
	addq	%rsi, %rcx
	.loc	77 315 27 is_stmt 0             # /usr/bin/../lib/gcc/x86_64-linux-gnu/11/../../../../include/c++/11/bits/basic_string.tcc:315:27
	addq	%rdx, %rcx
	movq	%rcx, 32(%rsp)                  # 8-byte Spill
.Ltmp353:
	.loc	12 356 6 is_stmt 1              # /usr/bin/../lib/gcc/x86_64-linux-gnu/11/../../../../include/c++/11/bits/basic_string.h:356:6
	cmpq	$1, %rax
	jne	.LBB5_19
# %bb.18:
	.loc	12 0 6 is_stmt 0                # /usr/bin/../lib/gcc/x86_64-linux-gnu/11/../../../../include/c++/11/bits/basic_string.h:0:6
	movq	24(%rsp), %rax                  # 8-byte Reload
	movq	16(%rsp), %rcx                  # 8-byte Reload
	movq	32(%rsp), %rdx                  # 8-byte Reload
.Ltmp354:
	.loc	5 357 16 is_stmt 1              # /usr/bin/../lib/gcc/x86_64-linux-gnu/11/../../../../include/c++/11/bits/char_traits.h:357:16
	movb	(%rdx), %dl
	.loc	5 357 14 is_stmt 0              # /usr/bin/../lib/gcc/x86_64-linux-gnu/11/../../../../include/c++/11/bits/char_traits.h:357:14
	movb	%dl, (%rcx)
	movq	%rax, 40(%rsp)                  # 8-byte Spill
.Ltmp355:
	.loc	12 357 4                        # /usr/bin/../lib/gcc/x86_64-linux-gnu/11/../../../../include/c++/11/bits/basic_string.h:357:4
	jmp	.LBB5_20
.LBB5_19:
	.loc	12 0 4                          # /usr/bin/../lib/gcc/x86_64-linux-gnu/11/../../../../include/c++/11/bits/basic_string.h:0:4
	movq	144(%rsp), %rdx                 # 8-byte Reload
	movq	32(%rsp), %rsi                  # 8-byte Reload
	movq	16(%rsp), %rdi                  # 8-byte Reload
.Ltmp356:
	.loc	5 437 33 is_stmt 1              # /usr/bin/../lib/gcc/x86_64-linux-gnu/11/../../../../include/c++/11/bits/char_traits.h:437:33
	callq	memcpy@PLT
.Ltmp357:
	.loc	5 0 33 is_stmt 0                # /usr/bin/../lib/gcc/x86_64-linux-gnu/11/../../../../include/c++/11/bits/char_traits.h:0:33
	movq	24(%rsp), %rax                  # 8-byte Reload
	movq	%rax, 40(%rsp)                  # 8-byte Spill
.Ltmp358:
.LBB5_20:
	movq	160(%rsp), %rcx                 # 8-byte Reload
	movq	40(%rsp), %rax                  # 8-byte Reload
	movq	%rax, 8(%rsp)                   # 8-byte Spill
.Ltmp359:
	.loc	12 230 26 is_stmt 1             # /usr/bin/../lib/gcc/x86_64-linux-gnu/11/../../../../include/c++/11/bits/basic_string.h:230:26
	cmpq	%rcx, %rax
.Ltmp360:
	.loc	12 239 6                        # /usr/bin/../lib/gcc/x86_64-linux-gnu/11/../../../../include/c++/11/bits/basic_string.h:239:6
	je	.LBB5_22
# %bb.21:
	.loc	12 0 6 is_stmt 0                # /usr/bin/../lib/gcc/x86_64-linux-gnu/11/../../../../include/c++/11/bits/basic_string.h:0:6
	movq	8(%rsp), %rdi                   # 8-byte Reload
.Ltmp361:
	.loc	7 145 2 is_stmt 1               # /usr/bin/../lib/gcc/x86_64-linux-gnu/11/../../../../include/c++/11/ext/new_allocator.h:145:2
	callq	_ZdlPv@PLT
.Ltmp362:
.LBB5_22:
	.loc	7 0 2 is_stmt 0                 # /usr/bin/../lib/gcc/x86_64-linux-gnu/11/../../../../include/c++/11/ext/new_allocator.h:0:2
	movq	168(%rsp), %rax                 # 8-byte Reload
	movq	72(%rsp), %rcx                  # 8-byte Reload
	movq	104(%rsp), %rdx                 # 8-byte Reload
	movq	64(%rsp), %rsi                  # 8-byte Reload
.Ltmp363:
	.loc	12 187 26 is_stmt 1             # /usr/bin/../lib/gcc/x86_64-linux-gnu/11/../../../../include/c++/11/bits/basic_string.h:187:26
	movq	%rsi, (%rdx)
.Ltmp364:
	.loc	12 219 31                       # /usr/bin/../lib/gcc/x86_64-linux-gnu/11/../../../../include/c++/11/bits/basic_string.h:219:31
	movq	%rcx, (%rax)
.Ltmp365:
	.loc	77 320 5 epilogue_begin         # /usr/bin/../lib/gcc/x86_64-linux-gnu/11/../../../../include/c++/11/bits/basic_string.tcc:320:5
	addq	$184, %rsp
	.cfi_def_cfa_offset 8
	retq
.Ltmp366:
.Lfunc_end5:
	.size	_ZNSt7__cxx1112basic_stringIcSt11char_traitsIcESaIcEE9_M_mutateEmmPKcm, .Lfunc_end5-_ZNSt7__cxx1112basic_stringIcSt11char_traitsIcESaIcEE9_M_mutateEmmPKcm
	.cfi_endproc
                                        # -- End function
	.section	.text._ZNSt7__cxx1112basic_stringIcSt11char_traitsIcESaIcEE9_M_assignERKS4_,"axG",@progbits,_ZNSt7__cxx1112basic_stringIcSt11char_traitsIcESaIcEE9_M_assignERKS4_,comdat
	.weak	_ZNSt7__cxx1112basic_stringIcSt11char_traitsIcESaIcEE9_M_assignERKS4_ # -- Begin function _ZNSt7__cxx1112basic_stringIcSt11char_traitsIcESaIcEE9_M_assignERKS4_
	.p2align	4, 0x90
	.type	_ZNSt7__cxx1112basic_stringIcSt11char_traitsIcESaIcEE9_M_assignERKS4_,@function
_ZNSt7__cxx1112basic_stringIcSt11char_traitsIcESaIcEE9_M_assignERKS4_: # @_ZNSt7__cxx1112basic_stringIcSt11char_traitsIcESaIcEE9_M_assignERKS4_
.Lfunc_begin6:
	.loc	77 256 0                        # /usr/bin/../lib/gcc/x86_64-linux-gnu/11/../../../../include/c++/11/bits/basic_string.tcc:256:0
	.cfi_startproc
# %bb.0:
	subq	$120, %rsp
	.cfi_def_cfa_offset 128
	movq	%rdi, 104(%rsp)                 # 8-byte Spill
	movq	%rsi, 112(%rsp)                 # 8-byte Spill
.Ltmp367:
	.loc	77 257 16 prologue_end          # /usr/bin/../lib/gcc/x86_64-linux-gnu/11/../../../../include/c++/11/bits/basic_string.tcc:257:16
	cmpq	%rsi, %rdi
.Ltmp368:
	.loc	77 257 11 is_stmt 0             # /usr/bin/../lib/gcc/x86_64-linux-gnu/11/../../../../include/c++/11/bits/basic_string.tcc:257:11
	je	.LBB6_16
# %bb.1:
	.loc	77 0 11                         # /usr/bin/../lib/gcc/x86_64-linux-gnu/11/../../../../include/c++/11/bits/basic_string.tcc:0:11
	movq	104(%rsp), %rdx                 # 8-byte Reload
	movq	112(%rsp), %rax                 # 8-byte Reload
.Ltmp369:
	.loc	12 927 16 is_stmt 1             # /usr/bin/../lib/gcc/x86_64-linux-gnu/11/../../../../include/c++/11/bits/basic_string.h:927:16
	movq	8(%rax), %rax
	movq	%rax, 64(%rsp)                  # 8-byte Spill
.Ltmp370:
	.loc	12 195 28                       # /usr/bin/../lib/gcc/x86_64-linux-gnu/11/../../../../include/c++/11/bits/basic_string.h:195:28
	movq	(%rdx), %rsi
	movq	%rsi, 72(%rsp)                  # 8-byte Spill
.Ltmp371:
	.loc	12 211 57                       # /usr/bin/../lib/gcc/x86_64-linux-gnu/11/../../../../include/c++/11/bits/basic_string.h:211:57
	movq	%rdx, %rdi
	addq	$16, %rdi
	movq	%rdi, 80(%rsp)                  # 8-byte Spill
.Ltmp372:
	.loc	12 978 9                        # /usr/bin/../lib/gcc/x86_64-linux-gnu/11/../../../../include/c++/11/bits/basic_string.h:978:9
	movq	%rdx, %rcx
	addq	$16, %rcx
	movq	%rcx, 88(%rsp)                  # 8-byte Spill
	movl	$15, %ecx
.Ltmp373:
	.loc	12 230 26                       # /usr/bin/../lib/gcc/x86_64-linux-gnu/11/../../../../include/c++/11/bits/basic_string.h:230:26
	cmpq	%rdi, %rsi
.Ltmp374:
	.loc	12 978 9                        # /usr/bin/../lib/gcc/x86_64-linux-gnu/11/../../../../include/c++/11/bits/basic_string.h:978:9
	cmovneq	16(%rdx), %rcx
	movq	%rcx, 96(%rsp)                  # 8-byte Spill
.Ltmp375:
	.loc	77 262 16                       # /usr/bin/../lib/gcc/x86_64-linux-gnu/11/../../../../include/c++/11/bits/basic_string.tcc:262:16
	cmpq	%rcx, %rax
.Ltmp376:
	.loc	77 262 8 is_stmt 0              # /usr/bin/../lib/gcc/x86_64-linux-gnu/11/../../../../include/c++/11/bits/basic_string.tcc:262:8
	jbe	.LBB6_9
# %bb.2:
	.loc	77 0 8                          # /usr/bin/../lib/gcc/x86_64-linux-gnu/11/../../../../include/c++/11/bits/basic_string.tcc:0:8
	movq	64(%rsp), %rax                  # 8-byte Reload
.Ltmp377:
	.loc	77 137 22 is_stmt 1             # /usr/bin/../lib/gcc/x86_64-linux-gnu/11/../../../../include/c++/11/bits/basic_string.tcc:137:22
	cmpq	$0, %rax
.Ltmp378:
	.loc	77 137 11 is_stmt 0             # /usr/bin/../lib/gcc/x86_64-linux-gnu/11/../../../../include/c++/11/bits/basic_string.tcc:137:11
	jge	.LBB6_4
# %bb.3:
.Ltmp379:
	.loc	77 138 2 is_stmt 1              # /usr/bin/../lib/gcc/x86_64-linux-gnu/11/../../../../include/c++/11/bits/basic_string.tcc:138:2
	leaq	.L.str.3(%rip), %rdi
	callq	_ZSt20__throw_length_errorPKc@PLT
.Ltmp380:
.LBB6_4:
	.loc	77 0 2 is_stmt 0                # /usr/bin/../lib/gcc/x86_64-linux-gnu/11/../../../../include/c++/11/bits/basic_string.tcc:0:2
	movq	64(%rsp), %rax                  # 8-byte Reload
	movq	96(%rsp), %rdx                  # 8-byte Reload
.Ltmp381:
	.loc	77 143 57 is_stmt 1             # /usr/bin/../lib/gcc/x86_64-linux-gnu/11/../../../../include/c++/11/bits/basic_string.tcc:143:57
	shlq	$1, %rdx
.Ltmp382:
	.loc	77 143 11 is_stmt 0             # /usr/bin/../lib/gcc/x86_64-linux-gnu/11/../../../../include/c++/11/bits/basic_string.tcc:143:11
	movabsq	$9223372036854775807, %rcx      # imm = 0x7FFFFFFFFFFFFFFF
	cmpq	%rcx, %rdx
	cmovbq	%rdx, %rcx
.Ltmp383:
	.loc	77 143 53                       # /usr/bin/../lib/gcc/x86_64-linux-gnu/11/../../../../include/c++/11/bits/basic_string.tcc:143:53
	cmpq	%rdx, %rax
.Ltmp384:
	.loc	77 143 11                       # /usr/bin/../lib/gcc/x86_64-linux-gnu/11/../../../../include/c++/11/bits/basic_string.tcc:143:11
	cmovbq	%rcx, %rax
	movq	%rax, 48(%rsp)                  # 8-byte Spill
	.loc	77 153 69 is_stmt 1             # /usr/bin/../lib/gcc/x86_64-linux-gnu/11/../../../../include/c++/11/bits/basic_string.tcc:153:69
	addq	$1, %rax
	movq	%rax, 56(%rsp)                  # 8-byte Spill
.Ltmp385:
	.loc	7 111 27                        # /usr/bin/../lib/gcc/x86_64-linux-gnu/11/../../../../include/c++/11/ext/new_allocator.h:111:27
	cmpq	$0, %rax
.Ltmp386:
	.loc	7 111 6 is_stmt 0               # /usr/bin/../lib/gcc/x86_64-linux-gnu/11/../../../../include/c++/11/ext/new_allocator.h:111:6
	jge	.LBB6_6
# %bb.5:
.Ltmp387:
	.loc	7 117 6 is_stmt 1               # /usr/bin/../lib/gcc/x86_64-linux-gnu/11/../../../../include/c++/11/ext/new_allocator.h:117:6
	callq	_ZSt17__throw_bad_allocv@PLT
.Ltmp388:
.LBB6_6:
	.loc	7 0 6 is_stmt 0                 # /usr/bin/../lib/gcc/x86_64-linux-gnu/11/../../../../include/c++/11/ext/new_allocator.h:0:6
	movq	56(%rsp), %rdi                  # 8-byte Reload
	.loc	7 127 27 is_stmt 1              # /usr/bin/../lib/gcc/x86_64-linux-gnu/11/../../../../include/c++/11/ext/new_allocator.h:127:27
	callq	_Znwm@PLT
.Ltmp389:
	.loc	7 0 27 is_stmt 0                # /usr/bin/../lib/gcc/x86_64-linux-gnu/11/../../../../include/c++/11/ext/new_allocator.h:0:27
	movq	80(%rsp), %rcx                  # 8-byte Reload
	.loc	7 127 27                        # /usr/bin/../lib/gcc/x86_64-linux-gnu/11/../../../../include/c++/11/ext/new_allocator.h:127:27
	movq	%rax, %rdx
	movq	104(%rsp), %rax                 # 8-byte Reload
	movq	%rdx, 32(%rsp)                  # 8-byte Spill
.Ltmp390:
	.loc	12 195 28 is_stmt 1             # /usr/bin/../lib/gcc/x86_64-linux-gnu/11/../../../../include/c++/11/bits/basic_string.h:195:28
	movq	(%rax), %rax
	movq	%rax, 40(%rsp)                  # 8-byte Spill
.Ltmp391:
	.loc	12 230 26                       # /usr/bin/../lib/gcc/x86_64-linux-gnu/11/../../../../include/c++/11/bits/basic_string.h:230:26
	cmpq	%rcx, %rax
.Ltmp392:
	.loc	12 239 6                        # /usr/bin/../lib/gcc/x86_64-linux-gnu/11/../../../../include/c++/11/bits/basic_string.h:239:6
	je	.LBB6_8
# %bb.7:
	.loc	12 0 6 is_stmt 0                # /usr/bin/../lib/gcc/x86_64-linux-gnu/11/../../../../include/c++/11/bits/basic_string.h:0:6
	movq	40(%rsp), %rdi                  # 8-byte Reload
.Ltmp393:
	.loc	7 145 2 is_stmt 1               # /usr/bin/../lib/gcc/x86_64-linux-gnu/11/../../../../include/c++/11/ext/new_allocator.h:145:2
	callq	_ZdlPv@PLT
.Ltmp394:
.LBB6_8:
	.loc	7 0 2 is_stmt 0                 # /usr/bin/../lib/gcc/x86_64-linux-gnu/11/../../../../include/c++/11/ext/new_allocator.h:0:2
	movq	32(%rsp), %rax                  # 8-byte Reload
	movq	88(%rsp), %rcx                  # 8-byte Reload
	movq	48(%rsp), %rdx                  # 8-byte Reload
	movq	104(%rsp), %rsi                 # 8-byte Reload
.Ltmp395:
	.loc	12 187 26 is_stmt 1             # /usr/bin/../lib/gcc/x86_64-linux-gnu/11/../../../../include/c++/11/bits/basic_string.h:187:26
	movq	%rax, (%rsi)
.Ltmp396:
	.loc	12 219 31                       # /usr/bin/../lib/gcc/x86_64-linux-gnu/11/../../../../include/c++/11/bits/basic_string.h:219:31
	movq	%rdx, (%rcx)
	movq	%rax, 24(%rsp)                  # 8-byte Spill
.Ltmp397:
	.loc	77 271 8                        # /usr/bin/../lib/gcc/x86_64-linux-gnu/11/../../../../include/c++/11/bits/basic_string.tcc:271:8
	jmp	.LBB6_11
.LBB6_9:
	.loc	77 0 8 is_stmt 0                # /usr/bin/../lib/gcc/x86_64-linux-gnu/11/../../../../include/c++/11/bits/basic_string.tcc:0:8
	movq	72(%rsp), %rax                  # 8-byte Reload
	movq	64(%rsp), %rcx                  # 8-byte Reload
.Ltmp398:
	.loc	77 271 8                        # /usr/bin/../lib/gcc/x86_64-linux-gnu/11/../../../../include/c++/11/bits/basic_string.tcc:271:8
	cmpq	$0, %rcx
	movq	%rax, 24(%rsp)                  # 8-byte Spill
.Ltmp399:
	.loc	77 271 8                        # /usr/bin/../lib/gcc/x86_64-linux-gnu/11/../../../../include/c++/11/bits/basic_string.tcc:271:8
	jne	.LBB6_11
# %bb.10:
	.loc	77 0 8                          # /usr/bin/../lib/gcc/x86_64-linux-gnu/11/../../../../include/c++/11/bits/basic_string.tcc:0:8
	movq	72(%rsp), %rax                  # 8-byte Reload
	movq	104(%rsp), %rcx                 # 8-byte Reload
.Ltmp400:
	.loc	12 191 26 is_stmt 1             # /usr/bin/../lib/gcc/x86_64-linux-gnu/11/../../../../include/c++/11/bits/basic_string.h:191:26
	movq	$0, 8(%rcx)
	movq	%rax, 16(%rsp)                  # 8-byte Spill
.Ltmp401:
	.loc	77 271 8                        # /usr/bin/../lib/gcc/x86_64-linux-gnu/11/../../../../include/c++/11/bits/basic_string.tcc:271:8
	jmp	.LBB6_15
.LBB6_11:
	.loc	77 0 8 is_stmt 0                # /usr/bin/../lib/gcc/x86_64-linux-gnu/11/../../../../include/c++/11/bits/basic_string.tcc:0:8
	movq	64(%rsp), %rax                  # 8-byte Reload
	movq	112(%rsp), %rcx                 # 8-byte Reload
	movq	24(%rsp), %rdx                  # 8-byte Reload
	movq	%rdx, (%rsp)                    # 8-byte Spill
.Ltmp402:
	.loc	12 195 28 is_stmt 1             # /usr/bin/../lib/gcc/x86_64-linux-gnu/11/../../../../include/c++/11/bits/basic_string.h:195:28
	movq	(%rcx), %rcx
	movq	%rcx, 8(%rsp)                   # 8-byte Spill
.Ltmp403:
	.loc	12 356 6                        # /usr/bin/../lib/gcc/x86_64-linux-gnu/11/../../../../include/c++/11/bits/basic_string.h:356:6
	cmpq	$1, %rax
	jne	.LBB6_13
# %bb.12:
	.loc	12 0 6 is_stmt 0                # /usr/bin/../lib/gcc/x86_64-linux-gnu/11/../../../../include/c++/11/bits/basic_string.h:0:6
	movq	(%rsp), %rax                    # 8-byte Reload
	movq	8(%rsp), %rcx                   # 8-byte Reload
.Ltmp404:
	.loc	5 357 16 is_stmt 1              # /usr/bin/../lib/gcc/x86_64-linux-gnu/11/../../../../include/c++/11/bits/char_traits.h:357:16
	movb	(%rcx), %cl
	.loc	5 357 14 is_stmt 0              # /usr/bin/../lib/gcc/x86_64-linux-gnu/11/../../../../include/c++/11/bits/char_traits.h:357:14
	movb	%cl, (%rax)
.Ltmp405:
	.loc	12 357 4                        # /usr/bin/../lib/gcc/x86_64-linux-gnu/11/../../../../include/c++/11/bits/basic_string.h:357:4
	jmp	.LBB6_14
.LBB6_13:
	.loc	12 0 4                          # /usr/bin/../lib/gcc/x86_64-linux-gnu/11/../../../../include/c++/11/bits/basic_string.h:0:4
	movq	64(%rsp), %rdx                  # 8-byte Reload
	movq	8(%rsp), %rsi                   # 8-byte Reload
	movq	(%rsp), %rdi                    # 8-byte Reload
.Ltmp406:
	.loc	5 437 33 is_stmt 1              # /usr/bin/../lib/gcc/x86_64-linux-gnu/11/../../../../include/c++/11/bits/char_traits.h:437:33
	callq	memcpy@PLT
.Ltmp407:
.LBB6_14:
	.loc	5 0 33 is_stmt 0                # /usr/bin/../lib/gcc/x86_64-linux-gnu/11/../../../../include/c++/11/bits/char_traits.h:0:33
	movq	104(%rsp), %rcx                 # 8-byte Reload
	movq	64(%rsp), %rax                  # 8-byte Reload
.Ltmp408:
	.loc	12 191 26 is_stmt 1             # /usr/bin/../lib/gcc/x86_64-linux-gnu/11/../../../../include/c++/11/bits/basic_string.h:191:26
	movq	%rax, 8(%rcx)
.Ltmp409:
	.loc	12 225 22                       # /usr/bin/../lib/gcc/x86_64-linux-gnu/11/../../../../include/c++/11/bits/basic_string.h:225:22
	addq	(%rcx), %rax
	movq	%rax, 16(%rsp)                  # 8-byte Spill
.Ltmp410:
.LBB6_15:
	.loc	12 0 22 is_stmt 0               # /usr/bin/../lib/gcc/x86_64-linux-gnu/11/../../../../include/c++/11/bits/basic_string.h:0:22
	movq	16(%rsp), %rax                  # 8-byte Reload
	movb	$0, (%rax)
.Ltmp411:
.LBB6_16:
	.loc	77 276 5 epilogue_begin is_stmt 1 # /usr/bin/../lib/gcc/x86_64-linux-gnu/11/../../../../include/c++/11/bits/basic_string.tcc:276:5
	addq	$120, %rsp
	.cfi_def_cfa_offset 8
	retq
.Ltmp412:
.Lfunc_end6:
	.size	_ZNSt7__cxx1112basic_stringIcSt11char_traitsIcESaIcEE9_M_assignERKS4_, .Lfunc_end6-_ZNSt7__cxx1112basic_stringIcSt11char_traitsIcESaIcEE9_M_assignERKS4_
	.cfi_endproc
                                        # -- End function
	.section	.text.startup,"ax",@progbits
	.p2align	4, 0x90                         # -- Begin function _GLOBAL__sub_I_diriter.cpp
	.type	_GLOBAL__sub_I_diriter.cpp,@function
_GLOBAL__sub_I_diriter.cpp:             # @_GLOBAL__sub_I_diriter.cpp
.Lfunc_begin7:
	.file	81 "cpp" "diriter.cpp"
	.loc	81 0 0                          # cpp/diriter.cpp:0:0
	.cfi_startproc
# %bb.0:
	pushq	%rax
	.cfi_def_cfa_offset 16
.Ltmp413:
	.loc	1 74 25 prologue_end            # /usr/bin/../lib/gcc/x86_64-linux-gnu/11/../../../../include/c++/11/iostream:74:25
	leaq	_ZStL8__ioinit(%rip), %rdi
	callq	_ZNSt8ios_base4InitC1Ev@PLT
.Ltmp414:
	.loc	81 0 0 is_stmt 0                # cpp/diriter.cpp:0:0
	movq	_ZNSt8ios_base4InitD1Ev@GOTPCREL(%rip), %rdi
	leaq	_ZStL8__ioinit(%rip), %rsi
	leaq	__dso_handle(%rip), %rdx
	popq	%rax
	.cfi_def_cfa_offset 8
.Ltmp415:
	jmp	__cxa_atexit@PLT                # TAILCALL
.Ltmp416:
.Lfunc_end7:
	.size	_GLOBAL__sub_I_diriter.cpp, .Lfunc_end7-_GLOBAL__sub_I_diriter.cpp
	.cfi_endproc
                                        # -- End function
	.text
	.globl	hack1                           # -- Begin function hack1
	.p2align	4, 0x90
	.type	hack1,@function
hack1:                                  # @hack1
.Lfunc_begin8:
	.cfi_startproc
# %bb.0:
	movq	%rdi, %rax
	addq	$88, %rax
	retq
.Lfunc_end8:
	.size	hack1, .Lfunc_end8-hack1
	.cfi_endproc
                                        # -- End function
	.globl	hack2                           # -- Begin function hack2
	.p2align	4, 0x90
	.type	hack2,@function
hack2:                                  # @hack2
.Lfunc_begin9:
	.cfi_startproc
# %bb.0:
	movq	%rdi, %rax
	addq	$96, %rax
	retq
.Lfunc_end9:
	.size	hack2, .Lfunc_end9-hack2
	.cfi_endproc
                                        # -- End function
	.type	_ZStL8__ioinit,@object          # @_ZStL8__ioinit
	.local	_ZStL8__ioinit
	.comm	_ZStL8__ioinit,1,1
	.hidden	__dso_handle
	.type	.L.str,@object                  # @.str
	.section	.rodata.str1.1,"aMS",@progbits,1
.L.str:
	.asciz	"/"
	.size	.L.str, 2

	.type	.L.str.1,@object                # @.str.1
.L.str.1:
	.asciz	": "
	.size	.L.str.1, 3

	.type	.L.str.3,@object                # @.str.3
.L.str.3:
	.asciz	"basic_string::_M_create"
	.size	.L.str.3, 24

	.type	.L.str.5,@object                # @.str.5
.L.str.5:
	.asciz	"basic_string::_M_replace"
	.size	.L.str.5, 25

	.section	.init_array,"aw",@init_array
	.p2align	3, 0x90
	.quad	_GLOBAL__sub_I_diriter.cpp
	.type	.L.str.dbg,@object              # @.str.dbg
	.section	.rodata.str1.1,"aMS",@progbits,1
.L.str.dbg:
	.asciz	"'%c' (%d) [%p]\\n"
	.size	.L.str.dbg, 17

	.type	.L.str.dbg2,@object             # @.str.dbg2
.L.str.dbg2:
	.asciz	"%%115 = %x, %%116 = %x, %%117 = %x, %%118 = %x, %%119 = %x, %%120 = %x\\n"
	.size	.L.str.dbg2, 73

	// .section	".linker-options","e",@llvm_linker_options