	.text
	.file	"simpleshell.cpp"
                                        # Start of file scope inline assembly
	.globl	_ZSt21ios_base_library_initv

                                        # End of file scope inline assembly
	.globl	_Z5splitSt17basic_string_viewIcSt11char_traitsIcEES2_b # -- Begin function _Z5splitSt17basic_string_viewIcSt11char_traitsIcEES2_b
	.p2align	4, 0x90
	.type	_Z5splitSt17basic_string_viewIcSt11char_traitsIcEES2_b,@function
_Z5splitSt17basic_string_viewIcSt11char_traitsIcEES2_b: # @_Z5splitSt17basic_string_viewIcSt11char_traitsIcEES2_b
.Lfunc_begin0:
	.cfi_startproc
	.cfi_personality 155, DW.ref.__gxx_personality_v0
	.cfi_lsda 27, .Lexception0
# %bb.0:
	pushq	%rbp
	.cfi_def_cfa_offset 16
	.cfi_offset %rbp, -16
	movq	%rsp, %rbp
	.cfi_def_cfa_register %rbp
	subq	$320, %rsp                      # imm = 0x140
	movq	%rdi, -264(%rbp)                # 8-byte Spill
	movb	%r9b, %al
	movq	%rdi, %r9
	movq	%r9, -256(%rbp)                 # 8-byte Spill
	movq	%fs:40, %r9
	movq	%r9, -8(%rbp)
	movq	%rdi, -184(%rbp)
	movq	%rsi, -48(%rbp)
	movq	%rdx, -40(%rbp)
	movq	%rcx, -64(%rbp)
	movq	%r8, -56(%rbp)
	andb	$1, %al
	movb	%al, -185(%rbp)
	leaq	-48(%rbp), %rdi
	callq	_ZNKSt17basic_string_viewIcSt11char_traitsIcEE5emptyEv
	testb	$1, %al
	jne	.LBB0_1
	jmp	.LBB0_2
.LBB0_1:
	movq	-264(%rbp), %rdi                # 8-byte Reload
	xorl	%esi, %esi
	movl	$24, %edx
	callq	memset@PLT
	movq	-264(%rbp), %rdi                # 8-byte Reload
	callq	_ZNSt6vectorISt17basic_string_viewIcSt11char_traitsIcEESaIS3_EEC2Ev
	jmp	.LBB0_20
.LBB0_2:
	movq	-64(%rbp), %rax
	movq	%rax, -80(%rbp)
	movq	-56(%rbp), %rax
	movq	%rax, -72(%rbp)
	movq	-80(%rbp), %rsi
	movq	-72(%rbp), %rdx
	leaq	-48(%rbp), %rdi
	xorl	%eax, %eax
	movl	%eax, %ecx
	callq	_ZNKSt17basic_string_viewIcSt11char_traitsIcEE4findES2_m
	movq	%rax, -200(%rbp)
	cmpq	$-1, -200(%rbp)
	jne	.LBB0_6
# %bb.3:
	movq	-264(%rbp), %rdi                # 8-byte Reload
	movups	-48(%rbp), %xmm0
	movaps	%xmm0, -32(%rbp)
	leaq	-32(%rbp), %rax
	movq	%rax, -216(%rbp)
	movq	$1, -208(%rbp)
	leaq	-88(%rbp), %rcx
	movq	%rcx, -176(%rbp)
	movq	-176(%rbp), %rax
	movq	%rax, -152(%rbp)
	movq	-216(%rbp), %rsi
	movq	-208(%rbp), %rdx
.Ltmp9:
	callq	_ZNSt6vectorISt17basic_string_viewIcSt11char_traitsIcEESaIS3_EEC2ESt16initializer_listIS3_ERKS4_
.Ltmp10:
	jmp	.LBB0_4
.LBB0_4:
	leaq	-88(%rbp), %rax
	movq	%rax, -168(%rbp)
	movq	-168(%rbp), %rdi
	callq	_ZNSt15__new_allocatorISt17basic_string_viewIcSt11char_traitsIcEEED2Ev
	jmp	.LBB0_20
.LBB0_5:
.Ltmp11:
	movq	%rax, %rcx
	movl	%edx, %eax
	movq	%rcx, -224(%rbp)
	movl	%eax, -228(%rbp)
	leaq	-88(%rbp), %rax
	movq	%rax, -160(%rbp)
	movq	-160(%rbp), %rdi
	callq	_ZNSt15__new_allocatorISt17basic_string_viewIcSt11char_traitsIcEEED2Ev
	jmp	.LBB0_22
.LBB0_6:
	movq	-264(%rbp), %rdi                # 8-byte Reload
	movb	$0, -229(%rbp)
	callq	_ZNSt6vectorISt17basic_string_viewIcSt11char_traitsIcEESaIS3_EEC2Ev
	leaq	-64(%rbp), %rdi
	callq	_ZNKSt17basic_string_viewIcSt11char_traitsIcEE4sizeEv
	movq	%rax, -240(%rbp)
	movq	$0, -248(%rbp)
	movq	-200(%rbp), %rdx
.Ltmp0:
	xorl	%eax, %eax
	movl	%eax, %esi
	leaq	-48(%rbp), %rdi
	callq	_ZNKSt17basic_string_viewIcSt11char_traitsIcEE6substrEmm
.Ltmp1:
	movq	%rdx, -280(%rbp)                # 8-byte Spill
	movq	%rax, -272(%rbp)                # 8-byte Spill
	jmp	.LBB0_7
.LBB0_7:
	movq	-264(%rbp), %rdi                # 8-byte Reload
	movq	-280(%rbp), %rax                # 8-byte Reload
	movq	-272(%rbp), %rcx                # 8-byte Reload
	movq	%rcx, -104(%rbp)
	movq	%rax, -96(%rbp)
.Ltmp2:
	leaq	-104(%rbp), %rsi
	callq	_ZNSt6vectorISt17basic_string_viewIcSt11char_traitsIcEESaIS3_EE9push_backEOS3_
.Ltmp3:
	jmp	.LBB0_8
.LBB0_8:
	jmp	.LBB0_9
.LBB0_9:                                # =>This Inner Loop Header: Depth=1
	cmpq	$-1, -200(%rbp)
	je	.LBB0_17
# %bb.10:                               #   in Loop: Header=BB0_9 Depth=1
	movq	-200(%rbp), %rax
	movq	%rax, -248(%rbp)
	movups	-64(%rbp), %xmm0
	movaps	%xmm0, -128(%rbp)
	movq	-248(%rbp), %rcx
	movq	-240(%rbp), %rax
	addq	%rax, %rcx
	movq	-128(%rbp), %rsi
	movq	-120(%rbp), %rdx
	leaq	-48(%rbp), %rdi
	movq	%rdi, -304(%rbp)                # 8-byte Spill
	callq	_ZNKSt17basic_string_viewIcSt11char_traitsIcEE4findES2_m
	movq	-304(%rbp), %rdi                # 8-byte Reload
	movq	%rax, -200(%rbp)
	movq	-248(%rbp), %rcx
	movq	-240(%rbp), %rax
	movq	%rcx, %rsi
	addq	%rax, %rsi
	movq	-200(%rbp), %rdx
	subq	%rcx, %rdx
	subq	%rax, %rdx
.Ltmp4:
	callq	_ZNKSt17basic_string_viewIcSt11char_traitsIcEE6substrEmm
.Ltmp5:
	movq	%rdx, -296(%rbp)                # 8-byte Spill
	movq	%rax, -288(%rbp)                # 8-byte Spill
	jmp	.LBB0_11
.LBB0_11:                               #   in Loop: Header=BB0_9 Depth=1
	movq	-296(%rbp), %rax                # 8-byte Reload
	movq	-288(%rbp), %rcx                # 8-byte Reload
	movq	%rcx, -144(%rbp)
	movq	%rax, -136(%rbp)
	leaq	-144(%rbp), %rdi
	callq	_ZNKSt17basic_string_viewIcSt11char_traitsIcEE5emptyEv
	testb	$1, %al
	jne	.LBB0_12
	jmp	.LBB0_13
.LBB0_12:                               #   in Loop: Header=BB0_9 Depth=1
	testb	$1, -185(%rbp)
	jne	.LBB0_16
.LBB0_13:                               #   in Loop: Header=BB0_9 Depth=1
.Ltmp6:
	movq	-264(%rbp), %rdi                # 8-byte Reload
	leaq	-144(%rbp), %rsi
	callq	_ZNSt6vectorISt17basic_string_viewIcSt11char_traitsIcEESaIS3_EE9push_backERKS3_
.Ltmp7:
	jmp	.LBB0_14
.LBB0_14:                               #   in Loop: Header=BB0_9 Depth=1
	jmp	.LBB0_16
.LBB0_15:
.Ltmp8:
	movq	-264(%rbp), %rdi                # 8-byte Reload
	movq	%rax, %rcx
	movl	%edx, %eax
	movq	%rcx, -224(%rbp)
	movl	%eax, -228(%rbp)
	callq	_ZNSt6vectorISt17basic_string_viewIcSt11char_traitsIcEESaIS3_EED2Ev
	jmp	.LBB0_22
.LBB0_16:                               #   in Loop: Header=BB0_9 Depth=1
	jmp	.LBB0_9
.LBB0_17:
	movb	$1, -229(%rbp)
	testb	$1, -229(%rbp)
	jne	.LBB0_19
# %bb.18:
	movq	-264(%rbp), %rdi                # 8-byte Reload
	callq	_ZNSt6vectorISt17basic_string_viewIcSt11char_traitsIcEESaIS3_EED2Ev
.LBB0_19:
	jmp	.LBB0_20
.LBB0_20:
	movq	%fs:40, %rax
	movq	-8(%rbp), %rcx
	cmpq	%rcx, %rax
	jne	.LBB0_24
# %bb.21:
	movq	-256(%rbp), %rax                # 8-byte Reload
	addq	$320, %rsp                      # imm = 0x140
	popq	%rbp
	.cfi_def_cfa %rsp, 8
	retq
.LBB0_22:
	.cfi_def_cfa %rbp, 16
	movq	-224(%rbp), %rax
	movq	%rax, -312(%rbp)                # 8-byte Spill
	movq	%fs:40, %rax
	movq	-8(%rbp), %rcx
	cmpq	%rcx, %rax
	jne	.LBB0_24
# %bb.23:
	movq	-312(%rbp), %rdi                # 8-byte Reload
	callq	_Unwind_Resume@PLT
.LBB0_24:
	callq	__stack_chk_fail@PLT
.Lfunc_end0:
	.size	_Z5splitSt17basic_string_viewIcSt11char_traitsIcEES2_b, .Lfunc_end0-_Z5splitSt17basic_string_viewIcSt11char_traitsIcEES2_b
	.cfi_endproc
	.section	.gcc_except_table,"a",@progbits
	.p2align	2, 0x0
GCC_except_table0:
.Lexception0:
	.byte	255                             # @LPStart Encoding = omit
	.byte	255                             # @TType Encoding = omit
	.byte	1                               # Call site Encoding = uleb128
	.uleb128 .Lcst_end0-.Lcst_begin0
.Lcst_begin0:
	.uleb128 .Lfunc_begin0-.Lfunc_begin0    # >> Call Site 1 <<
	.uleb128 .Ltmp9-.Lfunc_begin0           #   Call between .Lfunc_begin0 and .Ltmp9
	.byte	0                               #     has no landing pad
	.byte	0                               #   On action: cleanup
	.uleb128 .Ltmp9-.Lfunc_begin0           # >> Call Site 2 <<
	.uleb128 .Ltmp10-.Ltmp9                 #   Call between .Ltmp9 and .Ltmp10
	.uleb128 .Ltmp11-.Lfunc_begin0          #     jumps to .Ltmp11
	.byte	0                               #   On action: cleanup
	.uleb128 .Ltmp0-.Lfunc_begin0           # >> Call Site 3 <<
	.uleb128 .Ltmp7-.Ltmp0                  #   Call between .Ltmp0 and .Ltmp7
	.uleb128 .Ltmp8-.Lfunc_begin0           #     jumps to .Ltmp8
	.byte	0                               #   On action: cleanup
	.uleb128 .Ltmp7-.Lfunc_begin0           # >> Call Site 4 <<
	.uleb128 .Lfunc_end0-.Ltmp7             #   Call between .Ltmp7 and .Lfunc_end0
	.byte	0                               #     has no landing pad
	.byte	0                               #   On action: cleanup
.Lcst_end0:
	.p2align	2, 0x0
                                        # -- End function
	.section	.text._ZNKSt17basic_string_viewIcSt11char_traitsIcEE5emptyEv,"axG",@progbits,_ZNKSt17basic_string_viewIcSt11char_traitsIcEE5emptyEv,comdat
	.weak	_ZNKSt17basic_string_viewIcSt11char_traitsIcEE5emptyEv # -- Begin function _ZNKSt17basic_string_viewIcSt11char_traitsIcEE5emptyEv
	.p2align	4, 0x90
	.type	_ZNKSt17basic_string_viewIcSt11char_traitsIcEE5emptyEv,@function
_ZNKSt17basic_string_viewIcSt11char_traitsIcEE5emptyEv: # @_ZNKSt17basic_string_viewIcSt11char_traitsIcEE5emptyEv
	.cfi_startproc
# %bb.0:
	pushq	%rbp
	.cfi_def_cfa_offset 16
	.cfi_offset %rbp, -16
	movq	%rsp, %rbp
	.cfi_def_cfa_register %rbp
	movq	%rdi, -8(%rbp)
	movq	-8(%rbp), %rax
	cmpq	$0, (%rax)
	sete	%al
	andb	$1, %al
	movzbl	%al, %eax
	popq	%rbp
	.cfi_def_cfa %rsp, 8
	retq
.Lfunc_end1:
	.size	_ZNKSt17basic_string_viewIcSt11char_traitsIcEE5emptyEv, .Lfunc_end1-_ZNKSt17basic_string_viewIcSt11char_traitsIcEE5emptyEv
	.cfi_endproc
                                        # -- End function
	.section	.text._ZNSt6vectorISt17basic_string_viewIcSt11char_traitsIcEESaIS3_EEC2Ev,"axG",@progbits,_ZNSt6vectorISt17basic_string_viewIcSt11char_traitsIcEESaIS3_EEC2Ev,comdat
	.weak	_ZNSt6vectorISt17basic_string_viewIcSt11char_traitsIcEESaIS3_EEC2Ev # -- Begin function _ZNSt6vectorISt17basic_string_viewIcSt11char_traitsIcEESaIS3_EEC2Ev
	.p2align	4, 0x90
	.type	_ZNSt6vectorISt17basic_string_viewIcSt11char_traitsIcEESaIS3_EEC2Ev,@function
_ZNSt6vectorISt17basic_string_viewIcSt11char_traitsIcEESaIS3_EEC2Ev: # @_ZNSt6vectorISt17basic_string_viewIcSt11char_traitsIcEESaIS3_EEC2Ev
	.cfi_startproc
# %bb.0:
	pushq	%rbp
	.cfi_def_cfa_offset 16
	.cfi_offset %rbp, -16
	movq	%rsp, %rbp
	.cfi_def_cfa_register %rbp
	subq	$16, %rsp
	movq	%rdi, -8(%rbp)
	movq	-8(%rbp), %rdi
	callq	_ZNSt12_Vector_baseISt17basic_string_viewIcSt11char_traitsIcEESaIS3_EEC2Ev
	addq	$16, %rsp
	popq	%rbp
	.cfi_def_cfa %rsp, 8
	retq
.Lfunc_end2:
	.size	_ZNSt6vectorISt17basic_string_viewIcSt11char_traitsIcEESaIS3_EEC2Ev, .Lfunc_end2-_ZNSt6vectorISt17basic_string_viewIcSt11char_traitsIcEESaIS3_EEC2Ev
	.cfi_endproc
                                        # -- End function
	.section	.text._ZNKSt17basic_string_viewIcSt11char_traitsIcEE4findES2_m,"axG",@progbits,_ZNKSt17basic_string_viewIcSt11char_traitsIcEE4findES2_m,comdat
	.weak	_ZNKSt17basic_string_viewIcSt11char_traitsIcEE4findES2_m # -- Begin function _ZNKSt17basic_string_viewIcSt11char_traitsIcEE4findES2_m
	.p2align	4, 0x90
	.type	_ZNKSt17basic_string_viewIcSt11char_traitsIcEE4findES2_m,@function
_ZNKSt17basic_string_viewIcSt11char_traitsIcEE4findES2_m: # @_ZNKSt17basic_string_viewIcSt11char_traitsIcEE4findES2_m
	.cfi_startproc
# %bb.0:
	pushq	%rbp
	.cfi_def_cfa_offset 16
	.cfi_offset %rbp, -16
	movq	%rsp, %rbp
	.cfi_def_cfa_register %rbp
	subq	$32, %rsp
	movq	%rsi, -16(%rbp)
	movq	%rdx, -8(%rbp)
	movq	%rdi, -24(%rbp)
	movq	%rcx, -32(%rbp)
	movq	-24(%rbp), %rdi
	movq	-8(%rbp), %rsi
	movq	-32(%rbp), %rdx
	movq	-16(%rbp), %rcx
	callq	_ZNKSt17basic_string_viewIcSt11char_traitsIcEE4findEPKcmm
	addq	$32, %rsp
	popq	%rbp
	.cfi_def_cfa %rsp, 8
	retq
.Lfunc_end3:
	.size	_ZNKSt17basic_string_viewIcSt11char_traitsIcEE4findES2_m, .Lfunc_end3-_ZNKSt17basic_string_viewIcSt11char_traitsIcEE4findES2_m
	.cfi_endproc
                                        # -- End function
	.section	.text._ZNSt6vectorISt17basic_string_viewIcSt11char_traitsIcEESaIS3_EEC2ESt16initializer_listIS3_ERKS4_,"axG",@progbits,_ZNSt6vectorISt17basic_string_viewIcSt11char_traitsIcEESaIS3_EEC2ESt16initializer_listIS3_ERKS4_,comdat
	.weak	_ZNSt6vectorISt17basic_string_viewIcSt11char_traitsIcEESaIS3_EEC2ESt16initializer_listIS3_ERKS4_ # -- Begin function _ZNSt6vectorISt17basic_string_viewIcSt11char_traitsIcEESaIS3_EEC2ESt16initializer_listIS3_ERKS4_
	.p2align	4, 0x90
	.type	_ZNSt6vectorISt17basic_string_viewIcSt11char_traitsIcEESaIS3_EEC2ESt16initializer_listIS3_ERKS4_,@function
_ZNSt6vectorISt17basic_string_viewIcSt11char_traitsIcEESaIS3_EEC2ESt16initializer_listIS3_ERKS4_: # @_ZNSt6vectorISt17basic_string_viewIcSt11char_traitsIcEESaIS3_EEC2ESt16initializer_listIS3_ERKS4_
.Lfunc_begin1:
	.cfi_startproc
	.cfi_personality 155, DW.ref.__gxx_personality_v0
	.cfi_lsda 27, .Lexception1
# %bb.0:
	pushq	%rbp
	.cfi_def_cfa_offset 16
	.cfi_offset %rbp, -16
	movq	%rsp, %rbp
	.cfi_def_cfa_register %rbp
	subq	$112, %rsp
	movq	%fs:40, %rax
	movq	%rax, -8(%rbp)
	movq	%rsi, -24(%rbp)
	movq	%rdx, -16(%rbp)
	movq	%rdi, -32(%rbp)
	movq	%rcx, -40(%rbp)
	movq	-32(%rbp), %rdi
	movq	%rdi, -88(%rbp)                 # 8-byte Spill
	movq	-40(%rbp), %rsi
	callq	_ZNSt12_Vector_baseISt17basic_string_viewIcSt11char_traitsIcEESaIS3_EEC2ERKS4_
	leaq	-24(%rbp), %rdi
	movq	%rdi, -96(%rbp)                 # 8-byte Spill
	callq	_ZNKSt16initializer_listISt17basic_string_viewIcSt11char_traitsIcEEE5beginEv
	movq	-96(%rbp), %rdi                 # 8-byte Reload
	movq	%rax, -80(%rbp)                 # 8-byte Spill
	callq	_ZNKSt16initializer_listISt17basic_string_viewIcSt11char_traitsIcEEE3endEv
	movq	-88(%rbp), %rdi                 # 8-byte Reload
	movq	-80(%rbp), %rsi                 # 8-byte Reload
	movq	%rax, %rdx
.Ltmp12:
	callq	_ZNSt6vectorISt17basic_string_viewIcSt11char_traitsIcEESaIS3_EE19_M_range_initializeIPKS3_EEvT_S9_St20forward_iterator_tag
.Ltmp13:
	jmp	.LBB4_1
.LBB4_1:
	movq	%fs:40, %rax
	movq	-8(%rbp), %rcx
	cmpq	%rcx, %rax
	jne	.LBB4_6
# %bb.2:
	addq	$112, %rsp
	popq	%rbp
	.cfi_def_cfa %rsp, 8
	retq
.LBB4_3:
	.cfi_def_cfa %rbp, 16
.Ltmp14:
	movq	-88(%rbp), %rdi                 # 8-byte Reload
	movq	%rax, %rcx
	movl	%edx, %eax
	movq	%rcx, -64(%rbp)
	movl	%eax, -68(%rbp)
	callq	_ZNSt12_Vector_baseISt17basic_string_viewIcSt11char_traitsIcEESaIS3_EED2Ev
# %bb.4:
	movq	-64(%rbp), %rax
	movq	%rax, -104(%rbp)                # 8-byte Spill
	movq	%fs:40, %rax
	movq	-8(%rbp), %rcx
	cmpq	%rcx, %rax
	jne	.LBB4_6
# %bb.5:
	movq	-104(%rbp), %rdi                # 8-byte Reload
	callq	_Unwind_Resume@PLT
.LBB4_6:
	callq	__stack_chk_fail@PLT
.Lfunc_end4:
	.size	_ZNSt6vectorISt17basic_string_viewIcSt11char_traitsIcEESaIS3_EEC2ESt16initializer_listIS3_ERKS4_, .Lfunc_end4-_ZNSt6vectorISt17basic_string_viewIcSt11char_traitsIcEESaIS3_EEC2ESt16initializer_listIS3_ERKS4_
	.cfi_endproc
	.section	.gcc_except_table._ZNSt6vectorISt17basic_string_viewIcSt11char_traitsIcEESaIS3_EEC2ESt16initializer_listIS3_ERKS4_,"aG",@progbits,_ZNSt6vectorISt17basic_string_viewIcSt11char_traitsIcEESaIS3_EEC2ESt16initializer_listIS3_ERKS4_,comdat
	.p2align	2, 0x0
GCC_except_table4:
.Lexception1:
	.byte	255                             # @LPStart Encoding = omit
	.byte	255                             # @TType Encoding = omit
	.byte	1                               # Call site Encoding = uleb128
	.uleb128 .Lcst_end1-.Lcst_begin1
.Lcst_begin1:
	.uleb128 .Ltmp12-.Lfunc_begin1          # >> Call Site 1 <<
	.uleb128 .Ltmp13-.Ltmp12                #   Call between .Ltmp12 and .Ltmp13
	.uleb128 .Ltmp14-.Lfunc_begin1          #     jumps to .Ltmp14
	.byte	0                               #   On action: cleanup
	.uleb128 .Ltmp13-.Lfunc_begin1          # >> Call Site 2 <<
	.uleb128 .Lfunc_end4-.Ltmp13            #   Call between .Ltmp13 and .Lfunc_end4
	.byte	0                               #     has no landing pad
	.byte	0                               #   On action: cleanup
.Lcst_end1:
	.p2align	2, 0x0
                                        # -- End function
	.section	.text._ZNKSt17basic_string_viewIcSt11char_traitsIcEE4sizeEv,"axG",@progbits,_ZNKSt17basic_string_viewIcSt11char_traitsIcEE4sizeEv,comdat
	.weak	_ZNKSt17basic_string_viewIcSt11char_traitsIcEE4sizeEv # -- Begin function _ZNKSt17basic_string_viewIcSt11char_traitsIcEE4sizeEv
	.p2align	4, 0x90
	.type	_ZNKSt17basic_string_viewIcSt11char_traitsIcEE4sizeEv,@function
_ZNKSt17basic_string_viewIcSt11char_traitsIcEE4sizeEv: # @_ZNKSt17basic_string_viewIcSt11char_traitsIcEE4sizeEv
	.cfi_startproc
# %bb.0:
	pushq	%rbp
	.cfi_def_cfa_offset 16
	.cfi_offset %rbp, -16
	movq	%rsp, %rbp
	.cfi_def_cfa_register %rbp
	movq	%rdi, -8(%rbp)
	movq	-8(%rbp), %rax
	movq	(%rax), %rax
	popq	%rbp
	.cfi_def_cfa %rsp, 8
	retq
.Lfunc_end5:
	.size	_ZNKSt17basic_string_viewIcSt11char_traitsIcEE4sizeEv, .Lfunc_end5-_ZNKSt17basic_string_viewIcSt11char_traitsIcEE4sizeEv
	.cfi_endproc
                                        # -- End function
	.section	.text._ZNSt6vectorISt17basic_string_viewIcSt11char_traitsIcEESaIS3_EE9push_backEOS3_,"axG",@progbits,_ZNSt6vectorISt17basic_string_viewIcSt11char_traitsIcEESaIS3_EE9push_backEOS3_,comdat
	.weak	_ZNSt6vectorISt17basic_string_viewIcSt11char_traitsIcEESaIS3_EE9push_backEOS3_ # -- Begin function _ZNSt6vectorISt17basic_string_viewIcSt11char_traitsIcEESaIS3_EE9push_backEOS3_
	.p2align	4, 0x90
	.type	_ZNSt6vectorISt17basic_string_viewIcSt11char_traitsIcEESaIS3_EE9push_backEOS3_,@function
_ZNSt6vectorISt17basic_string_viewIcSt11char_traitsIcEESaIS3_EE9push_backEOS3_: # @_ZNSt6vectorISt17basic_string_viewIcSt11char_traitsIcEESaIS3_EE9push_backEOS3_
	.cfi_startproc
# %bb.0:
	pushq	%rbp
	.cfi_def_cfa_offset 16
	.cfi_offset %rbp, -16
	movq	%rsp, %rbp
	.cfi_def_cfa_register %rbp
	subq	$16, %rsp
	movq	%rdi, -8(%rbp)
	movq	%rsi, -16(%rbp)
	movq	-8(%rbp), %rdi
	movq	-16(%rbp), %rsi
	callq	_ZNSt6vectorISt17basic_string_viewIcSt11char_traitsIcEESaIS3_EE12emplace_backIJS3_EEERS3_DpOT_
	addq	$16, %rsp
	popq	%rbp
	.cfi_def_cfa %rsp, 8
	retq
.Lfunc_end6:
	.size	_ZNSt6vectorISt17basic_string_viewIcSt11char_traitsIcEESaIS3_EE9push_backEOS3_, .Lfunc_end6-_ZNSt6vectorISt17basic_string_viewIcSt11char_traitsIcEESaIS3_EE9push_backEOS3_
	.cfi_endproc
                                        # -- End function
	.section	.text._ZNKSt17basic_string_viewIcSt11char_traitsIcEE6substrEmm,"axG",@progbits,_ZNKSt17basic_string_viewIcSt11char_traitsIcEE6substrEmm,comdat
	.weak	_ZNKSt17basic_string_viewIcSt11char_traitsIcEE6substrEmm # -- Begin function _ZNKSt17basic_string_viewIcSt11char_traitsIcEE6substrEmm
	.p2align	4, 0x90
	.type	_ZNKSt17basic_string_viewIcSt11char_traitsIcEE6substrEmm,@function
_ZNKSt17basic_string_viewIcSt11char_traitsIcEE6substrEmm: # @_ZNKSt17basic_string_viewIcSt11char_traitsIcEE6substrEmm
	.cfi_startproc
# %bb.0:
	pushq	%rbp
	.cfi_def_cfa_offset 16
	.cfi_offset %rbp, -16
	movq	%rsp, %rbp
	.cfi_def_cfa_register %rbp
	subq	$96, %rsp
	movq	%fs:40, %rax
	movq	%rax, -8(%rbp)
	movq	%rdi, -48(%rbp)
	movq	%rsi, -56(%rbp)
	movq	%rdx, -32(%rbp)
	movq	-48(%rbp), %rdi
	movq	%rdi, -88(%rbp)                 # 8-byte Spill
	callq	_ZNKSt17basic_string_viewIcSt11char_traitsIcEE4sizeEv
	movq	%rax, %rdi
	movq	-56(%rbp), %rsi
	leaq	.L.str.23(%rip), %rdx
	callq	_ZSt10__sv_checkmmPKc
	movq	%rax, %rcx
	movq	-88(%rbp), %rax                 # 8-byte Reload
	movq	%rcx, -56(%rbp)
	movq	(%rax), %rax
	movq	-56(%rbp), %rcx
	subq	%rcx, %rax
	movq	%rax, -40(%rbp)
	leaq	-32(%rbp), %rdi
	leaq	-40(%rbp), %rsi
	callq	_ZSt3minImERKT_S2_S2_
	movq	%rax, %rcx
	movq	-88(%rbp), %rax                 # 8-byte Reload
	movq	(%rcx), %rcx
	movq	%rcx, -64(%rbp)
	movq	8(%rax), %rsi
	movq	-56(%rbp), %rax
	addq	%rax, %rsi
	movq	-64(%rbp), %rdx
	leaq	-24(%rbp), %rdi
	callq	_ZNSt17basic_string_viewIcSt11char_traitsIcEEC2EPKcm
	movq	-24(%rbp), %rax
	movq	%rax, -80(%rbp)                 # 8-byte Spill
	movq	-16(%rbp), %rax
	movq	%rax, -72(%rbp)                 # 8-byte Spill
	movq	%fs:40, %rax
	movq	-8(%rbp), %rcx
	cmpq	%rcx, %rax
	jne	.LBB7_2
# %bb.1:
	movq	-72(%rbp), %rdx                 # 8-byte Reload
	movq	-80(%rbp), %rax                 # 8-byte Reload
	addq	$96, %rsp
	popq	%rbp
	.cfi_def_cfa %rsp, 8
	retq
.LBB7_2:
	.cfi_def_cfa %rbp, 16
	callq	__stack_chk_fail@PLT
.Lfunc_end7:
	.size	_ZNKSt17basic_string_viewIcSt11char_traitsIcEE6substrEmm, .Lfunc_end7-_ZNKSt17basic_string_viewIcSt11char_traitsIcEE6substrEmm
	.cfi_endproc
                                        # -- End function
	.section	.text._ZNSt6vectorISt17basic_string_viewIcSt11char_traitsIcEESaIS3_EE9push_backERKS3_,"axG",@progbits,_ZNSt6vectorISt17basic_string_viewIcSt11char_traitsIcEESaIS3_EE9push_backERKS3_,comdat
	.weak	_ZNSt6vectorISt17basic_string_viewIcSt11char_traitsIcEESaIS3_EE9push_backERKS3_ # -- Begin function _ZNSt6vectorISt17basic_string_viewIcSt11char_traitsIcEESaIS3_EE9push_backERKS3_
	.p2align	4, 0x90
	.type	_ZNSt6vectorISt17basic_string_viewIcSt11char_traitsIcEESaIS3_EE9push_backERKS3_,@function
_ZNSt6vectorISt17basic_string_viewIcSt11char_traitsIcEESaIS3_EE9push_backERKS3_: # @_ZNSt6vectorISt17basic_string_viewIcSt11char_traitsIcEESaIS3_EE9push_backERKS3_
	.cfi_startproc
# %bb.0:
	pushq	%rbp
	.cfi_def_cfa_offset 16
	.cfi_offset %rbp, -16
	movq	%rsp, %rbp
	.cfi_def_cfa_register %rbp
	subq	$80, %rsp
	movq	%rdi, -56(%rbp)
	movq	%rsi, -64(%rbp)
	movq	-56(%rbp), %rcx
	movq	%rcx, -80(%rbp)                 # 8-byte Spill
	movq	8(%rcx), %rax
	cmpq	16(%rcx), %rax
	je	.LBB8_2
# %bb.1:
	movq	-80(%rbp), %rax                 # 8-byte Reload
	movq	8(%rax), %rdx
	movq	-64(%rbp), %rcx
	movq	%rax, -32(%rbp)
	movq	%rdx, -40(%rbp)
	movq	%rcx, -48(%rbp)
	movq	-32(%rbp), %rsi
	movq	-40(%rbp), %rdx
	movq	-48(%rbp), %rcx
	movq	%rsi, -8(%rbp)
	movq	%rdx, -16(%rbp)
	movq	%rcx, -24(%rbp)
	movq	-16(%rbp), %rcx
	movq	-24(%rbp), %rdx
	movq	(%rdx), %rsi
	movq	%rsi, (%rcx)
	movq	8(%rdx), %rdx
	movq	%rdx, 8(%rcx)
	movq	8(%rax), %rcx
	addq	$16, %rcx
	movq	%rcx, 8(%rax)
	jmp	.LBB8_3
.LBB8_2:
	movq	-80(%rbp), %rdi                 # 8-byte Reload
	callq	_ZNSt6vectorISt17basic_string_viewIcSt11char_traitsIcEESaIS3_EE3endEv
	movq	-80(%rbp), %rdi                 # 8-byte Reload
	movq	%rax, -72(%rbp)
	movq	-64(%rbp), %rdx
	movq	-72(%rbp), %rsi
	callq	_ZNSt6vectorISt17basic_string_viewIcSt11char_traitsIcEESaIS3_EE17_M_realloc_insertIJRKS3_EEEvN9__gnu_cxx17__normal_iteratorIPS3_S5_EEDpOT_
.LBB8_3:
	addq	$80, %rsp
	popq	%rbp
	.cfi_def_cfa %rsp, 8
	retq
.Lfunc_end8:
	.size	_ZNSt6vectorISt17basic_string_viewIcSt11char_traitsIcEESaIS3_EE9push_backERKS3_, .Lfunc_end8-_ZNSt6vectorISt17basic_string_viewIcSt11char_traitsIcEESaIS3_EE9push_backERKS3_
	.cfi_endproc
                                        # -- End function
	.section	.text._ZNSt6vectorISt17basic_string_viewIcSt11char_traitsIcEESaIS3_EED2Ev,"axG",@progbits,_ZNSt6vectorISt17basic_string_viewIcSt11char_traitsIcEESaIS3_EED2Ev,comdat
	.weak	_ZNSt6vectorISt17basic_string_viewIcSt11char_traitsIcEESaIS3_EED2Ev # -- Begin function _ZNSt6vectorISt17basic_string_viewIcSt11char_traitsIcEESaIS3_EED2Ev
	.p2align	4, 0x90
	.type	_ZNSt6vectorISt17basic_string_viewIcSt11char_traitsIcEESaIS3_EED2Ev,@function
_ZNSt6vectorISt17basic_string_viewIcSt11char_traitsIcEESaIS3_EED2Ev: # @_ZNSt6vectorISt17basic_string_viewIcSt11char_traitsIcEESaIS3_EED2Ev
.Lfunc_begin2:
	.cfi_startproc
	.cfi_personality 155, DW.ref.__gxx_personality_v0
	.cfi_lsda 27, .Lexception2
# %bb.0:
	pushq	%rbp
	.cfi_def_cfa_offset 16
	.cfi_offset %rbp, -16
	movq	%rsp, %rbp
	.cfi_def_cfa_register %rbp
	subq	$64, %rsp
	movq	%rdi, -32(%rbp)
	movq	-32(%rbp), %rdi
	movq	%rdi, -56(%rbp)                 # 8-byte Spill
	movq	(%rdi), %rax
	movq	%rax, -48(%rbp)                 # 8-byte Spill
	movq	8(%rdi), %rax
	movq	%rax, -40(%rbp)                 # 8-byte Spill
	callq	_ZNSt12_Vector_baseISt17basic_string_viewIcSt11char_traitsIcEESaIS3_EE19_M_get_Tp_allocatorEv
	movq	-48(%rbp), %rdx                 # 8-byte Reload
	movq	-40(%rbp), %rcx                 # 8-byte Reload
	movq	%rdx, -8(%rbp)
	movq	%rcx, -16(%rbp)
	movq	%rax, -24(%rbp)
	movq	-8(%rbp), %rdi
	movq	-16(%rbp), %rsi
.Ltmp15:
	callq	_ZSt8_DestroyIPSt17basic_string_viewIcSt11char_traitsIcEEEvT_S5_
.Ltmp16:
	jmp	.LBB9_1
.LBB9_1:
	jmp	.LBB9_2
.LBB9_2:
	movq	-56(%rbp), %rdi                 # 8-byte Reload
	callq	_ZNSt12_Vector_baseISt17basic_string_viewIcSt11char_traitsIcEESaIS3_EED2Ev
	addq	$64, %rsp
	popq	%rbp
	.cfi_def_cfa %rsp, 8
	retq
.LBB9_3:
	.cfi_def_cfa %rbp, 16
.Ltmp17:
	movq	%rax, %rdi
                                        # kill: def $eax killed $edx killed $rdx
	callq	__clang_call_terminate
.Lfunc_end9:
	.size	_ZNSt6vectorISt17basic_string_viewIcSt11char_traitsIcEESaIS3_EED2Ev, .Lfunc_end9-_ZNSt6vectorISt17basic_string_viewIcSt11char_traitsIcEESaIS3_EED2Ev
	.cfi_endproc
	.section	.gcc_except_table._ZNSt6vectorISt17basic_string_viewIcSt11char_traitsIcEESaIS3_EED2Ev,"aG",@progbits,_ZNSt6vectorISt17basic_string_viewIcSt11char_traitsIcEESaIS3_EED2Ev,comdat
	.p2align	2, 0x0
GCC_except_table9:
.Lexception2:
	.byte	255                             # @LPStart Encoding = omit
	.byte	155                             # @TType Encoding = indirect pcrel sdata4
	.uleb128 .Lttbase0-.Lttbaseref0
.Lttbaseref0:
	.byte	1                               # Call site Encoding = uleb128
	.uleb128 .Lcst_end2-.Lcst_begin2
.Lcst_begin2:
	.uleb128 .Ltmp15-.Lfunc_begin2          # >> Call Site 1 <<
	.uleb128 .Ltmp16-.Ltmp15                #   Call between .Ltmp15 and .Ltmp16
	.uleb128 .Ltmp17-.Lfunc_begin2          #     jumps to .Ltmp17
	.byte	1                               #   On action: 1
.Lcst_end2:
	.byte	1                               # >> Action Record 1 <<
                                        #   Catch TypeInfo 1
	.byte	0                               #   No further actions
	.p2align	2, 0x0
                                        # >> Catch TypeInfos <<
	.long	0                               # TypeInfo 1
.Lttbase0:
	.p2align	2, 0x0
                                        # -- End function
	.text
	.globl	_Z2lsRKSt6vectorISt17basic_string_viewIcSt11char_traitsIcEESaIS3_EE # -- Begin function _Z2lsRKSt6vectorISt17basic_string_viewIcSt11char_traitsIcEESaIS3_EE
	.p2align	4, 0x90
	.type	_Z2lsRKSt6vectorISt17basic_string_viewIcSt11char_traitsIcEESaIS3_EE,@function
_Z2lsRKSt6vectorISt17basic_string_viewIcSt11char_traitsIcEESaIS3_EE: # @_Z2lsRKSt6vectorISt17basic_string_viewIcSt11char_traitsIcEESaIS3_EE
.Lfunc_begin3:
	.cfi_startproc
	.cfi_personality 155, DW.ref.__gxx_personality_v0
	.cfi_lsda 27, .Lexception3
# %bb.0:
	pushq	%rbp
	.cfi_def_cfa_offset 16
	.cfi_offset %rbp, -16
	movq	%rsp, %rbp
	.cfi_def_cfa_register %rbp
	subq	$432, %rsp                      # imm = 0x1B0
	movq	%fs:40, %rax
	movq	%rax, -8(%rbp)
	movq	%rdi, -264(%rbp)
	leaq	-48(%rbp), %rdi
	callq	_ZNSt10filesystem7__cxx114pathC2Ev
	movq	-264(%rbp), %rdi
	callq	_ZNKSt6vectorISt17basic_string_viewIcSt11char_traitsIcEESaIS3_EE4sizeEv
	cmpq	$1, %rax
	jne	.LBB10_4
# %bb.1:
.Ltmp26:
	leaq	.L.str(%rip), %rsi
	leaq	-48(%rbp), %rdi
	callq	_ZNSt10filesystem7__cxx114pathaSIA2_cEERNSt9enable_ifIX13__is_path_srcIT_EES1_E4typeERKS5_
.Ltmp27:
	jmp	.LBB10_2
.LBB10_2:
	jmp	.LBB10_12
.LBB10_3:
.Ltmp36:
	movq	%rax, %rcx
	movl	%edx, %eax
	movq	%rcx, -272(%rbp)
	movl	%eax, -276(%rbp)
	jmp	.LBB10_52
.LBB10_4:
	movq	-264(%rbp), %rdi
	callq	_ZNKSt6vectorISt17basic_string_viewIcSt11char_traitsIcEESaIS3_EE4sizeEv
	cmpq	$2, %rax
	jne	.LBB10_7
# %bb.5:
	movq	-264(%rbp), %rdi
	movl	$1, %esi
	callq	_ZNKSt6vectorISt17basic_string_viewIcSt11char_traitsIcEESaIS3_EEixEm
	movq	%rax, %rsi
.Ltmp24:
	leaq	-48(%rbp), %rdi
	callq	_ZNSt10filesystem7__cxx114pathaSISt17basic_string_viewIcSt11char_traitsIcEEEERNSt9enable_ifIX13__is_path_srcIT_EES1_E4typeERKS8_
.Ltmp25:
	jmp	.LBB10_6
.LBB10_6:
	jmp	.LBB10_11
.LBB10_7:
.Ltmp18:
	movq	_ZSt4cerr@GOTPCREL(%rip), %rdi
	leaq	.L.str.1(%rip), %rsi
	callq	_ZStlsISt11char_traitsIcEERSt13basic_ostreamIcT_ES5_PKc@PLT
.Ltmp19:
	movq	%rax, -344(%rbp)                # 8-byte Spill
	jmp	.LBB10_8
.LBB10_8:
	movq	-264(%rbp), %rdi
	callq	_ZNKSt6vectorISt17basic_string_viewIcSt11char_traitsIcEESaIS3_EE4sizeEv
	movq	-344(%rbp), %rdi                # 8-byte Reload
	movq	%rax, %rsi
.Ltmp20:
	callq	_ZNSolsEm@PLT
.Ltmp21:
	movq	%rax, -352(%rbp)                # 8-byte Spill
	jmp	.LBB10_9
.LBB10_9:
.Ltmp22:
	movq	-352(%rbp), %rdi                # 8-byte Reload
	movl	$10, %esi
	callq	_ZStlsISt11char_traitsIcEERSt13basic_ostreamIcT_ES5_c@PLT
.Ltmp23:
	jmp	.LBB10_10
.LBB10_10:
	movl	$1, -252(%rbp)
	movl	$1, -280(%rbp)
	jmp	.LBB10_50
.LBB10_11:
	jmp	.LBB10_12
.LBB10_12:
.Ltmp28:
	leaq	-48(%rbp), %rdi
	callq	_ZNSt10filesystem6existsERKNS_7__cxx114pathE
.Ltmp29:
	movb	%al, -353(%rbp)                 # 1-byte Spill
	jmp	.LBB10_13
.LBB10_13:
	movb	-353(%rbp), %al                 # 1-byte Reload
	testb	$1, %al
	jne	.LBB10_18
	jmp	.LBB10_14
.LBB10_14:
.Ltmp30:
	movq	_ZSt4cerr@GOTPCREL(%rip), %rdi
	leaq	.L.str.2(%rip), %rsi
	callq	_ZStlsISt11char_traitsIcEERSt13basic_ostreamIcT_ES5_PKc@PLT
.Ltmp31:
	movq	%rax, -368(%rbp)                # 8-byte Spill
	jmp	.LBB10_15
.LBB10_15:
.Ltmp32:
	movq	-368(%rbp), %rdi                # 8-byte Reload
	leaq	-48(%rbp), %rsi
	callq	_ZNSt10filesystem7__cxx11lsIcSt11char_traitsIcEEERSt13basic_ostreamIT_T0_ES8_RKNS0_4pathE
.Ltmp33:
	movq	%rax, -376(%rbp)                # 8-byte Spill
	jmp	.LBB10_16
.LBB10_16:
.Ltmp34:
	movq	-376(%rbp), %rdi                # 8-byte Reload
	movl	$10, %esi
	callq	_ZStlsISt11char_traitsIcEERSt13basic_ostreamIcT_ES5_c@PLT
.Ltmp35:
	jmp	.LBB10_17
.LBB10_17:
	movl	$2, -252(%rbp)
	movl	$1, -280(%rbp)
	jmp	.LBB10_50
.LBB10_18:
	leaq	-144(%rbp), %rdi
	callq	_ZNSt6vectorI6LsItemSaIS0_EEC2Ev
.Ltmp37:
	leaq	-160(%rbp), %rdi
	leaq	-48(%rbp), %rsi
	callq	_ZNSt10filesystem7__cxx1118directory_iteratorC2ERKNS0_4pathE
.Ltmp38:
	jmp	.LBB10_19
.LBB10_19:
	leaq	-160(%rbp), %rax
	movq	%rax, -288(%rbp)
	movq	-288(%rbp), %rsi
	leaq	-192(%rbp), %rdi
	callq	_ZNSt10filesystem7__cxx1118directory_iteratorC2ERKS1_
	leaq	-176(%rbp), %rdi
	leaq	-192(%rbp), %rsi
	callq	_ZNSt10filesystem7__cxx115beginENS0_18directory_iteratorE
	leaq	-192(%rbp), %rdi
	callq	_ZNSt10filesystem7__cxx1118directory_iteratorD2Ev
	movq	-288(%rbp), %rsi
	leaq	-224(%rbp), %rdi
	callq	_ZNSt10filesystem7__cxx1118directory_iteratorC2ERKS1_
	leaq	-208(%rbp), %rdi
	leaq	-224(%rbp), %rsi
	callq	_ZNSt10filesystem7__cxx113endENS0_18directory_iteratorE
	leaq	-224(%rbp), %rdi
	callq	_ZNSt10filesystem7__cxx1118directory_iteratorD2Ev
.LBB10_20:                              # =>This Inner Loop Header: Depth=1
	leaq	-176(%rbp), %rdi
	leaq	-208(%rbp), %rsi
	callq	_ZNSt10filesystem7__cxx11neERKNS0_18directory_iteratorES3_
	testb	$1, %al
	jne	.LBB10_23
# %bb.21:
	movl	$2, -280(%rbp)
	leaq	-208(%rbp), %rdi
	callq	_ZNSt10filesystem7__cxx1118directory_iteratorD2Ev
	leaq	-176(%rbp), %rdi
	callq	_ZNSt10filesystem7__cxx1118directory_iteratorD2Ev
	leaq	-160(%rbp), %rdi
	callq	_ZNSt10filesystem7__cxx1118directory_iteratorD2Ev
	jmp	.LBB10_35
.LBB10_22:
.Ltmp51:
	movq	%rax, %rcx
	movl	%edx, %eax
	movq	%rcx, -272(%rbp)
	movl	%eax, -276(%rbp)
	jmp	.LBB10_49
.LBB10_23:                              #   in Loop: Header=BB10_20 Depth=1
	leaq	-176(%rbp), %rdi
	callq	_ZNKSt10filesystem7__cxx1118directory_iteratordeEv@PLT
	movq	%rax, -296(%rbp)
	movq	-296(%rbp), %rdi
	callq	_ZNKSt10filesystem7__cxx1115directory_entry4pathEv
	movq	%rax, %rsi
.Ltmp52:
	leaq	-120(%rbp), %rdi
	callq	_ZNKSt10filesystem7__cxx114path8filenameEv
.Ltmp53:
	jmp	.LBB10_24
.LBB10_24:                              #   in Loop: Header=BB10_20 Depth=1
.Ltmp54:
	leaq	-80(%rbp), %rdi
	leaq	-120(%rbp), %rsi
	callq	_ZNKSt10filesystem7__cxx114path6stringEv
.Ltmp55:
	jmp	.LBB10_25
.LBB10_25:                              #   in Loop: Header=BB10_20 Depth=1
	movq	-296(%rbp), %rdi
.Ltmp57:
	callq	_ZNKSt10filesystem7__cxx1115directory_entry12is_directoryEv
.Ltmp58:
	movb	%al, -377(%rbp)                 # 1-byte Spill
	jmp	.LBB10_26
.LBB10_26:                              #   in Loop: Header=BB10_20 Depth=1
	movb	-377(%rbp), %al                 # 1-byte Reload
	andb	$1, %al
	movb	%al, -225(%rbp)
.Ltmp59:
	leaq	-144(%rbp), %rdi
	leaq	-80(%rbp), %rsi
	leaq	-225(%rbp), %rdx
	callq	_ZNSt6vectorI6LsItemSaIS0_EE12emplace_backIJNSt7__cxx1112basic_stringIcSt11char_traitsIcESaIcEEEbEEERS0_DpOT_
.Ltmp60:
	jmp	.LBB10_27
.LBB10_27:                              #   in Loop: Header=BB10_20 Depth=1
	leaq	-80(%rbp), %rdi
	callq	_ZNSt7__cxx1112basic_stringIcSt11char_traitsIcESaIcEED1Ev@PLT
	leaq	-120(%rbp), %rdi
	callq	_ZNSt10filesystem7__cxx114pathD2Ev
# %bb.28:                               #   in Loop: Header=BB10_20 Depth=1
.Ltmp62:
	leaq	-176(%rbp), %rdi
	callq	_ZNSt10filesystem7__cxx1118directory_iteratorppEv@PLT
.Ltmp63:
	jmp	.LBB10_29
.LBB10_29:                              #   in Loop: Header=BB10_20 Depth=1
	jmp	.LBB10_20
.LBB10_30:
.Ltmp64:
	movq	%rax, %rcx
	movl	%edx, %eax
	movq	%rcx, -272(%rbp)
	movl	%eax, -276(%rbp)
	jmp	.LBB10_34
.LBB10_31:
.Ltmp56:
	movq	%rax, %rcx
	movl	%edx, %eax
	movq	%rcx, -272(%rbp)
	movl	%eax, -276(%rbp)
	jmp	.LBB10_33
.LBB10_32:
.Ltmp61:
	movq	%rax, %rcx
	movl	%edx, %eax
	movq	%rcx, -272(%rbp)
	movl	%eax, -276(%rbp)
	leaq	-80(%rbp), %rdi
	callq	_ZNSt7__cxx1112basic_stringIcSt11char_traitsIcESaIcEED1Ev@PLT
.LBB10_33:
	leaq	-120(%rbp), %rdi
	callq	_ZNSt10filesystem7__cxx114pathD2Ev
.LBB10_34:
	leaq	-208(%rbp), %rdi
	callq	_ZNSt10filesystem7__cxx1118directory_iteratorD2Ev
	leaq	-176(%rbp), %rdi
	callq	_ZNSt10filesystem7__cxx1118directory_iteratorD2Ev
	leaq	-160(%rbp), %rdi
	callq	_ZNSt10filesystem7__cxx1118directory_iteratorD2Ev
	jmp	.LBB10_49
.LBB10_35:
	leaq	-144(%rbp), %rdi
	movq	%rdi, -392(%rbp)                # 8-byte Spill
	callq	_ZNSt6vectorI6LsItemSaIS0_EE5beginEv
	movq	-392(%rbp), %rdi                # 8-byte Reload
	movq	%rax, -304(%rbp)
	callq	_ZNSt6vectorI6LsItemSaIS0_EE3endEv
	movq	%rax, -312(%rbp)
	movq	-304(%rbp), %rdi
	movq	-312(%rbp), %rsi
.Ltmp39:
	callq	_ZSt4sortIN9__gnu_cxx17__normal_iteratorIP6LsItemSt6vectorIS2_SaIS2_EEEEZ2lsRKS4_ISt17basic_string_viewIcSt11char_traitsIcEESaISB_EEE3$_0EvT_SH_T0_
.Ltmp40:
	jmp	.LBB10_36
.LBB10_36:
	leaq	-144(%rbp), %rax
	movq	%rax, -328(%rbp)
	movq	-328(%rbp), %rdi
	callq	_ZNSt6vectorI6LsItemSaIS0_EE5beginEv
	movq	%rax, -240(%rbp)
	movq	-328(%rbp), %rdi
	callq	_ZNSt6vectorI6LsItemSaIS0_EE3endEv
	movq	%rax, -248(%rbp)
.LBB10_37:                              # =>This Inner Loop Header: Depth=1
	leaq	-240(%rbp), %rdi
	leaq	-248(%rbp), %rsi
	callq	_ZN9__gnu_cxxneIP6LsItemSt6vectorIS1_SaIS1_EEEEbRKNS_17__normal_iteratorIT_T0_EESB_
	testb	$1, %al
	jne	.LBB10_38
	jmp	.LBB10_48
.LBB10_38:                              #   in Loop: Header=BB10_37 Depth=1
	leaq	-240(%rbp), %rdi
	callq	_ZNK9__gnu_cxx17__normal_iteratorIP6LsItemSt6vectorIS1_SaIS1_EEEdeEv
	movq	%rax, -336(%rbp)
	movq	-336(%rbp), %rax
	testb	$1, 32(%rax)
	je	.LBB10_43
# %bb.39:                               #   in Loop: Header=BB10_37 Depth=1
.Ltmp45:
	movq	_ZSt4cout@GOTPCREL(%rip), %rdi
	leaq	.L.str.3(%rip), %rsi
	callq	_ZStlsISt11char_traitsIcEERSt13basic_ostreamIcT_ES5_PKc@PLT
.Ltmp46:
	movq	%rax, -400(%rbp)                # 8-byte Spill
	jmp	.LBB10_40
.LBB10_40:                              #   in Loop: Header=BB10_37 Depth=1
	movq	-400(%rbp), %rdi                # 8-byte Reload
	movq	-336(%rbp), %rsi
.Ltmp47:
	callq	_ZStlsIcSt11char_traitsIcESaIcEERSt13basic_ostreamIT_T0_ES7_RKNSt7__cxx1112basic_stringIS4_S5_T1_EE@PLT
.Ltmp48:
	movq	%rax, -408(%rbp)                # 8-byte Spill
	jmp	.LBB10_41
.LBB10_41:                              #   in Loop: Header=BB10_37 Depth=1
.Ltmp49:
	movq	-408(%rbp), %rdi                # 8-byte Reload
	leaq	.L.str.4(%rip), %rsi
	callq	_ZStlsISt11char_traitsIcEERSt13basic_ostreamIcT_ES5_PKc@PLT
.Ltmp50:
	jmp	.LBB10_42
.LBB10_42:                              #   in Loop: Header=BB10_37 Depth=1
	jmp	.LBB10_46
.LBB10_43:                              #   in Loop: Header=BB10_37 Depth=1
	movq	-336(%rbp), %rsi
.Ltmp41:
	movq	_ZSt4cout@GOTPCREL(%rip), %rdi
	callq	_ZStlsIcSt11char_traitsIcESaIcEERSt13basic_ostreamIT_T0_ES7_RKNSt7__cxx1112basic_stringIS4_S5_T1_EE@PLT
.Ltmp42:
	movq	%rax, -416(%rbp)                # 8-byte Spill
	jmp	.LBB10_44
.LBB10_44:                              #   in Loop: Header=BB10_37 Depth=1
.Ltmp43:
	movq	-416(%rbp), %rdi                # 8-byte Reload
	movl	$10, %esi
	callq	_ZStlsISt11char_traitsIcEERSt13basic_ostreamIcT_ES5_c@PLT
.Ltmp44:
	jmp	.LBB10_45
.LBB10_45:                              #   in Loop: Header=BB10_37 Depth=1
	jmp	.LBB10_46
.LBB10_46:                              #   in Loop: Header=BB10_37 Depth=1
	jmp	.LBB10_47
.LBB10_47:                              #   in Loop: Header=BB10_37 Depth=1
	leaq	-240(%rbp), %rdi
	callq	_ZN9__gnu_cxx17__normal_iteratorIP6LsItemSt6vectorIS1_SaIS1_EEEppEv
	jmp	.LBB10_37
.LBB10_48:
	movl	$0, -252(%rbp)
	movl	$1, -280(%rbp)
	leaq	-144(%rbp), %rdi
	callq	_ZNSt6vectorI6LsItemSaIS0_EED2Ev
	jmp	.LBB10_50
.LBB10_49:
	leaq	-144(%rbp), %rdi
	callq	_ZNSt6vectorI6LsItemSaIS0_EED2Ev
	jmp	.LBB10_52
.LBB10_50:
	leaq	-48(%rbp), %rdi
	callq	_ZNSt10filesystem7__cxx114pathD2Ev
	movl	-252(%rbp), %eax
	movl	%eax, -420(%rbp)                # 4-byte Spill
	movq	%fs:40, %rax
	movq	-8(%rbp), %rcx
	cmpq	%rcx, %rax
	jne	.LBB10_55
# %bb.51:
	movl	-420(%rbp), %eax                # 4-byte Reload
	addq	$432, %rsp                      # imm = 0x1B0
	popq	%rbp
	.cfi_def_cfa %rsp, 8
	retq
.LBB10_52:
	.cfi_def_cfa %rbp, 16
	leaq	-48(%rbp), %rdi
	callq	_ZNSt10filesystem7__cxx114pathD2Ev
# %bb.53:
	movq	-272(%rbp), %rax
	movq	%rax, -432(%rbp)                # 8-byte Spill
	movq	%fs:40, %rax
	movq	-8(%rbp), %rcx
	cmpq	%rcx, %rax
	jne	.LBB10_55
# %bb.54:
	movq	-432(%rbp), %rdi                # 8-byte Reload
	callq	_Unwind_Resume@PLT
.LBB10_55:
	callq	__stack_chk_fail@PLT
.Lfunc_end10:
	.size	_Z2lsRKSt6vectorISt17basic_string_viewIcSt11char_traitsIcEESaIS3_EE, .Lfunc_end10-_Z2lsRKSt6vectorISt17basic_string_viewIcSt11char_traitsIcEESaIS3_EE
	.cfi_endproc
	.section	.gcc_except_table,"a",@progbits
	.p2align	2, 0x0
GCC_except_table10:
.Lexception3:
	.byte	255                             # @LPStart Encoding = omit
	.byte	255                             # @TType Encoding = omit
	.byte	1                               # Call site Encoding = uleb128
	.uleb128 .Lcst_end3-.Lcst_begin3
.Lcst_begin3:
	.uleb128 .Ltmp26-.Lfunc_begin3          # >> Call Site 1 <<
	.uleb128 .Ltmp35-.Ltmp26                #   Call between .Ltmp26 and .Ltmp35
	.uleb128 .Ltmp36-.Lfunc_begin3          #     jumps to .Ltmp36
	.byte	0                               #   On action: cleanup
	.uleb128 .Ltmp37-.Lfunc_begin3          # >> Call Site 2 <<
	.uleb128 .Ltmp38-.Ltmp37                #   Call between .Ltmp37 and .Ltmp38
	.uleb128 .Ltmp51-.Lfunc_begin3          #     jumps to .Ltmp51
	.byte	0                               #   On action: cleanup
	.uleb128 .Ltmp52-.Lfunc_begin3          # >> Call Site 3 <<
	.uleb128 .Ltmp53-.Ltmp52                #   Call between .Ltmp52 and .Ltmp53
	.uleb128 .Ltmp64-.Lfunc_begin3          #     jumps to .Ltmp64
	.byte	0                               #   On action: cleanup
	.uleb128 .Ltmp54-.Lfunc_begin3          # >> Call Site 4 <<
	.uleb128 .Ltmp55-.Ltmp54                #   Call between .Ltmp54 and .Ltmp55
	.uleb128 .Ltmp56-.Lfunc_begin3          #     jumps to .Ltmp56
	.byte	0                               #   On action: cleanup
	.uleb128 .Ltmp57-.Lfunc_begin3          # >> Call Site 5 <<
	.uleb128 .Ltmp60-.Ltmp57                #   Call between .Ltmp57 and .Ltmp60
	.uleb128 .Ltmp61-.Lfunc_begin3          #     jumps to .Ltmp61
	.byte	0                               #   On action: cleanup
	.uleb128 .Ltmp62-.Lfunc_begin3          # >> Call Site 6 <<
	.uleb128 .Ltmp63-.Ltmp62                #   Call between .Ltmp62 and .Ltmp63
	.uleb128 .Ltmp64-.Lfunc_begin3          #     jumps to .Ltmp64
	.byte	0                               #   On action: cleanup
	.uleb128 .Ltmp39-.Lfunc_begin3          # >> Call Site 7 <<
	.uleb128 .Ltmp44-.Ltmp39                #   Call between .Ltmp39 and .Ltmp44
	.uleb128 .Ltmp51-.Lfunc_begin3          #     jumps to .Ltmp51
	.byte	0                               #   On action: cleanup
	.uleb128 .Ltmp44-.Lfunc_begin3          # >> Call Site 8 <<
	.uleb128 .Lfunc_end10-.Ltmp44           #   Call between .Ltmp44 and .Lfunc_end10
	.byte	0                               #     has no landing pad
	.byte	0                               #   On action: cleanup
.Lcst_end3:
	.p2align	2, 0x0
                                        # -- End function
	.section	.text._ZNSt10filesystem7__cxx114pathC2Ev,"axG",@progbits,_ZNSt10filesystem7__cxx114pathC2Ev,comdat
	.weak	_ZNSt10filesystem7__cxx114pathC2Ev # -- Begin function _ZNSt10filesystem7__cxx114pathC2Ev
	.p2align	4, 0x90
	.type	_ZNSt10filesystem7__cxx114pathC2Ev,@function
_ZNSt10filesystem7__cxx114pathC2Ev:     # @_ZNSt10filesystem7__cxx114pathC2Ev
.Lfunc_begin4:
	.cfi_startproc
	.cfi_personality 155, DW.ref.__gxx_personality_v0
	.cfi_lsda 27, .Lexception4
# %bb.0:
	pushq	%rbp
	.cfi_def_cfa_offset 16
	.cfi_offset %rbp, -16
	movq	%rsp, %rbp
	.cfi_def_cfa_register %rbp
	subq	$16, %rsp
	movq	%rdi, -8(%rbp)
	movq	-8(%rbp), %rdi
	movq	%rdi, -16(%rbp)                 # 8-byte Spill
	callq	_ZNSt7__cxx1112basic_stringIcSt11char_traitsIcESaIcEEC1Ev@PLT
	movq	-16(%rbp), %rdi                 # 8-byte Reload
	addq	$32, %rdi
.Ltmp65:
	callq	_ZNSt10filesystem7__cxx114path5_ListC1Ev@PLT
.Ltmp66:
	jmp	.LBB11_1
.LBB11_1:
	addq	$16, %rsp
	popq	%rbp
	.cfi_def_cfa %rsp, 8
	retq
.LBB11_2:
	.cfi_def_cfa %rbp, 16
.Ltmp67:
	movq	%rax, %rdi
                                        # kill: def $eax killed $edx killed $rdx
	callq	__clang_call_terminate
.Lfunc_end11:
	.size	_ZNSt10filesystem7__cxx114pathC2Ev, .Lfunc_end11-_ZNSt10filesystem7__cxx114pathC2Ev
	.cfi_endproc
	.section	.gcc_except_table._ZNSt10filesystem7__cxx114pathC2Ev,"aG",@progbits,_ZNSt10filesystem7__cxx114pathC2Ev,comdat
	.p2align	2, 0x0
GCC_except_table11:
.Lexception4:
	.byte	255                             # @LPStart Encoding = omit
	.byte	155                             # @TType Encoding = indirect pcrel sdata4
	.uleb128 .Lttbase1-.Lttbaseref1
.Lttbaseref1:
	.byte	1                               # Call site Encoding = uleb128
	.uleb128 .Lcst_end4-.Lcst_begin4
.Lcst_begin4:
	.uleb128 .Ltmp65-.Lfunc_begin4          # >> Call Site 1 <<
	.uleb128 .Ltmp66-.Ltmp65                #   Call between .Ltmp65 and .Ltmp66
	.uleb128 .Ltmp67-.Lfunc_begin4          #     jumps to .Ltmp67
	.byte	1                               #   On action: 1
.Lcst_end4:
	.byte	1                               # >> Action Record 1 <<
                                        #   Catch TypeInfo 1
	.byte	0                               #   No further actions
	.p2align	2, 0x0
                                        # >> Catch TypeInfos <<
	.long	0                               # TypeInfo 1
.Lttbase1:
	.p2align	2, 0x0
                                        # -- End function
	.section	.text._ZNKSt6vectorISt17basic_string_viewIcSt11char_traitsIcEESaIS3_EE4sizeEv,"axG",@progbits,_ZNKSt6vectorISt17basic_string_viewIcSt11char_traitsIcEESaIS3_EE4sizeEv,comdat
	.weak	_ZNKSt6vectorISt17basic_string_viewIcSt11char_traitsIcEESaIS3_EE4sizeEv # -- Begin function _ZNKSt6vectorISt17basic_string_viewIcSt11char_traitsIcEESaIS3_EE4sizeEv
	.p2align	4, 0x90
	.type	_ZNKSt6vectorISt17basic_string_viewIcSt11char_traitsIcEESaIS3_EE4sizeEv,@function
_ZNKSt6vectorISt17basic_string_viewIcSt11char_traitsIcEESaIS3_EE4sizeEv: # @_ZNKSt6vectorISt17basic_string_viewIcSt11char_traitsIcEESaIS3_EE4sizeEv
	.cfi_startproc
# %bb.0:
	pushq	%rbp
	.cfi_def_cfa_offset 16
	.cfi_offset %rbp, -16
	movq	%rsp, %rbp
	.cfi_def_cfa_register %rbp
	movq	%rdi, -8(%rbp)
	movq	-8(%rbp), %rcx
	movq	8(%rcx), %rax
	movq	(%rcx), %rcx
	subq	%rcx, %rax
	sarq	$4, %rax
	popq	%rbp
	.cfi_def_cfa %rsp, 8
	retq
.Lfunc_end12:
	.size	_ZNKSt6vectorISt17basic_string_viewIcSt11char_traitsIcEESaIS3_EE4sizeEv, .Lfunc_end12-_ZNKSt6vectorISt17basic_string_viewIcSt11char_traitsIcEESaIS3_EE4sizeEv
	.cfi_endproc
                                        # -- End function
	.section	.text._ZNSt10filesystem7__cxx114pathaSIA2_cEERNSt9enable_ifIX13__is_path_srcIT_EES1_E4typeERKS5_,"axG",@progbits,_ZNSt10filesystem7__cxx114pathaSIA2_cEERNSt9enable_ifIX13__is_path_srcIT_EES1_E4typeERKS5_,comdat
	.weak	_ZNSt10filesystem7__cxx114pathaSIA2_cEERNSt9enable_ifIX13__is_path_srcIT_EES1_E4typeERKS5_ # -- Begin function _ZNSt10filesystem7__cxx114pathaSIA2_cEERNSt9enable_ifIX13__is_path_srcIT_EES1_E4typeERKS5_
	.p2align	4, 0x90
	.type	_ZNSt10filesystem7__cxx114pathaSIA2_cEERNSt9enable_ifIX13__is_path_srcIT_EES1_E4typeERKS5_,@function
_ZNSt10filesystem7__cxx114pathaSIA2_cEERNSt9enable_ifIX13__is_path_srcIT_EES1_E4typeERKS5_: # @_ZNSt10filesystem7__cxx114pathaSIA2_cEERNSt9enable_ifIX13__is_path_srcIT_EES1_E4typeERKS5_
	.cfi_startproc
# %bb.0:
	pushq	%rbp
	.cfi_def_cfa_offset 16
	.cfi_offset %rbp, -16
	movq	%rsp, %rbp
	.cfi_def_cfa_register %rbp
	subq	$96, %rsp
	movq	%fs:40, %rax
	movq	%rax, -8(%rbp)
	movq	%rdi, -56(%rbp)
	movq	%rsi, -64(%rbp)
	movq	-56(%rbp), %rax
	movq	%rax, -88(%rbp)                 # 8-byte Spill
	movq	-64(%rbp), %rsi
	leaq	-48(%rbp), %rdi
	movq	%rdi, -80(%rbp)                 # 8-byte Spill
	movl	$2, %edx
	callq	_ZNSt10filesystem7__cxx114pathC2IA2_cS1_EERKT_NS1_6formatE
	movq	-88(%rbp), %rdi                 # 8-byte Reload
	movq	-80(%rbp), %rsi                 # 8-byte Reload
	callq	_ZNSt10filesystem7__cxx114pathaSEOS1_
	movq	-80(%rbp), %rdi                 # 8-byte Reload
	movq	%rax, -72(%rbp)                 # 8-byte Spill
	callq	_ZNSt10filesystem7__cxx114pathD2Ev
	movq	%fs:40, %rax
	movq	-8(%rbp), %rcx
	cmpq	%rcx, %rax
	jne	.LBB13_2
# %bb.1:
	movq	-72(%rbp), %rax                 # 8-byte Reload
	addq	$96, %rsp
	popq	%rbp
	.cfi_def_cfa %rsp, 8
	retq
.LBB13_2:
	.cfi_def_cfa %rbp, 16
	callq	__stack_chk_fail@PLT
.Lfunc_end13:
	.size	_ZNSt10filesystem7__cxx114pathaSIA2_cEERNSt9enable_ifIX13__is_path_srcIT_EES1_E4typeERKS5_, .Lfunc_end13-_ZNSt10filesystem7__cxx114pathaSIA2_cEERNSt9enable_ifIX13__is_path_srcIT_EES1_E4typeERKS5_
	.cfi_endproc
                                        # -- End function
	.section	.text._ZNKSt6vectorISt17basic_string_viewIcSt11char_traitsIcEESaIS3_EEixEm,"axG",@progbits,_ZNKSt6vectorISt17basic_string_viewIcSt11char_traitsIcEESaIS3_EEixEm,comdat
	.weak	_ZNKSt6vectorISt17basic_string_viewIcSt11char_traitsIcEESaIS3_EEixEm # -- Begin function _ZNKSt6vectorISt17basic_string_viewIcSt11char_traitsIcEESaIS3_EEixEm
	.p2align	4, 0x90
	.type	_ZNKSt6vectorISt17basic_string_viewIcSt11char_traitsIcEESaIS3_EEixEm,@function
_ZNKSt6vectorISt17basic_string_viewIcSt11char_traitsIcEESaIS3_EEixEm: # @_ZNKSt6vectorISt17basic_string_viewIcSt11char_traitsIcEESaIS3_EEixEm
	.cfi_startproc
# %bb.0:
	pushq	%rbp
	.cfi_def_cfa_offset 16
	.cfi_offset %rbp, -16
	movq	%rsp, %rbp
	.cfi_def_cfa_register %rbp
	movq	%rdi, -8(%rbp)
	movq	%rsi, -16(%rbp)
	movq	-8(%rbp), %rax
	movq	(%rax), %rax
	movq	-16(%rbp), %rcx
	shlq	$4, %rcx
	addq	%rcx, %rax
	popq	%rbp
	.cfi_def_cfa %rsp, 8
	retq
.Lfunc_end14:
	.size	_ZNKSt6vectorISt17basic_string_viewIcSt11char_traitsIcEESaIS3_EEixEm, .Lfunc_end14-_ZNKSt6vectorISt17basic_string_viewIcSt11char_traitsIcEESaIS3_EEixEm
	.cfi_endproc
                                        # -- End function
	.section	.text._ZNSt10filesystem7__cxx114pathaSISt17basic_string_viewIcSt11char_traitsIcEEEERNSt9enable_ifIX13__is_path_srcIT_EES1_E4typeERKS8_,"axG",@progbits,_ZNSt10filesystem7__cxx114pathaSISt17basic_string_viewIcSt11char_traitsIcEEEERNSt9enable_ifIX13__is_path_srcIT_EES1_E4typeERKS8_,comdat
	.weak	_ZNSt10filesystem7__cxx114pathaSISt17basic_string_viewIcSt11char_traitsIcEEEERNSt9enable_ifIX13__is_path_srcIT_EES1_E4typeERKS8_ # -- Begin function _ZNSt10filesystem7__cxx114pathaSISt17basic_string_viewIcSt11char_traitsIcEEEERNSt9enable_ifIX13__is_path_srcIT_EES1_E4typeERKS8_
	.p2align	4, 0x90
	.type	_ZNSt10filesystem7__cxx114pathaSISt17basic_string_viewIcSt11char_traitsIcEEEERNSt9enable_ifIX13__is_path_srcIT_EES1_E4typeERKS8_,@function
_ZNSt10filesystem7__cxx114pathaSISt17basic_string_viewIcSt11char_traitsIcEEEERNSt9enable_ifIX13__is_path_srcIT_EES1_E4typeERKS8_: # @_ZNSt10filesystem7__cxx114pathaSISt17basic_string_viewIcSt11char_traitsIcEEEERNSt9enable_ifIX13__is_path_srcIT_EES1_E4typeERKS8_
	.cfi_startproc
# %bb.0:
	pushq	%rbp
	.cfi_def_cfa_offset 16
	.cfi_offset %rbp, -16
	movq	%rsp, %rbp
	.cfi_def_cfa_register %rbp
	subq	$96, %rsp
	movq	%fs:40, %rax
	movq	%rax, -8(%rbp)
	movq	%rdi, -56(%rbp)
	movq	%rsi, -64(%rbp)
	movq	-56(%rbp), %rax
	movq	%rax, -88(%rbp)                 # 8-byte Spill
	movq	-64(%rbp), %rsi
	leaq	-48(%rbp), %rdi
	movq	%rdi, -80(%rbp)                 # 8-byte Spill
	movl	$2, %edx
	callq	_ZNSt10filesystem7__cxx114pathC2ISt17basic_string_viewIcSt11char_traitsIcEES1_EERKT_NS1_6formatE
	movq	-88(%rbp), %rdi                 # 8-byte Reload
	movq	-80(%rbp), %rsi                 # 8-byte Reload
	callq	_ZNSt10filesystem7__cxx114pathaSEOS1_
	movq	-80(%rbp), %rdi                 # 8-byte Reload
	movq	%rax, -72(%rbp)                 # 8-byte Spill
	callq	_ZNSt10filesystem7__cxx114pathD2Ev
	movq	%fs:40, %rax
	movq	-8(%rbp), %rcx
	cmpq	%rcx, %rax
	jne	.LBB15_2
# %bb.1:
	movq	-72(%rbp), %rax                 # 8-byte Reload
	addq	$96, %rsp
	popq	%rbp
	.cfi_def_cfa %rsp, 8
	retq
.LBB15_2:
	.cfi_def_cfa %rbp, 16
	callq	__stack_chk_fail@PLT
.Lfunc_end15:
	.size	_ZNSt10filesystem7__cxx114pathaSISt17basic_string_viewIcSt11char_traitsIcEEEERNSt9enable_ifIX13__is_path_srcIT_EES1_E4typeERKS8_, .Lfunc_end15-_ZNSt10filesystem7__cxx114pathaSISt17basic_string_viewIcSt11char_traitsIcEEEERNSt9enable_ifIX13__is_path_srcIT_EES1_E4typeERKS8_
	.cfi_endproc
                                        # -- End function
	.section	.text._ZNSt10filesystem6existsERKNS_7__cxx114pathE,"axG",@progbits,_ZNSt10filesystem6existsERKNS_7__cxx114pathE,comdat
	.weak	_ZNSt10filesystem6existsERKNS_7__cxx114pathE # -- Begin function _ZNSt10filesystem6existsERKNS_7__cxx114pathE
	.p2align	4, 0x90
	.type	_ZNSt10filesystem6existsERKNS_7__cxx114pathE,@function
_ZNSt10filesystem6existsERKNS_7__cxx114pathE: # @_ZNSt10filesystem6existsERKNS_7__cxx114pathE
	.cfi_startproc
# %bb.0:
	pushq	%rbp
	.cfi_def_cfa_offset 16
	.cfi_offset %rbp, -16
	movq	%rsp, %rbp
	.cfi_def_cfa_register %rbp
	subq	$16, %rsp
	movq	%rdi, -8(%rbp)
	movq	-8(%rbp), %rdi
	callq	_ZNSt10filesystem6statusERKNS_7__cxx114pathE@PLT
	movq	%rax, -16(%rbp)
	movq	-16(%rbp), %rdi
	callq	_ZNSt10filesystem6existsENS_11file_statusE
	andb	$1, %al
	movzbl	%al, %eax
	addq	$16, %rsp
	popq	%rbp
	.cfi_def_cfa %rsp, 8
	retq
.Lfunc_end16:
	.size	_ZNSt10filesystem6existsERKNS_7__cxx114pathE, .Lfunc_end16-_ZNSt10filesystem6existsERKNS_7__cxx114pathE
	.cfi_endproc
                                        # -- End function
	.section	.text._ZNSt10filesystem7__cxx11lsIcSt11char_traitsIcEEERSt13basic_ostreamIT_T0_ES8_RKNS0_4pathE,"axG",@progbits,_ZNSt10filesystem7__cxx11lsIcSt11char_traitsIcEEERSt13basic_ostreamIT_T0_ES8_RKNS0_4pathE,comdat
	.weak	_ZNSt10filesystem7__cxx11lsIcSt11char_traitsIcEEERSt13basic_ostreamIT_T0_ES8_RKNS0_4pathE # -- Begin function _ZNSt10filesystem7__cxx11lsIcSt11char_traitsIcEEERSt13basic_ostreamIT_T0_ES8_RKNS0_4pathE
	.p2align	4, 0x90
	.type	_ZNSt10filesystem7__cxx11lsIcSt11char_traitsIcEEERSt13basic_ostreamIT_T0_ES8_RKNS0_4pathE,@function
_ZNSt10filesystem7__cxx11lsIcSt11char_traitsIcEEERSt13basic_ostreamIT_T0_ES8_RKNS0_4pathE: # @_ZNSt10filesystem7__cxx11lsIcSt11char_traitsIcEEERSt13basic_ostreamIT_T0_ES8_RKNS0_4pathE
.Lfunc_begin5:
	.cfi_startproc
	.cfi_personality 155, DW.ref.__gxx_personality_v0
	.cfi_lsda 27, .Lexception5
# %bb.0:
	pushq	%rbp
	.cfi_def_cfa_offset 16
	.cfi_offset %rbp, -16
	movq	%rsp, %rbp
	.cfi_def_cfa_register %rbp
	subq	$176, %rsp
	movq	%fs:40, %rax
	movq	%rax, -8(%rbp)
	movq	%rdi, -104(%rbp)
	movq	%rsi, -112(%rbp)
	movq	-104(%rbp), %rax
	movq	%rax, -136(%rbp)                # 8-byte Spill
	movq	-112(%rbp), %rsi
	leaq	-64(%rbp), %rdx
	movq	%rdx, -96(%rbp)
	movq	-96(%rbp), %rax
	movq	%rax, -72(%rbp)
.Ltmp68:
	leaq	-40(%rbp), %rdi
	callq	_ZNKSt10filesystem7__cxx114path6stringIcSt11char_traitsIcESaIcEEENSt7__cxx1112basic_stringIT_T0_T1_EERKSA_
.Ltmp69:
	jmp	.LBB17_1
.LBB17_1:
.Ltmp71:
	leaq	-40(%rbp), %rdi
	movl	$34, %esi
	movl	$92, %edx
	callq	_ZSt6quotedIcSt11char_traitsIcESaIcEEDaRKNSt7__cxx1112basic_stringIT_T0_T1_EES5_S5_
.Ltmp72:
	movq	%rdx, -152(%rbp)                # 8-byte Spill
	movq	%rax, -144(%rbp)                # 8-byte Spill
	jmp	.LBB17_2
.LBB17_2:
	movq	-136(%rbp), %rdi                # 8-byte Reload
	movq	-152(%rbp), %rax                # 8-byte Reload
	movq	-144(%rbp), %rcx                # 8-byte Reload
	movq	%rcx, -56(%rbp)
	movq	%rax, -48(%rbp)
.Ltmp73:
	leaq	-56(%rbp), %rsi
	callq	_ZNSt8__detaillsIcSt11char_traitsIcERKNSt7__cxx1112basic_stringIcS2_SaIcEEEEERSt13basic_ostreamIT_T0_ESD_RKNS_14_Quoted_stringIT1_SA_EE
.Ltmp74:
	jmp	.LBB17_3
.LBB17_3:
	leaq	-40(%rbp), %rdi
	callq	_ZNSt7__cxx1112basic_stringIcSt11char_traitsIcESaIcEED1Ev@PLT
	leaq	-64(%rbp), %rax
	movq	%rax, -88(%rbp)
	movq	-88(%rbp), %rdi
	callq	_ZNSt15__new_allocatorIcED2Ev
	movq	-104(%rbp), %rax
	movq	%rax, -160(%rbp)                # 8-byte Spill
	movq	%fs:40, %rax
	movq	-8(%rbp), %rcx
	cmpq	%rcx, %rax
	jne	.LBB17_10
# %bb.4:
	movq	-160(%rbp), %rax                # 8-byte Reload
	addq	$176, %rsp
	popq	%rbp
	.cfi_def_cfa %rsp, 8
	retq
.LBB17_5:
	.cfi_def_cfa %rbp, 16
.Ltmp70:
	movq	%rax, %rcx
	movl	%edx, %eax
	movq	%rcx, -120(%rbp)
	movl	%eax, -124(%rbp)
	jmp	.LBB17_7
.LBB17_6:
.Ltmp75:
	movq	%rax, %rcx
	movl	%edx, %eax
	movq	%rcx, -120(%rbp)
	movl	%eax, -124(%rbp)
	leaq	-40(%rbp), %rdi
	callq	_ZNSt7__cxx1112basic_stringIcSt11char_traitsIcESaIcEED1Ev@PLT
.LBB17_7:
	leaq	-64(%rbp), %rax
	movq	%rax, -80(%rbp)
	movq	-80(%rbp), %rdi
	callq	_ZNSt15__new_allocatorIcED2Ev
# %bb.8:
	movq	-120(%rbp), %rax
	movq	%rax, -168(%rbp)                # 8-byte Spill
	movq	%fs:40, %rax
	movq	-8(%rbp), %rcx
	cmpq	%rcx, %rax
	jne	.LBB17_10
# %bb.9:
	movq	-168(%rbp), %rdi                # 8-byte Reload
	callq	_Unwind_Resume@PLT
.LBB17_10:
	callq	__stack_chk_fail@PLT
.Lfunc_end17:
	.size	_ZNSt10filesystem7__cxx11lsIcSt11char_traitsIcEEERSt13basic_ostreamIT_T0_ES8_RKNS0_4pathE, .Lfunc_end17-_ZNSt10filesystem7__cxx11lsIcSt11char_traitsIcEEERSt13basic_ostreamIT_T0_ES8_RKNS0_4pathE
	.cfi_endproc
	.section	.gcc_except_table._ZNSt10filesystem7__cxx11lsIcSt11char_traitsIcEEERSt13basic_ostreamIT_T0_ES8_RKNS0_4pathE,"aG",@progbits,_ZNSt10filesystem7__cxx11lsIcSt11char_traitsIcEEERSt13basic_ostreamIT_T0_ES8_RKNS0_4pathE,comdat
	.p2align	2, 0x0
GCC_except_table17:
.Lexception5:
	.byte	255                             # @LPStart Encoding = omit
	.byte	255                             # @TType Encoding = omit
	.byte	1                               # Call site Encoding = uleb128
	.uleb128 .Lcst_end5-.Lcst_begin5
.Lcst_begin5:
	.uleb128 .Ltmp68-.Lfunc_begin5          # >> Call Site 1 <<
	.uleb128 .Ltmp69-.Ltmp68                #   Call between .Ltmp68 and .Ltmp69
	.uleb128 .Ltmp70-.Lfunc_begin5          #     jumps to .Ltmp70
	.byte	0                               #   On action: cleanup
	.uleb128 .Ltmp71-.Lfunc_begin5          # >> Call Site 2 <<
	.uleb128 .Ltmp74-.Ltmp71                #   Call between .Ltmp71 and .Ltmp74
	.uleb128 .Ltmp75-.Lfunc_begin5          #     jumps to .Ltmp75
	.byte	0                               #   On action: cleanup
	.uleb128 .Ltmp74-.Lfunc_begin5          # >> Call Site 3 <<
	.uleb128 .Lfunc_end17-.Ltmp74           #   Call between .Ltmp74 and .Lfunc_end17
	.byte	0                               #     has no landing pad
	.byte	0                               #   On action: cleanup
.Lcst_end5:
	.p2align	2, 0x0
                                        # -- End function
	.section	.text._ZNSt6vectorI6LsItemSaIS0_EEC2Ev,"axG",@progbits,_ZNSt6vectorI6LsItemSaIS0_EEC2Ev,comdat
	.weak	_ZNSt6vectorI6LsItemSaIS0_EEC2Ev # -- Begin function _ZNSt6vectorI6LsItemSaIS0_EEC2Ev
	.p2align	4, 0x90
	.type	_ZNSt6vectorI6LsItemSaIS0_EEC2Ev,@function
_ZNSt6vectorI6LsItemSaIS0_EEC2Ev:       # @_ZNSt6vectorI6LsItemSaIS0_EEC2Ev
	.cfi_startproc
# %bb.0:
	pushq	%rbp
	.cfi_def_cfa_offset 16
	.cfi_offset %rbp, -16
	movq	%rsp, %rbp
	.cfi_def_cfa_register %rbp
	subq	$16, %rsp
	movq	%rdi, -8(%rbp)
	movq	-8(%rbp), %rdi
	callq	_ZNSt12_Vector_baseI6LsItemSaIS0_EEC2Ev
	addq	$16, %rsp
	popq	%rbp
	.cfi_def_cfa %rsp, 8
	retq
.Lfunc_end18:
	.size	_ZNSt6vectorI6LsItemSaIS0_EEC2Ev, .Lfunc_end18-_ZNSt6vectorI6LsItemSaIS0_EEC2Ev
	.cfi_endproc
                                        # -- End function
	.section	.text._ZNSt10filesystem7__cxx1118directory_iteratorC2ERKNS0_4pathE,"axG",@progbits,_ZNSt10filesystem7__cxx1118directory_iteratorC2ERKNS0_4pathE,comdat
	.weak	_ZNSt10filesystem7__cxx1118directory_iteratorC2ERKNS0_4pathE # -- Begin function _ZNSt10filesystem7__cxx1118directory_iteratorC2ERKNS0_4pathE
	.p2align	4, 0x90
	.type	_ZNSt10filesystem7__cxx1118directory_iteratorC2ERKNS0_4pathE,@function
_ZNSt10filesystem7__cxx1118directory_iteratorC2ERKNS0_4pathE: # @_ZNSt10filesystem7__cxx1118directory_iteratorC2ERKNS0_4pathE
	.cfi_startproc
# %bb.0:
	pushq	%rbp
	.cfi_def_cfa_offset 16
	.cfi_offset %rbp, -16
	movq	%rsp, %rbp
	.cfi_def_cfa_register %rbp
	subq	$16, %rsp
	movq	%rdi, -8(%rbp)
	movq	%rsi, -16(%rbp)
	movq	-8(%rbp), %rdi
	movq	-16(%rbp), %rsi
	xorl	%edx, %edx
	xorl	%eax, %eax
	movl	%eax, %ecx
	callq	_ZNSt10filesystem7__cxx1118directory_iteratorC2ERKNS0_4pathENS_17directory_optionsEPSt10error_code@PLT
	addq	$16, %rsp
	popq	%rbp
	.cfi_def_cfa %rsp, 8
	retq
.Lfunc_end19:
	.size	_ZNSt10filesystem7__cxx1118directory_iteratorC2ERKNS0_4pathE, .Lfunc_end19-_ZNSt10filesystem7__cxx1118directory_iteratorC2ERKNS0_4pathE
	.cfi_endproc
                                        # -- End function
	.section	.text._ZNSt10filesystem7__cxx115beginENS0_18directory_iteratorE,"axG",@progbits,_ZNSt10filesystem7__cxx115beginENS0_18directory_iteratorE,comdat
	.weak	_ZNSt10filesystem7__cxx115beginENS0_18directory_iteratorE # -- Begin function _ZNSt10filesystem7__cxx115beginENS0_18directory_iteratorE
	.p2align	4, 0x90
	.type	_ZNSt10filesystem7__cxx115beginENS0_18directory_iteratorE,@function
_ZNSt10filesystem7__cxx115beginENS0_18directory_iteratorE: # @_ZNSt10filesystem7__cxx115beginENS0_18directory_iteratorE
	.cfi_startproc
# %bb.0:
	pushq	%rbp
	.cfi_def_cfa_offset 16
	.cfi_offset %rbp, -16
	movq	%rsp, %rbp
	.cfi_def_cfa_register %rbp
	subq	$16, %rsp
	movq	%rdi, %rax
	movq	%rax, -16(%rbp)                 # 8-byte Spill
	movq	%rdi, -8(%rbp)
	callq	_ZNSt10filesystem7__cxx1118directory_iteratorC2EOS1_
	movq	-16(%rbp), %rax                 # 8-byte Reload
	addq	$16, %rsp
	popq	%rbp
	.cfi_def_cfa %rsp, 8
	retq
.Lfunc_end20:
	.size	_ZNSt10filesystem7__cxx115beginENS0_18directory_iteratorE, .Lfunc_end20-_ZNSt10filesystem7__cxx115beginENS0_18directory_iteratorE
	.cfi_endproc
                                        # -- End function
	.section	.text._ZNSt10filesystem7__cxx1118directory_iteratorC2ERKS1_,"axG",@progbits,_ZNSt10filesystem7__cxx1118directory_iteratorC2ERKS1_,comdat
	.weak	_ZNSt10filesystem7__cxx1118directory_iteratorC2ERKS1_ # -- Begin function _ZNSt10filesystem7__cxx1118directory_iteratorC2ERKS1_
	.p2align	4, 0x90
	.type	_ZNSt10filesystem7__cxx1118directory_iteratorC2ERKS1_,@function
_ZNSt10filesystem7__cxx1118directory_iteratorC2ERKS1_: # @_ZNSt10filesystem7__cxx1118directory_iteratorC2ERKS1_
	.cfi_startproc
# %bb.0:
	pushq	%rbp
	.cfi_def_cfa_offset 16
	.cfi_offset %rbp, -16
	movq	%rsp, %rbp
	.cfi_def_cfa_register %rbp
	subq	$16, %rsp
	movq	%rdi, -8(%rbp)
	movq	%rsi, -16(%rbp)
	movq	-8(%rbp), %rdi
	movq	-16(%rbp), %rsi
	callq	_ZNSt12__shared_ptrINSt10filesystem7__cxx114_DirELN9__gnu_cxx12_Lock_policyE2EEC2ERKS5_
	addq	$16, %rsp
	popq	%rbp
	.cfi_def_cfa %rsp, 8
	retq
.Lfunc_end21:
	.size	_ZNSt10filesystem7__cxx1118directory_iteratorC2ERKS1_, .Lfunc_end21-_ZNSt10filesystem7__cxx1118directory_iteratorC2ERKS1_
	.cfi_endproc
                                        # -- End function
	.section	.text._ZNSt10filesystem7__cxx1118directory_iteratorD2Ev,"axG",@progbits,_ZNSt10filesystem7__cxx1118directory_iteratorD2Ev,comdat
	.weak	_ZNSt10filesystem7__cxx1118directory_iteratorD2Ev # -- Begin function _ZNSt10filesystem7__cxx1118directory_iteratorD2Ev
	.p2align	4, 0x90
	.type	_ZNSt10filesystem7__cxx1118directory_iteratorD2Ev,@function
_ZNSt10filesystem7__cxx1118directory_iteratorD2Ev: # @_ZNSt10filesystem7__cxx1118directory_iteratorD2Ev
	.cfi_startproc
# %bb.0:
	pushq	%rbp
	.cfi_def_cfa_offset 16
	.cfi_offset %rbp, -16
	movq	%rsp, %rbp
	.cfi_def_cfa_register %rbp
	subq	$16, %rsp
	movq	%rdi, -8(%rbp)
	movq	-8(%rbp), %rdi
	callq	_ZNSt12__shared_ptrINSt10filesystem7__cxx114_DirELN9__gnu_cxx12_Lock_policyE2EED2Ev
	addq	$16, %rsp
	popq	%rbp
	.cfi_def_cfa %rsp, 8
	retq
.Lfunc_end22:
	.size	_ZNSt10filesystem7__cxx1118directory_iteratorD2Ev, .Lfunc_end22-_ZNSt10filesystem7__cxx1118directory_iteratorD2Ev
	.cfi_endproc
                                        # -- End function
	.section	.text._ZNSt10filesystem7__cxx113endENS0_18directory_iteratorE,"axG",@progbits,_ZNSt10filesystem7__cxx113endENS0_18directory_iteratorE,comdat
	.weak	_ZNSt10filesystem7__cxx113endENS0_18directory_iteratorE # -- Begin function _ZNSt10filesystem7__cxx113endENS0_18directory_iteratorE
	.p2align	4, 0x90
	.type	_ZNSt10filesystem7__cxx113endENS0_18directory_iteratorE,@function
_ZNSt10filesystem7__cxx113endENS0_18directory_iteratorE: # @_ZNSt10filesystem7__cxx113endENS0_18directory_iteratorE
	.cfi_startproc
# %bb.0:
	pushq	%rbp
	.cfi_def_cfa_offset 16
	.cfi_offset %rbp, -16
	movq	%rsp, %rbp
	.cfi_def_cfa_register %rbp
	subq	$32, %rsp
	movq	%rdi, -24(%rbp)                 # 8-byte Spill
	movq	%rdi, %rax
	movq	%rax, -16(%rbp)                 # 8-byte Spill
	movq	%rdi, -8(%rbp)
	xorl	%esi, %esi
	movl	$16, %edx
	callq	memset@PLT
	movq	-24(%rbp), %rdi                 # 8-byte Reload
	callq	_ZNSt10filesystem7__cxx1118directory_iteratorC2Ev
	movq	-16(%rbp), %rax                 # 8-byte Reload
	addq	$32, %rsp
	popq	%rbp
	.cfi_def_cfa %rsp, 8
	retq
.Lfunc_end23:
	.size	_ZNSt10filesystem7__cxx113endENS0_18directory_iteratorE, .Lfunc_end23-_ZNSt10filesystem7__cxx113endENS0_18directory_iteratorE
	.cfi_endproc
                                        # -- End function
	.section	.text._ZNSt10filesystem7__cxx11neERKNS0_18directory_iteratorES3_,"axG",@progbits,_ZNSt10filesystem7__cxx11neERKNS0_18directory_iteratorES3_,comdat
	.weak	_ZNSt10filesystem7__cxx11neERKNS0_18directory_iteratorES3_ # -- Begin function _ZNSt10filesystem7__cxx11neERKNS0_18directory_iteratorES3_
	.p2align	4, 0x90
	.type	_ZNSt10filesystem7__cxx11neERKNS0_18directory_iteratorES3_,@function
_ZNSt10filesystem7__cxx11neERKNS0_18directory_iteratorES3_: # @_ZNSt10filesystem7__cxx11neERKNS0_18directory_iteratorES3_
	.cfi_startproc
# %bb.0:
	pushq	%rbp
	.cfi_def_cfa_offset 16
	.cfi_offset %rbp, -16
	movq	%rsp, %rbp
	.cfi_def_cfa_register %rbp
	subq	$16, %rsp
	movq	%rdi, -8(%rbp)
	movq	%rsi, -16(%rbp)
	movq	-8(%rbp), %rdi
	movq	-16(%rbp), %rsi
	callq	_ZNSt10filesystem7__cxx11eqERKNS0_18directory_iteratorES3_
	xorb	$-1, %al
	andb	$1, %al
	movzbl	%al, %eax
	addq	$16, %rsp
	popq	%rbp
	.cfi_def_cfa %rsp, 8
	retq
.Lfunc_end24:
	.size	_ZNSt10filesystem7__cxx11neERKNS0_18directory_iteratorES3_, .Lfunc_end24-_ZNSt10filesystem7__cxx11neERKNS0_18directory_iteratorES3_
	.cfi_endproc
                                        # -- End function
	.section	.text._ZNSt6vectorI6LsItemSaIS0_EE12emplace_backIJNSt7__cxx1112basic_stringIcSt11char_traitsIcESaIcEEEbEEERS0_DpOT_,"axG",@progbits,_ZNSt6vectorI6LsItemSaIS0_EE12emplace_backIJNSt7__cxx1112basic_stringIcSt11char_traitsIcESaIcEEEbEEERS0_DpOT_,comdat
	.weak	_ZNSt6vectorI6LsItemSaIS0_EE12emplace_backIJNSt7__cxx1112basic_stringIcSt11char_traitsIcESaIcEEEbEEERS0_DpOT_ # -- Begin function _ZNSt6vectorI6LsItemSaIS0_EE12emplace_backIJNSt7__cxx1112basic_stringIcSt11char_traitsIcESaIcEEEbEEERS0_DpOT_
	.p2align	4, 0x90
	.type	_ZNSt6vectorI6LsItemSaIS0_EE12emplace_backIJNSt7__cxx1112basic_stringIcSt11char_traitsIcESaIcEEEbEEERS0_DpOT_,@function
_ZNSt6vectorI6LsItemSaIS0_EE12emplace_backIJNSt7__cxx1112basic_stringIcSt11char_traitsIcESaIcEEEbEEERS0_DpOT_: # @_ZNSt6vectorI6LsItemSaIS0_EE12emplace_backIJNSt7__cxx1112basic_stringIcSt11char_traitsIcESaIcEEEbEEERS0_DpOT_
.Lfunc_begin6:
	.cfi_startproc
	.cfi_personality 155, DW.ref.__gxx_personality_v0
	.cfi_lsda 27, .Lexception6
# %bb.0:
	pushq	%rbp
	.cfi_def_cfa_offset 16
	.cfi_offset %rbp, -16
	movq	%rsp, %rbp
	.cfi_def_cfa_register %rbp
	subq	$192, %rsp
	movq	%fs:40, %rax
	movq	%rax, -8(%rbp)
	movq	%rdi, -128(%rbp)
	movq	%rsi, -136(%rbp)
	movq	%rdx, -144(%rbp)
	movq	-128(%rbp), %rcx
	movq	%rcx, -160(%rbp)                # 8-byte Spill
	movq	8(%rcx), %rax
	cmpq	16(%rcx), %rax
	je	.LBB25_5
# %bb.1:
	movq	-160(%rbp), %rsi                # 8-byte Reload
	movq	8(%rsi), %rdx
	movq	-136(%rbp), %rcx
	movq	-144(%rbp), %rax
	movq	%rsi, -96(%rbp)
	movq	%rdx, -104(%rbp)
	movq	%rcx, -112(%rbp)
	movq	%rax, -120(%rbp)
	movq	-96(%rbp), %rsi
	movq	-104(%rbp), %rdx
	movq	-112(%rbp), %rcx
	movq	-120(%rbp), %rax
	movq	%rsi, -48(%rbp)
	movq	%rdx, -56(%rbp)
	movq	%rcx, -64(%rbp)
	movq	%rax, -72(%rbp)
	movq	-56(%rbp), %rax
	movq	%rax, -176(%rbp)                # 8-byte Spill
	movq	-64(%rbp), %rsi
	leaq	-40(%rbp), %rdi
	movq	%rdi, -168(%rbp)                # 8-byte Spill
	callq	_ZNSt7__cxx1112basic_stringIcSt11char_traitsIcESaIcEEC1EOS4_@PLT
	movq	-176(%rbp), %rdi                # 8-byte Reload
	movq	-168(%rbp), %rsi                # 8-byte Reload
	movq	-72(%rbp), %rax
	movzbl	(%rax), %edx
.Ltmp76:
	andl	$1, %edx
	callq	_ZN6LsItemC2ENSt7__cxx1112basic_stringIcSt11char_traitsIcESaIcEEEb
.Ltmp77:
	jmp	.LBB25_4
.LBB25_2:
.Ltmp78:
	movq	%rax, %rcx
	movl	%edx, %eax
	movq	%rcx, -80(%rbp)
	movl	%eax, -84(%rbp)
	leaq	-40(%rbp), %rdi
	callq	_ZNSt7__cxx1112basic_stringIcSt11char_traitsIcESaIcEED1Ev@PLT
	movq	-80(%rbp), %rax
	movq	%rax, -184(%rbp)                # 8-byte Spill
	movq	%fs:40, %rax
	movq	-8(%rbp), %rcx
	cmpq	%rcx, %rax
	jne	.LBB25_8
# %bb.3:
	movq	-184(%rbp), %rdi                # 8-byte Reload
	callq	_Unwind_Resume@PLT
.LBB25_4:
	leaq	-40(%rbp), %rdi
	callq	_ZNSt7__cxx1112basic_stringIcSt11char_traitsIcESaIcEED1Ev@PLT
	movq	-160(%rbp), %rax                # 8-byte Reload
	movq	8(%rax), %rcx
	addq	$40, %rcx
	movq	%rcx, 8(%rax)
	jmp	.LBB25_6
.LBB25_5:
	movq	-160(%rbp), %rdi                # 8-byte Reload
	callq	_ZNSt6vectorI6LsItemSaIS0_EE3endEv
	movq	-160(%rbp), %rdi                # 8-byte Reload
	movq	%rax, -152(%rbp)
	movq	-136(%rbp), %rdx
	movq	-144(%rbp), %rcx
	movq	-152(%rbp), %rsi
	callq	_ZNSt6vectorI6LsItemSaIS0_EE17_M_realloc_insertIJNSt7__cxx1112basic_stringIcSt11char_traitsIcESaIcEEEbEEEvN9__gnu_cxx17__normal_iteratorIPS0_S2_EEDpOT_
.LBB25_6:
	movq	-160(%rbp), %rdi                # 8-byte Reload
	callq	_ZNSt6vectorI6LsItemSaIS0_EE4backEv
	movq	%rax, -192(%rbp)                # 8-byte Spill
	movq	%fs:40, %rax
	movq	-8(%rbp), %rcx
	cmpq	%rcx, %rax
	jne	.LBB25_8
# %bb.7:
	movq	-192(%rbp), %rax                # 8-byte Reload
	addq	$192, %rsp
	popq	%rbp
	.cfi_def_cfa %rsp, 8
	retq
.LBB25_8:
	.cfi_def_cfa %rbp, 16
	callq	__stack_chk_fail@PLT
.Lfunc_end25:
	.size	_ZNSt6vectorI6LsItemSaIS0_EE12emplace_backIJNSt7__cxx1112basic_stringIcSt11char_traitsIcESaIcEEEbEEERS0_DpOT_, .Lfunc_end25-_ZNSt6vectorI6LsItemSaIS0_EE12emplace_backIJNSt7__cxx1112basic_stringIcSt11char_traitsIcESaIcEEEbEEERS0_DpOT_
	.cfi_endproc
	.section	.gcc_except_table._ZNSt6vectorI6LsItemSaIS0_EE12emplace_backIJNSt7__cxx1112basic_stringIcSt11char_traitsIcESaIcEEEbEEERS0_DpOT_,"aG",@progbits,_ZNSt6vectorI6LsItemSaIS0_EE12emplace_backIJNSt7__cxx1112basic_stringIcSt11char_traitsIcESaIcEEEbEEERS0_DpOT_,comdat
	.p2align	2, 0x0
GCC_except_table25:
.Lexception6:
	.byte	255                             # @LPStart Encoding = omit
	.byte	255                             # @TType Encoding = omit
	.byte	1                               # Call site Encoding = uleb128
	.uleb128 .Lcst_end6-.Lcst_begin6
.Lcst_begin6:
	.uleb128 .Ltmp76-.Lfunc_begin6          # >> Call Site 1 <<
	.uleb128 .Ltmp77-.Ltmp76                #   Call between .Ltmp76 and .Ltmp77
	.uleb128 .Ltmp78-.Lfunc_begin6          #     jumps to .Ltmp78
	.byte	0                               #   On action: cleanup
	.uleb128 .Ltmp77-.Lfunc_begin6          # >> Call Site 2 <<
	.uleb128 .Lfunc_end25-.Ltmp77           #   Call between .Ltmp77 and .Lfunc_end25
	.byte	0                               #     has no landing pad
	.byte	0                               #   On action: cleanup
.Lcst_end6:
	.p2align	2, 0x0
                                        # -- End function
	.section	.text._ZNKSt10filesystem7__cxx1115directory_entry4pathEv,"axG",@progbits,_ZNKSt10filesystem7__cxx1115directory_entry4pathEv,comdat
	.weak	_ZNKSt10filesystem7__cxx1115directory_entry4pathEv # -- Begin function _ZNKSt10filesystem7__cxx1115directory_entry4pathEv
	.p2align	4, 0x90
	.type	_ZNKSt10filesystem7__cxx1115directory_entry4pathEv,@function
_ZNKSt10filesystem7__cxx1115directory_entry4pathEv: # @_ZNKSt10filesystem7__cxx1115directory_entry4pathEv
	.cfi_startproc
# %bb.0:
	pushq	%rbp
	.cfi_def_cfa_offset 16
	.cfi_offset %rbp, -16
	movq	%rsp, %rbp
	.cfi_def_cfa_register %rbp
	movq	%rdi, -8(%rbp)
	movq	-8(%rbp), %rax
	popq	%rbp
	.cfi_def_cfa %rsp, 8
	retq
.Lfunc_end26:
	.size	_ZNKSt10filesystem7__cxx1115directory_entry4pathEv, .Lfunc_end26-_ZNKSt10filesystem7__cxx1115directory_entry4pathEv
	.cfi_endproc
                                        # -- End function
	.section	.text._ZNKSt10filesystem7__cxx114path8filenameEv,"axG",@progbits,_ZNKSt10filesystem7__cxx114path8filenameEv,comdat
	.weak	_ZNKSt10filesystem7__cxx114path8filenameEv # -- Begin function _ZNKSt10filesystem7__cxx114path8filenameEv
	.p2align	4, 0x90
	.type	_ZNKSt10filesystem7__cxx114path8filenameEv,@function
_ZNKSt10filesystem7__cxx114path8filenameEv: # @_ZNKSt10filesystem7__cxx114path8filenameEv
	.cfi_startproc
# %bb.0:
	pushq	%rbp
	.cfi_def_cfa_offset 16
	.cfi_offset %rbp, -16
	movq	%rsp, %rbp
	.cfi_def_cfa_register %rbp
	subq	$96, %rsp
	movq	%rdi, -96(%rbp)                 # 8-byte Spill
	movq	%rdi, %rax
	movq	%rax, -88(%rbp)                 # 8-byte Spill
	movq	%fs:40, %rax
	movq	%rax, -8(%rbp)
	movq	%rdi, -64(%rbp)
	movq	%rsi, -72(%rbp)
	movq	-72(%rbp), %rdi
	movq	%rdi, -80(%rbp)                 # 8-byte Spill
	callq	_ZNKSt10filesystem7__cxx114path5emptyEv
	testb	$1, %al
	jne	.LBB27_1
	jmp	.LBB27_2
.LBB27_1:
	movq	-96(%rbp), %rdi                 # 8-byte Reload
	callq	_ZNSt10filesystem7__cxx114pathC2Ev
	jmp	.LBB27_13
.LBB27_2:
	movq	-80(%rbp), %rdi                 # 8-byte Reload
	callq	_ZNKSt10filesystem7__cxx114path7_M_typeEv
	cmpb	$3, %al
	jne	.LBB27_4
# %bb.3:
	movq	-80(%rbp), %rsi                 # 8-byte Reload
	movq	-96(%rbp), %rdi                 # 8-byte Reload
	callq	_ZNSt10filesystem7__cxx114pathC2ERKS1_
	jmp	.LBB27_13
.LBB27_4:
	movq	-80(%rbp), %rdi                 # 8-byte Reload
	callq	_ZNKSt10filesystem7__cxx114path7_M_typeEv
	cmpb	$0, %al
	jne	.LBB27_10
# %bb.5:
	movq	-80(%rbp), %rdi                 # 8-byte Reload
	callq	_ZNKSt7__cxx1112basic_stringIcSt11char_traitsIcESaIcEE4backEv@PLT
	movsbl	(%rax), %eax
	cmpl	$47, %eax
	jne	.LBB27_7
# %bb.6:
	movq	-96(%rbp), %rdi                 # 8-byte Reload
	callq	_ZNSt10filesystem7__cxx114pathC2Ev
	jmp	.LBB27_13
.LBB27_7:
	movq	-80(%rbp), %rsi                 # 8-byte Reload
	leaq	-56(%rbp), %rdi
	callq	_ZNKSt10filesystem7__cxx114path3endEv
	leaq	-56(%rbp), %rdi
	callq	_ZNSt10filesystem7__cxx114path8iteratormmEv
	movq	(%rax), %rcx
	movq	%rcx, -32(%rbp)
	movq	8(%rax), %rcx
	movq	%rcx, -24(%rbp)
	movq	16(%rax), %rax
	movq	%rax, -16(%rbp)
	leaq	-32(%rbp), %rdi
	callq	_ZNKSt10filesystem7__cxx114path8iteratorptEv
	movq	%rax, %rdi
	callq	_ZNKSt10filesystem7__cxx114path7_M_typeEv
	cmpb	$3, %al
	jne	.LBB27_9
# %bb.8:
	leaq	-32(%rbp), %rdi
	callq	_ZNKSt10filesystem7__cxx114path8iteratordeEv
	movq	-96(%rbp), %rdi                 # 8-byte Reload
	movq	%rax, %rsi
	callq	_ZNSt10filesystem7__cxx114pathC2ERKS1_
	jmp	.LBB27_13
.LBB27_9:
	jmp	.LBB27_10
.LBB27_10:
	jmp	.LBB27_11
.LBB27_11:
	jmp	.LBB27_12
.LBB27_12:
	movq	-96(%rbp), %rdi                 # 8-byte Reload
	callq	_ZNSt10filesystem7__cxx114pathC2Ev
.LBB27_13:
	movq	%fs:40, %rax
	movq	-8(%rbp), %rcx
	cmpq	%rcx, %rax
	jne	.LBB27_15
# %bb.14:
	movq	-88(%rbp), %rax                 # 8-byte Reload
	addq	$96, %rsp
	popq	%rbp
	.cfi_def_cfa %rsp, 8
	retq
.LBB27_15:
	.cfi_def_cfa %rbp, 16
	callq	__stack_chk_fail@PLT
.Lfunc_end27:
	.size	_ZNKSt10filesystem7__cxx114path8filenameEv, .Lfunc_end27-_ZNKSt10filesystem7__cxx114path8filenameEv
	.cfi_endproc
                                        # -- End function
	.section	.text._ZNKSt10filesystem7__cxx114path6stringEv,"axG",@progbits,_ZNKSt10filesystem7__cxx114path6stringEv,comdat
	.weak	_ZNKSt10filesystem7__cxx114path6stringEv # -- Begin function _ZNKSt10filesystem7__cxx114path6stringEv
	.p2align	4, 0x90
	.type	_ZNKSt10filesystem7__cxx114path6stringEv,@function
_ZNKSt10filesystem7__cxx114path6stringEv: # @_ZNKSt10filesystem7__cxx114path6stringEv
.Lfunc_begin7:
	.cfi_startproc
	.cfi_personality 155, DW.ref.__gxx_personality_v0
	.cfi_lsda 27, .Lexception7
# %bb.0:
	pushq	%rbp
	.cfi_def_cfa_offset 16
	.cfi_offset %rbp, -16
	movq	%rsp, %rbp
	.cfi_def_cfa_register %rbp
	subq	$96, %rsp
	movq	%rdi, %rax
	movq	%rax, -88(%rbp)                 # 8-byte Spill
	movq	%fs:40, %rax
	movq	%rax, -8(%rbp)
	movq	%rdi, -56(%rbp)
	movq	%rsi, -64(%rbp)
	movq	-64(%rbp), %rsi
	leaq	-16(%rbp), %rdx
	movq	%rdx, -48(%rbp)
	movq	-48(%rbp), %rax
	movq	%rax, -24(%rbp)
.Ltmp79:
	callq	_ZNKSt10filesystem7__cxx114path6stringIcSt11char_traitsIcESaIcEEENSt7__cxx1112basic_stringIT_T0_T1_EERKSA_
.Ltmp80:
	jmp	.LBB28_1
.LBB28_1:
	leaq	-16(%rbp), %rax
	movq	%rax, -40(%rbp)
	movq	-40(%rbp), %rdi
	callq	_ZNSt15__new_allocatorIcED2Ev
	movq	%fs:40, %rax
	movq	-8(%rbp), %rcx
	cmpq	%rcx, %rax
	jne	.LBB28_6
# %bb.2:
	movq	-88(%rbp), %rax                 # 8-byte Reload
	addq	$96, %rsp
	popq	%rbp
	.cfi_def_cfa %rsp, 8
	retq
.LBB28_3:
	.cfi_def_cfa %rbp, 16
.Ltmp81:
	movq	%rax, %rcx
	movl	%edx, %eax
	movq	%rcx, -72(%rbp)
	movl	%eax, -76(%rbp)
	leaq	-16(%rbp), %rax
	movq	%rax, -32(%rbp)
	movq	-32(%rbp), %rdi
	callq	_ZNSt15__new_allocatorIcED2Ev
# %bb.4:
	movq	-72(%rbp), %rax
	movq	%rax, -96(%rbp)                 # 8-byte Spill
	movq	%fs:40, %rax
	movq	-8(%rbp), %rcx
	cmpq	%rcx, %rax
	jne	.LBB28_6
# %bb.5:
	movq	-96(%rbp), %rdi                 # 8-byte Reload
	callq	_Unwind_Resume@PLT
.LBB28_6:
	callq	__stack_chk_fail@PLT
.Lfunc_end28:
	.size	_ZNKSt10filesystem7__cxx114path6stringEv, .Lfunc_end28-_ZNKSt10filesystem7__cxx114path6stringEv
	.cfi_endproc
	.section	.gcc_except_table._ZNKSt10filesystem7__cxx114path6stringEv,"aG",@progbits,_ZNKSt10filesystem7__cxx114path6stringEv,comdat
	.p2align	2, 0x0
GCC_except_table28:
.Lexception7:
	.byte	255                             # @LPStart Encoding = omit
	.byte	255                             # @TType Encoding = omit
	.byte	1                               # Call site Encoding = uleb128
	.uleb128 .Lcst_end7-.Lcst_begin7
.Lcst_begin7:
	.uleb128 .Ltmp79-.Lfunc_begin7          # >> Call Site 1 <<
	.uleb128 .Ltmp80-.Ltmp79                #   Call between .Ltmp79 and .Ltmp80
	.uleb128 .Ltmp81-.Lfunc_begin7          #     jumps to .Ltmp81
	.byte	0                               #   On action: cleanup
	.uleb128 .Ltmp80-.Lfunc_begin7          # >> Call Site 2 <<
	.uleb128 .Lfunc_end28-.Ltmp80           #   Call between .Ltmp80 and .Lfunc_end28
	.byte	0                               #     has no landing pad
	.byte	0                               #   On action: cleanup
.Lcst_end7:
	.p2align	2, 0x0
                                        # -- End function
	.section	.text._ZNKSt10filesystem7__cxx1115directory_entry12is_directoryEv,"axG",@progbits,_ZNKSt10filesystem7__cxx1115directory_entry12is_directoryEv,comdat
	.weak	_ZNKSt10filesystem7__cxx1115directory_entry12is_directoryEv # -- Begin function _ZNKSt10filesystem7__cxx1115directory_entry12is_directoryEv
	.p2align	4, 0x90
	.type	_ZNKSt10filesystem7__cxx1115directory_entry12is_directoryEv,@function
_ZNKSt10filesystem7__cxx1115directory_entry12is_directoryEv: # @_ZNKSt10filesystem7__cxx1115directory_entry12is_directoryEv
	.cfi_startproc
# %bb.0:
	pushq	%rbp
	.cfi_def_cfa_offset 16
	.cfi_offset %rbp, -16
	movq	%rsp, %rbp
	.cfi_def_cfa_register %rbp
	subq	$16, %rsp
	movq	%rdi, -8(%rbp)
	movq	-8(%rbp), %rdi
	callq	_ZNKSt10filesystem7__cxx1115directory_entry12_M_file_typeEv
	cmpb	$2, %al
	sete	%al
	andb	$1, %al
	movzbl	%al, %eax
	addq	$16, %rsp
	popq	%rbp
	.cfi_def_cfa %rsp, 8
	retq
.Lfunc_end29:
	.size	_ZNKSt10filesystem7__cxx1115directory_entry12is_directoryEv, .Lfunc_end29-_ZNKSt10filesystem7__cxx1115directory_entry12is_directoryEv
	.cfi_endproc
                                        # -- End function
	.section	.text._ZNSt10filesystem7__cxx114pathD2Ev,"axG",@progbits,_ZNSt10filesystem7__cxx114pathD2Ev,comdat
	.weak	_ZNSt10filesystem7__cxx114pathD2Ev # -- Begin function _ZNSt10filesystem7__cxx114pathD2Ev
	.p2align	4, 0x90
	.type	_ZNSt10filesystem7__cxx114pathD2Ev,@function
_ZNSt10filesystem7__cxx114pathD2Ev:     # @_ZNSt10filesystem7__cxx114pathD2Ev
	.cfi_startproc
# %bb.0:
	pushq	%rbp
	.cfi_def_cfa_offset 16
	.cfi_offset %rbp, -16
	movq	%rsp, %rbp
	.cfi_def_cfa_register %rbp
	subq	$16, %rsp
	movq	%rdi, -8(%rbp)
	movq	-8(%rbp), %rdi
	movq	%rdi, -16(%rbp)                 # 8-byte Spill
	addq	$32, %rdi
	callq	_ZNSt10filesystem7__cxx114path5_ListD2Ev
	movq	-16(%rbp), %rdi                 # 8-byte Reload
	callq	_ZNSt7__cxx1112basic_stringIcSt11char_traitsIcESaIcEED1Ev@PLT
	addq	$16, %rsp
	popq	%rbp
	.cfi_def_cfa %rsp, 8
	retq
.Lfunc_end30:
	.size	_ZNSt10filesystem7__cxx114pathD2Ev, .Lfunc_end30-_ZNSt10filesystem7__cxx114pathD2Ev
	.cfi_endproc
                                        # -- End function
	.text
	.p2align	4, 0x90                         # -- Begin function _ZSt4sortIN9__gnu_cxx17__normal_iteratorIP6LsItemSt6vectorIS2_SaIS2_EEEEZ2lsRKS4_ISt17basic_string_viewIcSt11char_traitsIcEESaISB_EEE3$_0EvT_SH_T0_
	.type	_ZSt4sortIN9__gnu_cxx17__normal_iteratorIP6LsItemSt6vectorIS2_SaIS2_EEEEZ2lsRKS4_ISt17basic_string_viewIcSt11char_traitsIcEESaISB_EEE3$_0EvT_SH_T0_,@function
_ZSt4sortIN9__gnu_cxx17__normal_iteratorIP6LsItemSt6vectorIS2_SaIS2_EEEEZ2lsRKS4_ISt17basic_string_viewIcSt11char_traitsIcEESaISB_EEE3$_0EvT_SH_T0_: # @"_ZSt4sortIN9__gnu_cxx17__normal_iteratorIP6LsItemSt6vectorIS2_SaIS2_EEEEZ2lsRKS4_ISt17basic_string_viewIcSt11char_traitsIcEESaISB_EEE3$_0EvT_SH_T0_"
	.cfi_startproc
# %bb.0:
	pushq	%rbp
	.cfi_def_cfa_offset 16
	.cfi_offset %rbp, -16
	movq	%rsp, %rbp
	.cfi_def_cfa_register %rbp
	subq	$80, %rsp
	movq	%fs:40, %rax
	movq	%rax, -8(%rbp)
	movq	%rdi, -16(%rbp)
	movq	%rsi, -24(%rbp)
	movq	-16(%rbp), %rax
	movq	%rax, -32(%rbp)
	movq	-24(%rbp), %rax
	movq	%rax, -40(%rbp)
	callq	_ZN9__gnu_cxx5__ops16__iter_comp_iterIZ2lsRKSt6vectorISt17basic_string_viewIcSt11char_traitsIcEESaIS6_EEE3$_0EENS0_15_Iter_comp_iterIT_EESD_
	movq	-32(%rbp), %rdi
	movq	-40(%rbp), %rsi
	callq	_ZSt6__sortIN9__gnu_cxx17__normal_iteratorIP6LsItemSt6vectorIS2_SaIS2_EEEENS0_5__ops15_Iter_comp_iterIZ2lsRKS4_ISt17basic_string_viewIcSt11char_traitsIcEESaISD_EEE3$_0EEEvT_SK_T0_
	movq	%fs:40, %rax
	movq	-8(%rbp), %rcx
	cmpq	%rcx, %rax
	jne	.LBB31_2
# %bb.1:
	addq	$80, %rsp
	popq	%rbp
	.cfi_def_cfa %rsp, 8
	retq
.LBB31_2:
	.cfi_def_cfa %rbp, 16
	callq	__stack_chk_fail@PLT
.Lfunc_end31:
	.size	_ZSt4sortIN9__gnu_cxx17__normal_iteratorIP6LsItemSt6vectorIS2_SaIS2_EEEEZ2lsRKS4_ISt17basic_string_viewIcSt11char_traitsIcEESaISB_EEE3$_0EvT_SH_T0_, .Lfunc_end31-_ZSt4sortIN9__gnu_cxx17__normal_iteratorIP6LsItemSt6vectorIS2_SaIS2_EEEEZ2lsRKS4_ISt17basic_string_viewIcSt11char_traitsIcEESaISB_EEE3$_0EvT_SH_T0_
	.cfi_endproc
                                        # -- End function
	.section	.text._ZNSt6vectorI6LsItemSaIS0_EE5beginEv,"axG",@progbits,_ZNSt6vectorI6LsItemSaIS0_EE5beginEv,comdat
	.weak	_ZNSt6vectorI6LsItemSaIS0_EE5beginEv # -- Begin function _ZNSt6vectorI6LsItemSaIS0_EE5beginEv
	.p2align	4, 0x90
	.type	_ZNSt6vectorI6LsItemSaIS0_EE5beginEv,@function
_ZNSt6vectorI6LsItemSaIS0_EE5beginEv:   # @_ZNSt6vectorI6LsItemSaIS0_EE5beginEv
	.cfi_startproc
# %bb.0:
	pushq	%rbp
	.cfi_def_cfa_offset 16
	.cfi_offset %rbp, -16
	movq	%rsp, %rbp
	.cfi_def_cfa_register %rbp
	subq	$32, %rsp
	movq	%fs:40, %rax
	movq	%rax, -8(%rbp)
	movq	%rdi, -24(%rbp)
	movq	-24(%rbp), %rsi
	leaq	-16(%rbp), %rdi
	callq	_ZN9__gnu_cxx17__normal_iteratorIP6LsItemSt6vectorIS1_SaIS1_EEEC2ERKS2_
	movq	-16(%rbp), %rax
	movq	%rax, -32(%rbp)                 # 8-byte Spill
	movq	%fs:40, %rax
	movq	-8(%rbp), %rcx
	cmpq	%rcx, %rax
	jne	.LBB32_2
# %bb.1:
	movq	-32(%rbp), %rax                 # 8-byte Reload
	addq	$32, %rsp
	popq	%rbp
	.cfi_def_cfa %rsp, 8
	retq
.LBB32_2:
	.cfi_def_cfa %rbp, 16
	callq	__stack_chk_fail@PLT
.Lfunc_end32:
	.size	_ZNSt6vectorI6LsItemSaIS0_EE5beginEv, .Lfunc_end32-_ZNSt6vectorI6LsItemSaIS0_EE5beginEv
	.cfi_endproc
                                        # -- End function
	.section	.text._ZNSt6vectorI6LsItemSaIS0_EE3endEv,"axG",@progbits,_ZNSt6vectorI6LsItemSaIS0_EE3endEv,comdat
	.weak	_ZNSt6vectorI6LsItemSaIS0_EE3endEv # -- Begin function _ZNSt6vectorI6LsItemSaIS0_EE3endEv
	.p2align	4, 0x90
	.type	_ZNSt6vectorI6LsItemSaIS0_EE3endEv,@function
_ZNSt6vectorI6LsItemSaIS0_EE3endEv:     # @_ZNSt6vectorI6LsItemSaIS0_EE3endEv
	.cfi_startproc
# %bb.0:
	pushq	%rbp
	.cfi_def_cfa_offset 16
	.cfi_offset %rbp, -16
	movq	%rsp, %rbp
	.cfi_def_cfa_register %rbp
	subq	$32, %rsp
	movq	%fs:40, %rax
	movq	%rax, -8(%rbp)
	movq	%rdi, -24(%rbp)
	movq	-24(%rbp), %rsi
	addq	$8, %rsi
	leaq	-16(%rbp), %rdi
	callq	_ZN9__gnu_cxx17__normal_iteratorIP6LsItemSt6vectorIS1_SaIS1_EEEC2ERKS2_
	movq	-16(%rbp), %rax
	movq	%rax, -32(%rbp)                 # 8-byte Spill
	movq	%fs:40, %rax
	movq	-8(%rbp), %rcx
	cmpq	%rcx, %rax
	jne	.LBB33_2
# %bb.1:
	movq	-32(%rbp), %rax                 # 8-byte Reload
	addq	$32, %rsp
	popq	%rbp
	.cfi_def_cfa %rsp, 8
	retq
.LBB33_2:
	.cfi_def_cfa %rbp, 16
	callq	__stack_chk_fail@PLT
.Lfunc_end33:
	.size	_ZNSt6vectorI6LsItemSaIS0_EE3endEv, .Lfunc_end33-_ZNSt6vectorI6LsItemSaIS0_EE3endEv
	.cfi_endproc
                                        # -- End function
	.section	.text._ZN9__gnu_cxxneIP6LsItemSt6vectorIS1_SaIS1_EEEEbRKNS_17__normal_iteratorIT_T0_EESB_,"axG",@progbits,_ZN9__gnu_cxxneIP6LsItemSt6vectorIS1_SaIS1_EEEEbRKNS_17__normal_iteratorIT_T0_EESB_,comdat
	.weak	_ZN9__gnu_cxxneIP6LsItemSt6vectorIS1_SaIS1_EEEEbRKNS_17__normal_iteratorIT_T0_EESB_ # -- Begin function _ZN9__gnu_cxxneIP6LsItemSt6vectorIS1_SaIS1_EEEEbRKNS_17__normal_iteratorIT_T0_EESB_
	.p2align	4, 0x90
	.type	_ZN9__gnu_cxxneIP6LsItemSt6vectorIS1_SaIS1_EEEEbRKNS_17__normal_iteratorIT_T0_EESB_,@function
_ZN9__gnu_cxxneIP6LsItemSt6vectorIS1_SaIS1_EEEEbRKNS_17__normal_iteratorIT_T0_EESB_: # @_ZN9__gnu_cxxneIP6LsItemSt6vectorIS1_SaIS1_EEEEbRKNS_17__normal_iteratorIT_T0_EESB_
	.cfi_startproc
# %bb.0:
	pushq	%rbp
	.cfi_def_cfa_offset 16
	.cfi_offset %rbp, -16
	movq	%rsp, %rbp
	.cfi_def_cfa_register %rbp
	subq	$32, %rsp
	movq	%rdi, -8(%rbp)
	movq	%rsi, -16(%rbp)
	movq	-8(%rbp), %rdi
	callq	_ZNK9__gnu_cxx17__normal_iteratorIP6LsItemSt6vectorIS1_SaIS1_EEE4baseEv
	movq	(%rax), %rax
	movq	%rax, -24(%rbp)                 # 8-byte Spill
	movq	-16(%rbp), %rdi
	callq	_ZNK9__gnu_cxx17__normal_iteratorIP6LsItemSt6vectorIS1_SaIS1_EEE4baseEv
	movq	%rax, %rcx
	movq	-24(%rbp), %rax                 # 8-byte Reload
	cmpq	(%rcx), %rax
	setne	%al
	andb	$1, %al
	movzbl	%al, %eax
	addq	$32, %rsp
	popq	%rbp
	.cfi_def_cfa %rsp, 8
	retq
.Lfunc_end34:
	.size	_ZN9__gnu_cxxneIP6LsItemSt6vectorIS1_SaIS1_EEEEbRKNS_17__normal_iteratorIT_T0_EESB_, .Lfunc_end34-_ZN9__gnu_cxxneIP6LsItemSt6vectorIS1_SaIS1_EEEEbRKNS_17__normal_iteratorIT_T0_EESB_
	.cfi_endproc
                                        # -- End function
	.section	.text._ZNK9__gnu_cxx17__normal_iteratorIP6LsItemSt6vectorIS1_SaIS1_EEEdeEv,"axG",@progbits,_ZNK9__gnu_cxx17__normal_iteratorIP6LsItemSt6vectorIS1_SaIS1_EEEdeEv,comdat
	.weak	_ZNK9__gnu_cxx17__normal_iteratorIP6LsItemSt6vectorIS1_SaIS1_EEEdeEv # -- Begin function _ZNK9__gnu_cxx17__normal_iteratorIP6LsItemSt6vectorIS1_SaIS1_EEEdeEv
	.p2align	4, 0x90
	.type	_ZNK9__gnu_cxx17__normal_iteratorIP6LsItemSt6vectorIS1_SaIS1_EEEdeEv,@function
_ZNK9__gnu_cxx17__normal_iteratorIP6LsItemSt6vectorIS1_SaIS1_EEEdeEv: # @_ZNK9__gnu_cxx17__normal_iteratorIP6LsItemSt6vectorIS1_SaIS1_EEEdeEv
	.cfi_startproc
# %bb.0:
	pushq	%rbp
	.cfi_def_cfa_offset 16
	.cfi_offset %rbp, -16
	movq	%rsp, %rbp
	.cfi_def_cfa_register %rbp
	movq	%rdi, -8(%rbp)
	movq	-8(%rbp), %rax
	movq	(%rax), %rax
	popq	%rbp
	.cfi_def_cfa %rsp, 8
	retq
.Lfunc_end35:
	.size	_ZNK9__gnu_cxx17__normal_iteratorIP6LsItemSt6vectorIS1_SaIS1_EEEdeEv, .Lfunc_end35-_ZNK9__gnu_cxx17__normal_iteratorIP6LsItemSt6vectorIS1_SaIS1_EEEdeEv
	.cfi_endproc
                                        # -- End function
	.section	.text._ZN9__gnu_cxx17__normal_iteratorIP6LsItemSt6vectorIS1_SaIS1_EEEppEv,"axG",@progbits,_ZN9__gnu_cxx17__normal_iteratorIP6LsItemSt6vectorIS1_SaIS1_EEEppEv,comdat
	.weak	_ZN9__gnu_cxx17__normal_iteratorIP6LsItemSt6vectorIS1_SaIS1_EEEppEv # -- Begin function _ZN9__gnu_cxx17__normal_iteratorIP6LsItemSt6vectorIS1_SaIS1_EEEppEv
	.p2align	4, 0x90
	.type	_ZN9__gnu_cxx17__normal_iteratorIP6LsItemSt6vectorIS1_SaIS1_EEEppEv,@function
_ZN9__gnu_cxx17__normal_iteratorIP6LsItemSt6vectorIS1_SaIS1_EEEppEv: # @_ZN9__gnu_cxx17__normal_iteratorIP6LsItemSt6vectorIS1_SaIS1_EEEppEv
	.cfi_startproc
# %bb.0:
	pushq	%rbp
	.cfi_def_cfa_offset 16
	.cfi_offset %rbp, -16
	movq	%rsp, %rbp
	.cfi_def_cfa_register %rbp
	movq	%rdi, -8(%rbp)
	movq	-8(%rbp), %rax
	movq	(%rax), %rcx
	addq	$40, %rcx
	movq	%rcx, (%rax)
	popq	%rbp
	.cfi_def_cfa %rsp, 8
	retq
.Lfunc_end36:
	.size	_ZN9__gnu_cxx17__normal_iteratorIP6LsItemSt6vectorIS1_SaIS1_EEEppEv, .Lfunc_end36-_ZN9__gnu_cxx17__normal_iteratorIP6LsItemSt6vectorIS1_SaIS1_EEEppEv
	.cfi_endproc
                                        # -- End function
	.section	.text._ZNSt6vectorI6LsItemSaIS0_EED2Ev,"axG",@progbits,_ZNSt6vectorI6LsItemSaIS0_EED2Ev,comdat
	.weak	_ZNSt6vectorI6LsItemSaIS0_EED2Ev # -- Begin function _ZNSt6vectorI6LsItemSaIS0_EED2Ev
	.p2align	4, 0x90
	.type	_ZNSt6vectorI6LsItemSaIS0_EED2Ev,@function
_ZNSt6vectorI6LsItemSaIS0_EED2Ev:       # @_ZNSt6vectorI6LsItemSaIS0_EED2Ev
.Lfunc_begin8:
	.cfi_startproc
	.cfi_personality 155, DW.ref.__gxx_personality_v0
	.cfi_lsda 27, .Lexception8
# %bb.0:
	pushq	%rbp
	.cfi_def_cfa_offset 16
	.cfi_offset %rbp, -16
	movq	%rsp, %rbp
	.cfi_def_cfa_register %rbp
	subq	$64, %rsp
	movq	%rdi, -32(%rbp)
	movq	-32(%rbp), %rdi
	movq	%rdi, -56(%rbp)                 # 8-byte Spill
	movq	(%rdi), %rax
	movq	%rax, -48(%rbp)                 # 8-byte Spill
	movq	8(%rdi), %rax
	movq	%rax, -40(%rbp)                 # 8-byte Spill
	callq	_ZNSt12_Vector_baseI6LsItemSaIS0_EE19_M_get_Tp_allocatorEv
	movq	-48(%rbp), %rdx                 # 8-byte Reload
	movq	-40(%rbp), %rcx                 # 8-byte Reload
	movq	%rdx, -8(%rbp)
	movq	%rcx, -16(%rbp)
	movq	%rax, -24(%rbp)
	movq	-8(%rbp), %rdi
	movq	-16(%rbp), %rsi
.Ltmp82:
	callq	_ZSt8_DestroyIP6LsItemEvT_S2_
.Ltmp83:
	jmp	.LBB37_1
.LBB37_1:
	jmp	.LBB37_2
.LBB37_2:
	movq	-56(%rbp), %rdi                 # 8-byte Reload
	callq	_ZNSt12_Vector_baseI6LsItemSaIS0_EED2Ev
	addq	$64, %rsp
	popq	%rbp
	.cfi_def_cfa %rsp, 8
	retq
.LBB37_3:
	.cfi_def_cfa %rbp, 16
.Ltmp84:
	movq	%rax, %rdi
                                        # kill: def $eax killed $edx killed $rdx
	callq	__clang_call_terminate
.Lfunc_end37:
	.size	_ZNSt6vectorI6LsItemSaIS0_EED2Ev, .Lfunc_end37-_ZNSt6vectorI6LsItemSaIS0_EED2Ev
	.cfi_endproc
	.section	.gcc_except_table._ZNSt6vectorI6LsItemSaIS0_EED2Ev,"aG",@progbits,_ZNSt6vectorI6LsItemSaIS0_EED2Ev,comdat
	.p2align	2, 0x0
GCC_except_table37:
.Lexception8:
	.byte	255                             # @LPStart Encoding = omit
	.byte	155                             # @TType Encoding = indirect pcrel sdata4
	.uleb128 .Lttbase2-.Lttbaseref2
.Lttbaseref2:
	.byte	1                               # Call site Encoding = uleb128
	.uleb128 .Lcst_end8-.Lcst_begin8
.Lcst_begin8:
	.uleb128 .Ltmp82-.Lfunc_begin8          # >> Call Site 1 <<
	.uleb128 .Ltmp83-.Ltmp82                #   Call between .Ltmp82 and .Ltmp83
	.uleb128 .Ltmp84-.Lfunc_begin8          #     jumps to .Ltmp84
	.byte	1                               #   On action: 1
.Lcst_end8:
	.byte	1                               # >> Action Record 1 <<
                                        #   Catch TypeInfo 1
	.byte	0                               #   No further actions
	.p2align	2, 0x0
                                        # >> Catch TypeInfos <<
	.long	0                               # TypeInfo 1
.Lttbase2:
	.p2align	2, 0x0
                                        # -- End function
	.text
	.globl	_Z3pwdRKSt6vectorISt17basic_string_viewIcSt11char_traitsIcEESaIS3_EE # -- Begin function _Z3pwdRKSt6vectorISt17basic_string_viewIcSt11char_traitsIcEESaIS3_EE
	.p2align	4, 0x90
	.type	_Z3pwdRKSt6vectorISt17basic_string_viewIcSt11char_traitsIcEESaIS3_EE,@function
_Z3pwdRKSt6vectorISt17basic_string_viewIcSt11char_traitsIcEESaIS3_EE: # @_Z3pwdRKSt6vectorISt17basic_string_viewIcSt11char_traitsIcEESaIS3_EE
.Lfunc_begin9:
	.cfi_startproc
	.cfi_personality 155, DW.ref.__gxx_personality_v0
	.cfi_lsda 27, .Lexception9
# %bb.0:
	pushq	%rbp
	.cfi_def_cfa_offset 16
	.cfi_offset %rbp, -16
	movq	%rsp, %rbp
	.cfi_def_cfa_register %rbp
	subq	$160, %rsp
	movq	%fs:40, %rax
	movq	%rax, -8(%rbp)
	movq	%rdi, -96(%rbp)
	movq	-96(%rbp), %rdi
	callq	_ZNKSt6vectorISt17basic_string_viewIcSt11char_traitsIcEESaIS3_EE4sizeEv
	cmpq	$1, %rax
	je	.LBB38_2
# %bb.1:
	movq	_ZSt4cerr@GOTPCREL(%rip), %rdi
	leaq	.L.str.1(%rip), %rsi
	callq	_ZStlsISt11char_traitsIcEERSt13basic_ostreamIcT_ES5_PKc@PLT
	movq	%rax, -120(%rbp)                # 8-byte Spill
	movq	-96(%rbp), %rdi
	callq	_ZNKSt6vectorISt17basic_string_viewIcSt11char_traitsIcEESaIS3_EE4sizeEv
	movq	-120(%rbp), %rdi                # 8-byte Reload
	movq	%rax, %rsi
	callq	_ZNSolsEm@PLT
	movq	%rax, %rdi
	movl	$10, %esi
	callq	_ZStlsISt11char_traitsIcEERSt13basic_ostreamIcT_ES5_c@PLT
	movl	$1, -84(%rbp)
	jmp	.LBB38_9
.LBB38_2:
	leaq	-80(%rbp), %rdi
	movq	%rdi, -128(%rbp)                # 8-byte Spill
	callq	_ZNSt10filesystem12current_pathB5cxx11Ev@PLT
	movq	-128(%rbp), %rsi                # 8-byte Reload
.Ltmp85:
	leaq	-40(%rbp), %rdi
	callq	_ZNKSt10filesystem7__cxx114path6stringEv
.Ltmp86:
	jmp	.LBB38_3
.LBB38_3:
.Ltmp88:
	movq	_ZSt4cout@GOTPCREL(%rip), %rdi
	leaq	-40(%rbp), %rsi
	callq	_ZStlsIcSt11char_traitsIcESaIcEERSt13basic_ostreamIT_T0_ES7_RKNSt7__cxx1112basic_stringIS4_S5_T1_EE@PLT
.Ltmp89:
	movq	%rax, -136(%rbp)                # 8-byte Spill
	jmp	.LBB38_4
.LBB38_4:
.Ltmp90:
	movq	-136(%rbp), %rdi                # 8-byte Reload
	movl	$10, %esi
	callq	_ZStlsISt11char_traitsIcEERSt13basic_ostreamIcT_ES5_c@PLT
.Ltmp91:
	jmp	.LBB38_5
.LBB38_5:
	leaq	-40(%rbp), %rdi
	callq	_ZNSt7__cxx1112basic_stringIcSt11char_traitsIcESaIcEED1Ev@PLT
	leaq	-80(%rbp), %rdi
	callq	_ZNSt10filesystem7__cxx114pathD2Ev
	movl	$0, -84(%rbp)
	jmp	.LBB38_9
.LBB38_6:
.Ltmp87:
	movq	%rax, %rcx
	movl	%edx, %eax
	movq	%rcx, -104(%rbp)
	movl	%eax, -108(%rbp)
	jmp	.LBB38_8
.LBB38_7:
.Ltmp92:
	movq	%rax, %rcx
	movl	%edx, %eax
	movq	%rcx, -104(%rbp)
	movl	%eax, -108(%rbp)
	leaq	-40(%rbp), %rdi
	callq	_ZNSt7__cxx1112basic_stringIcSt11char_traitsIcESaIcEED1Ev@PLT
.LBB38_8:
	leaq	-80(%rbp), %rdi
	callq	_ZNSt10filesystem7__cxx114pathD2Ev
	jmp	.LBB38_11
.LBB38_9:
	movl	-84(%rbp), %eax
	movl	%eax, -140(%rbp)                # 4-byte Spill
	movq	%fs:40, %rax
	movq	-8(%rbp), %rcx
	cmpq	%rcx, %rax
	jne	.LBB38_13
# %bb.10:
	movl	-140(%rbp), %eax                # 4-byte Reload
	addq	$160, %rsp
	popq	%rbp
	.cfi_def_cfa %rsp, 8
	retq
.LBB38_11:
	.cfi_def_cfa %rbp, 16
	movq	-104(%rbp), %rax
	movq	%rax, -152(%rbp)                # 8-byte Spill
	movq	%fs:40, %rax
	movq	-8(%rbp), %rcx
	cmpq	%rcx, %rax
	jne	.LBB38_13
# %bb.12:
	movq	-152(%rbp), %rdi                # 8-byte Reload
	callq	_Unwind_Resume@PLT
.LBB38_13:
	callq	__stack_chk_fail@PLT
.Lfunc_end38:
	.size	_Z3pwdRKSt6vectorISt17basic_string_viewIcSt11char_traitsIcEESaIS3_EE, .Lfunc_end38-_Z3pwdRKSt6vectorISt17basic_string_viewIcSt11char_traitsIcEESaIS3_EE
	.cfi_endproc
	.section	.gcc_except_table,"a",@progbits
	.p2align	2, 0x0
GCC_except_table38:
.Lexception9:
	.byte	255                             # @LPStart Encoding = omit
	.byte	255                             # @TType Encoding = omit
	.byte	1                               # Call site Encoding = uleb128
	.uleb128 .Lcst_end9-.Lcst_begin9
.Lcst_begin9:
	.uleb128 .Lfunc_begin9-.Lfunc_begin9    # >> Call Site 1 <<
	.uleb128 .Ltmp85-.Lfunc_begin9          #   Call between .Lfunc_begin9 and .Ltmp85
	.byte	0                               #     has no landing pad
	.byte	0                               #   On action: cleanup
	.uleb128 .Ltmp85-.Lfunc_begin9          # >> Call Site 2 <<
	.uleb128 .Ltmp86-.Ltmp85                #   Call between .Ltmp85 and .Ltmp86
	.uleb128 .Ltmp87-.Lfunc_begin9          #     jumps to .Ltmp87
	.byte	0                               #   On action: cleanup
	.uleb128 .Ltmp88-.Lfunc_begin9          # >> Call Site 3 <<
	.uleb128 .Ltmp91-.Ltmp88                #   Call between .Ltmp88 and .Ltmp91
	.uleb128 .Ltmp92-.Lfunc_begin9          #     jumps to .Ltmp92
	.byte	0                               #   On action: cleanup
	.uleb128 .Ltmp91-.Lfunc_begin9          # >> Call Site 4 <<
	.uleb128 .Lfunc_end38-.Ltmp91           #   Call between .Ltmp91 and .Lfunc_end38
	.byte	0                               #     has no landing pad
	.byte	0                               #   On action: cleanup
.Lcst_end9:
	.p2align	2, 0x0
                                        # -- End function
	.text
	.globl	_Z2cdRKSt6vectorISt17basic_string_viewIcSt11char_traitsIcEESaIS3_EE # -- Begin function _Z2cdRKSt6vectorISt17basic_string_viewIcSt11char_traitsIcEESaIS3_EE
	.p2align	4, 0x90
	.type	_Z2cdRKSt6vectorISt17basic_string_viewIcSt11char_traitsIcEESaIS3_EE,@function
_Z2cdRKSt6vectorISt17basic_string_viewIcSt11char_traitsIcEESaIS3_EE: # @_Z2cdRKSt6vectorISt17basic_string_viewIcSt11char_traitsIcEESaIS3_EE
.Lfunc_begin10:
	.cfi_startproc
	.cfi_personality 155, DW.ref.__gxx_personality_v0
	.cfi_lsda 27, .Lexception10
# %bb.0:
	pushq	%rbp
	.cfi_def_cfa_offset 16
	.cfi_offset %rbp, -16
	movq	%rsp, %rbp
	.cfi_def_cfa_register %rbp
	subq	$224, %rsp
	movq	%fs:40, %rax
	movq	%rax, -8(%rbp)
	movq	%rdi, -136(%rbp)
	movq	-136(%rbp), %rdi
	callq	_ZNKSt6vectorISt17basic_string_viewIcSt11char_traitsIcEESaIS3_EE4sizeEv
	movq	%rax, %rcx
	movl	$2, %eax
	cmpq	%rcx, %rax
	jae	.LBB39_2
# %bb.1:
	movq	_ZSt4cerr@GOTPCREL(%rip), %rdi
	leaq	.L.str.1(%rip), %rsi
	callq	_ZStlsISt11char_traitsIcEERSt13basic_ostreamIcT_ES5_PKc@PLT
	movq	%rax, -160(%rbp)                # 8-byte Spill
	movq	-136(%rbp), %rdi
	callq	_ZNKSt6vectorISt17basic_string_viewIcSt11char_traitsIcEESaIS3_EE4sizeEv
	movq	-160(%rbp), %rdi                # 8-byte Reload
	movq	%rax, %rsi
	callq	_ZNSolsEm@PLT
	movq	%rax, %rdi
	movl	$10, %esi
	callq	_ZStlsISt11char_traitsIcEERSt13basic_ostreamIcT_ES5_c@PLT
	movl	$1, -124(%rbp)
	jmp	.LBB39_33
.LBB39_2:
	leaq	-48(%rbp), %rdi
	callq	_ZNSt10filesystem7__cxx114pathC2Ev
	movq	-136(%rbp), %rdi
	callq	_ZNKSt6vectorISt17basic_string_viewIcSt11char_traitsIcEESaIS3_EE4sizeEv
	cmpq	$2, %rax
	jne	.LBB39_6
# %bb.3:
	movq	-136(%rbp), %rdi
	movl	$1, %esi
	callq	_ZNKSt6vectorISt17basic_string_viewIcSt11char_traitsIcEESaIS3_EEixEm
	movq	%rax, %rsi
.Ltmp97:
	leaq	-48(%rbp), %rdi
	callq	_ZNSt10filesystem7__cxx114pathaSISt17basic_string_viewIcSt11char_traitsIcEEEERNSt9enable_ifIX13__is_path_srcIT_EES1_E4typeERKS8_
.Ltmp98:
	jmp	.LBB39_4
.LBB39_4:
	jmp	.LBB39_13
.LBB39_5:
.Ltmp123:
	movq	%rax, %rcx
	movl	%edx, %eax
	movq	%rcx, -144(%rbp)
	movl	%eax, -148(%rbp)
	jmp	.LBB39_32
.LBB39_6:
	leaq	.L.str.5(%rip), %rdi
	callq	getenv@PLT
	movq	%rax, -120(%rbp)
	cmpq	$0, -120(%rbp)
	je	.LBB39_10
# %bb.7:
	movq	-120(%rbp), %rax
	cmpb	$0, (%rax)
	je	.LBB39_10
# %bb.8:
.Ltmp95:
	leaq	-48(%rbp), %rdi
	leaq	-120(%rbp), %rsi
	callq	_ZNSt10filesystem7__cxx114pathaSIPKcEERNSt9enable_ifIX13__is_path_srcIT_EES1_E4typeERKS6_
.Ltmp96:
	jmp	.LBB39_9
.LBB39_9:
	jmp	.LBB39_12
.LBB39_10:
.Ltmp93:
	movq	_ZSt4cerr@GOTPCREL(%rip), %rdi
	leaq	.L.str.6(%rip), %rsi
	callq	_ZStlsISt11char_traitsIcEERSt13basic_ostreamIcT_ES5_PKc@PLT
.Ltmp94:
	jmp	.LBB39_11
.LBB39_11:
	movl	$2, -124(%rbp)
	movl	$1, -152(%rbp)
	jmp	.LBB39_31
.LBB39_12:
	jmp	.LBB39_13
.LBB39_13:
.Ltmp99:
	leaq	-48(%rbp), %rdi
	callq	_ZNSt10filesystem6existsERKNS_7__cxx114pathE
.Ltmp100:
	movb	%al, -161(%rbp)                 # 1-byte Spill
	jmp	.LBB39_14
.LBB39_14:
	movb	-161(%rbp), %al                 # 1-byte Reload
	testb	$1, %al
	jne	.LBB39_21
	jmp	.LBB39_15
.LBB39_15:
.Ltmp101:
	movq	_ZSt4cerr@GOTPCREL(%rip), %rdi
	leaq	.L.str.7(%rip), %rsi
	callq	_ZStlsISt11char_traitsIcEERSt13basic_ostreamIcT_ES5_PKc@PLT
.Ltmp102:
	movq	%rax, -176(%rbp)                # 8-byte Spill
	jmp	.LBB39_16
.LBB39_16:
.Ltmp103:
	leaq	-80(%rbp), %rdi
	leaq	-48(%rbp), %rsi
	callq	_ZNKSt10filesystem7__cxx114path6stringEv
.Ltmp104:
	jmp	.LBB39_17
.LBB39_17:
.Ltmp105:
	movq	-176(%rbp), %rdi                # 8-byte Reload
	leaq	-80(%rbp), %rsi
	callq	_ZStlsIcSt11char_traitsIcESaIcEERSt13basic_ostreamIT_T0_ES7_RKNSt7__cxx1112basic_stringIS4_S5_T1_EE@PLT
.Ltmp106:
	movq	%rax, -184(%rbp)                # 8-byte Spill
	jmp	.LBB39_18
.LBB39_18:
.Ltmp107:
	movq	-184(%rbp), %rdi                # 8-byte Reload
	leaq	.L.str.8(%rip), %rsi
	callq	_ZStlsISt11char_traitsIcEERSt13basic_ostreamIcT_ES5_PKc@PLT
.Ltmp108:
	jmp	.LBB39_19
.LBB39_19:
	leaq	-80(%rbp), %rdi
	callq	_ZNSt7__cxx1112basic_stringIcSt11char_traitsIcESaIcEED1Ev@PLT
	movl	$3, -124(%rbp)
	movl	$1, -152(%rbp)
	jmp	.LBB39_31
.LBB39_20:
.Ltmp109:
	movq	%rax, %rcx
	movl	%edx, %eax
	movq	%rcx, -144(%rbp)
	movl	%eax, -148(%rbp)
	leaq	-80(%rbp), %rdi
	callq	_ZNSt7__cxx1112basic_stringIcSt11char_traitsIcESaIcEED1Ev@PLT
	jmp	.LBB39_32
.LBB39_21:
.Ltmp110:
	leaq	-48(%rbp), %rdi
	callq	_ZNSt10filesystem12is_directoryERKNS_7__cxx114pathE
.Ltmp111:
	movb	%al, -185(%rbp)                 # 1-byte Spill
	jmp	.LBB39_22
.LBB39_22:
	movb	-185(%rbp), %al                 # 1-byte Reload
	testb	$1, %al
	jne	.LBB39_29
	jmp	.LBB39_23
.LBB39_23:
.Ltmp112:
	movq	_ZSt4cerr@GOTPCREL(%rip), %rdi
	leaq	.L.str.7(%rip), %rsi
	callq	_ZStlsISt11char_traitsIcEERSt13basic_ostreamIcT_ES5_PKc@PLT
.Ltmp113:
	movq	%rax, -200(%rbp)                # 8-byte Spill
	jmp	.LBB39_24
.LBB39_24:
.Ltmp114:
	leaq	-112(%rbp), %rdi
	leaq	-48(%rbp), %rsi
	callq	_ZNKSt10filesystem7__cxx114path6stringEv
.Ltmp115:
	jmp	.LBB39_25
.LBB39_25:
.Ltmp116:
	movq	-200(%rbp), %rdi                # 8-byte Reload
	leaq	-112(%rbp), %rsi
	callq	_ZStlsIcSt11char_traitsIcESaIcEERSt13basic_ostreamIT_T0_ES7_RKNSt7__cxx1112basic_stringIS4_S5_T1_EE@PLT
.Ltmp117:
	movq	%rax, -208(%rbp)                # 8-byte Spill
	jmp	.LBB39_26
.LBB39_26:
.Ltmp118:
	movq	-208(%rbp), %rdi                # 8-byte Reload
	leaq	.L.str.9(%rip), %rsi
	callq	_ZStlsISt11char_traitsIcEERSt13basic_ostreamIcT_ES5_PKc@PLT
.Ltmp119:
	jmp	.LBB39_27
.LBB39_27:
	leaq	-112(%rbp), %rdi
	callq	_ZNSt7__cxx1112basic_stringIcSt11char_traitsIcESaIcEED1Ev@PLT
	movl	$4, -124(%rbp)
	movl	$1, -152(%rbp)
	jmp	.LBB39_31
.LBB39_28:
.Ltmp120:
	movq	%rax, %rcx
	movl	%edx, %eax
	movq	%rcx, -144(%rbp)
	movl	%eax, -148(%rbp)
	leaq	-112(%rbp), %rdi
	callq	_ZNSt7__cxx1112basic_stringIcSt11char_traitsIcESaIcEED1Ev@PLT
	jmp	.LBB39_32
.LBB39_29:
.Ltmp121:
	leaq	-48(%rbp), %rdi
	callq	_ZNSt10filesystem12current_pathERKNS_7__cxx114pathE@PLT
.Ltmp122:
	jmp	.LBB39_30
.LBB39_30:
	movl	$0, -124(%rbp)
	movl	$1, -152(%rbp)
.LBB39_31:
	leaq	-48(%rbp), %rdi
	callq	_ZNSt10filesystem7__cxx114pathD2Ev
	jmp	.LBB39_33
.LBB39_32:
	leaq	-48(%rbp), %rdi
	callq	_ZNSt10filesystem7__cxx114pathD2Ev
	jmp	.LBB39_35
.LBB39_33:
	movl	-124(%rbp), %eax
	movl	%eax, -212(%rbp)                # 4-byte Spill
	movq	%fs:40, %rax
	movq	-8(%rbp), %rcx
	cmpq	%rcx, %rax
	jne	.LBB39_37
# %bb.34:
	movl	-212(%rbp), %eax                # 4-byte Reload
	addq	$224, %rsp
	popq	%rbp
	.cfi_def_cfa %rsp, 8
	retq
.LBB39_35:
	.cfi_def_cfa %rbp, 16
	movq	-144(%rbp), %rax
	movq	%rax, -224(%rbp)                # 8-byte Spill
	movq	%fs:40, %rax
	movq	-8(%rbp), %rcx
	cmpq	%rcx, %rax
	jne	.LBB39_37
# %bb.36:
	movq	-224(%rbp), %rdi                # 8-byte Reload
	callq	_Unwind_Resume@PLT
.LBB39_37:
	callq	__stack_chk_fail@PLT
.Lfunc_end39:
	.size	_Z2cdRKSt6vectorISt17basic_string_viewIcSt11char_traitsIcEESaIS3_EE, .Lfunc_end39-_Z2cdRKSt6vectorISt17basic_string_viewIcSt11char_traitsIcEESaIS3_EE
	.cfi_endproc
	.section	.gcc_except_table,"a",@progbits
	.p2align	2, 0x0
GCC_except_table39:
.Lexception10:
	.byte	255                             # @LPStart Encoding = omit
	.byte	255                             # @TType Encoding = omit
	.byte	1                               # Call site Encoding = uleb128
	.uleb128 .Lcst_end10-.Lcst_begin10
.Lcst_begin10:
	.uleb128 .Lfunc_begin10-.Lfunc_begin10  # >> Call Site 1 <<
	.uleb128 .Ltmp97-.Lfunc_begin10         #   Call between .Lfunc_begin10 and .Ltmp97
	.byte	0                               #     has no landing pad
	.byte	0                               #   On action: cleanup
	.uleb128 .Ltmp97-.Lfunc_begin10         # >> Call Site 2 <<
	.uleb128 .Ltmp104-.Ltmp97               #   Call between .Ltmp97 and .Ltmp104
	.uleb128 .Ltmp123-.Lfunc_begin10        #     jumps to .Ltmp123
	.byte	0                               #   On action: cleanup
	.uleb128 .Ltmp105-.Lfunc_begin10        # >> Call Site 3 <<
	.uleb128 .Ltmp108-.Ltmp105              #   Call between .Ltmp105 and .Ltmp108
	.uleb128 .Ltmp109-.Lfunc_begin10        #     jumps to .Ltmp109
	.byte	0                               #   On action: cleanup
	.uleb128 .Ltmp110-.Lfunc_begin10        # >> Call Site 4 <<
	.uleb128 .Ltmp115-.Ltmp110              #   Call between .Ltmp110 and .Ltmp115
	.uleb128 .Ltmp123-.Lfunc_begin10        #     jumps to .Ltmp123
	.byte	0                               #   On action: cleanup
	.uleb128 .Ltmp116-.Lfunc_begin10        # >> Call Site 5 <<
	.uleb128 .Ltmp119-.Ltmp116              #   Call between .Ltmp116 and .Ltmp119
	.uleb128 .Ltmp120-.Lfunc_begin10        #     jumps to .Ltmp120
	.byte	0                               #   On action: cleanup
	.uleb128 .Ltmp121-.Lfunc_begin10        # >> Call Site 6 <<
	.uleb128 .Ltmp122-.Ltmp121              #   Call between .Ltmp121 and .Ltmp122
	.uleb128 .Ltmp123-.Lfunc_begin10        #     jumps to .Ltmp123
	.byte	0                               #   On action: cleanup
	.uleb128 .Ltmp122-.Lfunc_begin10        # >> Call Site 7 <<
	.uleb128 .Lfunc_end39-.Ltmp122          #   Call between .Ltmp122 and .Lfunc_end39
	.byte	0                               #     has no landing pad
	.byte	0                               #   On action: cleanup
.Lcst_end10:
	.p2align	2, 0x0
                                        # -- End function
	.section	.text._ZNSt10filesystem7__cxx114pathaSIPKcEERNSt9enable_ifIX13__is_path_srcIT_EES1_E4typeERKS6_,"axG",@progbits,_ZNSt10filesystem7__cxx114pathaSIPKcEERNSt9enable_ifIX13__is_path_srcIT_EES1_E4typeERKS6_,comdat
	.weak	_ZNSt10filesystem7__cxx114pathaSIPKcEERNSt9enable_ifIX13__is_path_srcIT_EES1_E4typeERKS6_ # -- Begin function _ZNSt10filesystem7__cxx114pathaSIPKcEERNSt9enable_ifIX13__is_path_srcIT_EES1_E4typeERKS6_
	.p2align	4, 0x90
	.type	_ZNSt10filesystem7__cxx114pathaSIPKcEERNSt9enable_ifIX13__is_path_srcIT_EES1_E4typeERKS6_,@function
_ZNSt10filesystem7__cxx114pathaSIPKcEERNSt9enable_ifIX13__is_path_srcIT_EES1_E4typeERKS6_: # @_ZNSt10filesystem7__cxx114pathaSIPKcEERNSt9enable_ifIX13__is_path_srcIT_EES1_E4typeERKS6_
	.cfi_startproc
# %bb.0:
	pushq	%rbp
	.cfi_def_cfa_offset 16
	.cfi_offset %rbp, -16
	movq	%rsp, %rbp
	.cfi_def_cfa_register %rbp
	subq	$96, %rsp
	movq	%fs:40, %rax
	movq	%rax, -8(%rbp)
	movq	%rdi, -56(%rbp)
	movq	%rsi, -64(%rbp)
	movq	-56(%rbp), %rax
	movq	%rax, -88(%rbp)                 # 8-byte Spill
	movq	-64(%rbp), %rsi
	leaq	-48(%rbp), %rdi
	movq	%rdi, -80(%rbp)                 # 8-byte Spill
	movl	$2, %edx
	callq	_ZNSt10filesystem7__cxx114pathC2IPKcS1_EERKT_NS1_6formatE
	movq	-88(%rbp), %rdi                 # 8-byte Reload
	movq	-80(%rbp), %rsi                 # 8-byte Reload
	callq	_ZNSt10filesystem7__cxx114pathaSEOS1_
	movq	-80(%rbp), %rdi                 # 8-byte Reload
	movq	%rax, -72(%rbp)                 # 8-byte Spill
	callq	_ZNSt10filesystem7__cxx114pathD2Ev
	movq	%fs:40, %rax
	movq	-8(%rbp), %rcx
	cmpq	%rcx, %rax
	jne	.LBB40_2
# %bb.1:
	movq	-72(%rbp), %rax                 # 8-byte Reload
	addq	$96, %rsp
	popq	%rbp
	.cfi_def_cfa %rsp, 8
	retq
.LBB40_2:
	.cfi_def_cfa %rbp, 16
	callq	__stack_chk_fail@PLT
.Lfunc_end40:
	.size	_ZNSt10filesystem7__cxx114pathaSIPKcEERNSt9enable_ifIX13__is_path_srcIT_EES1_E4typeERKS6_, .Lfunc_end40-_ZNSt10filesystem7__cxx114pathaSIPKcEERNSt9enable_ifIX13__is_path_srcIT_EES1_E4typeERKS6_
	.cfi_endproc
                                        # -- End function
	.section	.text._ZNSt10filesystem12is_directoryERKNS_7__cxx114pathE,"axG",@progbits,_ZNSt10filesystem12is_directoryERKNS_7__cxx114pathE,comdat
	.weak	_ZNSt10filesystem12is_directoryERKNS_7__cxx114pathE # -- Begin function _ZNSt10filesystem12is_directoryERKNS_7__cxx114pathE
	.p2align	4, 0x90
	.type	_ZNSt10filesystem12is_directoryERKNS_7__cxx114pathE,@function
_ZNSt10filesystem12is_directoryERKNS_7__cxx114pathE: # @_ZNSt10filesystem12is_directoryERKNS_7__cxx114pathE
	.cfi_startproc
# %bb.0:
	pushq	%rbp
	.cfi_def_cfa_offset 16
	.cfi_offset %rbp, -16
	movq	%rsp, %rbp
	.cfi_def_cfa_register %rbp
	subq	$16, %rsp
	movq	%rdi, -8(%rbp)
	movq	-8(%rbp), %rdi
	callq	_ZNSt10filesystem6statusERKNS_7__cxx114pathE@PLT
	movq	%rax, -16(%rbp)
	movq	-16(%rbp), %rdi
	callq	_ZNSt10filesystem12is_directoryENS_11file_statusE
	andb	$1, %al
	movzbl	%al, %eax
	addq	$16, %rsp
	popq	%rbp
	.cfi_def_cfa %rsp, 8
	retq
.Lfunc_end41:
	.size	_ZNSt10filesystem12is_directoryERKNS_7__cxx114pathE, .Lfunc_end41-_ZNSt10filesystem12is_directoryERKNS_7__cxx114pathE
	.cfi_endproc
                                        # -- End function
	.text
	.globl	_Z4quitRKSt6vectorISt17basic_string_viewIcSt11char_traitsIcEESaIS3_EE # -- Begin function _Z4quitRKSt6vectorISt17basic_string_viewIcSt11char_traitsIcEESaIS3_EE
	.p2align	4, 0x90
	.type	_Z4quitRKSt6vectorISt17basic_string_viewIcSt11char_traitsIcEESaIS3_EE,@function
_Z4quitRKSt6vectorISt17basic_string_viewIcSt11char_traitsIcEESaIS3_EE: # @_Z4quitRKSt6vectorISt17basic_string_viewIcSt11char_traitsIcEESaIS3_EE
	.cfi_startproc
# %bb.0:
	pushq	%rbp
	.cfi_def_cfa_offset 16
	.cfi_offset %rbp, -16
	movq	%rsp, %rbp
	.cfi_def_cfa_register %rbp
	subq	$16, %rsp
	movq	%rdi, -8(%rbp)
	xorl	%edi, %edi
	callq	exit@PLT
.Lfunc_end42:
	.size	_Z4quitRKSt6vectorISt17basic_string_viewIcSt11char_traitsIcEESaIS3_EE, .Lfunc_end42-_Z4quitRKSt6vectorISt17basic_string_viewIcSt11char_traitsIcEESaIS3_EE
	.cfi_endproc
                                        # -- End function
	.globl	_Z5clearRKSt6vectorISt17basic_string_viewIcSt11char_traitsIcEESaIS3_EE # -- Begin function _Z5clearRKSt6vectorISt17basic_string_viewIcSt11char_traitsIcEESaIS3_EE
	.p2align	4, 0x90
	.type	_Z5clearRKSt6vectorISt17basic_string_viewIcSt11char_traitsIcEESaIS3_EE,@function
_Z5clearRKSt6vectorISt17basic_string_viewIcSt11char_traitsIcEESaIS3_EE: # @_Z5clearRKSt6vectorISt17basic_string_viewIcSt11char_traitsIcEESaIS3_EE
	.cfi_startproc
# %bb.0:
	pushq	%rbp
	.cfi_def_cfa_offset 16
	.cfi_offset %rbp, -16
	movq	%rsp, %rbp
	.cfi_def_cfa_register %rbp
	subq	$16, %rsp
	movq	%rdi, -8(%rbp)
	movq	_ZSt4cout@GOTPCREL(%rip), %rdi
	leaq	.L.str.10(%rip), %rsi
	callq	_ZStlsISt11char_traitsIcEERSt13basic_ostreamIcT_ES5_PKc@PLT
	xorl	%eax, %eax
	addq	$16, %rsp
	popq	%rbp
	.cfi_def_cfa %rsp, 8
	retq
.Lfunc_end43:
	.size	_Z5clearRKSt6vectorISt17basic_string_viewIcSt11char_traitsIcEESaIS3_EE, .Lfunc_end43-_Z5clearRKSt6vectorISt17basic_string_viewIcSt11char_traitsIcEESaIS3_EE
	.cfi_endproc
                                        # -- End function
	.globl	main                            # -- Begin function main
	.p2align	4, 0x90
	.type	main,@function
main:                                   # @main
.Lfunc_begin11:
	.cfi_startproc
	.cfi_personality 155, DW.ref.__gxx_personality_v0
	.cfi_lsda 27, .Lexception11
# %bb.0:
	pushq	%rbp
	.cfi_def_cfa_offset 16
	.cfi_offset %rbp, -16
	movq	%rsp, %rbp
	.cfi_def_cfa_register %rbp
	subq	$928, %rsp                      # imm = 0x3A0
	movq	%fs:40, %rax
	movq	%rax, -8(%rbp)
	movl	$0, -676(%rbp)
	leaq	-392(%rbp), %rdi
	movq	%rdi, -752(%rbp)                # 8-byte Spill
	movq	%rdi, -704(%rbp)
.Ltmp124:
	leaq	.L.str.11(%rip), %rsi
	leaq	_Z2lsRKSt6vectorISt17basic_string_viewIcSt11char_traitsIcEESaIS3_EE(%rip), %rdx
	callq	_ZNSt4pairIKNSt7__cxx1112basic_stringIcSt11char_traitsIcESaIcEEESt8functionIFiRKSt6vectorISt17basic_string_viewIcS3_ESaISA_EEEEEC2IRA3_KcRSF_Lb1EEEOT_OT0_
.Ltmp125:
	jmp	.LBB44_1
.LBB44_1:
	movq	-752(%rbp), %rdi                # 8-byte Reload
	addq	$64, %rdi
	movq	%rdi, -760(%rbp)                # 8-byte Spill
	movq	%rdi, -704(%rbp)
.Ltmp126:
	leaq	.L.str.12(%rip), %rsi
	leaq	_Z3pwdRKSt6vectorISt17basic_string_viewIcSt11char_traitsIcEESaIS3_EE(%rip), %rdx
	callq	_ZNSt4pairIKNSt7__cxx1112basic_stringIcSt11char_traitsIcESaIcEEESt8functionIFiRKSt6vectorISt17basic_string_viewIcS3_ESaISA_EEEEEC2IRA4_KcRSF_Lb1EEEOT_OT0_
.Ltmp127:
	jmp	.LBB44_2
.LBB44_2:
	movq	-760(%rbp), %rdi                # 8-byte Reload
	addq	$64, %rdi
	movq	%rdi, -768(%rbp)                # 8-byte Spill
	movq	%rdi, -704(%rbp)
.Ltmp128:
	leaq	.L.str.13(%rip), %rsi
	leaq	_Z2cdRKSt6vectorISt17basic_string_viewIcSt11char_traitsIcEESaIS3_EE(%rip), %rdx
	callq	_ZNSt4pairIKNSt7__cxx1112basic_stringIcSt11char_traitsIcESaIcEEESt8functionIFiRKSt6vectorISt17basic_string_viewIcS3_ESaISA_EEEEEC2IRA3_KcRSF_Lb1EEEOT_OT0_
.Ltmp129:
	jmp	.LBB44_3
.LBB44_3:
	movq	-768(%rbp), %rdi                # 8-byte Reload
	addq	$64, %rdi
	movq	%rdi, -776(%rbp)                # 8-byte Spill
	movq	%rdi, -704(%rbp)
.Ltmp130:
	leaq	.L.str.14(%rip), %rsi
	leaq	_Z4quitRKSt6vectorISt17basic_string_viewIcSt11char_traitsIcEESaIS3_EE(%rip), %rdx
	callq	_ZNSt4pairIKNSt7__cxx1112basic_stringIcSt11char_traitsIcESaIcEEESt8functionIFiRKSt6vectorISt17basic_string_viewIcS3_ESaISA_EEEEEC2IRA5_KcRSF_Lb1EEEOT_OT0_
.Ltmp131:
	jmp	.LBB44_4
.LBB44_4:
	movq	-776(%rbp), %rdi                # 8-byte Reload
	addq	$64, %rdi
	movq	%rdi, -784(%rbp)                # 8-byte Spill
	movq	%rdi, -704(%rbp)
.Ltmp132:
	leaq	.L.str.15(%rip), %rsi
	leaq	_Z4quitRKSt6vectorISt17basic_string_viewIcSt11char_traitsIcEESaIS3_EE(%rip), %rdx
	callq	_ZNSt4pairIKNSt7__cxx1112basic_stringIcSt11char_traitsIcESaIcEEESt8functionIFiRKSt6vectorISt17basic_string_viewIcS3_ESaISA_EEEEEC2IRA5_KcRSF_Lb1EEEOT_OT0_
.Ltmp133:
	jmp	.LBB44_5
.LBB44_5:
	movq	-784(%rbp), %rdi                # 8-byte Reload
	addq	$64, %rdi
	movq	%rdi, -704(%rbp)
.Ltmp134:
	leaq	.L.str.16(%rip), %rsi
	leaq	_Z5clearRKSt6vectorISt17basic_string_viewIcSt11char_traitsIcEESaIS3_EE(%rip), %rdx
	callq	_ZNSt4pairIKNSt7__cxx1112basic_stringIcSt11char_traitsIcESaIcEEESt8functionIFiRKSt6vectorISt17basic_string_viewIcS3_ESaISA_EEEEEC2IRA6_KcRSF_Lb1EEEOT_OT0_
.Ltmp135:
	jmp	.LBB44_6
.LBB44_6:
	leaq	-392(%rbp), %rax
	movq	%rax, -696(%rbp)
	movq	$6, -688(%rbp)
	leaq	-520(%rbp), %r8
	movq	%r8, -672(%rbp)
	movq	-672(%rbp), %rax
	movq	%rax, -616(%rbp)
	movq	-696(%rbp), %rsi
	movq	-688(%rbp), %rdx
.Ltmp137:
	leaq	-504(%rbp), %rdi
	leaq	-512(%rbp), %rcx
	callq	_ZNSt3mapINSt7__cxx1112basic_stringIcSt11char_traitsIcESaIcEEESt8functionIFiRKSt6vectorISt17basic_string_viewIcS3_ESaIS9_EEEESt4lessIS5_ESaISt4pairIKS5_SF_EEEC2ESt16initializer_listISK_ERKSH_RKSL_
.Ltmp138:
	jmp	.LBB44_7
.LBB44_7:
	leaq	-520(%rbp), %rax
	movq	%rax, -664(%rbp)
	movq	-664(%rbp), %rdi
	callq	_ZNSt15__new_allocatorISt4pairIKNSt7__cxx1112basic_stringIcSt11char_traitsIcESaIcEEESt8functionIFiRKSt6vectorISt17basic_string_viewIcS4_ESaISB_EEEEEED2Ev
	leaq	-392(%rbp), %rax
	movq	%rax, -800(%rbp)                # 8-byte Spill
	addq	$384, %rax                      # imm = 0x180
	movq	%rax, -792(%rbp)                # 8-byte Spill
.LBB44_8:                               # =>This Inner Loop Header: Depth=1
	movq	-792(%rbp), %rdi                # 8-byte Reload
	addq	$-64, %rdi
	movq	%rdi, -808(%rbp)                # 8-byte Spill
	callq	_ZNSt4pairIKNSt7__cxx1112basic_stringIcSt11char_traitsIcESaIcEEESt8functionIFiRKSt6vectorISt17basic_string_viewIcS3_ESaISA_EEEEED2Ev
	movq	-800(%rbp), %rcx                # 8-byte Reload
	movq	-808(%rbp), %rax                # 8-byte Reload
	cmpq	%rcx, %rax
	movq	%rax, -792(%rbp)                # 8-byte Spill
	jne	.LBB44_8
# %bb.9:
	leaq	-424(%rbp), %rdi
	callq	_ZNSt7__cxx1112basic_stringIcSt11char_traitsIcESaIcEEC1Ev@PLT
.Ltmp140:
	movq	_ZSt4cout@GOTPCREL(%rip), %rdi
	leaq	.L.str.17(%rip), %rsi
	callq	_ZStlsISt11char_traitsIcEERSt13basic_ostreamIcT_ES5_PKc@PLT
.Ltmp141:
	jmp	.LBB44_10
.LBB44_10:
	jmp	.LBB44_11
.LBB44_11:                              # =>This Inner Loop Header: Depth=1
.Ltmp142:
	movq	_ZSt3cin@GOTPCREL(%rip), %rdi
	leaq	-424(%rbp), %rsi
	callq	_ZSt7getlineIcSt11char_traitsIcESaIcEERSt13basic_istreamIT_T0_ES7_RNSt7__cxx1112basic_stringIS4_S5_T1_EE@PLT
.Ltmp143:
	movq	%rax, -816(%rbp)                # 8-byte Spill
	jmp	.LBB44_12
.LBB44_12:                              #   in Loop: Header=BB44_11 Depth=1
	movq	-816(%rbp), %rdi                # 8-byte Reload
	movq	(%rdi), %rax
	movq	-24(%rax), %rax
	addq	%rax, %rdi
.Ltmp144:
	callq	_ZNKSt9basic_iosIcSt11char_traitsIcEEcvbEv@PLT
.Ltmp145:
	movb	%al, -817(%rbp)                 # 1-byte Spill
	jmp	.LBB44_13
.LBB44_13:                              #   in Loop: Header=BB44_11 Depth=1
	movb	-817(%rbp), %al                 # 1-byte Reload
	testb	$1, %al
	jne	.LBB44_14
	jmp	.LBB44_43
.LBB44_14:                              #   in Loop: Header=BB44_11 Depth=1
	leaq	-424(%rbp), %rdi
	callq	_ZNKSt7__cxx1112basic_stringIcSt11char_traitsIcESaIcEEcvSt17basic_string_viewIcS2_EEv@PLT
	movq	%rax, -736(%rbp)
	movq	%rdx, -728(%rbp)
	leaq	.L.str.18(%rip), %rsi
	leaq	-560(%rbp), %rdi
	callq	_ZNSt17basic_string_viewIcSt11char_traitsIcEEC2EPKc
	movq	-736(%rbp), %rsi
	movq	-728(%rbp), %rdx
	movq	-560(%rbp), %rcx
	movq	-552(%rbp), %r8
.Ltmp146:
	leaq	-544(%rbp), %rdi
	movl	$1, %r9d
	callq	_Z5splitSt17basic_string_viewIcSt11char_traitsIcEES2_b
.Ltmp147:
	jmp	.LBB44_15
.LBB44_15:                              #   in Loop: Header=BB44_11 Depth=1
	leaq	-544(%rbp), %rdi
	callq	_ZNKSt6vectorISt17basic_string_viewIcSt11char_traitsIcEESaIS3_EE5emptyEv
	testb	$1, %al
	jne	.LBB44_16
	jmp	.LBB44_24
.LBB44_16:                              #   in Loop: Header=BB44_11 Depth=1
	movl	$2, -740(%rbp)
	jmp	.LBB44_40
.LBB44_17:
.Ltmp136:
	movq	-752(%rbp), %rcx                # 8-byte Reload
	movq	%rdx, -840(%rbp)                # 8-byte Spill
	movq	%rax, %rdx
	movq	-840(%rbp), %rax                # 8-byte Reload
                                        # kill: def $eax killed $eax killed $rax
	movq	%rdx, -712(%rbp)
	movl	%eax, -716(%rbp)
	movq	-704(%rbp), %rax
	cmpq	%rax, %rcx
	movq	%rax, -832(%rbp)                # 8-byte Spill
	je	.LBB44_19
.LBB44_18:                              # =>This Inner Loop Header: Depth=1
	movq	-832(%rbp), %rdi                # 8-byte Reload
	addq	$-64, %rdi
	movq	%rdi, -848(%rbp)                # 8-byte Spill
	callq	_ZNSt4pairIKNSt7__cxx1112basic_stringIcSt11char_traitsIcESaIcEEESt8functionIFiRKSt6vectorISt17basic_string_viewIcS3_ESaISA_EEEEED2Ev
	movq	-752(%rbp), %rcx                # 8-byte Reload
	movq	-848(%rbp), %rax                # 8-byte Reload
	cmpq	%rcx, %rax
	movq	%rax, -832(%rbp)                # 8-byte Spill
	jne	.LBB44_18
.LBB44_19:
	jmp	.LBB44_46
.LBB44_20:
.Ltmp139:
	movq	%rax, %rcx
	movl	%edx, %eax
	movq	%rcx, -712(%rbp)
	movl	%eax, -716(%rbp)
	leaq	-520(%rbp), %rax
	movq	%rax, -656(%rbp)
	movq	-656(%rbp), %rdi
	callq	_ZNSt15__new_allocatorISt4pairIKNSt7__cxx1112basic_stringIcSt11char_traitsIcESaIcEEESt8functionIFiRKSt6vectorISt17basic_string_viewIcS4_ESaISB_EEEEEED2Ev
	leaq	-392(%rbp), %rax
	movq	%rax, -864(%rbp)                # 8-byte Spill
	addq	$384, %rax                      # imm = 0x180
	movq	%rax, -856(%rbp)                # 8-byte Spill
.LBB44_21:                              # =>This Inner Loop Header: Depth=1
	movq	-856(%rbp), %rdi                # 8-byte Reload
	addq	$-64, %rdi
	movq	%rdi, -872(%rbp)                # 8-byte Spill
	callq	_ZNSt4pairIKNSt7__cxx1112basic_stringIcSt11char_traitsIcESaIcEEESt8functionIFiRKSt6vectorISt17basic_string_viewIcS3_ESaISA_EEEEED2Ev
	movq	-864(%rbp), %rcx                # 8-byte Reload
	movq	-872(%rbp), %rax                # 8-byte Reload
	cmpq	%rcx, %rax
	movq	%rax, -856(%rbp)                # 8-byte Spill
	jne	.LBB44_21
# %bb.22:
	jmp	.LBB44_46
.LBB44_23:
.Ltmp148:
	movq	%rax, %rcx
	movl	%edx, %eax
	movq	%rcx, -712(%rbp)
	movl	%eax, -716(%rbp)
	jmp	.LBB44_45
.LBB44_24:                              #   in Loop: Header=BB44_11 Depth=1
	leaq	-544(%rbp), %rdi
	callq	_ZNSt6vectorISt17basic_string_viewIcSt11char_traitsIcEESaIS3_EE5frontEv
	movq	%rax, %rsi
	leaq	-576(%rbp), %rdx
	movq	%rdx, -648(%rbp)
	movq	-648(%rbp), %rax
	movq	%rax, -624(%rbp)
.Ltmp149:
	leaq	-456(%rbp), %rdi
	callq	_ZNSt7__cxx1112basic_stringIcSt11char_traitsIcESaIcEEC2ISt17basic_string_viewIcS2_EvEERKT_RKS3_
.Ltmp150:
	jmp	.LBB44_25
.LBB44_25:                              #   in Loop: Header=BB44_11 Depth=1
.Ltmp152:
	leaq	-504(%rbp), %rdi
	leaq	-456(%rbp), %rsi
	callq	_ZNSt3mapINSt7__cxx1112basic_stringIcSt11char_traitsIcESaIcEEESt8functionIFiRKSt6vectorISt17basic_string_viewIcS3_ESaIS9_EEEESt4lessIS5_ESaISt4pairIKS5_SF_EEE4findERSJ_
.Ltmp153:
	movq	%rax, -880(%rbp)                # 8-byte Spill
	jmp	.LBB44_26
.LBB44_26:                              #   in Loop: Header=BB44_11 Depth=1
	movq	-880(%rbp), %rax                # 8-byte Reload
	movq	%rax, -568(%rbp)
	leaq	-456(%rbp), %rdi
	callq	_ZNSt7__cxx1112basic_stringIcSt11char_traitsIcESaIcEED1Ev@PLT
	leaq	-576(%rbp), %rax
	movq	%rax, -640(%rbp)
	movq	-640(%rbp), %rdi
	callq	_ZNSt15__new_allocatorIcED2Ev
	movb	$0, -741(%rbp)
	leaq	-504(%rbp), %rdi
	callq	_ZNSt3mapINSt7__cxx1112basic_stringIcSt11char_traitsIcESaIcEEESt8functionIFiRKSt6vectorISt17basic_string_viewIcS3_ESaIS9_EEEESt4lessIS5_ESaISt4pairIKS5_SF_EEE3endEv
	movq	%rax, -584(%rbp)
	leaq	-568(%rbp), %rdi
	leaq	-584(%rbp), %rsi
	callq	_ZStneRKSt17_Rb_tree_iteratorISt4pairIKNSt7__cxx1112basic_stringIcSt11char_traitsIcESaIcEEESt8functionIFiRKSt6vectorISt17basic_string_viewIcS4_ESaISB_EEEEEESL_
	testb	$1, %al
	jne	.LBB44_27
	jmp	.LBB44_33
.LBB44_27:                              #   in Loop: Header=BB44_11 Depth=1
	leaq	-568(%rbp), %rdi
	callq	_ZNKSt17_Rb_tree_iteratorISt4pairIKNSt7__cxx1112basic_stringIcSt11char_traitsIcESaIcEEESt8functionIFiRKSt6vectorISt17basic_string_viewIcS4_ESaISB_EEEEEEptEv
	movq	%rax, %rdi
	addq	$32, %rdi
.Ltmp159:
	leaq	-544(%rbp), %rsi
	callq	_ZNKSt8functionIFiRKSt6vectorISt17basic_string_viewIcSt11char_traitsIcEESaIS4_EEEEclES8_
.Ltmp160:
	movl	%eax, -884(%rbp)                # 4-byte Spill
	jmp	.LBB44_28
.LBB44_28:                              #   in Loop: Header=BB44_11 Depth=1
	movl	-884(%rbp), %eax                # 4-byte Reload
	cmpl	$0, %eax
	sete	%al
	andb	$1, %al
	movb	%al, -741(%rbp)
	jmp	.LBB44_36
.LBB44_29:
.Ltmp151:
	movq	%rax, %rcx
	movl	%edx, %eax
	movq	%rcx, -712(%rbp)
	movl	%eax, -716(%rbp)
	jmp	.LBB44_31
.LBB44_30:
.Ltmp154:
	movq	%rax, %rcx
	movl	%edx, %eax
	movq	%rcx, -712(%rbp)
	movl	%eax, -716(%rbp)
	leaq	-456(%rbp), %rdi
	callq	_ZNSt7__cxx1112basic_stringIcSt11char_traitsIcESaIcEED1Ev@PLT
.LBB44_31:
	leaq	-576(%rbp), %rax
	movq	%rax, -632(%rbp)
	movq	-632(%rbp), %rdi
	callq	_ZNSt15__new_allocatorIcED2Ev
	jmp	.LBB44_42
.LBB44_32:
.Ltmp167:
	movq	%rax, %rcx
	movl	%edx, %eax
	movq	%rcx, -712(%rbp)
	movl	%eax, -716(%rbp)
	jmp	.LBB44_42
.LBB44_33:                              #   in Loop: Header=BB44_11 Depth=1
	leaq	-544(%rbp), %rdi
	callq	_ZNSt6vectorISt17basic_string_viewIcSt11char_traitsIcEESaIS3_EE5frontEv
	movups	(%rax), %xmm0
	movaps	%xmm0, -608(%rbp)
	movq	-608(%rbp), %rsi
	movq	-600(%rbp), %rdx
.Ltmp155:
	movq	_ZSt4cerr@GOTPCREL(%rip), %rdi
	callq	_ZStlsIcSt11char_traitsIcEERSt13basic_ostreamIT_T0_ES6_St17basic_string_viewIS3_S4_E
.Ltmp156:
	movq	%rax, -896(%rbp)                # 8-byte Spill
	jmp	.LBB44_34
.LBB44_34:                              #   in Loop: Header=BB44_11 Depth=1
.Ltmp157:
	movq	-896(%rbp), %rdi                # 8-byte Reload
	leaq	.L.str.19(%rip), %rsi
	callq	_ZStlsISt11char_traitsIcEERSt13basic_ostreamIcT_ES5_PKc@PLT
.Ltmp158:
	jmp	.LBB44_35
.LBB44_35:                              #   in Loop: Header=BB44_11 Depth=1
	jmp	.LBB44_36
.LBB44_36:                              #   in Loop: Header=BB44_11 Depth=1
.Ltmp161:
	movq	_ZSt4cout@GOTPCREL(%rip), %rdi
	leaq	.L.str.20(%rip), %rsi
	callq	_ZStlsISt11char_traitsIcEERSt13basic_ostreamIcT_ES5_PKc@PLT
.Ltmp162:
	movq	%rax, -904(%rbp)                # 8-byte Spill
	jmp	.LBB44_37
.LBB44_37:                              #   in Loop: Header=BB44_11 Depth=1
	movq	-904(%rbp), %rdi                # 8-byte Reload
	movzbl	-741(%rbp), %esi
.Ltmp163:
	andl	$1, %esi
	addl	$49, %esi
	callq	_ZStlsISt11char_traitsIcEERSt13basic_ostreamIcT_ES5_c@PLT
.Ltmp164:
	movq	%rax, -912(%rbp)                # 8-byte Spill
	jmp	.LBB44_38
.LBB44_38:                              #   in Loop: Header=BB44_11 Depth=1
.Ltmp165:
	movq	-912(%rbp), %rdi                # 8-byte Reload
	leaq	.L.str.21(%rip), %rsi
	callq	_ZStlsISt11char_traitsIcEERSt13basic_ostreamIcT_ES5_PKc@PLT
.Ltmp166:
	jmp	.LBB44_39
.LBB44_39:                              #   in Loop: Header=BB44_11 Depth=1
	movl	$0, -740(%rbp)
.LBB44_40:                              #   in Loop: Header=BB44_11 Depth=1
	leaq	-544(%rbp), %rdi
	callq	_ZNSt6vectorISt17basic_string_viewIcSt11char_traitsIcEESaIS3_EED2Ev
	movl	-740(%rbp), %eax
	testl	%eax, %eax
	je	.LBB44_41
	jmp	.LBB44_50
.LBB44_50:                              #   in Loop: Header=BB44_11 Depth=1
	jmp	.LBB44_11
.LBB44_41:                              #   in Loop: Header=BB44_11 Depth=1
	jmp	.LBB44_11
.LBB44_42:
	leaq	-544(%rbp), %rdi
	callq	_ZNSt6vectorISt17basic_string_viewIcSt11char_traitsIcEESaIS3_EED2Ev
	jmp	.LBB44_45
.LBB44_43:
	leaq	-424(%rbp), %rdi
	callq	_ZNSt7__cxx1112basic_stringIcSt11char_traitsIcESaIcEED1Ev@PLT
	leaq	-504(%rbp), %rdi
	callq	_ZNSt3mapINSt7__cxx1112basic_stringIcSt11char_traitsIcESaIcEEESt8functionIFiRKSt6vectorISt17basic_string_viewIcS3_ESaIS9_EEEESt4lessIS5_ESaISt4pairIKS5_SF_EEED2Ev
	movl	-676(%rbp), %eax
	movl	%eax, -916(%rbp)                # 4-byte Spill
	movq	%fs:40, %rax
	movq	-8(%rbp), %rcx
	cmpq	%rcx, %rax
	jne	.LBB44_49
# %bb.44:
	movl	-916(%rbp), %eax                # 4-byte Reload
	addq	$928, %rsp                      # imm = 0x3A0
	popq	%rbp
	.cfi_def_cfa %rsp, 8
	retq
.LBB44_45:
	.cfi_def_cfa %rbp, 16
	leaq	-424(%rbp), %rdi
	callq	_ZNSt7__cxx1112basic_stringIcSt11char_traitsIcESaIcEED1Ev@PLT
	leaq	-504(%rbp), %rdi
	callq	_ZNSt3mapINSt7__cxx1112basic_stringIcSt11char_traitsIcESaIcEEESt8functionIFiRKSt6vectorISt17basic_string_viewIcS3_ESaIS9_EEEESt4lessIS5_ESaISt4pairIKS5_SF_EEED2Ev
.LBB44_46:
	movq	-712(%rbp), %rax
	movq	%rax, -928(%rbp)                # 8-byte Spill
	movq	%fs:40, %rax
	movq	-8(%rbp), %rcx
	cmpq	%rcx, %rax
	jne	.LBB44_49
# %bb.47:
	movq	-928(%rbp), %rdi                # 8-byte Reload
	callq	_Unwind_Resume@PLT
# %bb.48:
	.cfi_def_cfa %rsp, 8
	.cfi_restore %rbp
.LBB44_49:
	.cfi_def_cfa %rbp, 16
	.cfi_offset %rbp, -16
	callq	__stack_chk_fail@PLT
.Lfunc_end44:
	.size	main, .Lfunc_end44-main
	.cfi_endproc
	.section	.gcc_except_table,"a",@progbits
	.p2align	2, 0x0
GCC_except_table44:
.Lexception11:
	.byte	255                             # @LPStart Encoding = omit
	.byte	255                             # @TType Encoding = omit
	.byte	1                               # Call site Encoding = uleb128
	.uleb128 .Lcst_end11-.Lcst_begin11
.Lcst_begin11:
	.uleb128 .Ltmp124-.Lfunc_begin11        # >> Call Site 1 <<
	.uleb128 .Ltmp135-.Ltmp124              #   Call between .Ltmp124 and .Ltmp135
	.uleb128 .Ltmp136-.Lfunc_begin11        #     jumps to .Ltmp136
	.byte	0                               #   On action: cleanup
	.uleb128 .Ltmp137-.Lfunc_begin11        # >> Call Site 2 <<
	.uleb128 .Ltmp138-.Ltmp137              #   Call between .Ltmp137 and .Ltmp138
	.uleb128 .Ltmp139-.Lfunc_begin11        #     jumps to .Ltmp139
	.byte	0                               #   On action: cleanup
	.uleb128 .Ltmp140-.Lfunc_begin11        # >> Call Site 3 <<
	.uleb128 .Ltmp147-.Ltmp140              #   Call between .Ltmp140 and .Ltmp147
	.uleb128 .Ltmp148-.Lfunc_begin11        #     jumps to .Ltmp148
	.byte	0                               #   On action: cleanup
	.uleb128 .Ltmp149-.Lfunc_begin11        # >> Call Site 4 <<
	.uleb128 .Ltmp150-.Ltmp149              #   Call between .Ltmp149 and .Ltmp150
	.uleb128 .Ltmp151-.Lfunc_begin11        #     jumps to .Ltmp151
	.byte	0                               #   On action: cleanup
	.uleb128 .Ltmp152-.Lfunc_begin11        # >> Call Site 5 <<
	.uleb128 .Ltmp153-.Ltmp152              #   Call between .Ltmp152 and .Ltmp153
	.uleb128 .Ltmp154-.Lfunc_begin11        #     jumps to .Ltmp154
	.byte	0                               #   On action: cleanup
	.uleb128 .Ltmp159-.Lfunc_begin11        # >> Call Site 6 <<
	.uleb128 .Ltmp166-.Ltmp159              #   Call between .Ltmp159 and .Ltmp166
	.uleb128 .Ltmp167-.Lfunc_begin11        #     jumps to .Ltmp167
	.byte	0                               #   On action: cleanup
	.uleb128 .Ltmp166-.Lfunc_begin11        # >> Call Site 7 <<
	.uleb128 .Lfunc_end44-.Ltmp166          #   Call between .Ltmp166 and .Lfunc_end44
	.byte	0                               #     has no landing pad
	.byte	0                               #   On action: cleanup
.Lcst_end11:
	.p2align	2, 0x0
                                        # -- End function
	.section	.text._ZNSt4pairIKNSt7__cxx1112basic_stringIcSt11char_traitsIcESaIcEEESt8functionIFiRKSt6vectorISt17basic_string_viewIcS3_ESaISA_EEEEEC2IRA3_KcRSF_Lb1EEEOT_OT0_,"axG",@progbits,_ZNSt4pairIKNSt7__cxx1112basic_stringIcSt11char_traitsIcESaIcEEESt8functionIFiRKSt6vectorISt17basic_string_viewIcS3_ESaISA_EEEEEC2IRA3_KcRSF_Lb1EEEOT_OT0_,comdat
	.weak	_ZNSt4pairIKNSt7__cxx1112basic_stringIcSt11char_traitsIcESaIcEEESt8functionIFiRKSt6vectorISt17basic_string_viewIcS3_ESaISA_EEEEEC2IRA3_KcRSF_Lb1EEEOT_OT0_ # -- Begin function _ZNSt4pairIKNSt7__cxx1112basic_stringIcSt11char_traitsIcESaIcEEESt8functionIFiRKSt6vectorISt17basic_string_viewIcS3_ESaISA_EEEEEC2IRA3_KcRSF_Lb1EEEOT_OT0_
	.p2align	4, 0x90
	.type	_ZNSt4pairIKNSt7__cxx1112basic_stringIcSt11char_traitsIcESaIcEEESt8functionIFiRKSt6vectorISt17basic_string_viewIcS3_ESaISA_EEEEEC2IRA3_KcRSF_Lb1EEEOT_OT0_,@function
_ZNSt4pairIKNSt7__cxx1112basic_stringIcSt11char_traitsIcESaIcEEESt8functionIFiRKSt6vectorISt17basic_string_viewIcS3_ESaISA_EEEEEC2IRA3_KcRSF_Lb1EEEOT_OT0_: # @_ZNSt4pairIKNSt7__cxx1112basic_stringIcSt11char_traitsIcESaIcEEESt8functionIFiRKSt6vectorISt17basic_string_viewIcS3_ESaISA_EEEEEC2IRA3_KcRSF_Lb1EEEOT_OT0_
.Lfunc_begin12:
	.cfi_startproc
	.cfi_personality 155, DW.ref.__gxx_personality_v0
	.cfi_lsda 27, .Lexception12
# %bb.0:
	pushq	%rbp
	.cfi_def_cfa_offset 16
	.cfi_offset %rbp, -16
	movq	%rsp, %rbp
	.cfi_def_cfa_register %rbp
	subq	$112, %rsp
	movq	%fs:40, %rax
	movq	%rax, -8(%rbp)
	movq	%rdi, -56(%rbp)
	movq	%rsi, -64(%rbp)
	movq	%rdx, -72(%rbp)
	movq	-56(%rbp), %rdi
	movq	%rdi, -96(%rbp)                 # 8-byte Spill
	movq	-64(%rbp), %rsi
	leaq	-16(%rbp), %rdx
	movq	%rdx, -48(%rbp)
	movq	-48(%rbp), %rax
	movq	%rax, -24(%rbp)
.Ltmp168:
	callq	_ZNSt7__cxx1112basic_stringIcSt11char_traitsIcESaIcEEC2IS3_EEPKcRKS3_
.Ltmp169:
	jmp	.LBB45_1
.LBB45_1:
	leaq	-16(%rbp), %rax
	movq	%rax, -40(%rbp)
	movq	-40(%rbp), %rdi
	callq	_ZNSt15__new_allocatorIcED2Ev
	movq	-96(%rbp), %rdi                 # 8-byte Reload
	addq	$32, %rdi
	movq	-72(%rbp), %rsi
	callq	_ZNSt8functionIFiRKSt6vectorISt17basic_string_viewIcSt11char_traitsIcEESaIS4_EEEEC2IRS9_vEEOT_
	movq	%fs:40, %rax
	movq	-8(%rbp), %rcx
	cmpq	%rcx, %rax
	jne	.LBB45_6
# %bb.2:
	addq	$112, %rsp
	popq	%rbp
	.cfi_def_cfa %rsp, 8
	retq
.LBB45_3:
	.cfi_def_cfa %rbp, 16
.Ltmp170:
	movq	%rax, %rcx
	movl	%edx, %eax
	movq	%rcx, -80(%rbp)
	movl	%eax, -84(%rbp)
	leaq	-16(%rbp), %rax
	movq	%rax, -32(%rbp)
	movq	-32(%rbp), %rdi
	callq	_ZNSt15__new_allocatorIcED2Ev
# %bb.4:
	movq	-80(%rbp), %rax
	movq	%rax, -104(%rbp)                # 8-byte Spill
	movq	%fs:40, %rax
	movq	-8(%rbp), %rcx
	cmpq	%rcx, %rax
	jne	.LBB45_6
# %bb.5:
	movq	-104(%rbp), %rdi                # 8-byte Reload
	callq	_Unwind_Resume@PLT
.LBB45_6:
	callq	__stack_chk_fail@PLT
.Lfunc_end45:
	.size	_ZNSt4pairIKNSt7__cxx1112basic_stringIcSt11char_traitsIcESaIcEEESt8functionIFiRKSt6vectorISt17basic_string_viewIcS3_ESaISA_EEEEEC2IRA3_KcRSF_Lb1EEEOT_OT0_, .Lfunc_end45-_ZNSt4pairIKNSt7__cxx1112basic_stringIcSt11char_traitsIcESaIcEEESt8functionIFiRKSt6vectorISt17basic_string_viewIcS3_ESaISA_EEEEEC2IRA3_KcRSF_Lb1EEEOT_OT0_
	.cfi_endproc
	.section	.gcc_except_table._ZNSt4pairIKNSt7__cxx1112basic_stringIcSt11char_traitsIcESaIcEEESt8functionIFiRKSt6vectorISt17basic_string_viewIcS3_ESaISA_EEEEEC2IRA3_KcRSF_Lb1EEEOT_OT0_,"aG",@progbits,_ZNSt4pairIKNSt7__cxx1112basic_stringIcSt11char_traitsIcESaIcEEESt8functionIFiRKSt6vectorISt17basic_string_viewIcS3_ESaISA_EEEEEC2IRA3_KcRSF_Lb1EEEOT_OT0_,comdat
	.p2align	2, 0x0
GCC_except_table45:
.Lexception12:
	.byte	255                             # @LPStart Encoding = omit
	.byte	255                             # @TType Encoding = omit
	.byte	1                               # Call site Encoding = uleb128
	.uleb128 .Lcst_end12-.Lcst_begin12
.Lcst_begin12:
	.uleb128 .Ltmp168-.Lfunc_begin12        # >> Call Site 1 <<
	.uleb128 .Ltmp169-.Ltmp168              #   Call between .Ltmp168 and .Ltmp169
	.uleb128 .Ltmp170-.Lfunc_begin12        #     jumps to .Ltmp170
	.byte	0                               #   On action: cleanup
	.uleb128 .Ltmp169-.Lfunc_begin12        # >> Call Site 2 <<
	.uleb128 .Lfunc_end45-.Ltmp169          #   Call between .Ltmp169 and .Lfunc_end45
	.byte	0                               #     has no landing pad
	.byte	0                               #   On action: cleanup
.Lcst_end12:
	.p2align	2, 0x0
                                        # -- End function
	.section	.text._ZNSt4pairIKNSt7__cxx1112basic_stringIcSt11char_traitsIcESaIcEEESt8functionIFiRKSt6vectorISt17basic_string_viewIcS3_ESaISA_EEEEEC2IRA4_KcRSF_Lb1EEEOT_OT0_,"axG",@progbits,_ZNSt4pairIKNSt7__cxx1112basic_stringIcSt11char_traitsIcESaIcEEESt8functionIFiRKSt6vectorISt17basic_string_viewIcS3_ESaISA_EEEEEC2IRA4_KcRSF_Lb1EEEOT_OT0_,comdat
	.weak	_ZNSt4pairIKNSt7__cxx1112basic_stringIcSt11char_traitsIcESaIcEEESt8functionIFiRKSt6vectorISt17basic_string_viewIcS3_ESaISA_EEEEEC2IRA4_KcRSF_Lb1EEEOT_OT0_ # -- Begin function _ZNSt4pairIKNSt7__cxx1112basic_stringIcSt11char_traitsIcESaIcEEESt8functionIFiRKSt6vectorISt17basic_string_viewIcS3_ESaISA_EEEEEC2IRA4_KcRSF_Lb1EEEOT_OT0_
	.p2align	4, 0x90
	.type	_ZNSt4pairIKNSt7__cxx1112basic_stringIcSt11char_traitsIcESaIcEEESt8functionIFiRKSt6vectorISt17basic_string_viewIcS3_ESaISA_EEEEEC2IRA4_KcRSF_Lb1EEEOT_OT0_,@function
_ZNSt4pairIKNSt7__cxx1112basic_stringIcSt11char_traitsIcESaIcEEESt8functionIFiRKSt6vectorISt17basic_string_viewIcS3_ESaISA_EEEEEC2IRA4_KcRSF_Lb1EEEOT_OT0_: # @_ZNSt4pairIKNSt7__cxx1112basic_stringIcSt11char_traitsIcESaIcEEESt8functionIFiRKSt6vectorISt17basic_string_viewIcS3_ESaISA_EEEEEC2IRA4_KcRSF_Lb1EEEOT_OT0_
.Lfunc_begin13:
	.cfi_startproc
	.cfi_personality 155, DW.ref.__gxx_personality_v0
	.cfi_lsda 27, .Lexception13
# %bb.0:
	pushq	%rbp
	.cfi_def_cfa_offset 16
	.cfi_offset %rbp, -16
	movq	%rsp, %rbp
	.cfi_def_cfa_register %rbp
	subq	$112, %rsp
	movq	%fs:40, %rax
	movq	%rax, -8(%rbp)
	movq	%rdi, -56(%rbp)
	movq	%rsi, -64(%rbp)
	movq	%rdx, -72(%rbp)
	movq	-56(%rbp), %rdi
	movq	%rdi, -96(%rbp)                 # 8-byte Spill
	movq	-64(%rbp), %rsi
	leaq	-16(%rbp), %rdx
	movq	%rdx, -48(%rbp)
	movq	-48(%rbp), %rax
	movq	%rax, -24(%rbp)
.Ltmp171:
	callq	_ZNSt7__cxx1112basic_stringIcSt11char_traitsIcESaIcEEC2IS3_EEPKcRKS3_
.Ltmp172:
	jmp	.LBB46_1
.LBB46_1:
	leaq	-16(%rbp), %rax
	movq	%rax, -40(%rbp)
	movq	-40(%rbp), %rdi
	callq	_ZNSt15__new_allocatorIcED2Ev
	movq	-96(%rbp), %rdi                 # 8-byte Reload
	addq	$32, %rdi
	movq	-72(%rbp), %rsi
	callq	_ZNSt8functionIFiRKSt6vectorISt17basic_string_viewIcSt11char_traitsIcEESaIS4_EEEEC2IRS9_vEEOT_
	movq	%fs:40, %rax
	movq	-8(%rbp), %rcx
	cmpq	%rcx, %rax
	jne	.LBB46_6
# %bb.2:
	addq	$112, %rsp
	popq	%rbp
	.cfi_def_cfa %rsp, 8
	retq
.LBB46_3:
	.cfi_def_cfa %rbp, 16
.Ltmp173:
	movq	%rax, %rcx
	movl	%edx, %eax
	movq	%rcx, -80(%rbp)
	movl	%eax, -84(%rbp)
	leaq	-16(%rbp), %rax
	movq	%rax, -32(%rbp)
	movq	-32(%rbp), %rdi
	callq	_ZNSt15__new_allocatorIcED2Ev
# %bb.4:
	movq	-80(%rbp), %rax
	movq	%rax, -104(%rbp)                # 8-byte Spill
	movq	%fs:40, %rax
	movq	-8(%rbp), %rcx
	cmpq	%rcx, %rax
	jne	.LBB46_6
# %bb.5:
	movq	-104(%rbp), %rdi                # 8-byte Reload
	callq	_Unwind_Resume@PLT
.LBB46_6:
	callq	__stack_chk_fail@PLT
.Lfunc_end46:
	.size	_ZNSt4pairIKNSt7__cxx1112basic_stringIcSt11char_traitsIcESaIcEEESt8functionIFiRKSt6vectorISt17basic_string_viewIcS3_ESaISA_EEEEEC2IRA4_KcRSF_Lb1EEEOT_OT0_, .Lfunc_end46-_ZNSt4pairIKNSt7__cxx1112basic_stringIcSt11char_traitsIcESaIcEEESt8functionIFiRKSt6vectorISt17basic_string_viewIcS3_ESaISA_EEEEEC2IRA4_KcRSF_Lb1EEEOT_OT0_
	.cfi_endproc
	.section	.gcc_except_table._ZNSt4pairIKNSt7__cxx1112basic_stringIcSt11char_traitsIcESaIcEEESt8functionIFiRKSt6vectorISt17basic_string_viewIcS3_ESaISA_EEEEEC2IRA4_KcRSF_Lb1EEEOT_OT0_,"aG",@progbits,_ZNSt4pairIKNSt7__cxx1112basic_stringIcSt11char_traitsIcESaIcEEESt8functionIFiRKSt6vectorISt17basic_string_viewIcS3_ESaISA_EEEEEC2IRA4_KcRSF_Lb1EEEOT_OT0_,comdat
	.p2align	2, 0x0
GCC_except_table46:
.Lexception13:
	.byte	255                             # @LPStart Encoding = omit
	.byte	255                             # @TType Encoding = omit
	.byte	1                               # Call site Encoding = uleb128
	.uleb128 .Lcst_end13-.Lcst_begin13
.Lcst_begin13:
	.uleb128 .Ltmp171-.Lfunc_begin13        # >> Call Site 1 <<
	.uleb128 .Ltmp172-.Ltmp171              #   Call between .Ltmp171 and .Ltmp172
	.uleb128 .Ltmp173-.Lfunc_begin13        #     jumps to .Ltmp173
	.byte	0                               #   On action: cleanup
	.uleb128 .Ltmp172-.Lfunc_begin13        # >> Call Site 2 <<
	.uleb128 .Lfunc_end46-.Ltmp172          #   Call between .Ltmp172 and .Lfunc_end46
	.byte	0                               #     has no landing pad
	.byte	0                               #   On action: cleanup
.Lcst_end13:
	.p2align	2, 0x0
                                        # -- End function
	.section	.text._ZNSt4pairIKNSt7__cxx1112basic_stringIcSt11char_traitsIcESaIcEEESt8functionIFiRKSt6vectorISt17basic_string_viewIcS3_ESaISA_EEEEEC2IRA5_KcRSF_Lb1EEEOT_OT0_,"axG",@progbits,_ZNSt4pairIKNSt7__cxx1112basic_stringIcSt11char_traitsIcESaIcEEESt8functionIFiRKSt6vectorISt17basic_string_viewIcS3_ESaISA_EEEEEC2IRA5_KcRSF_Lb1EEEOT_OT0_,comdat
	.weak	_ZNSt4pairIKNSt7__cxx1112basic_stringIcSt11char_traitsIcESaIcEEESt8functionIFiRKSt6vectorISt17basic_string_viewIcS3_ESaISA_EEEEEC2IRA5_KcRSF_Lb1EEEOT_OT0_ # -- Begin function _ZNSt4pairIKNSt7__cxx1112basic_stringIcSt11char_traitsIcESaIcEEESt8functionIFiRKSt6vectorISt17basic_string_viewIcS3_ESaISA_EEEEEC2IRA5_KcRSF_Lb1EEEOT_OT0_
	.p2align	4, 0x90
	.type	_ZNSt4pairIKNSt7__cxx1112basic_stringIcSt11char_traitsIcESaIcEEESt8functionIFiRKSt6vectorISt17basic_string_viewIcS3_ESaISA_EEEEEC2IRA5_KcRSF_Lb1EEEOT_OT0_,@function
_ZNSt4pairIKNSt7__cxx1112basic_stringIcSt11char_traitsIcESaIcEEESt8functionIFiRKSt6vectorISt17basic_string_viewIcS3_ESaISA_EEEEEC2IRA5_KcRSF_Lb1EEEOT_OT0_: # @_ZNSt4pairIKNSt7__cxx1112basic_stringIcSt11char_traitsIcESaIcEEESt8functionIFiRKSt6vectorISt17basic_string_viewIcS3_ESaISA_EEEEEC2IRA5_KcRSF_Lb1EEEOT_OT0_
.Lfunc_begin14:
	.cfi_startproc
	.cfi_personality 155, DW.ref.__gxx_personality_v0
	.cfi_lsda 27, .Lexception14
# %bb.0:
	pushq	%rbp
	.cfi_def_cfa_offset 16
	.cfi_offset %rbp, -16
	movq	%rsp, %rbp
	.cfi_def_cfa_register %rbp
	subq	$112, %rsp
	movq	%fs:40, %rax
	movq	%rax, -8(%rbp)
	movq	%rdi, -56(%rbp)
	movq	%rsi, -64(%rbp)
	movq	%rdx, -72(%rbp)
	movq	-56(%rbp), %rdi
	movq	%rdi, -96(%rbp)                 # 8-byte Spill
	movq	-64(%rbp), %rsi
	leaq	-16(%rbp), %rdx
	movq	%rdx, -48(%rbp)
	movq	-48(%rbp), %rax
	movq	%rax, -24(%rbp)
.Ltmp174:
	callq	_ZNSt7__cxx1112basic_stringIcSt11char_traitsIcESaIcEEC2IS3_EEPKcRKS3_
.Ltmp175:
	jmp	.LBB47_1
.LBB47_1:
	leaq	-16(%rbp), %rax
	movq	%rax, -40(%rbp)
	movq	-40(%rbp), %rdi
	callq	_ZNSt15__new_allocatorIcED2Ev
	movq	-96(%rbp), %rdi                 # 8-byte Reload
	addq	$32, %rdi
	movq	-72(%rbp), %rsi
	callq	_ZNSt8functionIFiRKSt6vectorISt17basic_string_viewIcSt11char_traitsIcEESaIS4_EEEEC2IRS9_vEEOT_
	movq	%fs:40, %rax
	movq	-8(%rbp), %rcx
	cmpq	%rcx, %rax
	jne	.LBB47_6
# %bb.2:
	addq	$112, %rsp
	popq	%rbp
	.cfi_def_cfa %rsp, 8
	retq
.LBB47_3:
	.cfi_def_cfa %rbp, 16
.Ltmp176:
	movq	%rax, %rcx
	movl	%edx, %eax
	movq	%rcx, -80(%rbp)
	movl	%eax, -84(%rbp)
	leaq	-16(%rbp), %rax
	movq	%rax, -32(%rbp)
	movq	-32(%rbp), %rdi
	callq	_ZNSt15__new_allocatorIcED2Ev
# %bb.4:
	movq	-80(%rbp), %rax
	movq	%rax, -104(%rbp)                # 8-byte Spill
	movq	%fs:40, %rax
	movq	-8(%rbp), %rcx
	cmpq	%rcx, %rax
	jne	.LBB47_6
# %bb.5:
	movq	-104(%rbp), %rdi                # 8-byte Reload
	callq	_Unwind_Resume@PLT
.LBB47_6:
	callq	__stack_chk_fail@PLT
.Lfunc_end47:
	.size	_ZNSt4pairIKNSt7__cxx1112basic_stringIcSt11char_traitsIcESaIcEEESt8functionIFiRKSt6vectorISt17basic_string_viewIcS3_ESaISA_EEEEEC2IRA5_KcRSF_Lb1EEEOT_OT0_, .Lfunc_end47-_ZNSt4pairIKNSt7__cxx1112basic_stringIcSt11char_traitsIcESaIcEEESt8functionIFiRKSt6vectorISt17basic_string_viewIcS3_ESaISA_EEEEEC2IRA5_KcRSF_Lb1EEEOT_OT0_
	.cfi_endproc
	.section	.gcc_except_table._ZNSt4pairIKNSt7__cxx1112basic_stringIcSt11char_traitsIcESaIcEEESt8functionIFiRKSt6vectorISt17basic_string_viewIcS3_ESaISA_EEEEEC2IRA5_KcRSF_Lb1EEEOT_OT0_,"aG",@progbits,_ZNSt4pairIKNSt7__cxx1112basic_stringIcSt11char_traitsIcESaIcEEESt8functionIFiRKSt6vectorISt17basic_string_viewIcS3_ESaISA_EEEEEC2IRA5_KcRSF_Lb1EEEOT_OT0_,comdat
	.p2align	2, 0x0
GCC_except_table47:
.Lexception14:
	.byte	255                             # @LPStart Encoding = omit
	.byte	255                             # @TType Encoding = omit
	.byte	1                               # Call site Encoding = uleb128
	.uleb128 .Lcst_end14-.Lcst_begin14
.Lcst_begin14:
	.uleb128 .Ltmp174-.Lfunc_begin14        # >> Call Site 1 <<
	.uleb128 .Ltmp175-.Ltmp174              #   Call between .Ltmp174 and .Ltmp175
	.uleb128 .Ltmp176-.Lfunc_begin14        #     jumps to .Ltmp176
	.byte	0                               #   On action: cleanup
	.uleb128 .Ltmp175-.Lfunc_begin14        # >> Call Site 2 <<
	.uleb128 .Lfunc_end47-.Ltmp175          #   Call between .Ltmp175 and .Lfunc_end47
	.byte	0                               #     has no landing pad
	.byte	0                               #   On action: cleanup
.Lcst_end14:
	.p2align	2, 0x0
                                        # -- End function
	.section	.text._ZNSt4pairIKNSt7__cxx1112basic_stringIcSt11char_traitsIcESaIcEEESt8functionIFiRKSt6vectorISt17basic_string_viewIcS3_ESaISA_EEEEEC2IRA6_KcRSF_Lb1EEEOT_OT0_,"axG",@progbits,_ZNSt4pairIKNSt7__cxx1112basic_stringIcSt11char_traitsIcESaIcEEESt8functionIFiRKSt6vectorISt17basic_string_viewIcS3_ESaISA_EEEEEC2IRA6_KcRSF_Lb1EEEOT_OT0_,comdat
	.weak	_ZNSt4pairIKNSt7__cxx1112basic_stringIcSt11char_traitsIcESaIcEEESt8functionIFiRKSt6vectorISt17basic_string_viewIcS3_ESaISA_EEEEEC2IRA6_KcRSF_Lb1EEEOT_OT0_ # -- Begin function _ZNSt4pairIKNSt7__cxx1112basic_stringIcSt11char_traitsIcESaIcEEESt8functionIFiRKSt6vectorISt17basic_string_viewIcS3_ESaISA_EEEEEC2IRA6_KcRSF_Lb1EEEOT_OT0_
	.p2align	4, 0x90
	.type	_ZNSt4pairIKNSt7__cxx1112basic_stringIcSt11char_traitsIcESaIcEEESt8functionIFiRKSt6vectorISt17basic_string_viewIcS3_ESaISA_EEEEEC2IRA6_KcRSF_Lb1EEEOT_OT0_,@function
_ZNSt4pairIKNSt7__cxx1112basic_stringIcSt11char_traitsIcESaIcEEESt8functionIFiRKSt6vectorISt17basic_string_viewIcS3_ESaISA_EEEEEC2IRA6_KcRSF_Lb1EEEOT_OT0_: # @_ZNSt4pairIKNSt7__cxx1112basic_stringIcSt11char_traitsIcESaIcEEESt8functionIFiRKSt6vectorISt17basic_string_viewIcS3_ESaISA_EEEEEC2IRA6_KcRSF_Lb1EEEOT_OT0_
.Lfunc_begin15:
	.cfi_startproc
	.cfi_personality 155, DW.ref.__gxx_personality_v0
	.cfi_lsda 27, .Lexception15
# %bb.0:
	pushq	%rbp
	.cfi_def_cfa_offset 16
	.cfi_offset %rbp, -16
	movq	%rsp, %rbp
	.cfi_def_cfa_register %rbp
	subq	$112, %rsp
	movq	%fs:40, %rax
	movq	%rax, -8(%rbp)
	movq	%rdi, -56(%rbp)
	movq	%rsi, -64(%rbp)
	movq	%rdx, -72(%rbp)
	movq	-56(%rbp), %rdi
	movq	%rdi, -96(%rbp)                 # 8-byte Spill
	movq	-64(%rbp), %rsi
	leaq	-16(%rbp), %rdx
	movq	%rdx, -48(%rbp)
	movq	-48(%rbp), %rax
	movq	%rax, -24(%rbp)
.Ltmp177:
	callq	_ZNSt7__cxx1112basic_stringIcSt11char_traitsIcESaIcEEC2IS3_EEPKcRKS3_
.Ltmp178:
	jmp	.LBB48_1
.LBB48_1:
	leaq	-16(%rbp), %rax
	movq	%rax, -40(%rbp)
	movq	-40(%rbp), %rdi
	callq	_ZNSt15__new_allocatorIcED2Ev
	movq	-96(%rbp), %rdi                 # 8-byte Reload
	addq	$32, %rdi
	movq	-72(%rbp), %rsi
	callq	_ZNSt8functionIFiRKSt6vectorISt17basic_string_viewIcSt11char_traitsIcEESaIS4_EEEEC2IRS9_vEEOT_
	movq	%fs:40, %rax
	movq	-8(%rbp), %rcx
	cmpq	%rcx, %rax
	jne	.LBB48_6
# %bb.2:
	addq	$112, %rsp
	popq	%rbp
	.cfi_def_cfa %rsp, 8
	retq
.LBB48_3:
	.cfi_def_cfa %rbp, 16
.Ltmp179:
	movq	%rax, %rcx
	movl	%edx, %eax
	movq	%rcx, -80(%rbp)
	movl	%eax, -84(%rbp)
	leaq	-16(%rbp), %rax
	movq	%rax, -32(%rbp)
	movq	-32(%rbp), %rdi
	callq	_ZNSt15__new_allocatorIcED2Ev
# %bb.4:
	movq	-80(%rbp), %rax
	movq	%rax, -104(%rbp)                # 8-byte Spill
	movq	%fs:40, %rax
	movq	-8(%rbp), %rcx
	cmpq	%rcx, %rax
	jne	.LBB48_6
# %bb.5:
	movq	-104(%rbp), %rdi                # 8-byte Reload
	callq	_Unwind_Resume@PLT
.LBB48_6:
	callq	__stack_chk_fail@PLT
.Lfunc_end48:
	.size	_ZNSt4pairIKNSt7__cxx1112basic_stringIcSt11char_traitsIcESaIcEEESt8functionIFiRKSt6vectorISt17basic_string_viewIcS3_ESaISA_EEEEEC2IRA6_KcRSF_Lb1EEEOT_OT0_, .Lfunc_end48-_ZNSt4pairIKNSt7__cxx1112basic_stringIcSt11char_traitsIcESaIcEEESt8functionIFiRKSt6vectorISt17basic_string_viewIcS3_ESaISA_EEEEEC2IRA6_KcRSF_Lb1EEEOT_OT0_
	.cfi_endproc
	.section	.gcc_except_table._ZNSt4pairIKNSt7__cxx1112basic_stringIcSt11char_traitsIcESaIcEEESt8functionIFiRKSt6vectorISt17basic_string_viewIcS3_ESaISA_EEEEEC2IRA6_KcRSF_Lb1EEEOT_OT0_,"aG",@progbits,_ZNSt4pairIKNSt7__cxx1112basic_stringIcSt11char_traitsIcESaIcEEESt8functionIFiRKSt6vectorISt17basic_string_viewIcS3_ESaISA_EEEEEC2IRA6_KcRSF_Lb1EEEOT_OT0_,comdat
	.p2align	2, 0x0
GCC_except_table48:
.Lexception15:
	.byte	255                             # @LPStart Encoding = omit
	.byte	255                             # @TType Encoding = omit
	.byte	1                               # Call site Encoding = uleb128
	.uleb128 .Lcst_end15-.Lcst_begin15
.Lcst_begin15:
	.uleb128 .Ltmp177-.Lfunc_begin15        # >> Call Site 1 <<
	.uleb128 .Ltmp178-.Ltmp177              #   Call between .Ltmp177 and .Ltmp178
	.uleb128 .Ltmp179-.Lfunc_begin15        #     jumps to .Ltmp179
	.byte	0                               #   On action: cleanup
	.uleb128 .Ltmp178-.Lfunc_begin15        # >> Call Site 2 <<
	.uleb128 .Lfunc_end48-.Ltmp178          #   Call between .Ltmp178 and .Lfunc_end48
	.byte	0                               #     has no landing pad
	.byte	0                               #   On action: cleanup
.Lcst_end15:
	.p2align	2, 0x0
                                        # -- End function
	.section	.text._ZNSt4pairIKNSt7__cxx1112basic_stringIcSt11char_traitsIcESaIcEEESt8functionIFiRKSt6vectorISt17basic_string_viewIcS3_ESaISA_EEEEED2Ev,"axG",@progbits,_ZNSt4pairIKNSt7__cxx1112basic_stringIcSt11char_traitsIcESaIcEEESt8functionIFiRKSt6vectorISt17basic_string_viewIcS3_ESaISA_EEEEED2Ev,comdat
	.weak	_ZNSt4pairIKNSt7__cxx1112basic_stringIcSt11char_traitsIcESaIcEEESt8functionIFiRKSt6vectorISt17basic_string_viewIcS3_ESaISA_EEEEED2Ev # -- Begin function _ZNSt4pairIKNSt7__cxx1112basic_stringIcSt11char_traitsIcESaIcEEESt8functionIFiRKSt6vectorISt17basic_string_viewIcS3_ESaISA_EEEEED2Ev
	.p2align	4, 0x90
	.type	_ZNSt4pairIKNSt7__cxx1112basic_stringIcSt11char_traitsIcESaIcEEESt8functionIFiRKSt6vectorISt17basic_string_viewIcS3_ESaISA_EEEEED2Ev,@function
_ZNSt4pairIKNSt7__cxx1112basic_stringIcSt11char_traitsIcESaIcEEESt8functionIFiRKSt6vectorISt17basic_string_viewIcS3_ESaISA_EEEEED2Ev: # @_ZNSt4pairIKNSt7__cxx1112basic_stringIcSt11char_traitsIcESaIcEEESt8functionIFiRKSt6vectorISt17basic_string_viewIcS3_ESaISA_EEEEED2Ev
	.cfi_startproc
# %bb.0:
	pushq	%rbp
	.cfi_def_cfa_offset 16
	.cfi_offset %rbp, -16
	movq	%rsp, %rbp
	.cfi_def_cfa_register %rbp
	subq	$16, %rsp
	movq	%rdi, -8(%rbp)
	movq	-8(%rbp), %rdi
	movq	%rdi, -16(%rbp)                 # 8-byte Spill
	addq	$32, %rdi
	callq	_ZNSt8functionIFiRKSt6vectorISt17basic_string_viewIcSt11char_traitsIcEESaIS4_EEEED2Ev
	movq	-16(%rbp), %rdi                 # 8-byte Reload
	callq	_ZNSt7__cxx1112basic_stringIcSt11char_traitsIcESaIcEED1Ev@PLT
	addq	$16, %rsp
	popq	%rbp
	.cfi_def_cfa %rsp, 8
	retq
.Lfunc_end49:
	.size	_ZNSt4pairIKNSt7__cxx1112basic_stringIcSt11char_traitsIcESaIcEEESt8functionIFiRKSt6vectorISt17basic_string_viewIcS3_ESaISA_EEEEED2Ev, .Lfunc_end49-_ZNSt4pairIKNSt7__cxx1112basic_stringIcSt11char_traitsIcESaIcEEESt8functionIFiRKSt6vectorISt17basic_string_viewIcS3_ESaISA_EEEEED2Ev
	.cfi_endproc
                                        # -- End function
	.section	.text._ZNSt3mapINSt7__cxx1112basic_stringIcSt11char_traitsIcESaIcEEESt8functionIFiRKSt6vectorISt17basic_string_viewIcS3_ESaIS9_EEEESt4lessIS5_ESaISt4pairIKS5_SF_EEEC2ESt16initializer_listISK_ERKSH_RKSL_,"axG",@progbits,_ZNSt3mapINSt7__cxx1112basic_stringIcSt11char_traitsIcESaIcEEESt8functionIFiRKSt6vectorISt17basic_string_viewIcS3_ESaIS9_EEEESt4lessIS5_ESaISt4pairIKS5_SF_EEEC2ESt16initializer_listISK_ERKSH_RKSL_,comdat
	.weak	_ZNSt3mapINSt7__cxx1112basic_stringIcSt11char_traitsIcESaIcEEESt8functionIFiRKSt6vectorISt17basic_string_viewIcS3_ESaIS9_EEEESt4lessIS5_ESaISt4pairIKS5_SF_EEEC2ESt16initializer_listISK_ERKSH_RKSL_ # -- Begin function _ZNSt3mapINSt7__cxx1112basic_stringIcSt11char_traitsIcESaIcEEESt8functionIFiRKSt6vectorISt17basic_string_viewIcS3_ESaIS9_EEEESt4lessIS5_ESaISt4pairIKS5_SF_EEEC2ESt16initializer_listISK_ERKSH_RKSL_
	.p2align	4, 0x90
	.type	_ZNSt3mapINSt7__cxx1112basic_stringIcSt11char_traitsIcESaIcEEESt8functionIFiRKSt6vectorISt17basic_string_viewIcS3_ESaIS9_EEEESt4lessIS5_ESaISt4pairIKS5_SF_EEEC2ESt16initializer_listISK_ERKSH_RKSL_,@function
_ZNSt3mapINSt7__cxx1112basic_stringIcSt11char_traitsIcESaIcEEESt8functionIFiRKSt6vectorISt17basic_string_viewIcS3_ESaIS9_EEEESt4lessIS5_ESaISt4pairIKS5_SF_EEEC2ESt16initializer_listISK_ERKSH_RKSL_: # @_ZNSt3mapINSt7__cxx1112basic_stringIcSt11char_traitsIcESaIcEEESt8functionIFiRKSt6vectorISt17basic_string_viewIcS3_ESaIS9_EEEESt4lessIS5_ESaISt4pairIKS5_SF_EEEC2ESt16initializer_listISK_ERKSH_RKSL_
.Lfunc_begin16:
	.cfi_startproc
	.cfi_personality 155, DW.ref.__gxx_personality_v0
	.cfi_lsda 27, .Lexception16
# %bb.0:
	pushq	%rbp
	.cfi_def_cfa_offset 16
	.cfi_offset %rbp, -16
	movq	%rsp, %rbp
	.cfi_def_cfa_register %rbp
	subq	$160, %rsp
	movq	%fs:40, %rax
	movq	%rax, -8(%rbp)
	movq	%rsi, -24(%rbp)
	movq	%rdx, -16(%rbp)
	movq	%rdi, -88(%rbp)
	movq	%rcx, -96(%rbp)
	movq	%r8, -104(%rbp)
	movq	-88(%rbp), %rdi
	movq	%rdi, -136(%rbp)                # 8-byte Spill
	movq	%rdi, %rax
	movq	%rax, -128(%rbp)                # 8-byte Spill
	movq	-96(%rbp), %rsi
	movq	-104(%rbp), %rax
	leaq	-32(%rbp), %rdx
	movq	%rdx, -56(%rbp)
	movq	%rax, -64(%rbp)
	movq	-56(%rbp), %rcx
	movq	-64(%rbp), %rax
	movq	%rcx, -40(%rbp)
	movq	%rax, -48(%rbp)
.Ltmp180:
	callq	_ZNSt8_Rb_treeINSt7__cxx1112basic_stringIcSt11char_traitsIcESaIcEEESt4pairIKS5_St8functionIFiRKSt6vectorISt17basic_string_viewIcS3_ESaISB_EEEEESt10_Select1stISI_ESt4lessIS5_ESaISI_EEC2ERKSM_RKSN_
.Ltmp181:
	jmp	.LBB50_1
.LBB50_1:
	leaq	-32(%rbp), %rax
	movq	%rax, -80(%rbp)
	movq	-80(%rbp), %rdi
	callq	_ZNSt15__new_allocatorISt4pairIKNSt7__cxx1112basic_stringIcSt11char_traitsIcESaIcEEESt8functionIFiRKSt6vectorISt17basic_string_viewIcS4_ESaISB_EEEEEED2Ev
	leaq	-24(%rbp), %rdi
	movq	%rdi, -152(%rbp)                # 8-byte Spill
	callq	_ZNKSt16initializer_listISt4pairIKNSt7__cxx1112basic_stringIcSt11char_traitsIcESaIcEEESt8functionIFiRKSt6vectorISt17basic_string_viewIcS4_ESaISB_EEEEEE5beginEv
	movq	-152(%rbp), %rdi                # 8-byte Reload
	movq	%rax, -144(%rbp)                # 8-byte Spill
	callq	_ZNKSt16initializer_listISt4pairIKNSt7__cxx1112basic_stringIcSt11char_traitsIcESaIcEEESt8functionIFiRKSt6vectorISt17basic_string_viewIcS4_ESaISB_EEEEEE3endEv
	movq	-128(%rbp), %rdi                # 8-byte Reload
	movq	-144(%rbp), %rsi                # 8-byte Reload
	movq	%rax, %rdx
.Ltmp183:
	callq	_ZNSt8_Rb_treeINSt7__cxx1112basic_stringIcSt11char_traitsIcESaIcEEESt4pairIKS5_St8functionIFiRKSt6vectorISt17basic_string_viewIcS3_ESaISB_EEEEESt10_Select1stISI_ESt4lessIS5_ESaISI_EE22_M_insert_range_uniqueIPKSI_EENSt9enable_ifIXsr17__same_value_typeIT_EE5valueEvE4typeEST_ST_
.Ltmp184:
	jmp	.LBB50_2
.LBB50_2:
	movq	%fs:40, %rax
	movq	-8(%rbp), %rcx
	cmpq	%rcx, %rax
	jne	.LBB50_8
# %bb.3:
	addq	$160, %rsp
	popq	%rbp
	.cfi_def_cfa %rsp, 8
	retq
.LBB50_4:
	.cfi_def_cfa %rbp, 16
.Ltmp182:
	movq	%rax, %rcx
	movl	%edx, %eax
	movq	%rcx, -112(%rbp)
	movl	%eax, -116(%rbp)
	leaq	-32(%rbp), %rax
	movq	%rax, -72(%rbp)
	movq	-72(%rbp), %rdi
	callq	_ZNSt15__new_allocatorISt4pairIKNSt7__cxx1112basic_stringIcSt11char_traitsIcESaIcEEESt8functionIFiRKSt6vectorISt17basic_string_viewIcS4_ESaISB_EEEEEED2Ev
	jmp	.LBB50_6
.LBB50_5:
.Ltmp185:
	movq	-136(%rbp), %rdi                # 8-byte Reload
	movq	%rax, %rcx
	movl	%edx, %eax
	movq	%rcx, -112(%rbp)
	movl	%eax, -116(%rbp)
	callq	_ZNSt8_Rb_treeINSt7__cxx1112basic_stringIcSt11char_traitsIcESaIcEEESt4pairIKS5_St8functionIFiRKSt6vectorISt17basic_string_viewIcS3_ESaISB_EEEEESt10_Select1stISI_ESt4lessIS5_ESaISI_EED2Ev
.LBB50_6:
	movq	-112(%rbp), %rax
	movq	%rax, -160(%rbp)                # 8-byte Spill
	movq	%fs:40, %rax
	movq	-8(%rbp), %rcx
	cmpq	%rcx, %rax
	jne	.LBB50_8
# %bb.7:
	movq	-160(%rbp), %rdi                # 8-byte Reload
	callq	_Unwind_Resume@PLT
.LBB50_8:
	callq	__stack_chk_fail@PLT
.Lfunc_end50:
	.size	_ZNSt3mapINSt7__cxx1112basic_stringIcSt11char_traitsIcESaIcEEESt8functionIFiRKSt6vectorISt17basic_string_viewIcS3_ESaIS9_EEEESt4lessIS5_ESaISt4pairIKS5_SF_EEEC2ESt16initializer_listISK_ERKSH_RKSL_, .Lfunc_end50-_ZNSt3mapINSt7__cxx1112basic_stringIcSt11char_traitsIcESaIcEEESt8functionIFiRKSt6vectorISt17basic_string_viewIcS3_ESaIS9_EEEESt4lessIS5_ESaISt4pairIKS5_SF_EEEC2ESt16initializer_listISK_ERKSH_RKSL_
	.cfi_endproc
	.section	.gcc_except_table._ZNSt3mapINSt7__cxx1112basic_stringIcSt11char_traitsIcESaIcEEESt8functionIFiRKSt6vectorISt17basic_string_viewIcS3_ESaIS9_EEEESt4lessIS5_ESaISt4pairIKS5_SF_EEEC2ESt16initializer_listISK_ERKSH_RKSL_,"aG",@progbits,_ZNSt3mapINSt7__cxx1112basic_stringIcSt11char_traitsIcESaIcEEESt8functionIFiRKSt6vectorISt17basic_string_viewIcS3_ESaIS9_EEEESt4lessIS5_ESaISt4pairIKS5_SF_EEEC2ESt16initializer_listISK_ERKSH_RKSL_,comdat
	.p2align	2, 0x0
GCC_except_table50:
.Lexception16:
	.byte	255                             # @LPStart Encoding = omit
	.byte	255                             # @TType Encoding = omit
	.byte	1                               # Call site Encoding = uleb128
	.uleb128 .Lcst_end16-.Lcst_begin16
.Lcst_begin16:
	.uleb128 .Ltmp180-.Lfunc_begin16        # >> Call Site 1 <<
	.uleb128 .Ltmp181-.Ltmp180              #   Call between .Ltmp180 and .Ltmp181
	.uleb128 .Ltmp182-.Lfunc_begin16        #     jumps to .Ltmp182
	.byte	0                               #   On action: cleanup
	.uleb128 .Ltmp183-.Lfunc_begin16        # >> Call Site 2 <<
	.uleb128 .Ltmp184-.Ltmp183              #   Call between .Ltmp183 and .Ltmp184
	.uleb128 .Ltmp185-.Lfunc_begin16        #     jumps to .Ltmp185
	.byte	0                               #   On action: cleanup
	.uleb128 .Ltmp184-.Lfunc_begin16        # >> Call Site 3 <<
	.uleb128 .Lfunc_end50-.Ltmp184          #   Call between .Ltmp184 and .Lfunc_end50
	.byte	0                               #     has no landing pad
	.byte	0                               #   On action: cleanup
.Lcst_end16:
	.p2align	2, 0x0
                                        # -- End function
	.section	.text._ZNSt17basic_string_viewIcSt11char_traitsIcEEC2EPKc,"axG",@progbits,_ZNSt17basic_string_viewIcSt11char_traitsIcEEC2EPKc,comdat
	.weak	_ZNSt17basic_string_viewIcSt11char_traitsIcEEC2EPKc # -- Begin function _ZNSt17basic_string_viewIcSt11char_traitsIcEEC2EPKc
	.p2align	4, 0x90
	.type	_ZNSt17basic_string_viewIcSt11char_traitsIcEEC2EPKc,@function
_ZNSt17basic_string_viewIcSt11char_traitsIcEEC2EPKc: # @_ZNSt17basic_string_viewIcSt11char_traitsIcEEC2EPKc
	.cfi_startproc
# %bb.0:
	pushq	%rbp
	.cfi_def_cfa_offset 16
	.cfi_offset %rbp, -16
	movq	%rsp, %rbp
	.cfi_def_cfa_register %rbp
	subq	$32, %rsp
	movq	%rdi, -8(%rbp)
	movq	%rsi, -16(%rbp)
	movq	-8(%rbp), %rax
	movq	%rax, -24(%rbp)                 # 8-byte Spill
	movq	-16(%rbp), %rdi
	callq	_ZNSt11char_traitsIcE6lengthEPKc
	movq	%rax, %rcx
	movq	-24(%rbp), %rax                 # 8-byte Reload
	movq	%rcx, (%rax)
	movq	-16(%rbp), %rcx
	movq	%rcx, 8(%rax)
	addq	$32, %rsp
	popq	%rbp
	.cfi_def_cfa %rsp, 8
	retq
.Lfunc_end51:
	.size	_ZNSt17basic_string_viewIcSt11char_traitsIcEEC2EPKc, .Lfunc_end51-_ZNSt17basic_string_viewIcSt11char_traitsIcEEC2EPKc
	.cfi_endproc
                                        # -- End function
	.section	.text._ZNKSt6vectorISt17basic_string_viewIcSt11char_traitsIcEESaIS3_EE5emptyEv,"axG",@progbits,_ZNKSt6vectorISt17basic_string_viewIcSt11char_traitsIcEESaIS3_EE5emptyEv,comdat
	.weak	_ZNKSt6vectorISt17basic_string_viewIcSt11char_traitsIcEESaIS3_EE5emptyEv # -- Begin function _ZNKSt6vectorISt17basic_string_viewIcSt11char_traitsIcEESaIS3_EE5emptyEv
	.p2align	4, 0x90
	.type	_ZNKSt6vectorISt17basic_string_viewIcSt11char_traitsIcEESaIS3_EE5emptyEv,@function
_ZNKSt6vectorISt17basic_string_viewIcSt11char_traitsIcEESaIS3_EE5emptyEv: # @_ZNKSt6vectorISt17basic_string_viewIcSt11char_traitsIcEESaIS3_EE5emptyEv
	.cfi_startproc
# %bb.0:
	pushq	%rbp
	.cfi_def_cfa_offset 16
	.cfi_offset %rbp, -16
	movq	%rsp, %rbp
	.cfi_def_cfa_register %rbp
	subq	$48, %rsp
	movq	%fs:40, %rax
	movq	%rax, -8(%rbp)
	movq	%rdi, -32(%rbp)
	movq	-32(%rbp), %rdi
	movq	%rdi, -48(%rbp)                 # 8-byte Spill
	callq	_ZNKSt6vectorISt17basic_string_viewIcSt11char_traitsIcEESaIS3_EE5beginEv
	movq	-48(%rbp), %rdi                 # 8-byte Reload
	movq	%rax, -16(%rbp)
	callq	_ZNKSt6vectorISt17basic_string_viewIcSt11char_traitsIcEESaIS3_EE3endEv
	movq	%rax, -24(%rbp)
	leaq	-16(%rbp), %rdi
	leaq	-24(%rbp), %rsi
	callq	_ZN9__gnu_cxxeqIPKSt17basic_string_viewIcSt11char_traitsIcEESt6vectorIS4_SaIS4_EEEEbRKNS_17__normal_iteratorIT_T0_EESF_
	movb	%al, -33(%rbp)                  # 1-byte Spill
	movq	%fs:40, %rax
	movq	-8(%rbp), %rcx
	cmpq	%rcx, %rax
	jne	.LBB52_2
# %bb.1:
	movb	-33(%rbp), %al                  # 1-byte Reload
	andb	$1, %al
	movzbl	%al, %eax
	addq	$48, %rsp
	popq	%rbp
	.cfi_def_cfa %rsp, 8
	retq
.LBB52_2:
	.cfi_def_cfa %rbp, 16
	callq	__stack_chk_fail@PLT
.Lfunc_end52:
	.size	_ZNKSt6vectorISt17basic_string_viewIcSt11char_traitsIcEESaIS3_EE5emptyEv, .Lfunc_end52-_ZNKSt6vectorISt17basic_string_viewIcSt11char_traitsIcEESaIS3_EE5emptyEv
	.cfi_endproc
                                        # -- End function
	.section	.text._ZNSt3mapINSt7__cxx1112basic_stringIcSt11char_traitsIcESaIcEEESt8functionIFiRKSt6vectorISt17basic_string_viewIcS3_ESaIS9_EEEESt4lessIS5_ESaISt4pairIKS5_SF_EEE4findERSJ_,"axG",@progbits,_ZNSt3mapINSt7__cxx1112basic_stringIcSt11char_traitsIcESaIcEEESt8functionIFiRKSt6vectorISt17basic_string_viewIcS3_ESaIS9_EEEESt4lessIS5_ESaISt4pairIKS5_SF_EEE4findERSJ_,comdat
	.weak	_ZNSt3mapINSt7__cxx1112basic_stringIcSt11char_traitsIcESaIcEEESt8functionIFiRKSt6vectorISt17basic_string_viewIcS3_ESaIS9_EEEESt4lessIS5_ESaISt4pairIKS5_SF_EEE4findERSJ_ # -- Begin function _ZNSt3mapINSt7__cxx1112basic_stringIcSt11char_traitsIcESaIcEEESt8functionIFiRKSt6vectorISt17basic_string_viewIcS3_ESaIS9_EEEESt4lessIS5_ESaISt4pairIKS5_SF_EEE4findERSJ_
	.p2align	4, 0x90
	.type	_ZNSt3mapINSt7__cxx1112basic_stringIcSt11char_traitsIcESaIcEEESt8functionIFiRKSt6vectorISt17basic_string_viewIcS3_ESaIS9_EEEESt4lessIS5_ESaISt4pairIKS5_SF_EEE4findERSJ_,@function
_ZNSt3mapINSt7__cxx1112basic_stringIcSt11char_traitsIcESaIcEEESt8functionIFiRKSt6vectorISt17basic_string_viewIcS3_ESaIS9_EEEESt4lessIS5_ESaISt4pairIKS5_SF_EEE4findERSJ_: # @_ZNSt3mapINSt7__cxx1112basic_stringIcSt11char_traitsIcESaIcEEESt8functionIFiRKSt6vectorISt17basic_string_viewIcS3_ESaIS9_EEEESt4lessIS5_ESaISt4pairIKS5_SF_EEE4findERSJ_
	.cfi_startproc
# %bb.0:
	pushq	%rbp
	.cfi_def_cfa_offset 16
	.cfi_offset %rbp, -16
	movq	%rsp, %rbp
	.cfi_def_cfa_register %rbp
	subq	$32, %rsp
	movq	%rdi, -16(%rbp)
	movq	%rsi, -24(%rbp)
	movq	-16(%rbp), %rdi
	movq	-24(%rbp), %rsi
	callq	_ZNSt8_Rb_treeINSt7__cxx1112basic_stringIcSt11char_traitsIcESaIcEEESt4pairIKS5_St8functionIFiRKSt6vectorISt17basic_string_viewIcS3_ESaISB_EEEEESt10_Select1stISI_ESt4lessIS5_ESaISI_EE4findERS7_
	movq	%rax, -8(%rbp)
	movq	-8(%rbp), %rax
	addq	$32, %rsp
	popq	%rbp
	.cfi_def_cfa %rsp, 8
	retq
.Lfunc_end53:
	.size	_ZNSt3mapINSt7__cxx1112basic_stringIcSt11char_traitsIcESaIcEEESt8functionIFiRKSt6vectorISt17basic_string_viewIcS3_ESaIS9_EEEESt4lessIS5_ESaISt4pairIKS5_SF_EEE4findERSJ_, .Lfunc_end53-_ZNSt3mapINSt7__cxx1112basic_stringIcSt11char_traitsIcESaIcEEESt8functionIFiRKSt6vectorISt17basic_string_viewIcS3_ESaIS9_EEEESt4lessIS5_ESaISt4pairIKS5_SF_EEE4findERSJ_
	.cfi_endproc
                                        # -- End function
	.section	.text._ZNSt6vectorISt17basic_string_viewIcSt11char_traitsIcEESaIS3_EE5frontEv,"axG",@progbits,_ZNSt6vectorISt17basic_string_viewIcSt11char_traitsIcEESaIS3_EE5frontEv,comdat
	.weak	_ZNSt6vectorISt17basic_string_viewIcSt11char_traitsIcEESaIS3_EE5frontEv # -- Begin function _ZNSt6vectorISt17basic_string_viewIcSt11char_traitsIcEESaIS3_EE5frontEv
	.p2align	4, 0x90
	.type	_ZNSt6vectorISt17basic_string_viewIcSt11char_traitsIcEESaIS3_EE5frontEv,@function
_ZNSt6vectorISt17basic_string_viewIcSt11char_traitsIcEESaIS3_EE5frontEv: # @_ZNSt6vectorISt17basic_string_viewIcSt11char_traitsIcEESaIS3_EE5frontEv
	.cfi_startproc
# %bb.0:
	pushq	%rbp
	.cfi_def_cfa_offset 16
	.cfi_offset %rbp, -16
	movq	%rsp, %rbp
	.cfi_def_cfa_register %rbp
	subq	$32, %rsp
	movq	%fs:40, %rax
	movq	%rax, -8(%rbp)
	movq	%rdi, -24(%rbp)
	movq	-24(%rbp), %rdi
	callq	_ZNSt6vectorISt17basic_string_viewIcSt11char_traitsIcEESaIS3_EE5beginEv
	movq	%rax, -16(%rbp)
	leaq	-16(%rbp), %rdi
	callq	_ZNK9__gnu_cxx17__normal_iteratorIPSt17basic_string_viewIcSt11char_traitsIcEESt6vectorIS4_SaIS4_EEEdeEv
	movq	%rax, -32(%rbp)                 # 8-byte Spill
	movq	%fs:40, %rax
	movq	-8(%rbp), %rcx
	cmpq	%rcx, %rax
	jne	.LBB54_2
# %bb.1:
	movq	-32(%rbp), %rax                 # 8-byte Reload
	addq	$32, %rsp
	popq	%rbp
	.cfi_def_cfa %rsp, 8
	retq
.LBB54_2:
	.cfi_def_cfa %rbp, 16
	callq	__stack_chk_fail@PLT
.Lfunc_end54:
	.size	_ZNSt6vectorISt17basic_string_viewIcSt11char_traitsIcEESaIS3_EE5frontEv, .Lfunc_end54-_ZNSt6vectorISt17basic_string_viewIcSt11char_traitsIcEESaIS3_EE5frontEv
	.cfi_endproc
                                        # -- End function
	.section	.text._ZNSt7__cxx1112basic_stringIcSt11char_traitsIcESaIcEEC2ISt17basic_string_viewIcS2_EvEERKT_RKS3_,"axG",@progbits,_ZNSt7__cxx1112basic_stringIcSt11char_traitsIcESaIcEEC2ISt17basic_string_viewIcS2_EvEERKT_RKS3_,comdat
	.weak	_ZNSt7__cxx1112basic_stringIcSt11char_traitsIcESaIcEEC2ISt17basic_string_viewIcS2_EvEERKT_RKS3_ # -- Begin function _ZNSt7__cxx1112basic_stringIcSt11char_traitsIcESaIcEEC2ISt17basic_string_viewIcS2_EvEERKT_RKS3_
	.p2align	4, 0x90
	.type	_ZNSt7__cxx1112basic_stringIcSt11char_traitsIcESaIcEEC2ISt17basic_string_viewIcS2_EvEERKT_RKS3_,@function
_ZNSt7__cxx1112basic_stringIcSt11char_traitsIcESaIcEEC2ISt17basic_string_viewIcS2_EvEERKT_RKS3_: # @_ZNSt7__cxx1112basic_stringIcSt11char_traitsIcESaIcEEC2ISt17basic_string_viewIcS2_EvEERKT_RKS3_
	.cfi_startproc
# %bb.0:
	pushq	%rbp
	.cfi_def_cfa_offset 16
	.cfi_offset %rbp, -16
	movq	%rsp, %rbp
	.cfi_def_cfa_register %rbp
	subq	$96, %rsp
	movq	%fs:40, %rax
	movq	%rax, -8(%rbp)
	movq	%rdi, -56(%rbp)
	movq	%rsi, -64(%rbp)
	movq	%rdx, -72(%rbp)
	movq	-56(%rbp), %rax
	movq	%rax, -96(%rbp)                 # 8-byte Spill
	movq	-64(%rbp), %rax
	movups	(%rax), %xmm0
	movaps	%xmm0, -48(%rbp)
	movq	-48(%rbp), %rdi
	movq	-40(%rbp), %rsi
	callq	_ZNSt7__cxx1112basic_stringIcSt11char_traitsIcESaIcEE17_S_to_string_viewESt17basic_string_viewIcS2_E@PLT
	movq	%rax, -88(%rbp)
	movq	%rdx, -80(%rbp)
	movq	-88(%rbp), %rsi
	movq	-80(%rbp), %rdx
	leaq	-24(%rbp), %rdi
	callq	_ZNSt7__cxx1112basic_stringIcSt11char_traitsIcESaIcEE12__sv_wrapperC1ESt17basic_string_viewIcS2_E@PLT
	movq	-96(%rbp), %rdi                 # 8-byte Reload
	movq	-72(%rbp), %rcx
	movq	-24(%rbp), %rsi
	movq	-16(%rbp), %rdx
	callq	_ZNSt7__cxx1112basic_stringIcSt11char_traitsIcESaIcEEC2ENS4_12__sv_wrapperERKS3_@PLT
	movq	%fs:40, %rax
	movq	-8(%rbp), %rcx
	cmpq	%rcx, %rax
	jne	.LBB55_2
# %bb.1:
	addq	$96, %rsp
	popq	%rbp
	.cfi_def_cfa %rsp, 8
	retq
.LBB55_2:
	.cfi_def_cfa %rbp, 16
	callq	__stack_chk_fail@PLT
.Lfunc_end55:
	.size	_ZNSt7__cxx1112basic_stringIcSt11char_traitsIcESaIcEEC2ISt17basic_string_viewIcS2_EvEERKT_RKS3_, .Lfunc_end55-_ZNSt7__cxx1112basic_stringIcSt11char_traitsIcESaIcEEC2ISt17basic_string_viewIcS2_EvEERKT_RKS3_
	.cfi_endproc
                                        # -- End function
	.section	.text._ZStneRKSt17_Rb_tree_iteratorISt4pairIKNSt7__cxx1112basic_stringIcSt11char_traitsIcESaIcEEESt8functionIFiRKSt6vectorISt17basic_string_viewIcS4_ESaISB_EEEEEESL_,"axG",@progbits,_ZStneRKSt17_Rb_tree_iteratorISt4pairIKNSt7__cxx1112basic_stringIcSt11char_traitsIcESaIcEEESt8functionIFiRKSt6vectorISt17basic_string_viewIcS4_ESaISB_EEEEEESL_,comdat
	.weak	_ZStneRKSt17_Rb_tree_iteratorISt4pairIKNSt7__cxx1112basic_stringIcSt11char_traitsIcESaIcEEESt8functionIFiRKSt6vectorISt17basic_string_viewIcS4_ESaISB_EEEEEESL_ # -- Begin function _ZStneRKSt17_Rb_tree_iteratorISt4pairIKNSt7__cxx1112basic_stringIcSt11char_traitsIcESaIcEEESt8functionIFiRKSt6vectorISt17basic_string_viewIcS4_ESaISB_EEEEEESL_
	.p2align	4, 0x90
	.type	_ZStneRKSt17_Rb_tree_iteratorISt4pairIKNSt7__cxx1112basic_stringIcSt11char_traitsIcESaIcEEESt8functionIFiRKSt6vectorISt17basic_string_viewIcS4_ESaISB_EEEEEESL_,@function
_ZStneRKSt17_Rb_tree_iteratorISt4pairIKNSt7__cxx1112basic_stringIcSt11char_traitsIcESaIcEEESt8functionIFiRKSt6vectorISt17basic_string_viewIcS4_ESaISB_EEEEEESL_: # @_ZStneRKSt17_Rb_tree_iteratorISt4pairIKNSt7__cxx1112basic_stringIcSt11char_traitsIcESaIcEEESt8functionIFiRKSt6vectorISt17basic_string_viewIcS4_ESaISB_EEEEEESL_
	.cfi_startproc
# %bb.0:
	pushq	%rbp
	.cfi_def_cfa_offset 16
	.cfi_offset %rbp, -16
	movq	%rsp, %rbp
	.cfi_def_cfa_register %rbp
	movq	%rdi, -8(%rbp)
	movq	%rsi, -16(%rbp)
	movq	-8(%rbp), %rax
	movq	(%rax), %rax
	movq	-16(%rbp), %rcx
	cmpq	(%rcx), %rax
	setne	%al
	andb	$1, %al
	movzbl	%al, %eax
	popq	%rbp
	.cfi_def_cfa %rsp, 8
	retq
.Lfunc_end56:
	.size	_ZStneRKSt17_Rb_tree_iteratorISt4pairIKNSt7__cxx1112basic_stringIcSt11char_traitsIcESaIcEEESt8functionIFiRKSt6vectorISt17basic_string_viewIcS4_ESaISB_EEEEEESL_, .Lfunc_end56-_ZStneRKSt17_Rb_tree_iteratorISt4pairIKNSt7__cxx1112basic_stringIcSt11char_traitsIcESaIcEEESt8functionIFiRKSt6vectorISt17basic_string_viewIcS4_ESaISB_EEEEEESL_
	.cfi_endproc
                                        # -- End function
	.section	.text._ZNSt3mapINSt7__cxx1112basic_stringIcSt11char_traitsIcESaIcEEESt8functionIFiRKSt6vectorISt17basic_string_viewIcS3_ESaIS9_EEEESt4lessIS5_ESaISt4pairIKS5_SF_EEE3endEv,"axG",@progbits,_ZNSt3mapINSt7__cxx1112basic_stringIcSt11char_traitsIcESaIcEEESt8functionIFiRKSt6vectorISt17basic_string_viewIcS3_ESaIS9_EEEESt4lessIS5_ESaISt4pairIKS5_SF_EEE3endEv,comdat
	.weak	_ZNSt3mapINSt7__cxx1112basic_stringIcSt11char_traitsIcESaIcEEESt8functionIFiRKSt6vectorISt17basic_string_viewIcS3_ESaIS9_EEEESt4lessIS5_ESaISt4pairIKS5_SF_EEE3endEv # -- Begin function _ZNSt3mapINSt7__cxx1112basic_stringIcSt11char_traitsIcESaIcEEESt8functionIFiRKSt6vectorISt17basic_string_viewIcS3_ESaIS9_EEEESt4lessIS5_ESaISt4pairIKS5_SF_EEE3endEv
	.p2align	4, 0x90
	.type	_ZNSt3mapINSt7__cxx1112basic_stringIcSt11char_traitsIcESaIcEEESt8functionIFiRKSt6vectorISt17basic_string_viewIcS3_ESaIS9_EEEESt4lessIS5_ESaISt4pairIKS5_SF_EEE3endEv,@function
_ZNSt3mapINSt7__cxx1112basic_stringIcSt11char_traitsIcESaIcEEESt8functionIFiRKSt6vectorISt17basic_string_viewIcS3_ESaIS9_EEEESt4lessIS5_ESaISt4pairIKS5_SF_EEE3endEv: # @_ZNSt3mapINSt7__cxx1112basic_stringIcSt11char_traitsIcESaIcEEESt8functionIFiRKSt6vectorISt17basic_string_viewIcS3_ESaIS9_EEEESt4lessIS5_ESaISt4pairIKS5_SF_EEE3endEv
	.cfi_startproc
# %bb.0:
	pushq	%rbp
	.cfi_def_cfa_offset 16
	.cfi_offset %rbp, -16
	movq	%rsp, %rbp
	.cfi_def_cfa_register %rbp
	subq	$16, %rsp
	movq	%rdi, -16(%rbp)
	movq	-16(%rbp), %rdi
	callq	_ZNSt8_Rb_treeINSt7__cxx1112basic_stringIcSt11char_traitsIcESaIcEEESt4pairIKS5_St8functionIFiRKSt6vectorISt17basic_string_viewIcS3_ESaISB_EEEEESt10_Select1stISI_ESt4lessIS5_ESaISI_EE3endEv
	movq	%rax, -8(%rbp)
	movq	-8(%rbp), %rax
	addq	$16, %rsp
	popq	%rbp
	.cfi_def_cfa %rsp, 8
	retq
.Lfunc_end57:
	.size	_ZNSt3mapINSt7__cxx1112basic_stringIcSt11char_traitsIcESaIcEEESt8functionIFiRKSt6vectorISt17basic_string_viewIcS3_ESaIS9_EEEESt4lessIS5_ESaISt4pairIKS5_SF_EEE3endEv, .Lfunc_end57-_ZNSt3mapINSt7__cxx1112basic_stringIcSt11char_traitsIcESaIcEEESt8functionIFiRKSt6vectorISt17basic_string_viewIcS3_ESaIS9_EEEESt4lessIS5_ESaISt4pairIKS5_SF_EEE3endEv
	.cfi_endproc
                                        # -- End function
	.section	.text._ZNKSt17_Rb_tree_iteratorISt4pairIKNSt7__cxx1112basic_stringIcSt11char_traitsIcESaIcEEESt8functionIFiRKSt6vectorISt17basic_string_viewIcS4_ESaISB_EEEEEEptEv,"axG",@progbits,_ZNKSt17_Rb_tree_iteratorISt4pairIKNSt7__cxx1112basic_stringIcSt11char_traitsIcESaIcEEESt8functionIFiRKSt6vectorISt17basic_string_viewIcS4_ESaISB_EEEEEEptEv,comdat
	.weak	_ZNKSt17_Rb_tree_iteratorISt4pairIKNSt7__cxx1112basic_stringIcSt11char_traitsIcESaIcEEESt8functionIFiRKSt6vectorISt17basic_string_viewIcS4_ESaISB_EEEEEEptEv # -- Begin function _ZNKSt17_Rb_tree_iteratorISt4pairIKNSt7__cxx1112basic_stringIcSt11char_traitsIcESaIcEEESt8functionIFiRKSt6vectorISt17basic_string_viewIcS4_ESaISB_EEEEEEptEv
	.p2align	4, 0x90
	.type	_ZNKSt17_Rb_tree_iteratorISt4pairIKNSt7__cxx1112basic_stringIcSt11char_traitsIcESaIcEEESt8functionIFiRKSt6vectorISt17basic_string_viewIcS4_ESaISB_EEEEEEptEv,@function
_ZNKSt17_Rb_tree_iteratorISt4pairIKNSt7__cxx1112basic_stringIcSt11char_traitsIcESaIcEEESt8functionIFiRKSt6vectorISt17basic_string_viewIcS4_ESaISB_EEEEEEptEv: # @_ZNKSt17_Rb_tree_iteratorISt4pairIKNSt7__cxx1112basic_stringIcSt11char_traitsIcESaIcEEESt8functionIFiRKSt6vectorISt17basic_string_viewIcS4_ESaISB_EEEEEEptEv
	.cfi_startproc
# %bb.0:
	pushq	%rbp
	.cfi_def_cfa_offset 16
	.cfi_offset %rbp, -16
	movq	%rsp, %rbp
	.cfi_def_cfa_register %rbp
	subq	$16, %rsp
	movq	%rdi, -8(%rbp)
	movq	-8(%rbp), %rax
	movq	(%rax), %rdi
	callq	_ZNSt13_Rb_tree_nodeISt4pairIKNSt7__cxx1112basic_stringIcSt11char_traitsIcESaIcEEESt8functionIFiRKSt6vectorISt17basic_string_viewIcS4_ESaISB_EEEEEE9_M_valptrEv
	addq	$16, %rsp
	popq	%rbp
	.cfi_def_cfa %rsp, 8
	retq
.Lfunc_end58:
	.size	_ZNKSt17_Rb_tree_iteratorISt4pairIKNSt7__cxx1112basic_stringIcSt11char_traitsIcESaIcEEESt8functionIFiRKSt6vectorISt17basic_string_viewIcS4_ESaISB_EEEEEEptEv, .Lfunc_end58-_ZNKSt17_Rb_tree_iteratorISt4pairIKNSt7__cxx1112basic_stringIcSt11char_traitsIcESaIcEEESt8functionIFiRKSt6vectorISt17basic_string_viewIcS4_ESaISB_EEEEEEptEv
	.cfi_endproc
                                        # -- End function
	.section	.text._ZNKSt8functionIFiRKSt6vectorISt17basic_string_viewIcSt11char_traitsIcEESaIS4_EEEEclES8_,"axG",@progbits,_ZNKSt8functionIFiRKSt6vectorISt17basic_string_viewIcSt11char_traitsIcEESaIS4_EEEEclES8_,comdat
	.weak	_ZNKSt8functionIFiRKSt6vectorISt17basic_string_viewIcSt11char_traitsIcEESaIS4_EEEEclES8_ # -- Begin function _ZNKSt8functionIFiRKSt6vectorISt17basic_string_viewIcSt11char_traitsIcEESaIS4_EEEEclES8_
	.p2align	4, 0x90
	.type	_ZNKSt8functionIFiRKSt6vectorISt17basic_string_viewIcSt11char_traitsIcEESaIS4_EEEEclES8_,@function
_ZNKSt8functionIFiRKSt6vectorISt17basic_string_viewIcSt11char_traitsIcEESaIS4_EEEEclES8_: # @_ZNKSt8functionIFiRKSt6vectorISt17basic_string_viewIcSt11char_traitsIcEESaIS4_EEEEclES8_
	.cfi_startproc
# %bb.0:
	pushq	%rbp
	.cfi_def_cfa_offset 16
	.cfi_offset %rbp, -16
	movq	%rsp, %rbp
	.cfi_def_cfa_register %rbp
	subq	$32, %rsp
	movq	%rdi, -8(%rbp)
	movq	%rsi, -16(%rbp)
	movq	-8(%rbp), %rdi
	movq	%rdi, -24(%rbp)                 # 8-byte Spill
	callq	_ZNKSt14_Function_base8_M_emptyEv
	testb	$1, %al
	jne	.LBB59_1
	jmp	.LBB59_2
.LBB59_1:
	callq	_ZSt25__throw_bad_function_callv@PLT
.LBB59_2:
	movq	-24(%rbp), %rdi                 # 8-byte Reload
	movq	24(%rdi), %rax
	movq	-16(%rbp), %rsi
	callq	*%rax
	addq	$32, %rsp
	popq	%rbp
	.cfi_def_cfa %rsp, 8
	retq
.Lfunc_end59:
	.size	_ZNKSt8functionIFiRKSt6vectorISt17basic_string_viewIcSt11char_traitsIcEESaIS4_EEEEclES8_, .Lfunc_end59-_ZNKSt8functionIFiRKSt6vectorISt17basic_string_viewIcSt11char_traitsIcEESaIS4_EEEEclES8_
	.cfi_endproc
                                        # -- End function
	.section	.text._ZStlsIcSt11char_traitsIcEERSt13basic_ostreamIT_T0_ES6_St17basic_string_viewIS3_S4_E,"axG",@progbits,_ZStlsIcSt11char_traitsIcEERSt13basic_ostreamIT_T0_ES6_St17basic_string_viewIS3_S4_E,comdat
	.weak	_ZStlsIcSt11char_traitsIcEERSt13basic_ostreamIT_T0_ES6_St17basic_string_viewIS3_S4_E # -- Begin function _ZStlsIcSt11char_traitsIcEERSt13basic_ostreamIT_T0_ES6_St17basic_string_viewIS3_S4_E
	.p2align	4, 0x90
	.type	_ZStlsIcSt11char_traitsIcEERSt13basic_ostreamIT_T0_ES6_St17basic_string_viewIS3_S4_E,@function
_ZStlsIcSt11char_traitsIcEERSt13basic_ostreamIT_T0_ES6_St17basic_string_viewIS3_S4_E: # @_ZStlsIcSt11char_traitsIcEERSt13basic_ostreamIT_T0_ES6_St17basic_string_viewIS3_S4_E
	.cfi_startproc
# %bb.0:
	pushq	%rbp
	.cfi_def_cfa_offset 16
	.cfi_offset %rbp, -16
	movq	%rsp, %rbp
	.cfi_def_cfa_register %rbp
	subq	$64, %rsp
	movq	%fs:40, %rax
	movq	%rax, -8(%rbp)
	movq	%rsi, -24(%rbp)
	movq	%rdx, -16(%rbp)
	movq	%rdi, -32(%rbp)
	movq	-32(%rbp), %rax
	movq	%rax, -56(%rbp)                 # 8-byte Spill
	leaq	-24(%rbp), %rdi
	movq	%rdi, -64(%rbp)                 # 8-byte Spill
	callq	_ZNKSt17basic_string_viewIcSt11char_traitsIcEE4dataEv
	movq	-64(%rbp), %rdi                 # 8-byte Reload
	movq	%rax, -48(%rbp)                 # 8-byte Spill
	callq	_ZNKSt17basic_string_viewIcSt11char_traitsIcEE4sizeEv
	movq	-56(%rbp), %rdi                 # 8-byte Reload
	movq	-48(%rbp), %rsi                 # 8-byte Reload
	movq	%rax, %rdx
	callq	_ZSt16__ostream_insertIcSt11char_traitsIcEERSt13basic_ostreamIT_T0_ES6_PKS3_l@PLT
	movq	%rax, -40(%rbp)                 # 8-byte Spill
	movq	%fs:40, %rax
	movq	-8(%rbp), %rcx
	cmpq	%rcx, %rax
	jne	.LBB60_2
# %bb.1:
	movq	-40(%rbp), %rax                 # 8-byte Reload
	addq	$64, %rsp
	popq	%rbp
	.cfi_def_cfa %rsp, 8
	retq
.LBB60_2:
	.cfi_def_cfa %rbp, 16
	callq	__stack_chk_fail@PLT
.Lfunc_end60:
	.size	_ZStlsIcSt11char_traitsIcEERSt13basic_ostreamIT_T0_ES6_St17basic_string_viewIS3_S4_E, .Lfunc_end60-_ZStlsIcSt11char_traitsIcEERSt13basic_ostreamIT_T0_ES6_St17basic_string_viewIS3_S4_E
	.cfi_endproc
                                        # -- End function
	.section	.text._ZNSt3mapINSt7__cxx1112basic_stringIcSt11char_traitsIcESaIcEEESt8functionIFiRKSt6vectorISt17basic_string_viewIcS3_ESaIS9_EEEESt4lessIS5_ESaISt4pairIKS5_SF_EEED2Ev,"axG",@progbits,_ZNSt3mapINSt7__cxx1112basic_stringIcSt11char_traitsIcESaIcEEESt8functionIFiRKSt6vectorISt17basic_string_viewIcS3_ESaIS9_EEEESt4lessIS5_ESaISt4pairIKS5_SF_EEED2Ev,comdat
	.weak	_ZNSt3mapINSt7__cxx1112basic_stringIcSt11char_traitsIcESaIcEEESt8functionIFiRKSt6vectorISt17basic_string_viewIcS3_ESaIS9_EEEESt4lessIS5_ESaISt4pairIKS5_SF_EEED2Ev # -- Begin function _ZNSt3mapINSt7__cxx1112basic_stringIcSt11char_traitsIcESaIcEEESt8functionIFiRKSt6vectorISt17basic_string_viewIcS3_ESaIS9_EEEESt4lessIS5_ESaISt4pairIKS5_SF_EEED2Ev
	.p2align	4, 0x90
	.type	_ZNSt3mapINSt7__cxx1112basic_stringIcSt11char_traitsIcESaIcEEESt8functionIFiRKSt6vectorISt17basic_string_viewIcS3_ESaIS9_EEEESt4lessIS5_ESaISt4pairIKS5_SF_EEED2Ev,@function
_ZNSt3mapINSt7__cxx1112basic_stringIcSt11char_traitsIcESaIcEEESt8functionIFiRKSt6vectorISt17basic_string_viewIcS3_ESaIS9_EEEESt4lessIS5_ESaISt4pairIKS5_SF_EEED2Ev: # @_ZNSt3mapINSt7__cxx1112basic_stringIcSt11char_traitsIcESaIcEEESt8functionIFiRKSt6vectorISt17basic_string_viewIcS3_ESaIS9_EEEESt4lessIS5_ESaISt4pairIKS5_SF_EEED2Ev
	.cfi_startproc
# %bb.0:
	pushq	%rbp
	.cfi_def_cfa_offset 16
	.cfi_offset %rbp, -16
	movq	%rsp, %rbp
	.cfi_def_cfa_register %rbp
	subq	$16, %rsp
	movq	%rdi, -8(%rbp)
	movq	-8(%rbp), %rdi
	callq	_ZNSt8_Rb_treeINSt7__cxx1112basic_stringIcSt11char_traitsIcESaIcEEESt4pairIKS5_St8functionIFiRKSt6vectorISt17basic_string_viewIcS3_ESaISB_EEEEESt10_Select1stISI_ESt4lessIS5_ESaISI_EED2Ev
	addq	$16, %rsp
	popq	%rbp
	.cfi_def_cfa %rsp, 8
	retq
.Lfunc_end61:
	.size	_ZNSt3mapINSt7__cxx1112basic_stringIcSt11char_traitsIcESaIcEEESt8functionIFiRKSt6vectorISt17basic_string_viewIcS3_ESaIS9_EEEESt4lessIS5_ESaISt4pairIKS5_SF_EEED2Ev, .Lfunc_end61-_ZNSt3mapINSt7__cxx1112basic_stringIcSt11char_traitsIcESaIcEEESt8functionIFiRKSt6vectorISt17basic_string_viewIcS3_ESaIS9_EEEESt4lessIS5_ESaISt4pairIKS5_SF_EEED2Ev
	.cfi_endproc
                                        # -- End function
	.text
	.globl	pr                              # -- Begin function pr
	.p2align	4, 0x90
	.type	pr,@function
pr:                                     # @pr
	.cfi_startproc
# %bb.0:
	pushq	%rbp
	.cfi_def_cfa_offset 16
	.cfi_offset %rbp, -16
	movq	%rsp, %rbp
	.cfi_def_cfa_register %rbp
	subq	$16, %rsp
	movq	%rdi, -8(%rbp)
	movq	%rsi, -16(%rbp)
	movq	stderr@GOTPCREL(%rip), %rax
	movq	(%rax), %rdi
	movq	-8(%rbp), %rdx
	movq	-16(%rbp), %rcx
	leaq	.L.str.22(%rip), %rsi
	movb	$0, %al
	callq	fprintf@PLT
	addq	$16, %rsp
	popq	%rbp
	.cfi_def_cfa %rsp, 8
	retq
.Lfunc_end62:
	.size	pr, .Lfunc_end62-pr
	.cfi_endproc
                                        # -- End function
	.section	.text._ZNSt12_Vector_baseISt17basic_string_viewIcSt11char_traitsIcEESaIS3_EEC2Ev,"axG",@progbits,_ZNSt12_Vector_baseISt17basic_string_viewIcSt11char_traitsIcEESaIS3_EEC2Ev,comdat
	.weak	_ZNSt12_Vector_baseISt17basic_string_viewIcSt11char_traitsIcEESaIS3_EEC2Ev # -- Begin function _ZNSt12_Vector_baseISt17basic_string_viewIcSt11char_traitsIcEESaIS3_EEC2Ev
	.p2align	4, 0x90
	.type	_ZNSt12_Vector_baseISt17basic_string_viewIcSt11char_traitsIcEESaIS3_EEC2Ev,@function
_ZNSt12_Vector_baseISt17basic_string_viewIcSt11char_traitsIcEESaIS3_EEC2Ev: # @_ZNSt12_Vector_baseISt17basic_string_viewIcSt11char_traitsIcEESaIS3_EEC2Ev
	.cfi_startproc
# %bb.0:
	pushq	%rbp
	.cfi_def_cfa_offset 16
	.cfi_offset %rbp, -16
	movq	%rsp, %rbp
	.cfi_def_cfa_register %rbp
	subq	$16, %rsp
	movq	%rdi, -8(%rbp)
	movq	-8(%rbp), %rdi
	callq	_ZNSt12_Vector_baseISt17basic_string_viewIcSt11char_traitsIcEESaIS3_EE12_Vector_implC2Ev
	addq	$16, %rsp
	popq	%rbp
	.cfi_def_cfa %rsp, 8
	retq
.Lfunc_end63:
	.size	_ZNSt12_Vector_baseISt17basic_string_viewIcSt11char_traitsIcEESaIS3_EEC2Ev, .Lfunc_end63-_ZNSt12_Vector_baseISt17basic_string_viewIcSt11char_traitsIcEESaIS3_EEC2Ev
	.cfi_endproc
                                        # -- End function
	.section	.text._ZNSt12_Vector_baseISt17basic_string_viewIcSt11char_traitsIcEESaIS3_EE12_Vector_implC2Ev,"axG",@progbits,_ZNSt12_Vector_baseISt17basic_string_viewIcSt11char_traitsIcEESaIS3_EE12_Vector_implC2Ev,comdat
	.weak	_ZNSt12_Vector_baseISt17basic_string_viewIcSt11char_traitsIcEESaIS3_EE12_Vector_implC2Ev # -- Begin function _ZNSt12_Vector_baseISt17basic_string_viewIcSt11char_traitsIcEESaIS3_EE12_Vector_implC2Ev
	.p2align	4, 0x90
	.type	_ZNSt12_Vector_baseISt17basic_string_viewIcSt11char_traitsIcEESaIS3_EE12_Vector_implC2Ev,@function
_ZNSt12_Vector_baseISt17basic_string_viewIcSt11char_traitsIcEESaIS3_EE12_Vector_implC2Ev: # @_ZNSt12_Vector_baseISt17basic_string_viewIcSt11char_traitsIcEESaIS3_EE12_Vector_implC2Ev
	.cfi_startproc
# %bb.0:
	pushq	%rbp
	.cfi_def_cfa_offset 16
	.cfi_offset %rbp, -16
	movq	%rsp, %rbp
	.cfi_def_cfa_register %rbp
	subq	$32, %rsp
	movq	%rdi, -24(%rbp)
	movq	-24(%rbp), %rdi
	movq	%rdi, -16(%rbp)
	movq	-16(%rbp), %rax
	movq	%rax, -8(%rbp)
	callq	_ZNSt12_Vector_baseISt17basic_string_viewIcSt11char_traitsIcEESaIS3_EE17_Vector_impl_dataC2Ev
	addq	$32, %rsp
	popq	%rbp
	.cfi_def_cfa %rsp, 8
	retq
.Lfunc_end64:
	.size	_ZNSt12_Vector_baseISt17basic_string_viewIcSt11char_traitsIcEESaIS3_EE12_Vector_implC2Ev, .Lfunc_end64-_ZNSt12_Vector_baseISt17basic_string_viewIcSt11char_traitsIcEESaIS3_EE12_Vector_implC2Ev
	.cfi_endproc
                                        # -- End function
	.section	.text._ZNSt12_Vector_baseISt17basic_string_viewIcSt11char_traitsIcEESaIS3_EE17_Vector_impl_dataC2Ev,"axG",@progbits,_ZNSt12_Vector_baseISt17basic_string_viewIcSt11char_traitsIcEESaIS3_EE17_Vector_impl_dataC2Ev,comdat
	.weak	_ZNSt12_Vector_baseISt17basic_string_viewIcSt11char_traitsIcEESaIS3_EE17_Vector_impl_dataC2Ev # -- Begin function _ZNSt12_Vector_baseISt17basic_string_viewIcSt11char_traitsIcEESaIS3_EE17_Vector_impl_dataC2Ev
	.p2align	4, 0x90
	.type	_ZNSt12_Vector_baseISt17basic_string_viewIcSt11char_traitsIcEESaIS3_EE17_Vector_impl_dataC2Ev,@function
_ZNSt12_Vector_baseISt17basic_string_viewIcSt11char_traitsIcEESaIS3_EE17_Vector_impl_dataC2Ev: # @_ZNSt12_Vector_baseISt17basic_string_viewIcSt11char_traitsIcEESaIS3_EE17_Vector_impl_dataC2Ev
	.cfi_startproc
# %bb.0:
	pushq	%rbp
	.cfi_def_cfa_offset 16
	.cfi_offset %rbp, -16
	movq	%rsp, %rbp
	.cfi_def_cfa_register %rbp
	movq	%rdi, -8(%rbp)
	movq	-8(%rbp), %rax
	movq	$0, (%rax)
	movq	$0, 8(%rax)
	movq	$0, 16(%rax)
	popq	%rbp
	.cfi_def_cfa %rsp, 8
	retq
.Lfunc_end65:
	.size	_ZNSt12_Vector_baseISt17basic_string_viewIcSt11char_traitsIcEESaIS3_EE17_Vector_impl_dataC2Ev, .Lfunc_end65-_ZNSt12_Vector_baseISt17basic_string_viewIcSt11char_traitsIcEESaIS3_EE17_Vector_impl_dataC2Ev
	.cfi_endproc
                                        # -- End function
	.section	.text._ZNKSt17basic_string_viewIcSt11char_traitsIcEE4findEPKcmm,"axG",@progbits,_ZNKSt17basic_string_viewIcSt11char_traitsIcEE4findEPKcmm,comdat
	.weak	_ZNKSt17basic_string_viewIcSt11char_traitsIcEE4findEPKcmm # -- Begin function _ZNKSt17basic_string_viewIcSt11char_traitsIcEE4findEPKcmm
	.p2align	4, 0x90
	.type	_ZNKSt17basic_string_viewIcSt11char_traitsIcEE4findEPKcmm,@function
_ZNKSt17basic_string_viewIcSt11char_traitsIcEE4findEPKcmm: # @_ZNKSt17basic_string_viewIcSt11char_traitsIcEE4findEPKcmm
.Lfunc_begin17:
	.cfi_startproc
	.cfi_personality 155, DW.ref.__gxx_personality_v0
	.cfi_lsda 27, .Lexception17
# %bb.0:
	pushq	%rbp
	.cfi_def_cfa_offset 16
	.cfi_offset %rbp, -16
	movq	%rsp, %rbp
	.cfi_def_cfa_register %rbp
	subq	$128, %rsp
	movq	%fs:40, %rax
	movq	%rax, -8(%rbp)
	movq	%rdi, -32(%rbp)
	movq	%rsi, -40(%rbp)
	movq	%rdx, -48(%rbp)
	movq	%rcx, -56(%rbp)
	movq	-32(%rbp), %rax
	movq	%rax, -88(%rbp)                 # 8-byte Spill
	cmpq	$0, -56(%rbp)
	jne	.LBB66_5
# %bb.1:
	movq	-88(%rbp), %rcx                 # 8-byte Reload
	movq	-48(%rbp), %rax
	cmpq	(%rcx), %rax
	ja	.LBB66_3
# %bb.2:
	movq	-48(%rbp), %rax
	movq	%rax, -96(%rbp)                 # 8-byte Spill
	jmp	.LBB66_4
.LBB66_3:
	movq	$-1, %rax
	movq	%rax, -96(%rbp)                 # 8-byte Spill
	jmp	.LBB66_4
.LBB66_4:
	movq	-96(%rbp), %rax                 # 8-byte Reload
	movq	%rax, -24(%rbp)
	jmp	.LBB66_17
.LBB66_5:
	movq	-88(%rbp), %rcx                 # 8-byte Reload
	movq	-48(%rbp), %rax
	cmpq	(%rcx), %rax
	jb	.LBB66_7
# %bb.6:
	movq	$-1, -24(%rbp)
	jmp	.LBB66_17
.LBB66_7:
	movq	-88(%rbp), %rax                 # 8-byte Reload
	movq	-40(%rbp), %rcx
	movb	(%rcx), %cl
	movb	%cl, -9(%rbp)
	movq	8(%rax), %rcx
	addq	-48(%rbp), %rcx
	movq	%rcx, -64(%rbp)
	movq	8(%rax), %rcx
	addq	(%rax), %rcx
	movq	%rcx, -72(%rbp)
	movq	(%rax), %rax
	subq	-48(%rbp), %rax
	movq	%rax, -80(%rbp)
.LBB66_8:                               # =>This Inner Loop Header: Depth=1
	movq	-80(%rbp), %rax
	cmpq	-56(%rbp), %rax
	jb	.LBB66_16
# %bb.9:                                #   in Loop: Header=BB66_8 Depth=1
	movq	-64(%rbp), %rdi
	movq	-80(%rbp), %rsi
	movq	-56(%rbp), %rax
	subq	%rax, %rsi
	incq	%rsi
.Ltmp186:
	leaq	-9(%rbp), %rdx
	callq	_ZNSt11char_traitsIcE4findEPKcmRS1_
.Ltmp187:
	movq	%rax, -104(%rbp)                # 8-byte Spill
	jmp	.LBB66_10
.LBB66_10:                              #   in Loop: Header=BB66_8 Depth=1
	movq	-104(%rbp), %rax                # 8-byte Reload
	movq	%rax, -64(%rbp)
	cmpq	$0, -64(%rbp)
	jne	.LBB66_12
# %bb.11:
	movq	$-1, -24(%rbp)
	jmp	.LBB66_17
.LBB66_12:                              #   in Loop: Header=BB66_8 Depth=1
	movq	-64(%rbp), %rdi
	movq	-40(%rbp), %rsi
	movq	-56(%rbp), %rdx
.Ltmp188:
	callq	_ZNSt11char_traitsIcE7compareEPKcS2_m
.Ltmp189:
	movl	%eax, -108(%rbp)                # 4-byte Spill
	jmp	.LBB66_13
.LBB66_13:                              #   in Loop: Header=BB66_8 Depth=1
	movl	-108(%rbp), %eax                # 4-byte Reload
	cmpl	$0, %eax
	jne	.LBB66_15
# %bb.14:
	movq	-88(%rbp), %rcx                 # 8-byte Reload
	movq	-64(%rbp), %rax
	movq	8(%rcx), %rcx
	subq	%rcx, %rax
	movq	%rax, -24(%rbp)
	jmp	.LBB66_17
.LBB66_15:                              #   in Loop: Header=BB66_8 Depth=1
	movq	-72(%rbp), %rax
	movq	-64(%rbp), %rcx
	addq	$1, %rcx
	movq	%rcx, -64(%rbp)
	subq	%rcx, %rax
	movq	%rax, -80(%rbp)
	jmp	.LBB66_8
.LBB66_16:
	movq	$-1, -24(%rbp)
.LBB66_17:
	movq	-24(%rbp), %rax
	movq	%rax, -120(%rbp)                # 8-byte Spill
	movq	%fs:40, %rax
	movq	-8(%rbp), %rcx
	cmpq	%rcx, %rax
	jne	.LBB66_20
# %bb.18:
	movq	-120(%rbp), %rax                # 8-byte Reload
	addq	$128, %rsp
	popq	%rbp
	.cfi_def_cfa %rsp, 8
	retq
.LBB66_19:
	.cfi_def_cfa %rbp, 16
.Ltmp190:
	movq	%rax, %rdi
                                        # kill: def $eax killed $edx killed $rdx
	callq	__clang_call_terminate
.LBB66_20:
	callq	__stack_chk_fail@PLT
.Lfunc_end66:
	.size	_ZNKSt17basic_string_viewIcSt11char_traitsIcEE4findEPKcmm, .Lfunc_end66-_ZNKSt17basic_string_viewIcSt11char_traitsIcEE4findEPKcmm
	.cfi_endproc
	.section	.gcc_except_table._ZNKSt17basic_string_viewIcSt11char_traitsIcEE4findEPKcmm,"aG",@progbits,_ZNKSt17basic_string_viewIcSt11char_traitsIcEE4findEPKcmm,comdat
	.p2align	2, 0x0
GCC_except_table66:
.Lexception17:
	.byte	255                             # @LPStart Encoding = omit
	.byte	155                             # @TType Encoding = indirect pcrel sdata4
	.uleb128 .Lttbase3-.Lttbaseref3
.Lttbaseref3:
	.byte	1                               # Call site Encoding = uleb128
	.uleb128 .Lcst_end17-.Lcst_begin17
.Lcst_begin17:
	.uleb128 .Ltmp186-.Lfunc_begin17        # >> Call Site 1 <<
	.uleb128 .Ltmp189-.Ltmp186              #   Call between .Ltmp186 and .Ltmp189
	.uleb128 .Ltmp190-.Lfunc_begin17        #     jumps to .Ltmp190
	.byte	1                               #   On action: 1
	.uleb128 .Ltmp189-.Lfunc_begin17        # >> Call Site 2 <<
	.uleb128 .Lfunc_end66-.Ltmp189          #   Call between .Ltmp189 and .Lfunc_end66
	.byte	0                               #     has no landing pad
	.byte	0                               #   On action: cleanup
.Lcst_end17:
	.byte	1                               # >> Action Record 1 <<
                                        #   Catch TypeInfo 1
	.byte	0                               #   No further actions
	.p2align	2, 0x0
                                        # >> Catch TypeInfos <<
	.long	0                               # TypeInfo 1
.Lttbase3:
	.p2align	2, 0x0
                                        # -- End function
	.section	.text._ZNSt11char_traitsIcE4findEPKcmRS1_,"axG",@progbits,_ZNSt11char_traitsIcE4findEPKcmRS1_,comdat
	.weak	_ZNSt11char_traitsIcE4findEPKcmRS1_ # -- Begin function _ZNSt11char_traitsIcE4findEPKcmRS1_
	.p2align	4, 0x90
	.type	_ZNSt11char_traitsIcE4findEPKcmRS1_,@function
_ZNSt11char_traitsIcE4findEPKcmRS1_:    # @_ZNSt11char_traitsIcE4findEPKcmRS1_
	.cfi_startproc
# %bb.0:
	pushq	%rbp
	.cfi_def_cfa_offset 16
	.cfi_offset %rbp, -16
	movq	%rsp, %rbp
	.cfi_def_cfa_register %rbp
	subq	$32, %rsp
	movq	%rdi, -16(%rbp)
	movq	%rsi, -24(%rbp)
	movq	%rdx, -32(%rbp)
	cmpq	$0, -24(%rbp)
	jne	.LBB67_2
# %bb.1:
	movq	$0, -8(%rbp)
	jmp	.LBB67_3
.LBB67_2:
	movq	-16(%rbp), %rdi
	movq	-32(%rbp), %rax
	movsbl	(%rax), %esi
	movq	-24(%rbp), %rdx
	callq	memchr@PLT
	movq	%rax, -8(%rbp)
.LBB67_3:
	movq	-8(%rbp), %rax
	addq	$32, %rsp
	popq	%rbp
	.cfi_def_cfa %rsp, 8
	retq
.Lfunc_end67:
	.size	_ZNSt11char_traitsIcE4findEPKcmRS1_, .Lfunc_end67-_ZNSt11char_traitsIcE4findEPKcmRS1_
	.cfi_endproc
                                        # -- End function
	.section	.text.__clang_call_terminate,"axG",@progbits,__clang_call_terminate,comdat
	.hidden	__clang_call_terminate          # -- Begin function __clang_call_terminate
	.weak	__clang_call_terminate
	.p2align	4, 0x90
	.type	__clang_call_terminate,@function
__clang_call_terminate:                 # @__clang_call_terminate
# %bb.0:
	pushq	%rbp
	movq	%rsp, %rbp
	callq	__cxa_begin_catch@PLT
	callq	_ZSt9terminatev@PLT
.Lfunc_end68:
	.size	__clang_call_terminate, .Lfunc_end68-__clang_call_terminate
                                        # -- End function
	.section	.text._ZNSt11char_traitsIcE7compareEPKcS2_m,"axG",@progbits,_ZNSt11char_traitsIcE7compareEPKcS2_m,comdat
	.weak	_ZNSt11char_traitsIcE7compareEPKcS2_m # -- Begin function _ZNSt11char_traitsIcE7compareEPKcS2_m
	.p2align	4, 0x90
	.type	_ZNSt11char_traitsIcE7compareEPKcS2_m,@function
_ZNSt11char_traitsIcE7compareEPKcS2_m:  # @_ZNSt11char_traitsIcE7compareEPKcS2_m
	.cfi_startproc
# %bb.0:
	pushq	%rbp
	.cfi_def_cfa_offset 16
	.cfi_offset %rbp, -16
	movq	%rsp, %rbp
	.cfi_def_cfa_register %rbp
	subq	$32, %rsp
	movq	%rdi, -16(%rbp)
	movq	%rsi, -24(%rbp)
	movq	%rdx, -32(%rbp)
	cmpq	$0, -32(%rbp)
	jne	.LBB69_2
# %bb.1:
	movl	$0, -4(%rbp)
	jmp	.LBB69_3
.LBB69_2:
	movq	-16(%rbp), %rdi
	movq	-24(%rbp), %rsi
	movq	-32(%rbp), %rdx
	callq	memcmp@PLT
	movl	%eax, -4(%rbp)
.LBB69_3:
	movl	-4(%rbp), %eax
	addq	$32, %rsp
	popq	%rbp
	.cfi_def_cfa %rsp, 8
	retq
.Lfunc_end69:
	.size	_ZNSt11char_traitsIcE7compareEPKcS2_m, .Lfunc_end69-_ZNSt11char_traitsIcE7compareEPKcS2_m
	.cfi_endproc
                                        # -- End function
	.section	.text._ZSt10__sv_checkmmPKc,"axG",@progbits,_ZSt10__sv_checkmmPKc,comdat
	.weak	_ZSt10__sv_checkmmPKc           # -- Begin function _ZSt10__sv_checkmmPKc
	.p2align	4, 0x90
	.type	_ZSt10__sv_checkmmPKc,@function
_ZSt10__sv_checkmmPKc:                  # @_ZSt10__sv_checkmmPKc
	.cfi_startproc
# %bb.0:
	pushq	%rbp
	.cfi_def_cfa_offset 16
	.cfi_offset %rbp, -16
	movq	%rsp, %rbp
	.cfi_def_cfa_register %rbp
	subq	$32, %rsp
	movq	%rdi, -8(%rbp)
	movq	%rsi, -16(%rbp)
	movq	%rdx, -24(%rbp)
	movq	-16(%rbp), %rax
	cmpq	-8(%rbp), %rax
	jbe	.LBB70_2
# %bb.1:
	movq	-24(%rbp), %rsi
	movq	-16(%rbp), %rdx
	movq	-8(%rbp), %rcx
	leaq	.L.str.24(%rip), %rdi
	movb	$0, %al
	callq	_ZSt24__throw_out_of_range_fmtPKcz@PLT
.LBB70_2:
	movq	-16(%rbp), %rax
	addq	$32, %rsp
	popq	%rbp
	.cfi_def_cfa %rsp, 8
	retq
.Lfunc_end70:
	.size	_ZSt10__sv_checkmmPKc, .Lfunc_end70-_ZSt10__sv_checkmmPKc
	.cfi_endproc
                                        # -- End function
	.section	.text._ZSt3minImERKT_S2_S2_,"axG",@progbits,_ZSt3minImERKT_S2_S2_,comdat
	.weak	_ZSt3minImERKT_S2_S2_           # -- Begin function _ZSt3minImERKT_S2_S2_
	.p2align	4, 0x90
	.type	_ZSt3minImERKT_S2_S2_,@function
_ZSt3minImERKT_S2_S2_:                  # @_ZSt3minImERKT_S2_S2_
	.cfi_startproc
# %bb.0:
	pushq	%rbp
	.cfi_def_cfa_offset 16
	.cfi_offset %rbp, -16
	movq	%rsp, %rbp
	.cfi_def_cfa_register %rbp
	movq	%rdi, -16(%rbp)
	movq	%rsi, -24(%rbp)
	movq	-24(%rbp), %rax
	movq	(%rax), %rax
	movq	-16(%rbp), %rcx
	cmpq	(%rcx), %rax
	jae	.LBB71_2
# %bb.1:
	movq	-24(%rbp), %rax
	movq	%rax, -8(%rbp)
	jmp	.LBB71_3
.LBB71_2:
	movq	-16(%rbp), %rax
	movq	%rax, -8(%rbp)
.LBB71_3:
	movq	-8(%rbp), %rax
	popq	%rbp
	.cfi_def_cfa %rsp, 8
	retq
.Lfunc_end71:
	.size	_ZSt3minImERKT_S2_S2_, .Lfunc_end71-_ZSt3minImERKT_S2_S2_
	.cfi_endproc
                                        # -- End function
	.section	.text._ZNSt17basic_string_viewIcSt11char_traitsIcEEC2EPKcm,"axG",@progbits,_ZNSt17basic_string_viewIcSt11char_traitsIcEEC2EPKcm,comdat
	.weak	_ZNSt17basic_string_viewIcSt11char_traitsIcEEC2EPKcm # -- Begin function _ZNSt17basic_string_viewIcSt11char_traitsIcEEC2EPKcm
	.p2align	4, 0x90
	.type	_ZNSt17basic_string_viewIcSt11char_traitsIcEEC2EPKcm,@function
_ZNSt17basic_string_viewIcSt11char_traitsIcEEC2EPKcm: # @_ZNSt17basic_string_viewIcSt11char_traitsIcEEC2EPKcm
	.cfi_startproc
# %bb.0:
	pushq	%rbp
	.cfi_def_cfa_offset 16
	.cfi_offset %rbp, -16
	movq	%rsp, %rbp
	.cfi_def_cfa_register %rbp
	movq	%rdi, -8(%rbp)
	movq	%rsi, -16(%rbp)
	movq	%rdx, -24(%rbp)
	movq	-8(%rbp), %rax
	movq	-24(%rbp), %rcx
	movq	%rcx, (%rax)
	movq	-16(%rbp), %rcx
	movq	%rcx, 8(%rax)
	popq	%rbp
	.cfi_def_cfa %rsp, 8
	retq
.Lfunc_end72:
	.size	_ZNSt17basic_string_viewIcSt11char_traitsIcEEC2EPKcm, .Lfunc_end72-_ZNSt17basic_string_viewIcSt11char_traitsIcEEC2EPKcm
	.cfi_endproc
                                        # -- End function
	.section	.text._ZNSt10filesystem6existsENS_11file_statusE,"axG",@progbits,_ZNSt10filesystem6existsENS_11file_statusE,comdat
	.weak	_ZNSt10filesystem6existsENS_11file_statusE # -- Begin function _ZNSt10filesystem6existsENS_11file_statusE
	.p2align	4, 0x90
	.type	_ZNSt10filesystem6existsENS_11file_statusE,@function
_ZNSt10filesystem6existsENS_11file_statusE: # @_ZNSt10filesystem6existsENS_11file_statusE
	.cfi_startproc
# %bb.0:
	pushq	%rbp
	.cfi_def_cfa_offset 16
	.cfi_offset %rbp, -16
	movq	%rsp, %rbp
	.cfi_def_cfa_register %rbp
	subq	$32, %rsp
	movq	%fs:40, %rax
	movq	%rax, -8(%rbp)
	movq	%rdi, -16(%rbp)
	movq	-16(%rbp), %rax
	movq	%rax, -24(%rbp)
	movq	-24(%rbp), %rdi
	callq	_ZNSt10filesystem12status_knownENS_11file_statusE
	movb	%al, %cl
	xorl	%eax, %eax
                                        # kill: def $al killed $al killed $eax
	testb	$1, %cl
	movb	%al, -25(%rbp)                  # 1-byte Spill
	jne	.LBB73_1
	jmp	.LBB73_2
.LBB73_1:
	leaq	-16(%rbp), %rdi
	callq	_ZNKSt10filesystem11file_status4typeEv
	cmpb	$-1, %al
	setne	%al
	movb	%al, -25(%rbp)                  # 1-byte Spill
.LBB73_2:
	movb	-25(%rbp), %al                  # 1-byte Reload
	movb	%al, -26(%rbp)                  # 1-byte Spill
	movq	%fs:40, %rax
	movq	-8(%rbp), %rcx
	cmpq	%rcx, %rax
	jne	.LBB73_4
# %bb.3:
	movb	-26(%rbp), %al                  # 1-byte Reload
	andb	$1, %al
	movzbl	%al, %eax
	addq	$32, %rsp
	popq	%rbp
	.cfi_def_cfa %rsp, 8
	retq
.LBB73_4:
	.cfi_def_cfa %rbp, 16
	callq	__stack_chk_fail@PLT
.Lfunc_end73:
	.size	_ZNSt10filesystem6existsENS_11file_statusE, .Lfunc_end73-_ZNSt10filesystem6existsENS_11file_statusE
	.cfi_endproc
                                        # -- End function
	.section	.text._ZNSt10filesystem12status_knownENS_11file_statusE,"axG",@progbits,_ZNSt10filesystem12status_knownENS_11file_statusE,comdat
	.weak	_ZNSt10filesystem12status_knownENS_11file_statusE # -- Begin function _ZNSt10filesystem12status_knownENS_11file_statusE
	.p2align	4, 0x90
	.type	_ZNSt10filesystem12status_knownENS_11file_statusE,@function
_ZNSt10filesystem12status_knownENS_11file_statusE: # @_ZNSt10filesystem12status_knownENS_11file_statusE
	.cfi_startproc
# %bb.0:
	pushq	%rbp
	.cfi_def_cfa_offset 16
	.cfi_offset %rbp, -16
	movq	%rsp, %rbp
	.cfi_def_cfa_register %rbp
	subq	$32, %rsp
	movq	%fs:40, %rax
	movq	%rax, -8(%rbp)
	movq	%rdi, -16(%rbp)
	leaq	-16(%rbp), %rdi
	callq	_ZNKSt10filesystem11file_status4typeEv
	testb	%al, %al
	setne	%al
	movb	%al, -17(%rbp)                  # 1-byte Spill
	movq	%fs:40, %rax
	movq	-8(%rbp), %rcx
	cmpq	%rcx, %rax
	jne	.LBB74_2
# %bb.1:
	movb	-17(%rbp), %al                  # 1-byte Reload
	andb	$1, %al
	movzbl	%al, %eax
	addq	$32, %rsp
	popq	%rbp
	.cfi_def_cfa %rsp, 8
	retq
.LBB74_2:
	.cfi_def_cfa %rbp, 16
	callq	__stack_chk_fail@PLT
.Lfunc_end74:
	.size	_ZNSt10filesystem12status_knownENS_11file_statusE, .Lfunc_end74-_ZNSt10filesystem12status_knownENS_11file_statusE
	.cfi_endproc
                                        # -- End function
	.section	.text._ZNKSt10filesystem11file_status4typeEv,"axG",@progbits,_ZNKSt10filesystem11file_status4typeEv,comdat
	.weak	_ZNKSt10filesystem11file_status4typeEv # -- Begin function _ZNKSt10filesystem11file_status4typeEv
	.p2align	4, 0x90
	.type	_ZNKSt10filesystem11file_status4typeEv,@function
_ZNKSt10filesystem11file_status4typeEv: # @_ZNKSt10filesystem11file_status4typeEv
	.cfi_startproc
# %bb.0:
	pushq	%rbp
	.cfi_def_cfa_offset 16
	.cfi_offset %rbp, -16
	movq	%rsp, %rbp
	.cfi_def_cfa_register %rbp
	movq	%rdi, -8(%rbp)
	movq	-8(%rbp), %rax
	movsbl	(%rax), %eax
	popq	%rbp
	.cfi_def_cfa %rsp, 8
	retq
.Lfunc_end75:
	.size	_ZNKSt10filesystem11file_status4typeEv, .Lfunc_end75-_ZNKSt10filesystem11file_status4typeEv
	.cfi_endproc
                                        # -- End function
	.section	.text._ZNSt12_Vector_baseI6LsItemSaIS0_EEC2Ev,"axG",@progbits,_ZNSt12_Vector_baseI6LsItemSaIS0_EEC2Ev,comdat
	.weak	_ZNSt12_Vector_baseI6LsItemSaIS0_EEC2Ev # -- Begin function _ZNSt12_Vector_baseI6LsItemSaIS0_EEC2Ev
	.p2align	4, 0x90
	.type	_ZNSt12_Vector_baseI6LsItemSaIS0_EEC2Ev,@function
_ZNSt12_Vector_baseI6LsItemSaIS0_EEC2Ev: # @_ZNSt12_Vector_baseI6LsItemSaIS0_EEC2Ev
	.cfi_startproc
# %bb.0:
	pushq	%rbp
	.cfi_def_cfa_offset 16
	.cfi_offset %rbp, -16
	movq	%rsp, %rbp
	.cfi_def_cfa_register %rbp
	subq	$16, %rsp
	movq	%rdi, -8(%rbp)
	movq	-8(%rbp), %rdi
	callq	_ZNSt12_Vector_baseI6LsItemSaIS0_EE12_Vector_implC2Ev
	addq	$16, %rsp
	popq	%rbp
	.cfi_def_cfa %rsp, 8
	retq
.Lfunc_end76:
	.size	_ZNSt12_Vector_baseI6LsItemSaIS0_EEC2Ev, .Lfunc_end76-_ZNSt12_Vector_baseI6LsItemSaIS0_EEC2Ev
	.cfi_endproc
                                        # -- End function
	.section	.text._ZNSt12_Vector_baseI6LsItemSaIS0_EE12_Vector_implC2Ev,"axG",@progbits,_ZNSt12_Vector_baseI6LsItemSaIS0_EE12_Vector_implC2Ev,comdat
	.weak	_ZNSt12_Vector_baseI6LsItemSaIS0_EE12_Vector_implC2Ev # -- Begin function _ZNSt12_Vector_baseI6LsItemSaIS0_EE12_Vector_implC2Ev
	.p2align	4, 0x90
	.type	_ZNSt12_Vector_baseI6LsItemSaIS0_EE12_Vector_implC2Ev,@function
_ZNSt12_Vector_baseI6LsItemSaIS0_EE12_Vector_implC2Ev: # @_ZNSt12_Vector_baseI6LsItemSaIS0_EE12_Vector_implC2Ev
	.cfi_startproc
# %bb.0:
	pushq	%rbp
	.cfi_def_cfa_offset 16
	.cfi_offset %rbp, -16
	movq	%rsp, %rbp
	.cfi_def_cfa_register %rbp
	subq	$32, %rsp
	movq	%rdi, -24(%rbp)
	movq	-24(%rbp), %rdi
	movq	%rdi, -16(%rbp)
	movq	-16(%rbp), %rax
	movq	%rax, -8(%rbp)
	callq	_ZNSt12_Vector_baseI6LsItemSaIS0_EE17_Vector_impl_dataC2Ev
	addq	$32, %rsp
	popq	%rbp
	.cfi_def_cfa %rsp, 8
	retq
.Lfunc_end77:
	.size	_ZNSt12_Vector_baseI6LsItemSaIS0_EE12_Vector_implC2Ev, .Lfunc_end77-_ZNSt12_Vector_baseI6LsItemSaIS0_EE12_Vector_implC2Ev
	.cfi_endproc
                                        # -- End function
	.section	.text._ZNSt12_Vector_baseI6LsItemSaIS0_EE17_Vector_impl_dataC2Ev,"axG",@progbits,_ZNSt12_Vector_baseI6LsItemSaIS0_EE17_Vector_impl_dataC2Ev,comdat
	.weak	_ZNSt12_Vector_baseI6LsItemSaIS0_EE17_Vector_impl_dataC2Ev # -- Begin function _ZNSt12_Vector_baseI6LsItemSaIS0_EE17_Vector_impl_dataC2Ev
	.p2align	4, 0x90
	.type	_ZNSt12_Vector_baseI6LsItemSaIS0_EE17_Vector_impl_dataC2Ev,@function
_ZNSt12_Vector_baseI6LsItemSaIS0_EE17_Vector_impl_dataC2Ev: # @_ZNSt12_Vector_baseI6LsItemSaIS0_EE17_Vector_impl_dataC2Ev
	.cfi_startproc
# %bb.0:
	pushq	%rbp
	.cfi_def_cfa_offset 16
	.cfi_offset %rbp, -16
	movq	%rsp, %rbp
	.cfi_def_cfa_register %rbp
	movq	%rdi, -8(%rbp)
	movq	-8(%rbp), %rax
	movq	$0, (%rax)
	movq	$0, 8(%rax)
	movq	$0, 16(%rax)
	popq	%rbp
	.cfi_def_cfa %rsp, 8
	retq
.Lfunc_end78:
	.size	_ZNSt12_Vector_baseI6LsItemSaIS0_EE17_Vector_impl_dataC2Ev, .Lfunc_end78-_ZNSt12_Vector_baseI6LsItemSaIS0_EE17_Vector_impl_dataC2Ev
	.cfi_endproc
                                        # -- End function
	.section	.text._ZNSt10filesystem7__cxx1118directory_iteratorC2EOS1_,"axG",@progbits,_ZNSt10filesystem7__cxx1118directory_iteratorC2EOS1_,comdat
	.weak	_ZNSt10filesystem7__cxx1118directory_iteratorC2EOS1_ # -- Begin function _ZNSt10filesystem7__cxx1118directory_iteratorC2EOS1_
	.p2align	4, 0x90
	.type	_ZNSt10filesystem7__cxx1118directory_iteratorC2EOS1_,@function
_ZNSt10filesystem7__cxx1118directory_iteratorC2EOS1_: # @_ZNSt10filesystem7__cxx1118directory_iteratorC2EOS1_
	.cfi_startproc
# %bb.0:
	pushq	%rbp
	.cfi_def_cfa_offset 16
	.cfi_offset %rbp, -16
	movq	%rsp, %rbp
	.cfi_def_cfa_register %rbp
	subq	$16, %rsp
	movq	%rdi, -8(%rbp)
	movq	%rsi, -16(%rbp)
	movq	-8(%rbp), %rdi
	movq	-16(%rbp), %rsi
	callq	_ZNSt12__shared_ptrINSt10filesystem7__cxx114_DirELN9__gnu_cxx12_Lock_policyE2EEC1EOS5_@PLT
	addq	$16, %rsp
	popq	%rbp
	.cfi_def_cfa %rsp, 8
	retq
.Lfunc_end79:
	.size	_ZNSt10filesystem7__cxx1118directory_iteratorC2EOS1_, .Lfunc_end79-_ZNSt10filesystem7__cxx1118directory_iteratorC2EOS1_
	.cfi_endproc
                                        # -- End function
	.section	.text._ZNSt12__shared_ptrINSt10filesystem7__cxx114_DirELN9__gnu_cxx12_Lock_policyE2EEC2ERKS5_,"axG",@progbits,_ZNSt12__shared_ptrINSt10filesystem7__cxx114_DirELN9__gnu_cxx12_Lock_policyE2EEC2ERKS5_,comdat
	.weak	_ZNSt12__shared_ptrINSt10filesystem7__cxx114_DirELN9__gnu_cxx12_Lock_policyE2EEC2ERKS5_ # -- Begin function _ZNSt12__shared_ptrINSt10filesystem7__cxx114_DirELN9__gnu_cxx12_Lock_policyE2EEC2ERKS5_
	.p2align	4, 0x90
	.type	_ZNSt12__shared_ptrINSt10filesystem7__cxx114_DirELN9__gnu_cxx12_Lock_policyE2EEC2ERKS5_,@function
_ZNSt12__shared_ptrINSt10filesystem7__cxx114_DirELN9__gnu_cxx12_Lock_policyE2EEC2ERKS5_: # @_ZNSt12__shared_ptrINSt10filesystem7__cxx114_DirELN9__gnu_cxx12_Lock_policyE2EEC2ERKS5_
	.cfi_startproc
# %bb.0:
	pushq	%rbp
	.cfi_def_cfa_offset 16
	.cfi_offset %rbp, -16
	movq	%rsp, %rbp
	.cfi_def_cfa_register %rbp
	subq	$16, %rsp
	movq	%rdi, -8(%rbp)
	movq	%rsi, -16(%rbp)
	movq	-8(%rbp), %rdi
	movq	-16(%rbp), %rax
	movq	(%rax), %rax
	movq	%rax, (%rdi)
	addq	$8, %rdi
	movq	-16(%rbp), %rsi
	addq	$8, %rsi
	callq	_ZNSt14__shared_countILN9__gnu_cxx12_Lock_policyE2EEC2ERKS2_
	addq	$16, %rsp
	popq	%rbp
	.cfi_def_cfa %rsp, 8
	retq
.Lfunc_end80:
	.size	_ZNSt12__shared_ptrINSt10filesystem7__cxx114_DirELN9__gnu_cxx12_Lock_policyE2EEC2ERKS5_, .Lfunc_end80-_ZNSt12__shared_ptrINSt10filesystem7__cxx114_DirELN9__gnu_cxx12_Lock_policyE2EEC2ERKS5_
	.cfi_endproc
                                        # -- End function
	.section	.text._ZNSt14__shared_countILN9__gnu_cxx12_Lock_policyE2EEC2ERKS2_,"axG",@progbits,_ZNSt14__shared_countILN9__gnu_cxx12_Lock_policyE2EEC2ERKS2_,comdat
	.weak	_ZNSt14__shared_countILN9__gnu_cxx12_Lock_policyE2EEC2ERKS2_ # -- Begin function _ZNSt14__shared_countILN9__gnu_cxx12_Lock_policyE2EEC2ERKS2_
	.p2align	4, 0x90
	.type	_ZNSt14__shared_countILN9__gnu_cxx12_Lock_policyE2EEC2ERKS2_,@function
_ZNSt14__shared_countILN9__gnu_cxx12_Lock_policyE2EEC2ERKS2_: # @_ZNSt14__shared_countILN9__gnu_cxx12_Lock_policyE2EEC2ERKS2_
.Lfunc_begin18:
	.cfi_startproc
	.cfi_personality 155, DW.ref.__gxx_personality_v0
	.cfi_lsda 27, .Lexception18
# %bb.0:
	pushq	%rbp
	.cfi_def_cfa_offset 16
	.cfi_offset %rbp, -16
	movq	%rsp, %rbp
	.cfi_def_cfa_register %rbp
	subq	$32, %rsp
	movq	%rdi, -8(%rbp)
	movq	%rsi, -16(%rbp)
	movq	-8(%rbp), %rax
	movq	%rax, -24(%rbp)                 # 8-byte Spill
	movq	-16(%rbp), %rcx
	movq	(%rcx), %rcx
	movq	%rcx, (%rax)
	cmpq	$0, (%rax)
	je	.LBB81_3
# %bb.1:
	movq	-24(%rbp), %rax                 # 8-byte Reload
	movq	(%rax), %rdi
.Ltmp191:
	callq	_ZNSt16_Sp_counted_baseILN9__gnu_cxx12_Lock_policyE2EE15_M_add_ref_copyEv
.Ltmp192:
	jmp	.LBB81_2
.LBB81_2:
	jmp	.LBB81_3
.LBB81_3:
	addq	$32, %rsp
	popq	%rbp
	.cfi_def_cfa %rsp, 8
	retq
.LBB81_4:
	.cfi_def_cfa %rbp, 16
.Ltmp193:
	movq	%rax, %rdi
                                        # kill: def $eax killed $edx killed $rdx
	callq	__clang_call_terminate
.Lfunc_end81:
	.size	_ZNSt14__shared_countILN9__gnu_cxx12_Lock_policyE2EEC2ERKS2_, .Lfunc_end81-_ZNSt14__shared_countILN9__gnu_cxx12_Lock_policyE2EEC2ERKS2_
	.cfi_endproc
	.section	.gcc_except_table._ZNSt14__shared_countILN9__gnu_cxx12_Lock_policyE2EEC2ERKS2_,"aG",@progbits,_ZNSt14__shared_countILN9__gnu_cxx12_Lock_policyE2EEC2ERKS2_,comdat
	.p2align	2, 0x0
GCC_except_table81:
.Lexception18:
	.byte	255                             # @LPStart Encoding = omit
	.byte	155                             # @TType Encoding = indirect pcrel sdata4
	.uleb128 .Lttbase4-.Lttbaseref4
.Lttbaseref4:
	.byte	1                               # Call site Encoding = uleb128
	.uleb128 .Lcst_end18-.Lcst_begin18
.Lcst_begin18:
	.uleb128 .Ltmp191-.Lfunc_begin18        # >> Call Site 1 <<
	.uleb128 .Ltmp192-.Ltmp191              #   Call between .Ltmp191 and .Ltmp192
	.uleb128 .Ltmp193-.Lfunc_begin18        #     jumps to .Ltmp193
	.byte	1                               #   On action: 1
.Lcst_end18:
	.byte	1                               # >> Action Record 1 <<
                                        #   Catch TypeInfo 1
	.byte	0                               #   No further actions
	.p2align	2, 0x0
                                        # >> Catch TypeInfos <<
	.long	0                               # TypeInfo 1
.Lttbase4:
	.p2align	2, 0x0
                                        # -- End function
	.section	.text._ZNSt16_Sp_counted_baseILN9__gnu_cxx12_Lock_policyE2EE15_M_add_ref_copyEv,"axG",@progbits,_ZNSt16_Sp_counted_baseILN9__gnu_cxx12_Lock_policyE2EE15_M_add_ref_copyEv,comdat
	.weak	_ZNSt16_Sp_counted_baseILN9__gnu_cxx12_Lock_policyE2EE15_M_add_ref_copyEv # -- Begin function _ZNSt16_Sp_counted_baseILN9__gnu_cxx12_Lock_policyE2EE15_M_add_ref_copyEv
	.p2align	4, 0x90
	.type	_ZNSt16_Sp_counted_baseILN9__gnu_cxx12_Lock_policyE2EE15_M_add_ref_copyEv,@function
_ZNSt16_Sp_counted_baseILN9__gnu_cxx12_Lock_policyE2EE15_M_add_ref_copyEv: # @_ZNSt16_Sp_counted_baseILN9__gnu_cxx12_Lock_policyE2EE15_M_add_ref_copyEv
	.cfi_startproc
# %bb.0:
	pushq	%rbp
	.cfi_def_cfa_offset 16
	.cfi_offset %rbp, -16
	movq	%rsp, %rbp
	.cfi_def_cfa_register %rbp
	movq	%rdi, -64(%rbp)
	movq	-64(%rbp), %rax
	addq	$8, %rax
	movq	%rax, -48(%rbp)
	movl	$1, -52(%rbp)
	movq	__libc_single_threaded@GOTPCREL(%rip), %rax
	cmpb	$0, (%rax)
	je	.LBB82_2
# %bb.1:
	movq	-48(%rbp), %rcx
	movl	-52(%rbp), %eax
	movq	%rcx, -32(%rbp)
	movl	%eax, -36(%rbp)
	movl	-36(%rbp), %ecx
	movq	-32(%rbp), %rax
	addl	(%rax), %ecx
	movl	%ecx, (%rax)
	jmp	.LBB82_3
.LBB82_2:
	movq	-48(%rbp), %rcx
	movl	-52(%rbp), %eax
	movq	%rcx, -8(%rbp)
	movl	%eax, -12(%rbp)
	movq	-8(%rbp), %rcx
	movl	-12(%rbp), %eax
	movl	%eax, -16(%rbp)
	movl	-16(%rbp), %eax
	lock		xaddl	%eax, (%rcx)
	movl	%eax, -20(%rbp)
.LBB82_3:
	popq	%rbp
	.cfi_def_cfa %rsp, 8
	retq
.Lfunc_end82:
	.size	_ZNSt16_Sp_counted_baseILN9__gnu_cxx12_Lock_policyE2EE15_M_add_ref_copyEv, .Lfunc_end82-_ZNSt16_Sp_counted_baseILN9__gnu_cxx12_Lock_policyE2EE15_M_add_ref_copyEv
	.cfi_endproc
                                        # -- End function
	.section	.text._ZNSt12__shared_ptrINSt10filesystem7__cxx114_DirELN9__gnu_cxx12_Lock_policyE2EED2Ev,"axG",@progbits,_ZNSt12__shared_ptrINSt10filesystem7__cxx114_DirELN9__gnu_cxx12_Lock_policyE2EED2Ev,comdat
	.weak	_ZNSt12__shared_ptrINSt10filesystem7__cxx114_DirELN9__gnu_cxx12_Lock_policyE2EED2Ev # -- Begin function _ZNSt12__shared_ptrINSt10filesystem7__cxx114_DirELN9__gnu_cxx12_Lock_policyE2EED2Ev
	.p2align	4, 0x90
	.type	_ZNSt12__shared_ptrINSt10filesystem7__cxx114_DirELN9__gnu_cxx12_Lock_policyE2EED2Ev,@function
_ZNSt12__shared_ptrINSt10filesystem7__cxx114_DirELN9__gnu_cxx12_Lock_policyE2EED2Ev: # @_ZNSt12__shared_ptrINSt10filesystem7__cxx114_DirELN9__gnu_cxx12_Lock_policyE2EED2Ev
	.cfi_startproc
# %bb.0:
	pushq	%rbp
	.cfi_def_cfa_offset 16
	.cfi_offset %rbp, -16
	movq	%rsp, %rbp
	.cfi_def_cfa_register %rbp
	subq	$16, %rsp
	movq	%rdi, -8(%rbp)
	movq	-8(%rbp), %rdi
	addq	$8, %rdi
	callq	_ZNSt14__shared_countILN9__gnu_cxx12_Lock_policyE2EED2Ev
	addq	$16, %rsp
	popq	%rbp
	.cfi_def_cfa %rsp, 8
	retq
.Lfunc_end83:
	.size	_ZNSt12__shared_ptrINSt10filesystem7__cxx114_DirELN9__gnu_cxx12_Lock_policyE2EED2Ev, .Lfunc_end83-_ZNSt12__shared_ptrINSt10filesystem7__cxx114_DirELN9__gnu_cxx12_Lock_policyE2EED2Ev
	.cfi_endproc
                                        # -- End function
	.section	.text._ZNSt14__shared_countILN9__gnu_cxx12_Lock_policyE2EED2Ev,"axG",@progbits,_ZNSt14__shared_countILN9__gnu_cxx12_Lock_policyE2EED2Ev,comdat
	.weak	_ZNSt14__shared_countILN9__gnu_cxx12_Lock_policyE2EED2Ev # -- Begin function _ZNSt14__shared_countILN9__gnu_cxx12_Lock_policyE2EED2Ev
	.p2align	4, 0x90
	.type	_ZNSt14__shared_countILN9__gnu_cxx12_Lock_policyE2EED2Ev,@function
_ZNSt14__shared_countILN9__gnu_cxx12_Lock_policyE2EED2Ev: # @_ZNSt14__shared_countILN9__gnu_cxx12_Lock_policyE2EED2Ev
	.cfi_startproc
# %bb.0:
	pushq	%rbp
	.cfi_def_cfa_offset 16
	.cfi_offset %rbp, -16
	movq	%rsp, %rbp
	.cfi_def_cfa_register %rbp
	subq	$16, %rsp
	movq	%rdi, -8(%rbp)
	movq	-8(%rbp), %rax
	movq	%rax, -16(%rbp)                 # 8-byte Spill
	cmpq	$0, (%rax)
	je	.LBB84_2
# %bb.1:
	movq	-16(%rbp), %rax                 # 8-byte Reload
	movq	(%rax), %rdi
	callq	_ZNSt16_Sp_counted_baseILN9__gnu_cxx12_Lock_policyE2EE10_M_releaseEv
.LBB84_2:
	addq	$16, %rsp
	popq	%rbp
	.cfi_def_cfa %rsp, 8
	retq
.Lfunc_end84:
	.size	_ZNSt14__shared_countILN9__gnu_cxx12_Lock_policyE2EED2Ev, .Lfunc_end84-_ZNSt14__shared_countILN9__gnu_cxx12_Lock_policyE2EED2Ev
	.cfi_endproc
                                        # -- End function
	.section	.text._ZNSt16_Sp_counted_baseILN9__gnu_cxx12_Lock_policyE2EE10_M_releaseEv,"axG",@progbits,_ZNSt16_Sp_counted_baseILN9__gnu_cxx12_Lock_policyE2EE10_M_releaseEv,comdat
	.weak	_ZNSt16_Sp_counted_baseILN9__gnu_cxx12_Lock_policyE2EE10_M_releaseEv # -- Begin function _ZNSt16_Sp_counted_baseILN9__gnu_cxx12_Lock_policyE2EE10_M_releaseEv
	.p2align	4, 0x90
	.type	_ZNSt16_Sp_counted_baseILN9__gnu_cxx12_Lock_policyE2EE10_M_releaseEv,@function
_ZNSt16_Sp_counted_baseILN9__gnu_cxx12_Lock_policyE2EE10_M_releaseEv: # @_ZNSt16_Sp_counted_baseILN9__gnu_cxx12_Lock_policyE2EE10_M_releaseEv
	.cfi_startproc
# %bb.0:
	pushq	%rbp
	.cfi_def_cfa_offset 16
	.cfi_offset %rbp, -16
	movq	%rsp, %rbp
	.cfi_def_cfa_register %rbp
	subq	$128, %rsp
	movq	%rdi, -72(%rbp)
	movq	-72(%rbp), %rax
	movq	%rax, -120(%rbp)                # 8-byte Spill
	movb	$1, -73(%rbp)
	movb	$1, -74(%rbp)
	movb	$1, -75(%rbp)
	movl	$32, -80(%rbp)
	movl	$32, -84(%rbp)
	movabsq	$4294967297, %rcx               # imm = 0x100000001
	movq	%rcx, -96(%rbp)
	addq	$8, %rax
	movq	%rax, -104(%rbp)
	movq	-104(%rbp), %rax
	movq	(%rax), %rax
	movq	%rax, -112(%rbp)
	movabsq	$4294967297, %rax               # imm = 0x100000001
	cmpq	%rax, -112(%rbp)
	jne	.LBB85_2
# %bb.1:
	movq	-120(%rbp), %rdi                # 8-byte Reload
	movl	$0, 8(%rdi)
	movl	$0, 12(%rdi)
	movq	(%rdi), %rax
	callq	*16(%rax)
	movq	-120(%rbp), %rdi                # 8-byte Reload
	movq	(%rdi), %rax
	callq	*24(%rax)
	jmp	.LBB85_8
.LBB85_2:
	movq	-120(%rbp), %rax                # 8-byte Reload
	addq	$8, %rax
	movq	%rax, -56(%rbp)
	movl	$-1, -60(%rbp)
	movq	__libc_single_threaded@GOTPCREL(%rip), %rax
	cmpb	$0, (%rax)
	je	.LBB85_4
# %bb.3:
	movq	-56(%rbp), %rcx
	movl	-60(%rbp), %eax
	movq	%rcx, -32(%rbp)
	movl	%eax, -36(%rbp)
	movq	-32(%rbp), %rax
	movl	(%rax), %eax
	movl	%eax, -40(%rbp)
	movl	-36(%rbp), %ecx
	movq	-32(%rbp), %rax
	addl	(%rax), %ecx
	movl	%ecx, (%rax)
	movl	-40(%rbp), %eax
	movl	%eax, -44(%rbp)
	jmp	.LBB85_5
.LBB85_4:
	movq	-56(%rbp), %rcx
	movl	-60(%rbp), %eax
	movq	%rcx, -8(%rbp)
	movl	%eax, -12(%rbp)
	movq	-8(%rbp), %rcx
	movl	-12(%rbp), %eax
	movl	%eax, -16(%rbp)
	movl	-16(%rbp), %eax
	lock		xaddl	%eax, (%rcx)
	movl	%eax, -20(%rbp)
	movl	-20(%rbp), %eax
	movl	%eax, -44(%rbp)
.LBB85_5:
	movl	-44(%rbp), %eax
	movl	%eax, -124(%rbp)                # 4-byte Spill
# %bb.6:
	movl	-124(%rbp), %eax                # 4-byte Reload
	cmpl	$1, %eax
	jne	.LBB85_8
# %bb.7:
	movq	-120(%rbp), %rdi                # 8-byte Reload
	callq	_ZNSt16_Sp_counted_baseILN9__gnu_cxx12_Lock_policyE2EE24_M_release_last_use_coldEv
.LBB85_8:
	addq	$128, %rsp
	popq	%rbp
	.cfi_def_cfa %rsp, 8
	retq
.Lfunc_end85:
	.size	_ZNSt16_Sp_counted_baseILN9__gnu_cxx12_Lock_policyE2EE10_M_releaseEv, .Lfunc_end85-_ZNSt16_Sp_counted_baseILN9__gnu_cxx12_Lock_policyE2EE10_M_releaseEv
	.cfi_endproc
                                        # -- End function
	.section	.text._ZNSt16_Sp_counted_baseILN9__gnu_cxx12_Lock_policyE2EE24_M_release_last_use_coldEv,"axG",@progbits,_ZNSt16_Sp_counted_baseILN9__gnu_cxx12_Lock_policyE2EE24_M_release_last_use_coldEv,comdat
	.weak	_ZNSt16_Sp_counted_baseILN9__gnu_cxx12_Lock_policyE2EE24_M_release_last_use_coldEv # -- Begin function _ZNSt16_Sp_counted_baseILN9__gnu_cxx12_Lock_policyE2EE24_M_release_last_use_coldEv
	.p2align	4, 0x90
	.type	_ZNSt16_Sp_counted_baseILN9__gnu_cxx12_Lock_policyE2EE24_M_release_last_use_coldEv,@function
_ZNSt16_Sp_counted_baseILN9__gnu_cxx12_Lock_policyE2EE24_M_release_last_use_coldEv: # @_ZNSt16_Sp_counted_baseILN9__gnu_cxx12_Lock_policyE2EE24_M_release_last_use_coldEv
	.cfi_startproc
# %bb.0:
	pushq	%rbp
	.cfi_def_cfa_offset 16
	.cfi_offset %rbp, -16
	movq	%rsp, %rbp
	.cfi_def_cfa_register %rbp
	subq	$16, %rsp
	movq	%rdi, -8(%rbp)
	movq	-8(%rbp), %rdi
	callq	_ZNSt16_Sp_counted_baseILN9__gnu_cxx12_Lock_policyE2EE19_M_release_last_useEv
	addq	$16, %rsp
	popq	%rbp
	.cfi_def_cfa %rsp, 8
	retq
.Lfunc_end86:
	.size	_ZNSt16_Sp_counted_baseILN9__gnu_cxx12_Lock_policyE2EE24_M_release_last_use_coldEv, .Lfunc_end86-_ZNSt16_Sp_counted_baseILN9__gnu_cxx12_Lock_policyE2EE24_M_release_last_use_coldEv
	.cfi_endproc
                                        # -- End function
	.section	.text._ZNSt16_Sp_counted_baseILN9__gnu_cxx12_Lock_policyE2EE19_M_release_last_useEv,"axG",@progbits,_ZNSt16_Sp_counted_baseILN9__gnu_cxx12_Lock_policyE2EE19_M_release_last_useEv,comdat
	.weak	_ZNSt16_Sp_counted_baseILN9__gnu_cxx12_Lock_policyE2EE19_M_release_last_useEv # -- Begin function _ZNSt16_Sp_counted_baseILN9__gnu_cxx12_Lock_policyE2EE19_M_release_last_useEv
	.p2align	4, 0x90
	.type	_ZNSt16_Sp_counted_baseILN9__gnu_cxx12_Lock_policyE2EE19_M_release_last_useEv,@function
_ZNSt16_Sp_counted_baseILN9__gnu_cxx12_Lock_policyE2EE19_M_release_last_useEv: # @_ZNSt16_Sp_counted_baseILN9__gnu_cxx12_Lock_policyE2EE19_M_release_last_useEv
	.cfi_startproc
# %bb.0:
	pushq	%rbp
	.cfi_def_cfa_offset 16
	.cfi_offset %rbp, -16
	movq	%rsp, %rbp
	.cfi_def_cfa_register %rbp
	subq	$96, %rsp
	movq	%rdi, -72(%rbp)
	movq	-72(%rbp), %rdi
	movq	%rdi, -80(%rbp)                 # 8-byte Spill
	movq	(%rdi), %rax
	callq	*16(%rax)
	movq	-80(%rbp), %rax                 # 8-byte Reload
	addq	$12, %rax
	movq	%rax, -56(%rbp)
	movl	$-1, -60(%rbp)
	movq	__libc_single_threaded@GOTPCREL(%rip), %rax
	cmpb	$0, (%rax)
	je	.LBB87_2
# %bb.1:
	movq	-56(%rbp), %rcx
	movl	-60(%rbp), %eax
	movq	%rcx, -32(%rbp)
	movl	%eax, -36(%rbp)
	movq	-32(%rbp), %rax
	movl	(%rax), %eax
	movl	%eax, -40(%rbp)
	movl	-36(%rbp), %ecx
	movq	-32(%rbp), %rax
	addl	(%rax), %ecx
	movl	%ecx, (%rax)
	movl	-40(%rbp), %eax
	movl	%eax, -44(%rbp)
	jmp	.LBB87_3
.LBB87_2:
	movq	-56(%rbp), %rcx
	movl	-60(%rbp), %eax
	movq	%rcx, -8(%rbp)
	movl	%eax, -12(%rbp)
	movq	-8(%rbp), %rcx
	movl	-12(%rbp), %eax
	movl	%eax, -16(%rbp)
	movl	-16(%rbp), %eax
	lock		xaddl	%eax, (%rcx)
	movl	%eax, -20(%rbp)
	movl	-20(%rbp), %eax
	movl	%eax, -44(%rbp)
.LBB87_3:
	movl	-44(%rbp), %eax
	movl	%eax, -84(%rbp)                 # 4-byte Spill
# %bb.4:
	movl	-84(%rbp), %eax                 # 4-byte Reload
	cmpl	$1, %eax
	jne	.LBB87_6
# %bb.5:
	movq	-80(%rbp), %rdi                 # 8-byte Reload
	movq	(%rdi), %rax
	callq	*24(%rax)
.LBB87_6:
	addq	$96, %rsp
	popq	%rbp
	.cfi_def_cfa %rsp, 8
	retq
.Lfunc_end87:
	.size	_ZNSt16_Sp_counted_baseILN9__gnu_cxx12_Lock_policyE2EE19_M_release_last_useEv, .Lfunc_end87-_ZNSt16_Sp_counted_baseILN9__gnu_cxx12_Lock_policyE2EE19_M_release_last_useEv
	.cfi_endproc
                                        # -- End function
	.section	.text._ZNSt10filesystem7__cxx1118directory_iteratorC2Ev,"axG",@progbits,_ZNSt10filesystem7__cxx1118directory_iteratorC2Ev,comdat
	.weak	_ZNSt10filesystem7__cxx1118directory_iteratorC2Ev # -- Begin function _ZNSt10filesystem7__cxx1118directory_iteratorC2Ev
	.p2align	4, 0x90
	.type	_ZNSt10filesystem7__cxx1118directory_iteratorC2Ev,@function
_ZNSt10filesystem7__cxx1118directory_iteratorC2Ev: # @_ZNSt10filesystem7__cxx1118directory_iteratorC2Ev
	.cfi_startproc
# %bb.0:
	pushq	%rbp
	.cfi_def_cfa_offset 16
	.cfi_offset %rbp, -16
	movq	%rsp, %rbp
	.cfi_def_cfa_register %rbp
	subq	$16, %rsp
	movq	%rdi, -8(%rbp)
	movq	-8(%rbp), %rdi
	callq	_ZNSt12__shared_ptrINSt10filesystem7__cxx114_DirELN9__gnu_cxx12_Lock_policyE2EEC1Ev@PLT
	addq	$16, %rsp
	popq	%rbp
	.cfi_def_cfa %rsp, 8
	retq
.Lfunc_end88:
	.size	_ZNSt10filesystem7__cxx1118directory_iteratorC2Ev, .Lfunc_end88-_ZNSt10filesystem7__cxx1118directory_iteratorC2Ev
	.cfi_endproc
                                        # -- End function
	.section	.text._ZNSt10filesystem7__cxx11eqERKNS0_18directory_iteratorES3_,"axG",@progbits,_ZNSt10filesystem7__cxx11eqERKNS0_18directory_iteratorES3_,comdat
	.weak	_ZNSt10filesystem7__cxx11eqERKNS0_18directory_iteratorES3_ # -- Begin function _ZNSt10filesystem7__cxx11eqERKNS0_18directory_iteratorES3_
	.p2align	4, 0x90
	.type	_ZNSt10filesystem7__cxx11eqERKNS0_18directory_iteratorES3_,@function
_ZNSt10filesystem7__cxx11eqERKNS0_18directory_iteratorES3_: # @_ZNSt10filesystem7__cxx11eqERKNS0_18directory_iteratorES3_
	.cfi_startproc
# %bb.0:
	pushq	%rbp
	.cfi_def_cfa_offset 16
	.cfi_offset %rbp, -16
	movq	%rsp, %rbp
	.cfi_def_cfa_register %rbp
	subq	$32, %rsp
	movq	%rdi, -8(%rbp)
	movq	%rsi, -16(%rbp)
	movq	-16(%rbp), %rdi
	movq	-8(%rbp), %rsi
	callq	_ZNKSt12__shared_ptrINSt10filesystem7__cxx114_DirELN9__gnu_cxx12_Lock_policyE2EE12owner_beforeIS2_EEbRKS_IT_LS4_2EE
	movb	%al, %cl
	xorl	%eax, %eax
                                        # kill: def $al killed $al killed $eax
	testb	$1, %cl
	movb	%al, -17(%rbp)                  # 1-byte Spill
	jne	.LBB89_2
# %bb.1:
	movq	-8(%rbp), %rdi
	movq	-16(%rbp), %rsi
	callq	_ZNKSt12__shared_ptrINSt10filesystem7__cxx114_DirELN9__gnu_cxx12_Lock_policyE2EE12owner_beforeIS2_EEbRKS_IT_LS4_2EE
	xorb	$-1, %al
	movb	%al, -17(%rbp)                  # 1-byte Spill
.LBB89_2:
	movb	-17(%rbp), %al                  # 1-byte Reload
	andb	$1, %al
	movzbl	%al, %eax
	addq	$32, %rsp
	popq	%rbp
	.cfi_def_cfa %rsp, 8
	retq
.Lfunc_end89:
	.size	_ZNSt10filesystem7__cxx11eqERKNS0_18directory_iteratorES3_, .Lfunc_end89-_ZNSt10filesystem7__cxx11eqERKNS0_18directory_iteratorES3_
	.cfi_endproc
                                        # -- End function
	.section	.text._ZNKSt12__shared_ptrINSt10filesystem7__cxx114_DirELN9__gnu_cxx12_Lock_policyE2EE12owner_beforeIS2_EEbRKS_IT_LS4_2EE,"axG",@progbits,_ZNKSt12__shared_ptrINSt10filesystem7__cxx114_DirELN9__gnu_cxx12_Lock_policyE2EE12owner_beforeIS2_EEbRKS_IT_LS4_2EE,comdat
	.weak	_ZNKSt12__shared_ptrINSt10filesystem7__cxx114_DirELN9__gnu_cxx12_Lock_policyE2EE12owner_beforeIS2_EEbRKS_IT_LS4_2EE # -- Begin function _ZNKSt12__shared_ptrINSt10filesystem7__cxx114_DirELN9__gnu_cxx12_Lock_policyE2EE12owner_beforeIS2_EEbRKS_IT_LS4_2EE
	.p2align	4, 0x90
	.type	_ZNKSt12__shared_ptrINSt10filesystem7__cxx114_DirELN9__gnu_cxx12_Lock_policyE2EE12owner_beforeIS2_EEbRKS_IT_LS4_2EE,@function
_ZNKSt12__shared_ptrINSt10filesystem7__cxx114_DirELN9__gnu_cxx12_Lock_policyE2EE12owner_beforeIS2_EEbRKS_IT_LS4_2EE: # @_ZNKSt12__shared_ptrINSt10filesystem7__cxx114_DirELN9__gnu_cxx12_Lock_policyE2EE12owner_beforeIS2_EEbRKS_IT_LS4_2EE
	.cfi_startproc
# %bb.0:
	pushq	%rbp
	.cfi_def_cfa_offset 16
	.cfi_offset %rbp, -16
	movq	%rsp, %rbp
	.cfi_def_cfa_register %rbp
	subq	$16, %rsp
	movq	%rdi, -8(%rbp)
	movq	%rsi, -16(%rbp)
	movq	-8(%rbp), %rdi
	addq	$8, %rdi
	movq	-16(%rbp), %rsi
	addq	$8, %rsi
	callq	_ZNKSt14__shared_countILN9__gnu_cxx12_Lock_policyE2EE7_M_lessERKS2_
	andb	$1, %al
	movzbl	%al, %eax
	addq	$16, %rsp
	popq	%rbp
	.cfi_def_cfa %rsp, 8
	retq
.Lfunc_end90:
	.size	_ZNKSt12__shared_ptrINSt10filesystem7__cxx114_DirELN9__gnu_cxx12_Lock_policyE2EE12owner_beforeIS2_EEbRKS_IT_LS4_2EE, .Lfunc_end90-_ZNKSt12__shared_ptrINSt10filesystem7__cxx114_DirELN9__gnu_cxx12_Lock_policyE2EE12owner_beforeIS2_EEbRKS_IT_LS4_2EE
	.cfi_endproc
                                        # -- End function
	.section	.text._ZNKSt14__shared_countILN9__gnu_cxx12_Lock_policyE2EE7_M_lessERKS2_,"axG",@progbits,_ZNKSt14__shared_countILN9__gnu_cxx12_Lock_policyE2EE7_M_lessERKS2_,comdat
	.weak	_ZNKSt14__shared_countILN9__gnu_cxx12_Lock_policyE2EE7_M_lessERKS2_ # -- Begin function _ZNKSt14__shared_countILN9__gnu_cxx12_Lock_policyE2EE7_M_lessERKS2_
	.p2align	4, 0x90
	.type	_ZNKSt14__shared_countILN9__gnu_cxx12_Lock_policyE2EE7_M_lessERKS2_,@function
_ZNKSt14__shared_countILN9__gnu_cxx12_Lock_policyE2EE7_M_lessERKS2_: # @_ZNKSt14__shared_countILN9__gnu_cxx12_Lock_policyE2EE7_M_lessERKS2_
	.cfi_startproc
# %bb.0:
	pushq	%rbp
	.cfi_def_cfa_offset 16
	.cfi_offset %rbp, -16
	movq	%rsp, %rbp
	.cfi_def_cfa_register %rbp
	subq	$48, %rsp
	movq	%fs:40, %rax
	movq	%rax, -8(%rbp)
	movq	%rdi, -24(%rbp)
	movq	%rsi, -32(%rbp)
	movq	-24(%rbp), %rax
	movq	(%rax), %rsi
	movq	-32(%rbp), %rax
	movq	(%rax), %rdx
	leaq	-16(%rbp), %rdi
	callq	_ZNKSt4lessIPSt16_Sp_counted_baseILN9__gnu_cxx12_Lock_policyE2EEEclES4_S4_
	movb	%al, -33(%rbp)                  # 1-byte Spill
	movq	%fs:40, %rax
	movq	-8(%rbp), %rcx
	cmpq	%rcx, %rax
	jne	.LBB91_2
# %bb.1:
	movb	-33(%rbp), %al                  # 1-byte Reload
	andb	$1, %al
	movzbl	%al, %eax
	addq	$48, %rsp
	popq	%rbp
	.cfi_def_cfa %rsp, 8
	retq
.LBB91_2:
	.cfi_def_cfa %rbp, 16
	callq	__stack_chk_fail@PLT
.Lfunc_end91:
	.size	_ZNKSt14__shared_countILN9__gnu_cxx12_Lock_policyE2EE7_M_lessERKS2_, .Lfunc_end91-_ZNKSt14__shared_countILN9__gnu_cxx12_Lock_policyE2EE7_M_lessERKS2_
	.cfi_endproc
                                        # -- End function
	.section	.text._ZNKSt4lessIPSt16_Sp_counted_baseILN9__gnu_cxx12_Lock_policyE2EEEclES4_S4_,"axG",@progbits,_ZNKSt4lessIPSt16_Sp_counted_baseILN9__gnu_cxx12_Lock_policyE2EEEclES4_S4_,comdat
	.weak	_ZNKSt4lessIPSt16_Sp_counted_baseILN9__gnu_cxx12_Lock_policyE2EEEclES4_S4_ # -- Begin function _ZNKSt4lessIPSt16_Sp_counted_baseILN9__gnu_cxx12_Lock_policyE2EEEclES4_S4_
	.p2align	4, 0x90
	.type	_ZNKSt4lessIPSt16_Sp_counted_baseILN9__gnu_cxx12_Lock_policyE2EEEclES4_S4_,@function
_ZNKSt4lessIPSt16_Sp_counted_baseILN9__gnu_cxx12_Lock_policyE2EEEclES4_S4_: # @_ZNKSt4lessIPSt16_Sp_counted_baseILN9__gnu_cxx12_Lock_policyE2EEEclES4_S4_
	.cfi_startproc
# %bb.0:
	pushq	%rbp
	.cfi_def_cfa_offset 16
	.cfi_offset %rbp, -16
	movq	%rsp, %rbp
	.cfi_def_cfa_register %rbp
	movq	%rdi, -8(%rbp)
	movq	%rsi, -16(%rbp)
	movq	%rdx, -24(%rbp)
	movq	-16(%rbp), %rax
	movq	-24(%rbp), %rcx
	cmpq	%rcx, %rax
	setb	%al
	andb	$1, %al
	movzbl	%al, %eax
	popq	%rbp
	.cfi_def_cfa %rsp, 8
	retq
.Lfunc_end92:
	.size	_ZNKSt4lessIPSt16_Sp_counted_baseILN9__gnu_cxx12_Lock_policyE2EEEclES4_S4_, .Lfunc_end92-_ZNKSt4lessIPSt16_Sp_counted_baseILN9__gnu_cxx12_Lock_policyE2EEEclES4_S4_
	.cfi_endproc
                                        # -- End function
	.section	.text._ZNKSt10filesystem7__cxx114path5emptyEv,"axG",@progbits,_ZNKSt10filesystem7__cxx114path5emptyEv,comdat
	.weak	_ZNKSt10filesystem7__cxx114path5emptyEv # -- Begin function _ZNKSt10filesystem7__cxx114path5emptyEv
	.p2align	4, 0x90
	.type	_ZNKSt10filesystem7__cxx114path5emptyEv,@function
_ZNKSt10filesystem7__cxx114path5emptyEv: # @_ZNKSt10filesystem7__cxx114path5emptyEv
	.cfi_startproc
# %bb.0:
	pushq	%rbp
	.cfi_def_cfa_offset 16
	.cfi_offset %rbp, -16
	movq	%rsp, %rbp
	.cfi_def_cfa_register %rbp
	subq	$16, %rsp
	movq	%rdi, -8(%rbp)
	movq	-8(%rbp), %rdi
	callq	_ZNKSt7__cxx1112basic_stringIcSt11char_traitsIcESaIcEE5emptyEv@PLT
	andb	$1, %al
	movzbl	%al, %eax
	addq	$16, %rsp
	popq	%rbp
	.cfi_def_cfa %rsp, 8
	retq
.Lfunc_end93:
	.size	_ZNKSt10filesystem7__cxx114path5emptyEv, .Lfunc_end93-_ZNKSt10filesystem7__cxx114path5emptyEv
	.cfi_endproc
                                        # -- End function
	.section	.text._ZNKSt10filesystem7__cxx114path7_M_typeEv,"axG",@progbits,_ZNKSt10filesystem7__cxx114path7_M_typeEv,comdat
	.weak	_ZNKSt10filesystem7__cxx114path7_M_typeEv # -- Begin function _ZNKSt10filesystem7__cxx114path7_M_typeEv
	.p2align	4, 0x90
	.type	_ZNKSt10filesystem7__cxx114path7_M_typeEv,@function
_ZNKSt10filesystem7__cxx114path7_M_typeEv: # @_ZNKSt10filesystem7__cxx114path7_M_typeEv
	.cfi_startproc
# %bb.0:
	pushq	%rbp
	.cfi_def_cfa_offset 16
	.cfi_offset %rbp, -16
	movq	%rsp, %rbp
	.cfi_def_cfa_register %rbp
	subq	$16, %rsp
	movq	%rdi, -8(%rbp)
	movq	-8(%rbp), %rdi
	addq	$32, %rdi
	callq	_ZNKSt10filesystem7__cxx114path5_List4typeEv
	movzbl	%al, %eax
	addq	$16, %rsp
	popq	%rbp
	.cfi_def_cfa %rsp, 8
	retq
.Lfunc_end94:
	.size	_ZNKSt10filesystem7__cxx114path7_M_typeEv, .Lfunc_end94-_ZNKSt10filesystem7__cxx114path7_M_typeEv
	.cfi_endproc
                                        # -- End function
	.section	.text._ZNSt10filesystem7__cxx114pathC2ERKS1_,"axG",@progbits,_ZNSt10filesystem7__cxx114pathC2ERKS1_,comdat
	.weak	_ZNSt10filesystem7__cxx114pathC2ERKS1_ # -- Begin function _ZNSt10filesystem7__cxx114pathC2ERKS1_
	.p2align	4, 0x90
	.type	_ZNSt10filesystem7__cxx114pathC2ERKS1_,@function
_ZNSt10filesystem7__cxx114pathC2ERKS1_: # @_ZNSt10filesystem7__cxx114pathC2ERKS1_
.Lfunc_begin19:
	.cfi_startproc
	.cfi_personality 155, DW.ref.__gxx_personality_v0
	.cfi_lsda 27, .Lexception19
# %bb.0:
	pushq	%rbp
	.cfi_def_cfa_offset 16
	.cfi_offset %rbp, -16
	movq	%rsp, %rbp
	.cfi_def_cfa_register %rbp
	subq	$48, %rsp
	movq	%rdi, -8(%rbp)
	movq	%rsi, -16(%rbp)
	movq	-8(%rbp), %rdi
	movq	%rdi, -40(%rbp)                 # 8-byte Spill
	movq	-16(%rbp), %rsi
	callq	_ZNSt7__cxx1112basic_stringIcSt11char_traitsIcESaIcEEC1ERKS4_@PLT
	movq	-40(%rbp), %rdi                 # 8-byte Reload
	addq	$32, %rdi
	movq	-16(%rbp), %rsi
	addq	$32, %rsi
.Ltmp194:
	callq	_ZNSt10filesystem7__cxx114path5_ListC1ERKS2_@PLT
.Ltmp195:
	jmp	.LBB95_1
.LBB95_1:
	addq	$48, %rsp
	popq	%rbp
	.cfi_def_cfa %rsp, 8
	retq
.LBB95_2:
	.cfi_def_cfa %rbp, 16
.Ltmp196:
	movq	-40(%rbp), %rdi                 # 8-byte Reload
	movq	%rax, %rcx
	movl	%edx, %eax
	movq	%rcx, -24(%rbp)
	movl	%eax, -28(%rbp)
	callq	_ZNSt7__cxx1112basic_stringIcSt11char_traitsIcESaIcEED1Ev@PLT
# %bb.3:
	movq	-24(%rbp), %rdi
	callq	_Unwind_Resume@PLT
.Lfunc_end95:
	.size	_ZNSt10filesystem7__cxx114pathC2ERKS1_, .Lfunc_end95-_ZNSt10filesystem7__cxx114pathC2ERKS1_
	.cfi_endproc
	.section	.gcc_except_table._ZNSt10filesystem7__cxx114pathC2ERKS1_,"aG",@progbits,_ZNSt10filesystem7__cxx114pathC2ERKS1_,comdat
	.p2align	2, 0x0
GCC_except_table95:
.Lexception19:
	.byte	255                             # @LPStart Encoding = omit
	.byte	255                             # @TType Encoding = omit
	.byte	1                               # Call site Encoding = uleb128
	.uleb128 .Lcst_end19-.Lcst_begin19
.Lcst_begin19:
	.uleb128 .Lfunc_begin19-.Lfunc_begin19  # >> Call Site 1 <<
	.uleb128 .Ltmp194-.Lfunc_begin19        #   Call between .Lfunc_begin19 and .Ltmp194
	.byte	0                               #     has no landing pad
	.byte	0                               #   On action: cleanup
	.uleb128 .Ltmp194-.Lfunc_begin19        # >> Call Site 2 <<
	.uleb128 .Ltmp195-.Ltmp194              #   Call between .Ltmp194 and .Ltmp195
	.uleb128 .Ltmp196-.Lfunc_begin19        #     jumps to .Ltmp196
	.byte	0                               #   On action: cleanup
	.uleb128 .Ltmp195-.Lfunc_begin19        # >> Call Site 3 <<
	.uleb128 .Lfunc_end95-.Ltmp195          #   Call between .Ltmp195 and .Lfunc_end95
	.byte	0                               #     has no landing pad
	.byte	0                               #   On action: cleanup
.Lcst_end19:
	.p2align	2, 0x0
                                        # -- End function
	.section	.text._ZNKSt10filesystem7__cxx114path3endEv,"axG",@progbits,_ZNKSt10filesystem7__cxx114path3endEv,comdat
	.weak	_ZNKSt10filesystem7__cxx114path3endEv # -- Begin function _ZNKSt10filesystem7__cxx114path3endEv
	.p2align	4, 0x90
	.type	_ZNKSt10filesystem7__cxx114path3endEv,@function
_ZNKSt10filesystem7__cxx114path3endEv:  # @_ZNKSt10filesystem7__cxx114path3endEv
	.cfi_startproc
# %bb.0:
	pushq	%rbp
	.cfi_def_cfa_offset 16
	.cfi_offset %rbp, -16
	movq	%rsp, %rbp
	.cfi_def_cfa_register %rbp
	subq	$32, %rsp
	movq	%rdi, -32(%rbp)                 # 8-byte Spill
	movq	%rdi, -24(%rbp)                 # 8-byte Spill
	movq	%rsi, -8(%rbp)
	movq	-8(%rbp), %rdi
	movq	%rdi, -16(%rbp)                 # 8-byte Spill
	callq	_ZNKSt10filesystem7__cxx114path7_M_typeEv
	cmpb	$0, %al
	jne	.LBB96_2
# %bb.1:
	movq	-16(%rbp), %rdi                 # 8-byte Reload
	addq	$32, %rdi
	callq	_ZNKSt10filesystem7__cxx114path5_List3endEv@PLT
	movq	-32(%rbp), %rdi                 # 8-byte Reload
	movq	-16(%rbp), %rsi                 # 8-byte Reload
	movq	%rax, %rdx
	callq	_ZNSt10filesystem7__cxx114path8iteratorC2EPKS1_PKNS1_5_CmptE
	jmp	.LBB96_3
.LBB96_2:
	movq	-16(%rbp), %rsi                 # 8-byte Reload
	movq	-32(%rbp), %rdi                 # 8-byte Reload
	movl	$1, %edx
	callq	_ZNSt10filesystem7__cxx114path8iteratorC2EPKS1_b
.LBB96_3:
	movq	-24(%rbp), %rax                 # 8-byte Reload
	addq	$32, %rsp
	popq	%rbp
	.cfi_def_cfa %rsp, 8
	retq
.Lfunc_end96:
	.size	_ZNKSt10filesystem7__cxx114path3endEv, .Lfunc_end96-_ZNKSt10filesystem7__cxx114path3endEv
	.cfi_endproc
                                        # -- End function
	.section	.text._ZNSt10filesystem7__cxx114path8iteratormmEv,"axG",@progbits,_ZNSt10filesystem7__cxx114path8iteratormmEv,comdat
	.weak	_ZNSt10filesystem7__cxx114path8iteratormmEv # -- Begin function _ZNSt10filesystem7__cxx114path8iteratormmEv
	.p2align	4, 0x90
	.type	_ZNSt10filesystem7__cxx114path8iteratormmEv,@function
_ZNSt10filesystem7__cxx114path8iteratormmEv: # @_ZNSt10filesystem7__cxx114path8iteratormmEv
	.cfi_startproc
# %bb.0:
	pushq	%rbp
	.cfi_def_cfa_offset 16
	.cfi_offset %rbp, -16
	movq	%rsp, %rbp
	.cfi_def_cfa_register %rbp
	subq	$16, %rsp
	movq	%rdi, -8(%rbp)
	movq	-8(%rbp), %rax
	movq	%rax, -16(%rbp)                 # 8-byte Spill
# %bb.1:
	jmp	.LBB97_2
.LBB97_2:
	jmp	.LBB97_3
.LBB97_3:
	movq	-16(%rbp), %rdi                 # 8-byte Reload
	callq	_ZNKSt10filesystem7__cxx114path8iterator11_M_is_multiEv
	testb	$1, %al
	jne	.LBB97_4
	jmp	.LBB97_8
.LBB97_4:
	jmp	.LBB97_5
.LBB97_5:
	jmp	.LBB97_6
.LBB97_6:
	jmp	.LBB97_7
.LBB97_7:
	movq	-16(%rbp), %rax                 # 8-byte Reload
	movq	8(%rax), %rcx
	addq	$-48, %rcx
	movq	%rcx, 8(%rax)
	jmp	.LBB97_12
.LBB97_8:
	jmp	.LBB97_9
.LBB97_9:
	jmp	.LBB97_10
.LBB97_10:
	jmp	.LBB97_11
.LBB97_11:
	movq	-16(%rbp), %rax                 # 8-byte Reload
	movb	$0, 16(%rax)
.LBB97_12:
	movq	-16(%rbp), %rax                 # 8-byte Reload
	addq	$16, %rsp
	popq	%rbp
	.cfi_def_cfa %rsp, 8
	retq
.Lfunc_end97:
	.size	_ZNSt10filesystem7__cxx114path8iteratormmEv, .Lfunc_end97-_ZNSt10filesystem7__cxx114path8iteratormmEv
	.cfi_endproc
                                        # -- End function
	.section	.text._ZNKSt10filesystem7__cxx114path8iteratorptEv,"axG",@progbits,_ZNKSt10filesystem7__cxx114path8iteratorptEv,comdat
	.weak	_ZNKSt10filesystem7__cxx114path8iteratorptEv # -- Begin function _ZNKSt10filesystem7__cxx114path8iteratorptEv
	.p2align	4, 0x90
	.type	_ZNKSt10filesystem7__cxx114path8iteratorptEv,@function
_ZNKSt10filesystem7__cxx114path8iteratorptEv: # @_ZNKSt10filesystem7__cxx114path8iteratorptEv
	.cfi_startproc
# %bb.0:
	pushq	%rbp
	.cfi_def_cfa_offset 16
	.cfi_offset %rbp, -16
	movq	%rsp, %rbp
	.cfi_def_cfa_register %rbp
	subq	$16, %rsp
	movq	%rdi, -8(%rbp)
	movq	-8(%rbp), %rdi
	callq	_ZNKSt10filesystem7__cxx114path8iteratordeEv
	addq	$16, %rsp
	popq	%rbp
	.cfi_def_cfa %rsp, 8
	retq
.Lfunc_end98:
	.size	_ZNKSt10filesystem7__cxx114path8iteratorptEv, .Lfunc_end98-_ZNKSt10filesystem7__cxx114path8iteratorptEv
	.cfi_endproc
                                        # -- End function
	.section	.text._ZNKSt10filesystem7__cxx114path8iteratordeEv,"axG",@progbits,_ZNKSt10filesystem7__cxx114path8iteratordeEv,comdat
	.weak	_ZNKSt10filesystem7__cxx114path8iteratordeEv # -- Begin function _ZNKSt10filesystem7__cxx114path8iteratordeEv
	.p2align	4, 0x90
	.type	_ZNKSt10filesystem7__cxx114path8iteratordeEv,@function
_ZNKSt10filesystem7__cxx114path8iteratordeEv: # @_ZNKSt10filesystem7__cxx114path8iteratordeEv
	.cfi_startproc
# %bb.0:
	pushq	%rbp
	.cfi_def_cfa_offset 16
	.cfi_offset %rbp, -16
	movq	%rsp, %rbp
	.cfi_def_cfa_register %rbp
	subq	$32, %rsp
	movq	%rdi, -16(%rbp)
	movq	-16(%rbp), %rax
	movq	%rax, -24(%rbp)                 # 8-byte Spill
# %bb.1:
	jmp	.LBB99_2
.LBB99_2:
	jmp	.LBB99_3
.LBB99_3:
	movq	-24(%rbp), %rdi                 # 8-byte Reload
	callq	_ZNKSt10filesystem7__cxx114path8iterator11_M_is_multiEv
	testb	$1, %al
	jne	.LBB99_4
	jmp	.LBB99_8
.LBB99_4:
	jmp	.LBB99_5
.LBB99_5:
	jmp	.LBB99_6
.LBB99_6:
	jmp	.LBB99_7
.LBB99_7:
	movq	-24(%rbp), %rax                 # 8-byte Reload
	movq	8(%rax), %rax
	movq	%rax, -8(%rbp)
	jmp	.LBB99_9
.LBB99_8:
	movq	-24(%rbp), %rax                 # 8-byte Reload
	movq	(%rax), %rax
	movq	%rax, -8(%rbp)
.LBB99_9:
	movq	-8(%rbp), %rax
	addq	$32, %rsp
	popq	%rbp
	.cfi_def_cfa %rsp, 8
	retq
.Lfunc_end99:
	.size	_ZNKSt10filesystem7__cxx114path8iteratordeEv, .Lfunc_end99-_ZNKSt10filesystem7__cxx114path8iteratordeEv
	.cfi_endproc
                                        # -- End function
	.section	.text._ZNKSt10filesystem7__cxx114path5_List4typeEv,"axG",@progbits,_ZNKSt10filesystem7__cxx114path5_List4typeEv,comdat
	.weak	_ZNKSt10filesystem7__cxx114path5_List4typeEv # -- Begin function _ZNKSt10filesystem7__cxx114path5_List4typeEv
	.p2align	4, 0x90
	.type	_ZNKSt10filesystem7__cxx114path5_List4typeEv,@function
_ZNKSt10filesystem7__cxx114path5_List4typeEv: # @_ZNKSt10filesystem7__cxx114path5_List4typeEv
	.cfi_startproc
# %bb.0:
	pushq	%rbp
	.cfi_def_cfa_offset 16
	.cfi_offset %rbp, -16
	movq	%rsp, %rbp
	.cfi_def_cfa_register %rbp
	subq	$16, %rsp
	movq	%rdi, -8(%rbp)
	movq	-8(%rbp), %rdi
	callq	_ZNKSt10unique_ptrINSt10filesystem7__cxx114path5_List5_ImplENS3_13_Impl_deleterEE3getEv
	andq	$3, %rax
                                        # kill: def $al killed $al killed $rax
	movzbl	%al, %eax
	addq	$16, %rsp
	popq	%rbp
	.cfi_def_cfa %rsp, 8
	retq
.Lfunc_end100:
	.size	_ZNKSt10filesystem7__cxx114path5_List4typeEv, .Lfunc_end100-_ZNKSt10filesystem7__cxx114path5_List4typeEv
	.cfi_endproc
                                        # -- End function
	.section	.text._ZNKSt10unique_ptrINSt10filesystem7__cxx114path5_List5_ImplENS3_13_Impl_deleterEE3getEv,"axG",@progbits,_ZNKSt10unique_ptrINSt10filesystem7__cxx114path5_List5_ImplENS3_13_Impl_deleterEE3getEv,comdat
	.weak	_ZNKSt10unique_ptrINSt10filesystem7__cxx114path5_List5_ImplENS3_13_Impl_deleterEE3getEv # -- Begin function _ZNKSt10unique_ptrINSt10filesystem7__cxx114path5_List5_ImplENS3_13_Impl_deleterEE3getEv
	.p2align	4, 0x90
	.type	_ZNKSt10unique_ptrINSt10filesystem7__cxx114path5_List5_ImplENS3_13_Impl_deleterEE3getEv,@function
_ZNKSt10unique_ptrINSt10filesystem7__cxx114path5_List5_ImplENS3_13_Impl_deleterEE3getEv: # @_ZNKSt10unique_ptrINSt10filesystem7__cxx114path5_List5_ImplENS3_13_Impl_deleterEE3getEv
	.cfi_startproc
# %bb.0:
	pushq	%rbp
	.cfi_def_cfa_offset 16
	.cfi_offset %rbp, -16
	movq	%rsp, %rbp
	.cfi_def_cfa_register %rbp
	subq	$16, %rsp
	movq	%rdi, -8(%rbp)
	movq	-8(%rbp), %rdi
	callq	_ZNKSt15__uniq_ptr_implINSt10filesystem7__cxx114path5_List5_ImplENS3_13_Impl_deleterEE6_M_ptrEv
	addq	$16, %rsp
	popq	%rbp
	.cfi_def_cfa %rsp, 8
	retq
.Lfunc_end101:
	.size	_ZNKSt10unique_ptrINSt10filesystem7__cxx114path5_List5_ImplENS3_13_Impl_deleterEE3getEv, .Lfunc_end101-_ZNKSt10unique_ptrINSt10filesystem7__cxx114path5_List5_ImplENS3_13_Impl_deleterEE3getEv
	.cfi_endproc
                                        # -- End function
	.section	.text._ZNKSt15__uniq_ptr_implINSt10filesystem7__cxx114path5_List5_ImplENS3_13_Impl_deleterEE6_M_ptrEv,"axG",@progbits,_ZNKSt15__uniq_ptr_implINSt10filesystem7__cxx114path5_List5_ImplENS3_13_Impl_deleterEE6_M_ptrEv,comdat
	.weak	_ZNKSt15__uniq_ptr_implINSt10filesystem7__cxx114path5_List5_ImplENS3_13_Impl_deleterEE6_M_ptrEv # -- Begin function _ZNKSt15__uniq_ptr_implINSt10filesystem7__cxx114path5_List5_ImplENS3_13_Impl_deleterEE6_M_ptrEv
	.p2align	4, 0x90
	.type	_ZNKSt15__uniq_ptr_implINSt10filesystem7__cxx114path5_List5_ImplENS3_13_Impl_deleterEE6_M_ptrEv,@function
_ZNKSt15__uniq_ptr_implINSt10filesystem7__cxx114path5_List5_ImplENS3_13_Impl_deleterEE6_M_ptrEv: # @_ZNKSt15__uniq_ptr_implINSt10filesystem7__cxx114path5_List5_ImplENS3_13_Impl_deleterEE6_M_ptrEv
	.cfi_startproc
# %bb.0:
	pushq	%rbp
	.cfi_def_cfa_offset 16
	.cfi_offset %rbp, -16
	movq	%rsp, %rbp
	.cfi_def_cfa_register %rbp
	subq	$16, %rsp
	movq	%rdi, -8(%rbp)
	movq	-8(%rbp), %rdi
	callq	_ZSt3getILm0EJPNSt10filesystem7__cxx114path5_List5_ImplENS3_13_Impl_deleterEEERKNSt13tuple_elementIXT_ESt5tupleIJDpT0_EEE4typeERKSB_
	movq	(%rax), %rax
	addq	$16, %rsp
	popq	%rbp
	.cfi_def_cfa %rsp, 8
	retq
.Lfunc_end102:
	.size	_ZNKSt15__uniq_ptr_implINSt10filesystem7__cxx114path5_List5_ImplENS3_13_Impl_deleterEE6_M_ptrEv, .Lfunc_end102-_ZNKSt15__uniq_ptr_implINSt10filesystem7__cxx114path5_List5_ImplENS3_13_Impl_deleterEE6_M_ptrEv
	.cfi_endproc
                                        # -- End function
	.section	.text._ZSt3getILm0EJPNSt10filesystem7__cxx114path5_List5_ImplENS3_13_Impl_deleterEEERKNSt13tuple_elementIXT_ESt5tupleIJDpT0_EEE4typeERKSB_,"axG",@progbits,_ZSt3getILm0EJPNSt10filesystem7__cxx114path5_List5_ImplENS3_13_Impl_deleterEEERKNSt13tuple_elementIXT_ESt5tupleIJDpT0_EEE4typeERKSB_,comdat
	.weak	_ZSt3getILm0EJPNSt10filesystem7__cxx114path5_List5_ImplENS3_13_Impl_deleterEEERKNSt13tuple_elementIXT_ESt5tupleIJDpT0_EEE4typeERKSB_ # -- Begin function _ZSt3getILm0EJPNSt10filesystem7__cxx114path5_List5_ImplENS3_13_Impl_deleterEEERKNSt13tuple_elementIXT_ESt5tupleIJDpT0_EEE4typeERKSB_
	.p2align	4, 0x90
	.type	_ZSt3getILm0EJPNSt10filesystem7__cxx114path5_List5_ImplENS3_13_Impl_deleterEEERKNSt13tuple_elementIXT_ESt5tupleIJDpT0_EEE4typeERKSB_,@function
_ZSt3getILm0EJPNSt10filesystem7__cxx114path5_List5_ImplENS3_13_Impl_deleterEEERKNSt13tuple_elementIXT_ESt5tupleIJDpT0_EEE4typeERKSB_: # @_ZSt3getILm0EJPNSt10filesystem7__cxx114path5_List5_ImplENS3_13_Impl_deleterEEERKNSt13tuple_elementIXT_ESt5tupleIJDpT0_EEE4typeERKSB_
	.cfi_startproc
# %bb.0:
	pushq	%rbp
	.cfi_def_cfa_offset 16
	.cfi_offset %rbp, -16
	movq	%rsp, %rbp
	.cfi_def_cfa_register %rbp
	subq	$16, %rsp
	movq	%rdi, -8(%rbp)
	movq	-8(%rbp), %rdi
	callq	_ZSt12__get_helperILm0EPNSt10filesystem7__cxx114path5_List5_ImplEJNS3_13_Impl_deleterEEERKT0_RKSt11_Tuple_implIXT_EJS7_DpT1_EE
	addq	$16, %rsp
	popq	%rbp
	.cfi_def_cfa %rsp, 8
	retq
.Lfunc_end103:
	.size	_ZSt3getILm0EJPNSt10filesystem7__cxx114path5_List5_ImplENS3_13_Impl_deleterEEERKNSt13tuple_elementIXT_ESt5tupleIJDpT0_EEE4typeERKSB_, .Lfunc_end103-_ZSt3getILm0EJPNSt10filesystem7__cxx114path5_List5_ImplENS3_13_Impl_deleterEEERKNSt13tuple_elementIXT_ESt5tupleIJDpT0_EEE4typeERKSB_
	.cfi_endproc
                                        # -- End function
	.section	.text._ZSt12__get_helperILm0EPNSt10filesystem7__cxx114path5_List5_ImplEJNS3_13_Impl_deleterEEERKT0_RKSt11_Tuple_implIXT_EJS7_DpT1_EE,"axG",@progbits,_ZSt12__get_helperILm0EPNSt10filesystem7__cxx114path5_List5_ImplEJNS3_13_Impl_deleterEEERKT0_RKSt11_Tuple_implIXT_EJS7_DpT1_EE,comdat
	.weak	_ZSt12__get_helperILm0EPNSt10filesystem7__cxx114path5_List5_ImplEJNS3_13_Impl_deleterEEERKT0_RKSt11_Tuple_implIXT_EJS7_DpT1_EE # -- Begin function _ZSt12__get_helperILm0EPNSt10filesystem7__cxx114path5_List5_ImplEJNS3_13_Impl_deleterEEERKT0_RKSt11_Tuple_implIXT_EJS7_DpT1_EE
	.p2align	4, 0x90
	.type	_ZSt12__get_helperILm0EPNSt10filesystem7__cxx114path5_List5_ImplEJNS3_13_Impl_deleterEEERKT0_RKSt11_Tuple_implIXT_EJS7_DpT1_EE,@function
_ZSt12__get_helperILm0EPNSt10filesystem7__cxx114path5_List5_ImplEJNS3_13_Impl_deleterEEERKT0_RKSt11_Tuple_implIXT_EJS7_DpT1_EE: # @_ZSt12__get_helperILm0EPNSt10filesystem7__cxx114path5_List5_ImplEJNS3_13_Impl_deleterEEERKT0_RKSt11_Tuple_implIXT_EJS7_DpT1_EE
	.cfi_startproc
# %bb.0:
	pushq	%rbp
	.cfi_def_cfa_offset 16
	.cfi_offset %rbp, -16
	movq	%rsp, %rbp
	.cfi_def_cfa_register %rbp
	subq	$16, %rsp
	movq	%rdi, -8(%rbp)
	movq	-8(%rbp), %rdi
	callq	_ZNSt11_Tuple_implILm0EJPNSt10filesystem7__cxx114path5_List5_ImplENS3_13_Impl_deleterEEE7_M_headERKS7_
	addq	$16, %rsp
	popq	%rbp
	.cfi_def_cfa %rsp, 8
	retq
.Lfunc_end104:
	.size	_ZSt12__get_helperILm0EPNSt10filesystem7__cxx114path5_List5_ImplEJNS3_13_Impl_deleterEEERKT0_RKSt11_Tuple_implIXT_EJS7_DpT1_EE, .Lfunc_end104-_ZSt12__get_helperILm0EPNSt10filesystem7__cxx114path5_List5_ImplEJNS3_13_Impl_deleterEEERKT0_RKSt11_Tuple_implIXT_EJS7_DpT1_EE
	.cfi_endproc
                                        # -- End function
	.section	.text._ZNSt11_Tuple_implILm0EJPNSt10filesystem7__cxx114path5_List5_ImplENS3_13_Impl_deleterEEE7_M_headERKS7_,"axG",@progbits,_ZNSt11_Tuple_implILm0EJPNSt10filesystem7__cxx114path5_List5_ImplENS3_13_Impl_deleterEEE7_M_headERKS7_,comdat
	.weak	_ZNSt11_Tuple_implILm0EJPNSt10filesystem7__cxx114path5_List5_ImplENS3_13_Impl_deleterEEE7_M_headERKS7_ # -- Begin function _ZNSt11_Tuple_implILm0EJPNSt10filesystem7__cxx114path5_List5_ImplENS3_13_Impl_deleterEEE7_M_headERKS7_
	.p2align	4, 0x90
	.type	_ZNSt11_Tuple_implILm0EJPNSt10filesystem7__cxx114path5_List5_ImplENS3_13_Impl_deleterEEE7_M_headERKS7_,@function
_ZNSt11_Tuple_implILm0EJPNSt10filesystem7__cxx114path5_List5_ImplENS3_13_Impl_deleterEEE7_M_headERKS7_: # @_ZNSt11_Tuple_implILm0EJPNSt10filesystem7__cxx114path5_List5_ImplENS3_13_Impl_deleterEEE7_M_headERKS7_
	.cfi_startproc
# %bb.0:
	pushq	%rbp
	.cfi_def_cfa_offset 16
	.cfi_offset %rbp, -16
	movq	%rsp, %rbp
	.cfi_def_cfa_register %rbp
	subq	$16, %rsp
	movq	%rdi, -8(%rbp)
	movq	-8(%rbp), %rdi
	callq	_ZNSt10_Head_baseILm0EPNSt10filesystem7__cxx114path5_List5_ImplELb0EE7_M_headERKS6_
	addq	$16, %rsp
	popq	%rbp
	.cfi_def_cfa %rsp, 8
	retq
.Lfunc_end105:
	.size	_ZNSt11_Tuple_implILm0EJPNSt10filesystem7__cxx114path5_List5_ImplENS3_13_Impl_deleterEEE7_M_headERKS7_, .Lfunc_end105-_ZNSt11_Tuple_implILm0EJPNSt10filesystem7__cxx114path5_List5_ImplENS3_13_Impl_deleterEEE7_M_headERKS7_
	.cfi_endproc
                                        # -- End function
	.section	.text._ZNSt10_Head_baseILm0EPNSt10filesystem7__cxx114path5_List5_ImplELb0EE7_M_headERKS6_,"axG",@progbits,_ZNSt10_Head_baseILm0EPNSt10filesystem7__cxx114path5_List5_ImplELb0EE7_M_headERKS6_,comdat
	.weak	_ZNSt10_Head_baseILm0EPNSt10filesystem7__cxx114path5_List5_ImplELb0EE7_M_headERKS6_ # -- Begin function _ZNSt10_Head_baseILm0EPNSt10filesystem7__cxx114path5_List5_ImplELb0EE7_M_headERKS6_
	.p2align	4, 0x90
	.type	_ZNSt10_Head_baseILm0EPNSt10filesystem7__cxx114path5_List5_ImplELb0EE7_M_headERKS6_,@function
_ZNSt10_Head_baseILm0EPNSt10filesystem7__cxx114path5_List5_ImplELb0EE7_M_headERKS6_: # @_ZNSt10_Head_baseILm0EPNSt10filesystem7__cxx114path5_List5_ImplELb0EE7_M_headERKS6_
	.cfi_startproc
# %bb.0:
	pushq	%rbp
	.cfi_def_cfa_offset 16
	.cfi_offset %rbp, -16
	movq	%rsp, %rbp
	.cfi_def_cfa_register %rbp
	movq	%rdi, -8(%rbp)
	movq	-8(%rbp), %rax
	popq	%rbp
	.cfi_def_cfa %rsp, 8
	retq
.Lfunc_end106:
	.size	_ZNSt10_Head_baseILm0EPNSt10filesystem7__cxx114path5_List5_ImplELb0EE7_M_headERKS6_, .Lfunc_end106-_ZNSt10_Head_baseILm0EPNSt10filesystem7__cxx114path5_List5_ImplELb0EE7_M_headERKS6_
	.cfi_endproc
                                        # -- End function
	.section	.text._ZNSt10filesystem7__cxx114path8iteratorC2EPKS1_PKNS1_5_CmptE,"axG",@progbits,_ZNSt10filesystem7__cxx114path8iteratorC2EPKS1_PKNS1_5_CmptE,comdat
	.weak	_ZNSt10filesystem7__cxx114path8iteratorC2EPKS1_PKNS1_5_CmptE # -- Begin function _ZNSt10filesystem7__cxx114path8iteratorC2EPKS1_PKNS1_5_CmptE
	.p2align	4, 0x90
	.type	_ZNSt10filesystem7__cxx114path8iteratorC2EPKS1_PKNS1_5_CmptE,@function
_ZNSt10filesystem7__cxx114path8iteratorC2EPKS1_PKNS1_5_CmptE: # @_ZNSt10filesystem7__cxx114path8iteratorC2EPKS1_PKNS1_5_CmptE
	.cfi_startproc
# %bb.0:
	pushq	%rbp
	.cfi_def_cfa_offset 16
	.cfi_offset %rbp, -16
	movq	%rsp, %rbp
	.cfi_def_cfa_register %rbp
	movq	%rdi, -8(%rbp)
	movq	%rsi, -16(%rbp)
	movq	%rdx, -24(%rbp)
	movq	-8(%rbp), %rax
	movq	-16(%rbp), %rcx
	movq	%rcx, (%rax)
	movq	-24(%rbp), %rcx
	movq	%rcx, 8(%rax)
	movb	$0, 16(%rax)
	popq	%rbp
	.cfi_def_cfa %rsp, 8
	retq
.Lfunc_end107:
	.size	_ZNSt10filesystem7__cxx114path8iteratorC2EPKS1_PKNS1_5_CmptE, .Lfunc_end107-_ZNSt10filesystem7__cxx114path8iteratorC2EPKS1_PKNS1_5_CmptE
	.cfi_endproc
                                        # -- End function
	.section	.text._ZNSt10filesystem7__cxx114path8iteratorC2EPKS1_b,"axG",@progbits,_ZNSt10filesystem7__cxx114path8iteratorC2EPKS1_b,comdat
	.weak	_ZNSt10filesystem7__cxx114path8iteratorC2EPKS1_b # -- Begin function _ZNSt10filesystem7__cxx114path8iteratorC2EPKS1_b
	.p2align	4, 0x90
	.type	_ZNSt10filesystem7__cxx114path8iteratorC2EPKS1_b,@function
_ZNSt10filesystem7__cxx114path8iteratorC2EPKS1_b: # @_ZNSt10filesystem7__cxx114path8iteratorC2EPKS1_b
	.cfi_startproc
# %bb.0:
	pushq	%rbp
	.cfi_def_cfa_offset 16
	.cfi_offset %rbp, -16
	movq	%rsp, %rbp
	.cfi_def_cfa_register %rbp
	movb	%dl, %al
	movq	%rdi, -8(%rbp)
	movq	%rsi, -16(%rbp)
	andb	$1, %al
	movb	%al, -17(%rbp)
	movq	-8(%rbp), %rax
	movq	-16(%rbp), %rcx
	movq	%rcx, (%rax)
	movq	$0, 8(%rax)
	movb	-17(%rbp), %cl
	andb	$1, %cl
	movb	%cl, 16(%rax)
	popq	%rbp
	.cfi_def_cfa %rsp, 8
	retq
.Lfunc_end108:
	.size	_ZNSt10filesystem7__cxx114path8iteratorC2EPKS1_b, .Lfunc_end108-_ZNSt10filesystem7__cxx114path8iteratorC2EPKS1_b
	.cfi_endproc
                                        # -- End function
	.section	.text._ZNKSt10filesystem7__cxx114path8iterator11_M_is_multiEv,"axG",@progbits,_ZNKSt10filesystem7__cxx114path8iterator11_M_is_multiEv,comdat
	.weak	_ZNKSt10filesystem7__cxx114path8iterator11_M_is_multiEv # -- Begin function _ZNKSt10filesystem7__cxx114path8iterator11_M_is_multiEv
	.p2align	4, 0x90
	.type	_ZNKSt10filesystem7__cxx114path8iterator11_M_is_multiEv,@function
_ZNKSt10filesystem7__cxx114path8iterator11_M_is_multiEv: # @_ZNKSt10filesystem7__cxx114path8iterator11_M_is_multiEv
	.cfi_startproc
# %bb.0:
	pushq	%rbp
	.cfi_def_cfa_offset 16
	.cfi_offset %rbp, -16
	movq	%rsp, %rbp
	.cfi_def_cfa_register %rbp
	subq	$16, %rsp
	movq	%rdi, -8(%rbp)
	movq	-8(%rbp), %rax
	movq	(%rax), %rdi
	callq	_ZNKSt10filesystem7__cxx114path7_M_typeEv
	cmpb	$0, %al
	sete	%al
	andb	$1, %al
	movzbl	%al, %eax
	addq	$16, %rsp
	popq	%rbp
	.cfi_def_cfa %rsp, 8
	retq
.Lfunc_end109:
	.size	_ZNKSt10filesystem7__cxx114path8iterator11_M_is_multiEv, .Lfunc_end109-_ZNKSt10filesystem7__cxx114path8iterator11_M_is_multiEv
	.cfi_endproc
                                        # -- End function
	.section	.text._ZNKSt10filesystem7__cxx114path6stringIcSt11char_traitsIcESaIcEEENSt7__cxx1112basic_stringIT_T0_T1_EERKSA_,"axG",@progbits,_ZNKSt10filesystem7__cxx114path6stringIcSt11char_traitsIcESaIcEEENSt7__cxx1112basic_stringIT_T0_T1_EERKSA_,comdat
	.weak	_ZNKSt10filesystem7__cxx114path6stringIcSt11char_traitsIcESaIcEEENSt7__cxx1112basic_stringIT_T0_T1_EERKSA_ # -- Begin function _ZNKSt10filesystem7__cxx114path6stringIcSt11char_traitsIcESaIcEEENSt7__cxx1112basic_stringIT_T0_T1_EERKSA_
	.p2align	4, 0x90
	.type	_ZNKSt10filesystem7__cxx114path6stringIcSt11char_traitsIcESaIcEEENSt7__cxx1112basic_stringIT_T0_T1_EERKSA_,@function
_ZNKSt10filesystem7__cxx114path6stringIcSt11char_traitsIcESaIcEEENSt7__cxx1112basic_stringIT_T0_T1_EERKSA_: # @_ZNKSt10filesystem7__cxx114path6stringIcSt11char_traitsIcESaIcEEENSt7__cxx1112basic_stringIT_T0_T1_EERKSA_
	.cfi_startproc
# %bb.0:
	pushq	%rbp
	.cfi_def_cfa_offset 16
	.cfi_offset %rbp, -16
	movq	%rsp, %rbp
	.cfi_def_cfa_register %rbp
	subq	$64, %rsp
	movq	%rdi, -48(%rbp)                 # 8-byte Spill
	movq	%rdi, %rax
	movq	%rax, -32(%rbp)                 # 8-byte Spill
	movq	%rdi, -8(%rbp)
	movq	%rsi, -16(%rbp)
	movq	%rdx, -24(%rbp)
	movq	-16(%rbp), %rdi
	movq	%rdi, -56(%rbp)                 # 8-byte Spill
	callq	_ZNKSt7__cxx1112basic_stringIcSt11char_traitsIcESaIcEE5c_strEv@PLT
	movq	-56(%rbp), %rdi                 # 8-byte Reload
	movq	%rax, -40(%rbp)                 # 8-byte Spill
	callq	_ZNKSt7__cxx1112basic_stringIcSt11char_traitsIcESaIcEE6lengthEv@PLT
	movq	-48(%rbp), %rdi                 # 8-byte Reload
	movq	-40(%rbp), %rsi                 # 8-byte Reload
	movq	%rax, %rdx
	movq	-24(%rbp), %rcx
	callq	_ZNSt7__cxx1112basic_stringIcSt11char_traitsIcESaIcEEC1EPKcmRKS3_@PLT
	movq	-32(%rbp), %rax                 # 8-byte Reload
	addq	$64, %rsp
	popq	%rbp
	.cfi_def_cfa %rsp, 8
	retq
.Lfunc_end110:
	.size	_ZNKSt10filesystem7__cxx114path6stringIcSt11char_traitsIcESaIcEEENSt7__cxx1112basic_stringIT_T0_T1_EERKSA_, .Lfunc_end110-_ZNKSt10filesystem7__cxx114path6stringIcSt11char_traitsIcESaIcEEENSt7__cxx1112basic_stringIT_T0_T1_EERKSA_
	.cfi_endproc
                                        # -- End function
	.section	.text._ZNKSt10filesystem7__cxx1115directory_entry12_M_file_typeEv,"axG",@progbits,_ZNKSt10filesystem7__cxx1115directory_entry12_M_file_typeEv,comdat
	.weak	_ZNKSt10filesystem7__cxx1115directory_entry12_M_file_typeEv # -- Begin function _ZNKSt10filesystem7__cxx1115directory_entry12_M_file_typeEv
	.p2align	4, 0x90
	.type	_ZNKSt10filesystem7__cxx1115directory_entry12_M_file_typeEv,@function
_ZNKSt10filesystem7__cxx1115directory_entry12_M_file_typeEv: # @_ZNKSt10filesystem7__cxx1115directory_entry12_M_file_typeEv
	.cfi_startproc
# %bb.0:
	pushq	%rbp
	.cfi_def_cfa_offset 16
	.cfi_offset %rbp, -16
	movq	%rsp, %rbp
	.cfi_def_cfa_register %rbp
	subq	$48, %rsp
	movq	%fs:40, %rax
	movq	%rax, -8(%rbp)
	movq	%rdi, -32(%rbp)
	movq	-32(%rbp), %rax
	movq	%rax, -40(%rbp)                 # 8-byte Spill
	cmpb	$0, 40(%rax)
	je	.LBB111_3
# %bb.1:
	movq	-40(%rbp), %rax                 # 8-byte Reload
	cmpb	$3, 40(%rax)
	je	.LBB111_3
# %bb.2:
	movq	-40(%rbp), %rax                 # 8-byte Reload
	movb	40(%rax), %al
	movb	%al, -17(%rbp)
	jmp	.LBB111_4
.LBB111_3:
	movq	-40(%rbp), %rdi                 # 8-byte Reload
	callq	_ZNKSt10filesystem7__cxx1115directory_entry6statusEv
	movq	%rax, -16(%rbp)
	leaq	-16(%rbp), %rdi
	callq	_ZNKSt10filesystem11file_status4typeEv
	movb	%al, -17(%rbp)
.LBB111_4:
	movb	-17(%rbp), %al
	movb	%al, -41(%rbp)                  # 1-byte Spill
	movq	%fs:40, %rax
	movq	-8(%rbp), %rcx
	cmpq	%rcx, %rax
	jne	.LBB111_6
# %bb.5:
	movb	-41(%rbp), %al                  # 1-byte Reload
	movsbl	%al, %eax
	addq	$48, %rsp
	popq	%rbp
	.cfi_def_cfa %rsp, 8
	retq
.LBB111_6:
	.cfi_def_cfa %rbp, 16
	callq	__stack_chk_fail@PLT
.Lfunc_end111:
	.size	_ZNKSt10filesystem7__cxx1115directory_entry12_M_file_typeEv, .Lfunc_end111-_ZNKSt10filesystem7__cxx1115directory_entry12_M_file_typeEv
	.cfi_endproc
                                        # -- End function
	.section	.text._ZNKSt10filesystem7__cxx1115directory_entry6statusEv,"axG",@progbits,_ZNKSt10filesystem7__cxx1115directory_entry6statusEv,comdat
	.weak	_ZNKSt10filesystem7__cxx1115directory_entry6statusEv # -- Begin function _ZNKSt10filesystem7__cxx1115directory_entry6statusEv
	.p2align	4, 0x90
	.type	_ZNKSt10filesystem7__cxx1115directory_entry6statusEv,@function
_ZNKSt10filesystem7__cxx1115directory_entry6statusEv: # @_ZNKSt10filesystem7__cxx1115directory_entry6statusEv
	.cfi_startproc
# %bb.0:
	pushq	%rbp
	.cfi_def_cfa_offset 16
	.cfi_offset %rbp, -16
	movq	%rsp, %rbp
	.cfi_def_cfa_register %rbp
	subq	$16, %rsp
	movq	%rdi, -16(%rbp)
	movq	-16(%rbp), %rdi
	callq	_ZNSt10filesystem6statusERKNS_7__cxx114pathE@PLT
	movq	%rax, -8(%rbp)
	movq	-8(%rbp), %rax
	addq	$16, %rsp
	popq	%rbp
	.cfi_def_cfa %rsp, 8
	retq
.Lfunc_end112:
	.size	_ZNKSt10filesystem7__cxx1115directory_entry6statusEv, .Lfunc_end112-_ZNKSt10filesystem7__cxx1115directory_entry6statusEv
	.cfi_endproc
                                        # -- End function
	.section	.text._ZNSt10filesystem7__cxx114path5_ListD2Ev,"axG",@progbits,_ZNSt10filesystem7__cxx114path5_ListD2Ev,comdat
	.weak	_ZNSt10filesystem7__cxx114path5_ListD2Ev # -- Begin function _ZNSt10filesystem7__cxx114path5_ListD2Ev
	.p2align	4, 0x90
	.type	_ZNSt10filesystem7__cxx114path5_ListD2Ev,@function
_ZNSt10filesystem7__cxx114path5_ListD2Ev: # @_ZNSt10filesystem7__cxx114path5_ListD2Ev
	.cfi_startproc
# %bb.0:
	pushq	%rbp
	.cfi_def_cfa_offset 16
	.cfi_offset %rbp, -16
	movq	%rsp, %rbp
	.cfi_def_cfa_register %rbp
	subq	$16, %rsp
	movq	%rdi, -8(%rbp)
	movq	-8(%rbp), %rdi
	callq	_ZNSt10unique_ptrINSt10filesystem7__cxx114path5_List5_ImplENS3_13_Impl_deleterEED2Ev
	addq	$16, %rsp
	popq	%rbp
	.cfi_def_cfa %rsp, 8
	retq
.Lfunc_end113:
	.size	_ZNSt10filesystem7__cxx114path5_ListD2Ev, .Lfunc_end113-_ZNSt10filesystem7__cxx114path5_ListD2Ev
	.cfi_endproc
                                        # -- End function
	.section	.text._ZNSt10unique_ptrINSt10filesystem7__cxx114path5_List5_ImplENS3_13_Impl_deleterEED2Ev,"axG",@progbits,_ZNSt10unique_ptrINSt10filesystem7__cxx114path5_List5_ImplENS3_13_Impl_deleterEED2Ev,comdat
	.weak	_ZNSt10unique_ptrINSt10filesystem7__cxx114path5_List5_ImplENS3_13_Impl_deleterEED2Ev # -- Begin function _ZNSt10unique_ptrINSt10filesystem7__cxx114path5_List5_ImplENS3_13_Impl_deleterEED2Ev
	.p2align	4, 0x90
	.type	_ZNSt10unique_ptrINSt10filesystem7__cxx114path5_List5_ImplENS3_13_Impl_deleterEED2Ev,@function
_ZNSt10unique_ptrINSt10filesystem7__cxx114path5_List5_ImplENS3_13_Impl_deleterEED2Ev: # @_ZNSt10unique_ptrINSt10filesystem7__cxx114path5_List5_ImplENS3_13_Impl_deleterEED2Ev
	.cfi_startproc
# %bb.0:
	pushq	%rbp
	.cfi_def_cfa_offset 16
	.cfi_offset %rbp, -16
	movq	%rsp, %rbp
	.cfi_def_cfa_register %rbp
	subq	$32, %rsp
	movq	%rdi, -8(%rbp)
	movq	-8(%rbp), %rdi
	movq	%rdi, -24(%rbp)                 # 8-byte Spill
	callq	_ZNSt15__uniq_ptr_implINSt10filesystem7__cxx114path5_List5_ImplENS3_13_Impl_deleterEE6_M_ptrEv
	movq	%rax, -16(%rbp)
	movq	-16(%rbp), %rax
	cmpq	$0, (%rax)
	je	.LBB114_2
# %bb.1:
	movq	-24(%rbp), %rdi                 # 8-byte Reload
	callq	_ZNSt10unique_ptrINSt10filesystem7__cxx114path5_List5_ImplENS3_13_Impl_deleterEE11get_deleterEv
	movq	%rax, %rdi
	movq	-16(%rbp), %rax
	movq	(%rax), %rsi
	callq	_ZNKSt10filesystem7__cxx114path5_List13_Impl_deleterclEPNS2_5_ImplE@PLT
.LBB114_2:
	movq	-16(%rbp), %rax
	movq	$0, (%rax)
	addq	$32, %rsp
	popq	%rbp
	.cfi_def_cfa %rsp, 8
	retq
.Lfunc_end114:
	.size	_ZNSt10unique_ptrINSt10filesystem7__cxx114path5_List5_ImplENS3_13_Impl_deleterEED2Ev, .Lfunc_end114-_ZNSt10unique_ptrINSt10filesystem7__cxx114path5_List5_ImplENS3_13_Impl_deleterEED2Ev
	.cfi_endproc
                                        # -- End function
