; ModuleID = 'cpp/csmith1.cpp'
source_filename = "cpp/csmith1.cpp"
target datalayout = "e-m:e-p270:32:32-p271:32:32-p272:64:64-i64:64-f80:128-n8:16:32:64-S128"
target triple = "x86_64-pc-linux-gnu"

%union.U3 = type { i16 }
%union.U4 = type { i16 }
%union.U0 = type { i32 }
%union.U2 = type { i64 }
%union.U1 = type { i16 }

$_ZN2U2aSERKS_ = comdat any

$_ZN2U0aSERKS_ = comdat any

@.str = private unnamed_addr constant [2 x i8] c"1\00", align 1, !dbg !0
@.str.1 = private unnamed_addr constant [57 x i8] c"g_106 = %x, g_91 = %x, g_5 = %x, g_2 = %x, context = %x\0A\00", align 1, !dbg !8
@_ZL5g_106 = internal global i16 4, align 2, !dbg !13
@_ZL4g_91 = internal global i8 -89, align 1, !dbg !470
@_ZL3g_5 = internal global i32 -440236594, align 4, !dbg !472
@_ZL3g_2 = internal global i32 321396001, align 4, !dbg !474
@_ZL13crc32_context = internal global i32 -1, align 4, !dbg !476
@.str.2 = private unnamed_addr constant [15 x i8] c"func_1() = %d\0A\00", align 1, !dbg !84
@.str.3 = private unnamed_addr constant [4 x i8] c"g_2\00", align 1, !dbg !89
@.str.4 = private unnamed_addr constant [4 x i8] c"g_5\00", align 1, !dbg !94
@.str.5 = private unnamed_addr constant [5 x i8] c"g_91\00", align 1, !dbg !96
@.str.6 = private unnamed_addr constant [6 x i8] c"g_106\00", align 1, !dbg !101
@_ZL5g_107 = internal global i32 1420364725, align 4, !dbg !643
@.str.7 = private unnamed_addr constant [6 x i8] c"g_107\00", align 1, !dbg !106
@_ZL5g_117 = internal global i16 26209, align 2, !dbg !645
@.str.8 = private unnamed_addr constant [6 x i8] c"g_117\00", align 1, !dbg !108
@_ZL5g_118 = internal global i32 -9, align 4, !dbg !647
@.str.9 = private unnamed_addr constant [6 x i8] c"g_118\00", align 1, !dbg !110
@_ZL5g_119 = internal global i32 960066178, align 4, !dbg !649
@.str.10 = private unnamed_addr constant [6 x i8] c"g_119\00", align 1, !dbg !112
@_ZL5g_120 = internal global i16 -10, align 2, !dbg !651
@.str.11 = private unnamed_addr constant [6 x i8] c"g_120\00", align 1, !dbg !114
@_ZL5g_124 = internal global i16 17554, align 2, !dbg !653
@.str.12 = private unnamed_addr constant [6 x i8] c"g_124\00", align 1, !dbg !116
@_ZL5g_132 = internal global %union.U3 { i16 1 }, align 2, !dbg !655
@.str.13 = private unnamed_addr constant [9 x i8] c"g_132.f0\00", align 1, !dbg !118
@.str.14 = private unnamed_addr constant [6 x i8] c"g_137\00", align 1, !dbg !126
@_ZL5g_203 = internal global i8 -5, align 1, !dbg !657
@.str.15 = private unnamed_addr constant [6 x i8] c"g_203\00", align 1, !dbg !128
@_ZL5g_232 = internal global [5 x i8] c"\D1\D1\D1\D1\D1", align 1, !dbg !659
@.str.16 = private unnamed_addr constant [9 x i8] c"g_232[i]\00", align 1, !dbg !130
@.str.17 = private unnamed_addr constant [14 x i8] c"index = [%d]\0A\00", align 1, !dbg !132
@_ZL5g_245 = internal global i64 3, align 8, !dbg !662
@.str.18 = private unnamed_addr constant [6 x i8] c"g_245\00", align 1, !dbg !137
@_ZL5g_246 = internal global i32 -439009062, align 4, !dbg !667
@.str.19 = private unnamed_addr constant [6 x i8] c"g_246\00", align 1, !dbg !139
@_ZL5g_247 = internal global i16 9, align 2, !dbg !669
@.str.20 = private unnamed_addr constant [6 x i8] c"g_247\00", align 1, !dbg !141
@_ZL5g_259 = internal global i8 5, align 1, !dbg !671
@.str.21 = private unnamed_addr constant [6 x i8] c"g_259\00", align 1, !dbg !143
@_ZL5g_265 = internal global i16 -1, align 2, !dbg !673
@.str.22 = private unnamed_addr constant [6 x i8] c"g_265\00", align 1, !dbg !145
@.str.23 = private unnamed_addr constant [6 x i8] c"g_294\00", align 1, !dbg !149
@_ZL5g_338 = internal global i64 0, align 8, !dbg !675
@.str.24 = private unnamed_addr constant [6 x i8] c"g_338\00", align 1, !dbg !151
@_ZL5g_367 = internal constant %union.U3 { i16 12039 }, align 2, !dbg !677
@.str.25 = private unnamed_addr constant [9 x i8] c"g_367.f0\00", align 1, !dbg !153
@.str.26 = private unnamed_addr constant [26 x i8] c"index = [%d], value = %x\0A\00", align 1, !dbg !155
@_ZL5g_422 = internal global [6 x i32] [i32 582490830, i32 582490830, i32 582490830, i32 582490830, i32 582490830, i32 582490830], align 16, !dbg !679
@.str.27 = private unnamed_addr constant [9 x i8] c"g_422[i]\00", align 1, !dbg !160
@.str.28 = private unnamed_addr constant [9 x i8] c"g_445.f0\00", align 1, !dbg !162
@_ZL5g_449 = internal global [10 x i32] [i32 -1622083099, i32 -1622083099, i32 -2069577285, i32 -1622083099, i32 -1622083099, i32 -2069577285, i32 -1622083099, i32 -1622083099, i32 -2069577285, i32 -1622083099], align 16, !dbg !684
@.str.29 = private unnamed_addr constant [9 x i8] c"g_449[i]\00", align 1, !dbg !164
@_ZL5g_453 = internal global %union.U4 { i16 19720 }, align 2, !dbg !687
@.str.30 = private unnamed_addr constant [9 x i8] c"g_453.f0\00", align 1, !dbg !166
@_ZL5g_455 = internal global %union.U4 { i16 -14156 }, align 2, !dbg !689
@.str.31 = private unnamed_addr constant [9 x i8] c"g_455.f0\00", align 1, !dbg !168
@_ZL5g_648 = internal global i8 99, align 1, !dbg !691
@.str.32 = private unnamed_addr constant [6 x i8] c"g_648\00", align 1, !dbg !170
@_ZL5g_651 = internal global i16 -1, align 2, !dbg !693
@.str.33 = private unnamed_addr constant [6 x i8] c"g_651\00", align 1, !dbg !172
@_ZL5g_693 = internal global %union.U0 { i32 9 }, align 4, !dbg !695
@.str.34 = private unnamed_addr constant [9 x i8] c"g_693.f0\00", align 1, !dbg !174
@_ZL5g_695 = internal global i32 1853746151, align 4, !dbg !697
@.str.35 = private unnamed_addr constant [6 x i8] c"g_695\00", align 1, !dbg !176
@_ZL5g_862 = internal global i64 7, align 8, !dbg !699
@.str.36 = private unnamed_addr constant [6 x i8] c"g_862\00", align 1, !dbg !178
@_ZL6g_1175 = internal global i16 2099, align 2, !dbg !702
@.str.37 = private unnamed_addr constant [7 x i8] c"g_1175\00", align 1, !dbg !180
@_ZL6g_1221 = internal global i64 -1, align 8, !dbg !704
@.str.38 = private unnamed_addr constant [7 x i8] c"g_1221\00", align 1, !dbg !185
@_ZL6g_1335 = internal global i8 -1, align 1, !dbg !706
@.str.39 = private unnamed_addr constant [7 x i8] c"g_1335\00", align 1, !dbg !187
@_ZL6g_1357 = internal global %union.U0 { i32 -2133451005 }, align 4, !dbg !708
@.str.40 = private unnamed_addr constant [10 x i8] c"g_1357.f0\00", align 1, !dbg !189
@.str.41 = private unnamed_addr constant [10 x i8] c"g_1391.f0\00", align 1, !dbg !194
@_ZL6g_1487 = internal global i64 0, align 8, !dbg !712
@.str.42 = private unnamed_addr constant [7 x i8] c"g_1487\00", align 1, !dbg !196
@_ZL6g_1499 = internal global i32 -1986020263, align 4, !dbg !714
@.str.43 = private unnamed_addr constant [7 x i8] c"g_1499\00", align 1, !dbg !198
@_ZL6g_1554 = internal global [10 x [8 x [2 x i32]]] [[8 x [2 x i32]] [[2 x i32] [i32 1462326940, i32 -1449334377], [2 x i32] [i32 1462326940, i32 -916288947], [2 x i32] [i32 -916288947, i32 -1449334377], [2 x i32] [i32 -916288947, i32 -916288947], [2 x i32] [i32 1462326940, i32 -1449334377], [2 x i32] [i32 1462326940, i32 -916288947], [2 x i32] [i32 -916288947, i32 -1449334377], [2 x i32] [i32 -916288947, i32 -916288947]], [8 x [2 x i32]] [[2 x i32] [i32 1462326940, i32 -1449334377], [2 x i32] [i32 1462326940, i32 -916288947], [2 x i32] [i32 -916288947, i32 -1449334377], [2 x i32] [i32 -916288947, i32 -916288947], [2 x i32] [i32 1462326940, i32 -1449334377], [2 x i32] [i32 1462326940, i32 -916288947], [2 x i32] [i32 -916288947, i32 -1449334377], [2 x i32] [i32 -916288947, i32 -916288947]], [8 x [2 x i32]] [[2 x i32] [i32 1462326940, i32 -1449334377], [2 x i32] [i32 1462326940, i32 -916288947], [2 x i32] [i32 -916288947, i32 -1449334377], [2 x i32] [i32 -916288947, i32 -916288947], [2 x i32] [i32 1462326940, i32 -1449334377], [2 x i32] [i32 1462326940, i32 -916288947], [2 x i32] [i32 -916288947, i32 -1449334377], [2 x i32] [i32 -916288947, i32 -916288947]], [8 x [2 x i32]] [[2 x i32] [i32 1462326940, i32 -1449334377], [2 x i32] [i32 1462326940, i32 -916288947], [2 x i32] [i32 -916288947, i32 -1449334377], [2 x i32] [i32 -916288947, i32 -916288947], [2 x i32] [i32 1462326940, i32 -1449334377], [2 x i32] [i32 1462326940, i32 -916288947], [2 x i32] [i32 -916288947, i32 -1449334377], [2 x i32] [i32 -916288947, i32 -916288947]], [8 x [2 x i32]] [[2 x i32] [i32 1462326940, i32 -1449334377], [2 x i32] [i32 1462326940, i32 -916288947], [2 x i32] [i32 -916288947, i32 -1449334377], [2 x i32] [i32 -916288947, i32 -916288947], [2 x i32] [i32 1462326940, i32 -1449334377], [2 x i32] [i32 1462326940, i32 -916288947], [2 x i32] [i32 -916288947, i32 -1449334377], [2 x i32] [i32 -916288947, i32 -916288947]], [8 x [2 x i32]] [[2 x i32] [i32 1462326940, i32 -1449334377], [2 x i32] [i32 1462326940, i32 -916288947], [2 x i32] [i32 -916288947, i32 -1449334377], [2 x i32] [i32 -916288947, i32 -916288947], [2 x i32] [i32 1462326940, i32 -1449334377], [2 x i32] [i32 1462326940, i32 -916288947], [2 x i32] [i32 -916288947, i32 -1449334377], [2 x i32] [i32 -916288947, i32 -916288947]], [8 x [2 x i32]] [[2 x i32] [i32 1462326940, i32 -1449334377], [2 x i32] [i32 1462326940, i32 -916288947], [2 x i32] [i32 -916288947, i32 -1449334377], [2 x i32] [i32 -916288947, i32 -916288947], [2 x i32] [i32 1462326940, i32 -1449334377], [2 x i32] [i32 1462326940, i32 -916288947], [2 x i32] [i32 -916288947, i32 -1449334377], [2 x i32] [i32 -916288947, i32 -916288947]], [8 x [2 x i32]] [[2 x i32] [i32 1462326940, i32 -1449334377], [2 x i32] [i32 1462326940, i32 -916288947], [2 x i32] [i32 -916288947, i32 -1449334377], [2 x i32] [i32 -916288947, i32 -916288947], [2 x i32] [i32 1462326940, i32 -1449334377], [2 x i32] [i32 1462326940, i32 -916288947], [2 x i32] [i32 -916288947, i32 -1449334377], [2 x i32] [i32 -916288947, i32 -916288947]], [8 x [2 x i32]] [[2 x i32] [i32 1462326940, i32 -1449334377], [2 x i32] [i32 1462326940, i32 -916288947], [2 x i32] [i32 -916288947, i32 -1449334377], [2 x i32] [i32 -916288947, i32 -916288947], [2 x i32] [i32 1462326940, i32 -1449334377], [2 x i32] [i32 1462326940, i32 -916288947], [2 x i32] [i32 -916288947, i32 -1449334377], [2 x i32] [i32 -916288947, i32 -916288947]], [8 x [2 x i32]] [[2 x i32] [i32 1462326940, i32 -1449334377], [2 x i32] [i32 1462326940, i32 -916288947], [2 x i32] [i32 -916288947, i32 -1449334377], [2 x i32] [i32 -916288947, i32 -916288947], [2 x i32] [i32 1462326940, i32 -1449334377], [2 x i32] [i32 1462326940, i32 -916288947], [2 x i32] [i32 -916288947, i32 -1449334377], [2 x i32] [i32 -916288947, i32 -916288947]]], align 16, !dbg !716
@.str.44 = private unnamed_addr constant [16 x i8] c"g_1554[i][j][k]\00", align 1, !dbg !200
@.str.45 = private unnamed_addr constant [22 x i8] c"index = [%d][%d][%d]\0A\00", align 1, !dbg !205
@_ZL6g_1650 = internal constant %union.U3 { i16 5215 }, align 2, !dbg !721
@.str.46 = private unnamed_addr constant [10 x i8] c"g_1650.f0\00", align 1, !dbg !210
@.str.47 = private unnamed_addr constant [7 x i8] c"g_1712\00", align 1, !dbg !215
@_ZL6g_1717 = internal global [8 x %union.U3] [%union.U3 { i16 -7 }, %union.U3 { i16 -7 }, %union.U3 { i16 -7 }, %union.U3 { i16 -7 }, %union.U3 { i16 -7 }, %union.U3 { i16 -7 }, %union.U3 { i16 -7 }, %union.U3 { i16 -7 }], align 16, !dbg !723
@.str.48 = private unnamed_addr constant [13 x i8] c"g_1717[i].f0\00", align 1, !dbg !217
@_ZL6g_1877 = internal global i32 -497869374, align 4, !dbg !727
@.str.49 = private unnamed_addr constant [7 x i8] c"g_1877\00", align 1, !dbg !222
@_ZL6g_1883 = internal global i32 1102553480, align 4, !dbg !729
@.str.50 = private unnamed_addr constant [7 x i8] c"g_1883\00", align 1, !dbg !224
@_ZL6g_1884 = internal global i32 0, align 4, !dbg !731
@.str.51 = private unnamed_addr constant [7 x i8] c"g_1884\00", align 1, !dbg !226
@_ZL6g_1885 = internal global i32 1, align 4, !dbg !733
@.str.52 = private unnamed_addr constant [7 x i8] c"g_1885\00", align 1, !dbg !228
@_ZL6g_1886 = internal global i32 861366921, align 4, !dbg !735
@.str.53 = private unnamed_addr constant [7 x i8] c"g_1886\00", align 1, !dbg !230
@_ZL6g_1887 = internal global i32 -1, align 4, !dbg !737
@.str.54 = private unnamed_addr constant [7 x i8] c"g_1887\00", align 1, !dbg !232
@_ZL6g_1888 = internal global i32 25839817, align 4, !dbg !739
@.str.55 = private unnamed_addr constant [7 x i8] c"g_1888\00", align 1, !dbg !234
@_ZL6g_1889 = internal global [10 x i32] [i32 3, i32 3, i32 3, i32 3, i32 3, i32 3, i32 3, i32 3, i32 3, i32 3], align 16, !dbg !741
@.str.56 = private unnamed_addr constant [10 x i8] c"g_1889[i]\00", align 1, !dbg !236
@_ZL6g_1890 = internal global i32 7, align 4, !dbg !743
@.str.57 = private unnamed_addr constant [7 x i8] c"g_1890\00", align 1, !dbg !238
@_ZL6g_1891 = internal global i32 -1155024305, align 4, !dbg !745
@.str.58 = private unnamed_addr constant [7 x i8] c"g_1891\00", align 1, !dbg !240
@_ZL6g_1892 = internal global [5 x i32] [i32 9, i32 9, i32 9, i32 9, i32 9], align 16, !dbg !747
@.str.59 = private unnamed_addr constant [10 x i8] c"g_1892[i]\00", align 1, !dbg !242
@_ZL6g_1893 = internal global [7 x i32] [i32 1, i32 -1, i32 -1, i32 1, i32 -1, i32 -1, i32 1], align 16, !dbg !750
@.str.60 = private unnamed_addr constant [10 x i8] c"g_1893[i]\00", align 1, !dbg !244
@_ZL6g_1894 = internal global [8 x i32] [i32 -1, i32 -1, i32 -1, i32 -1, i32 -1, i32 -1, i32 -1, i32 -1], align 16, !dbg !753
@.str.61 = private unnamed_addr constant [10 x i8] c"g_1894[i]\00", align 1, !dbg !246
@_ZL6g_1895 = internal global i32 -387690135, align 4, !dbg !756
@.str.62 = private unnamed_addr constant [7 x i8] c"g_1895\00", align 1, !dbg !248
@_ZL6g_1896 = internal global i32 1, align 4, !dbg !758
@.str.63 = private unnamed_addr constant [7 x i8] c"g_1896\00", align 1, !dbg !250
@_ZL6g_1897 = internal global i32 -9, align 4, !dbg !760
@.str.64 = private unnamed_addr constant [7 x i8] c"g_1897\00", align 1, !dbg !252
@_ZL6g_1898 = internal global i32 -876145449, align 4, !dbg !762
@.str.65 = private unnamed_addr constant [7 x i8] c"g_1898\00", align 1, !dbg !254
@_ZL6g_1899 = internal global i32 -10, align 4, !dbg !764
@.str.66 = private unnamed_addr constant [7 x i8] c"g_1899\00", align 1, !dbg !256
@_ZL6g_1900 = internal global [3 x i32] [i32 -3, i32 -3, i32 -3], align 4, !dbg !766
@.str.67 = private unnamed_addr constant [10 x i8] c"g_1900[i]\00", align 1, !dbg !258
@_ZL6g_1901 = internal global i32 -630089068, align 4, !dbg !770
@.str.68 = private unnamed_addr constant [7 x i8] c"g_1901\00", align 1, !dbg !260
@_ZL6g_1902 = internal global i32 -5, align 4, !dbg !772
@.str.69 = private unnamed_addr constant [7 x i8] c"g_1902\00", align 1, !dbg !262
@_ZL6g_1903 = internal global i32 -1359504650, align 4, !dbg !774
@.str.70 = private unnamed_addr constant [7 x i8] c"g_1903\00", align 1, !dbg !264
@_ZL6g_1904 = internal global i32 1, align 4, !dbg !776
@.str.71 = private unnamed_addr constant [7 x i8] c"g_1904\00", align 1, !dbg !266
@_ZL6g_1905 = internal global i32 -5, align 4, !dbg !778
@.str.72 = private unnamed_addr constant [7 x i8] c"g_1905\00", align 1, !dbg !268
@_ZL6g_1906 = internal global i32 0, align 4, !dbg !780
@.str.73 = private unnamed_addr constant [7 x i8] c"g_1906\00", align 1, !dbg !270
@_ZL6g_1907 = internal global i32 -1343935289, align 4, !dbg !782
@.str.74 = private unnamed_addr constant [7 x i8] c"g_1907\00", align 1, !dbg !272
@_ZL6g_1908 = internal global i32 -1278937823, align 4, !dbg !784
@.str.75 = private unnamed_addr constant [7 x i8] c"g_1908\00", align 1, !dbg !274
@_ZL6g_1909 = internal global i32 -8, align 4, !dbg !786
@.str.76 = private unnamed_addr constant [7 x i8] c"g_1909\00", align 1, !dbg !276
@_ZL6g_1910 = internal global i32 -10, align 4, !dbg !788
@.str.77 = private unnamed_addr constant [7 x i8] c"g_1910\00", align 1, !dbg !278
@_ZL6g_1911 = internal global i32 -1, align 4, !dbg !790
@.str.78 = private unnamed_addr constant [7 x i8] c"g_1911\00", align 1, !dbg !280
@_ZL6g_1912 = internal global i32 7, align 4, !dbg !792
@.str.79 = private unnamed_addr constant [7 x i8] c"g_1912\00", align 1, !dbg !282
@_ZL6g_1913 = internal global i32 -4, align 4, !dbg !794
@.str.80 = private unnamed_addr constant [7 x i8] c"g_1913\00", align 1, !dbg !284
@_ZL6g_1914 = internal global i32 955858442, align 4, !dbg !796
@.str.81 = private unnamed_addr constant [7 x i8] c"g_1914\00", align 1, !dbg !286
@_ZL6g_1915 = internal global i32 -6, align 4, !dbg !798
@.str.82 = private unnamed_addr constant [7 x i8] c"g_1915\00", align 1, !dbg !288
@_ZL6g_1916 = internal global [1 x i32] [i32 -11587196], align 4, !dbg !800
@.str.83 = private unnamed_addr constant [10 x i8] c"g_1916[i]\00", align 1, !dbg !290
@_ZL6g_1917 = internal global i32 7, align 4, !dbg !803
@.str.84 = private unnamed_addr constant [7 x i8] c"g_1917\00", align 1, !dbg !292
@_ZL6g_1918 = internal global i32 116031467, align 4, !dbg !805
@.str.85 = private unnamed_addr constant [7 x i8] c"g_1918\00", align 1, !dbg !294
@_ZL6g_1919 = internal global i32 -1502158191, align 4, !dbg !807
@.str.86 = private unnamed_addr constant [7 x i8] c"g_1919\00", align 1, !dbg !296
@_ZL6g_1920 = internal global i32 0, align 4, !dbg !809
@.str.87 = private unnamed_addr constant [7 x i8] c"g_1920\00", align 1, !dbg !298
@_ZL6g_1921 = internal global i32 -2000127066, align 4, !dbg !811
@.str.88 = private unnamed_addr constant [7 x i8] c"g_1921\00", align 1, !dbg !300
@.str.89 = private unnamed_addr constant [21 x i8] c"Hello! [0][0] => %X\0A\00", align 1, !dbg !302
@_ZL6g_1922 = internal global [4 x [9 x i32]] [[9 x i32] [i32 135708172, i32 135708172, i32 135708172, i32 135708172, i32 135708172, i32 135708172, i32 135708172, i32 135708172, i32 135708172], [9 x i32] [i32 -1, i32 -1, i32 -1, i32 -1, i32 -1, i32 -1, i32 -1, i32 -1, i32 -1], [9 x i32] [i32 135708172, i32 135708172, i32 135708172, i32 135708172, i32 135708172, i32 135708172, i32 135708172, i32 135708172, i32 135708172], [9 x i32] [i32 -1, i32 -1, i32 -1, i32 -1, i32 -1, i32 -1, i32 -1, i32 -1, i32 -1]], align 16, !dbg !813
@.str.90 = private unnamed_addr constant [21 x i8] c"Hello! [0][1] => %X\0A\00", align 1, !dbg !307
@.str.91 = private unnamed_addr constant [21 x i8] c"Hello! [0][2] => %X\0A\00", align 1, !dbg !309
@.str.92 = private unnamed_addr constant [21 x i8] c"Hello! [0][3] => %X\0A\00", align 1, !dbg !311
@.str.93 = private unnamed_addr constant [21 x i8] c"Hello! [0][4] => %X\0A\00", align 1, !dbg !313
@.str.94 = private unnamed_addr constant [21 x i8] c"Hello! [0][5] => %X\0A\00", align 1, !dbg !315
@.str.95 = private unnamed_addr constant [21 x i8] c"Hello! [0][6] => %X\0A\00", align 1, !dbg !317
@.str.96 = private unnamed_addr constant [21 x i8] c"Hello! [0][7] => %X\0A\00", align 1, !dbg !319
@.str.97 = private unnamed_addr constant [21 x i8] c"Hello! [0][8] => %X\0A\00", align 1, !dbg !321
@.str.98 = private unnamed_addr constant [21 x i8] c"Hello! [1][0] => %X\0A\00", align 1, !dbg !323
@.str.99 = private unnamed_addr constant [21 x i8] c"Hello! [1][1] => %X\0A\00", align 1, !dbg !325
@.str.100 = private unnamed_addr constant [21 x i8] c"Hello! [1][2] => %X\0A\00", align 1, !dbg !327
@.str.101 = private unnamed_addr constant [21 x i8] c"Hello! [1][3] => %X\0A\00", align 1, !dbg !329
@.str.102 = private unnamed_addr constant [21 x i8] c"Hello! [1][4] => %X\0A\00", align 1, !dbg !331
@.str.103 = private unnamed_addr constant [21 x i8] c"Hello! [1][5] => %X\0A\00", align 1, !dbg !333
@.str.104 = private unnamed_addr constant [21 x i8] c"Hello! [1][6] => %X\0A\00", align 1, !dbg !335
@.str.105 = private unnamed_addr constant [21 x i8] c"Hello! [1][7] => %X\0A\00", align 1, !dbg !337
@.str.106 = private unnamed_addr constant [21 x i8] c"Hello! [1][8] => %X\0A\00", align 1, !dbg !339
@.str.107 = private unnamed_addr constant [21 x i8] c"Hello! [2][0] => %X\0A\00", align 1, !dbg !341
@.str.108 = private unnamed_addr constant [21 x i8] c"Hello! [2][1] => %X\0A\00", align 1, !dbg !343
@.str.109 = private unnamed_addr constant [21 x i8] c"Hello! [2][2] => %X\0A\00", align 1, !dbg !345
@.str.110 = private unnamed_addr constant [21 x i8] c"Hello! [2][3] => %X\0A\00", align 1, !dbg !347
@.str.111 = private unnamed_addr constant [21 x i8] c"Hello! [2][4] => %X\0A\00", align 1, !dbg !349
@.str.112 = private unnamed_addr constant [21 x i8] c"Hello! [2][5] => %X\0A\00", align 1, !dbg !351
@.str.113 = private unnamed_addr constant [21 x i8] c"Hello! [2][6] => %X\0A\00", align 1, !dbg !353
@.str.114 = private unnamed_addr constant [21 x i8] c"Hello! [2][7] => %X\0A\00", align 1, !dbg !355
@.str.115 = private unnamed_addr constant [21 x i8] c"Hello! [2][8] => %X\0A\00", align 1, !dbg !357
@.str.116 = private unnamed_addr constant [21 x i8] c"Hello! [3][0] => %X\0A\00", align 1, !dbg !359
@.str.117 = private unnamed_addr constant [21 x i8] c"Hello! [3][1] => %X\0A\00", align 1, !dbg !361
@.str.118 = private unnamed_addr constant [21 x i8] c"Hello! [3][2] => %X\0A\00", align 1, !dbg !363
@.str.119 = private unnamed_addr constant [21 x i8] c"Hello! [3][3] => %X\0A\00", align 1, !dbg !365
@.str.120 = private unnamed_addr constant [21 x i8] c"Hello! [3][4] => %X\0A\00", align 1, !dbg !367
@.str.121 = private unnamed_addr constant [21 x i8] c"Hello! [3][5] => %X\0A\00", align 1, !dbg !369
@.str.122 = private unnamed_addr constant [21 x i8] c"Hello! [3][6] => %X\0A\00", align 1, !dbg !371
@.str.123 = private unnamed_addr constant [21 x i8] c"Hello! [3][7] => %X\0A\00", align 1, !dbg !373
@.str.124 = private unnamed_addr constant [21 x i8] c"Hello! [3][8] => %X\0A\00", align 1, !dbg !375
@.str.125 = private unnamed_addr constant [30 x i8] c"index = [%d][%d], value = %X\0A\00", align 1, !dbg !377
@.str.126 = private unnamed_addr constant [13 x i8] c"g_1922[i][j]\00", align 1, !dbg !382
@_ZL6g_1923 = internal global i32 -1, align 4, !dbg !817
@.str.127 = private unnamed_addr constant [7 x i8] c"g_1923\00", align 1, !dbg !384
@_ZL6g_1924 = internal global i32 -1469769669, align 4, !dbg !819
@.str.128 = private unnamed_addr constant [7 x i8] c"g_1924\00", align 1, !dbg !386
@_ZL6g_1925 = internal global i32 -2, align 4, !dbg !821
@.str.129 = private unnamed_addr constant [7 x i8] c"g_1925\00", align 1, !dbg !388
@_ZL6g_1926 = internal global i32 -1, align 4, !dbg !823
@.str.130 = private unnamed_addr constant [7 x i8] c"g_1926\00", align 1, !dbg !390
@_ZL6g_1927 = internal global i32 3, align 4, !dbg !825
@.str.131 = private unnamed_addr constant [7 x i8] c"g_1927\00", align 1, !dbg !392
@_ZL6g_1928 = internal global i32 1948184196, align 4, !dbg !827
@.str.132 = private unnamed_addr constant [7 x i8] c"g_1928\00", align 1, !dbg !394
@_ZL6g_1929 = internal global i32 2015585424, align 4, !dbg !829
@.str.133 = private unnamed_addr constant [7 x i8] c"g_1929\00", align 1, !dbg !396
@_ZL6g_1930 = internal global i32 1431763380, align 4, !dbg !831
@.str.134 = private unnamed_addr constant [7 x i8] c"g_1930\00", align 1, !dbg !398
@_ZL6g_1931 = internal global i32 -199081461, align 4, !dbg !833
@.str.135 = private unnamed_addr constant [7 x i8] c"g_1931\00", align 1, !dbg !400
@_ZL6g_1932 = internal global i32 -1664503428, align 4, !dbg !835
@.str.136 = private unnamed_addr constant [7 x i8] c"g_1932\00", align 1, !dbg !402
@_ZL6g_1933 = internal global [8 x i32] [i32 1836494699, i32 1836494699, i32 1836494699, i32 1836494699, i32 1836494699, i32 1836494699, i32 1836494699, i32 1836494699], align 16, !dbg !837
@.str.137 = private unnamed_addr constant [10 x i8] c"g_1933[i]\00", align 1, !dbg !404
@_ZL6g_1934 = internal global i32 1, align 4, !dbg !839
@.str.138 = private unnamed_addr constant [7 x i8] c"g_1934\00", align 1, !dbg !406
@_ZL6g_1935 = internal global i32 -1613090230, align 4, !dbg !841
@.str.139 = private unnamed_addr constant [7 x i8] c"g_1935\00", align 1, !dbg !408
@_ZL6g_1936 = internal global i32 5, align 4, !dbg !843
@.str.140 = private unnamed_addr constant [7 x i8] c"g_1936\00", align 1, !dbg !410
@_ZL6g_1937 = internal global i32 -4, align 4, !dbg !845
@.str.141 = private unnamed_addr constant [7 x i8] c"g_1937\00", align 1, !dbg !412
@_ZL6g_1938 = internal global i32 -1753196125, align 4, !dbg !847
@.str.142 = private unnamed_addr constant [7 x i8] c"g_1938\00", align 1, !dbg !414
@_ZL6g_1939 = internal global i32 1075735522, align 4, !dbg !849
@.str.143 = private unnamed_addr constant [7 x i8] c"g_1939\00", align 1, !dbg !416
@_ZL6g_1940 = internal global i32 280916863, align 4, !dbg !851
@.str.144 = private unnamed_addr constant [7 x i8] c"g_1940\00", align 1, !dbg !418
@_ZL6g_1941 = internal global i32 1669581321, align 4, !dbg !853
@.str.145 = private unnamed_addr constant [7 x i8] c"g_1941\00", align 1, !dbg !420
@_ZL6g_1942 = internal global [4 x [8 x [4 x i32]]] [[8 x [4 x i32]] [[4 x i32] [i32 1259935042, i32 1259935042, i32 -1716021877, i32 -6], [4 x i32] [i32 883023951, i32 -6, i32 8, i32 4], [4 x i32] [i32 0, i32 -6, i32 0, i32 8], [4 x i32] [i32 -1, i32 -6, i32 0, i32 4], [4 x i32] [i32 -6, i32 -6, i32 0, i32 -1090100040], [4 x i32] [i32 1624602653, i32 8, i32 68931085, i32 -1716021877], [4 x i32] [i32 -905327648, i32 -1817676719, i32 -1317224659, i32 3], [4 x i32] [i32 0, i32 -1259378644, i32 1259935042, i32 -7]], [8 x [4 x i32]] [[4 x i32] [i32 1405156444, i32 446402858, i32 1, i32 -6], [4 x i32] [i32 -1471432512, i32 2, i32 1213796766, i32 8], [4 x i32] [i32 -6, i32 883023951, i32 -6, i32 446402858], [4 x i32] [i32 2, i32 -1, i32 0, i32 365379932], [4 x i32] [i32 1387306853, i32 0, i32 1387306853, i32 2022890936], [4 x i32] [i32 446402858, i32 -1817676719, i32 3, i32 0], [4 x i32] [i32 -578629847, i32 887108380, i32 -10, i32 -1817676719], [4 x i32] [i32 1405156444, i32 -905327648, i32 -10, i32 652681088]], [8 x [4 x i32]] [[4 x i32] [i32 -578629847, i32 1387306853, i32 3, i32 8], [4 x i32] [i32 446402858, i32 0, i32 1387306853, i32 1], [4 x i32] [i32 1387306853, i32 1, i32 0, i32 1405156444], [4 x i32] [i32 2, i32 -578629847, i32 -6, i32 1213796766], [4 x i32] [i32 -6, i32 -1817676719, i32 1213796766, i32 245270828], [4 x i32] [i32 -1471432512, i32 0, i32 1, i32 -9], [4 x i32] [i32 1405156444, i32 652681088, i32 1259935042, i32 -1], [4 x i32] [i32 0, i32 1624602653, i32 -1317224659, i32 8]], [8 x [4 x i32]] [[4 x i32] [i32 -905327648, i32 68931085, i32 68931085, i32 -905327648], [4 x i32] [i32 1624602653, i32 4, i32 0, i32 6], [4 x i32] [i32 -6, i32 -1471432512, i32 0, i32 -1317224659], [4 x i32] [i32 -1, i32 -1817676719, i32 0, i32 -1317224659], [4 x i32] [i32 0, i32 -1471432512, i32 8, i32 6], [4 x i32] [i32 1405156444, i32 4, i32 -1, i32 -905327648], [4 x i32] [i32 8, i32 68931085, i32 -1716021877, i32 8], [4 x i32] [i32 652681088, i32 1624602653, i32 883023951, i32 -1]]], align 16, !dbg !855
@.str.146 = private unnamed_addr constant [16 x i8] c"g_1942[i][j][k]\00", align 1, !dbg !422
@_ZL6g_1943 = internal global i32 -6, align 4, !dbg !859
@.str.147 = private unnamed_addr constant [7 x i8] c"g_1943\00", align 1, !dbg !424
@_ZL6g_1944 = internal global [10 x i32] [i32 692300518, i32 1270180300, i32 4, i32 4, i32 1270180300, i32 692300518, i32 1270180300, i32 4, i32 4, i32 1270180300], align 16, !dbg !861
@.str.148 = private unnamed_addr constant [10 x i8] c"g_1944[i]\00", align 1, !dbg !426
@_ZL6g_1945 = internal global [7 x i32] [i32 53127161, i32 -112896984, i32 -112896984, i32 53127161, i32 -112896984, i32 -112896984, i32 53127161], align 16, !dbg !863
@.str.149 = private unnamed_addr constant [10 x i8] c"g_1945[i]\00", align 1, !dbg !428
@_ZL6g_1946 = internal global i32 -707239258, align 4, !dbg !865
@.str.150 = private unnamed_addr constant [7 x i8] c"g_1946\00", align 1, !dbg !430
@_ZL6g_1947 = internal global i32 1, align 4, !dbg !867
@.str.151 = private unnamed_addr constant [7 x i8] c"g_1947\00", align 1, !dbg !432
@_ZL6g_1948 = internal global i32 -2129396774, align 4, !dbg !869
@.str.152 = private unnamed_addr constant [7 x i8] c"g_1948\00", align 1, !dbg !434
@_ZL6g_2024 = internal global %union.U0 { i32 9 }, align 4, !dbg !871
@.str.153 = private unnamed_addr constant [10 x i8] c"g_2024.f0\00", align 1, !dbg !436
@_ZL6g_2072 = internal global i32 -5, align 4, !dbg !873
@.str.154 = private unnamed_addr constant [7 x i8] c"g_2072\00", align 1, !dbg !438
@.str.155 = private unnamed_addr constant [7 x i8] c"g_2186\00", align 1, !dbg !443
@_ZL6g_2199 = internal constant %union.U4 { i16 15412 }, align 2, !dbg !875
@.str.156 = private unnamed_addr constant [10 x i8] c"g_2199.f0\00", align 1, !dbg !445
@_ZL6g_2324 = internal global [1 x [5 x i32]] [[5 x i32] [i32 846055261, i32 846055261, i32 846055261, i32 846055261, i32 846055261]], align 16, !dbg !878
@.str.157 = private unnamed_addr constant [13 x i8] c"g_2324[i][j]\00", align 1, !dbg !447
@.str.158 = private unnamed_addr constant [18 x i8] c"index = [%d][%d]\0A\00", align 1, !dbg !449
@_ZL6g_2354 = internal global i32 0, align 4, !dbg !882
@.str.159 = private unnamed_addr constant [7 x i8] c"g_2354\00", align 1, !dbg !454
@_ZL6g_2382 = internal constant i32 -673340876, align 4, !dbg !884
@.str.160 = private unnamed_addr constant [7 x i8] c"g_2382\00", align 1, !dbg !456
@_ZL6g_2427 = internal global [4 x [6 x %union.U4]] [[6 x %union.U4] [%union.U4 { i16 -14506 }, %union.U4 { i16 -14506 }, %union.U4 { i16 -14506 }, %union.U4 { i16 -14506 }, %union.U4 { i16 -14506 }, %union.U4 { i16 -14506 }], [6 x %union.U4] [%union.U4 { i16 -14506 }, %union.U4 { i16 -14506 }, %union.U4 { i16 -14506 }, %union.U4 { i16 -14506 }, %union.U4 { i16 -14506 }, %union.U4 { i16 -14506 }], [6 x %union.U4] [%union.U4 { i16 -14506 }, %union.U4 { i16 -14506 }, %union.U4 { i16 -14506 }, %union.U4 { i16 -14506 }, %union.U4 { i16 -14506 }, %union.U4 { i16 -14506 }], [6 x %union.U4] [%union.U4 { i16 -14506 }, %union.U4 { i16 -14506 }, %union.U4 { i16 -14506 }, %union.U4 { i16 -14506 }, %union.U4 { i16 -14506 }, %union.U4 { i16 -14506 }]], align 16, !dbg !888
@.str.161 = private unnamed_addr constant [16 x i8] c"g_2427[i][j].f0\00", align 1, !dbg !458
@_ZL6g_2519 = internal global i16 1, align 2, !dbg !892
@.str.162 = private unnamed_addr constant [7 x i8] c"g_2519\00", align 1, !dbg !460
@_ZL6g_2599 = internal global i16 1, align 2, !dbg !894
@.str.163 = private unnamed_addr constant [7 x i8] c"g_2599\00", align 1, !dbg !462
@_ZL9crc32_tab = internal global [256 x i32] zeroinitializer, align 16, !dbg !464
@__const._ZL6func_1v.l_2323 = private unnamed_addr constant [7 x [9 x [4 x ptr]]] [[9 x [4 x ptr]] [[4 x ptr] [ptr @_ZL5g_245, ptr @_ZL6g_1221, ptr @_ZL6g_1221, ptr null], [4 x ptr] [ptr @_ZL6g_1221, ptr @_ZL5g_245, ptr @_ZL5g_245, ptr @_ZL6g_1221], [4 x ptr] [ptr @_ZL6g_1221, ptr @_ZL5g_245, ptr @_ZL6g_1221, ptr @_ZL5g_245], [4 x ptr] [ptr @_ZL5g_245, ptr @_ZL6g_1221, ptr @_ZL6g_1221, ptr @_ZL5g_245], [4 x ptr] [ptr @_ZL5g_245, ptr @_ZL6g_1221, ptr @_ZL5g_245, ptr null], [4 x ptr] [ptr @_ZL5g_245, ptr @_ZL6g_1221, ptr @_ZL6g_1221, ptr @_ZL5g_245], [4 x ptr] [ptr @_ZL5g_245, ptr null, ptr @_ZL5g_245, ptr @_ZL5g_245], [4 x ptr] [ptr @_ZL5g_245, ptr @_ZL5g_245, ptr @_ZL6g_1221, ptr null], [4 x ptr] [ptr @_ZL6g_1221, ptr null, ptr @_ZL5g_245, ptr @_ZL5g_245]], [9 x [4 x ptr]] [[4 x ptr] [ptr @_ZL6g_1221, ptr @_ZL5g_245, ptr null, ptr @_ZL6g_1221], [4 x ptr] [ptr @_ZL5g_245, ptr @_ZL6g_1221, ptr @_ZL6g_1221, ptr @_ZL5g_245], [4 x ptr] [ptr null, ptr @_ZL6g_1221, ptr @_ZL6g_1221, ptr @_ZL6g_1221], [4 x ptr] [ptr @_ZL5g_245, ptr @_ZL5g_245, ptr null, ptr null], [4 x ptr] [ptr @_ZL5g_245, ptr @_ZL5g_245, ptr null, ptr null], [4 x ptr] [ptr @_ZL6g_1221, ptr @_ZL5g_245, ptr @_ZL5g_245, ptr @_ZL6g_1221], [4 x ptr] [ptr @_ZL5g_245, ptr @_ZL6g_1221, ptr @_ZL5g_245, ptr @_ZL5g_245], [4 x ptr] [ptr @_ZL6g_1221, ptr @_ZL6g_1221, ptr @_ZL5g_245, ptr @_ZL6g_1221], [4 x ptr] [ptr @_ZL5g_245, ptr @_ZL5g_245, ptr @_ZL5g_245, ptr @_ZL5g_245]], [9 x [4 x ptr]] [[4 x ptr] [ptr @_ZL6g_1221, ptr null, ptr @_ZL5g_245, ptr null], [4 x ptr] [ptr @_ZL6g_1221, ptr @_ZL5g_245, ptr @_ZL6g_1221, ptr @_ZL5g_245], [4 x ptr] [ptr @_ZL6g_1221, ptr null, ptr @_ZL5g_245, ptr @_ZL5g_245], [4 x ptr] [ptr @_ZL5g_245, ptr @_ZL6g_1221, ptr @_ZL5g_245, ptr @_ZL5g_245], [4 x ptr] [ptr @_ZL5g_245, ptr @_ZL5g_245, ptr @_ZL5g_245, ptr @_ZL6g_1221], [4 x ptr] [ptr @_ZL5g_245, ptr @_ZL6g_1221, ptr @_ZL5g_245, ptr null], [4 x ptr] [ptr @_ZL5g_245, ptr @_ZL6g_1221, ptr @_ZL5g_245, ptr @_ZL6g_1221], [4 x ptr] [ptr null, ptr @_ZL5g_245, ptr @_ZL5g_245, ptr @_ZL5g_245], [4 x ptr] [ptr @_ZL5g_245, ptr @_ZL6g_1221, ptr @_ZL5g_245, ptr @_ZL6g_1221]], [9 x [4 x ptr]] [[4 x ptr] [ptr @_ZL5g_245, ptr @_ZL6g_1221, ptr @_ZL5g_245, ptr @_ZL5g_245], [4 x ptr] [ptr @_ZL5g_245, ptr @_ZL5g_245, ptr @_ZL5g_245, ptr @_ZL6g_1221], [4 x ptr] [ptr @_ZL5g_245, ptr @_ZL5g_245, ptr @_ZL5g_245, ptr @_ZL6g_1221], [4 x ptr] [ptr @_ZL6g_1221, ptr @_ZL5g_245, ptr @_ZL6g_1221, ptr null], [4 x ptr] [ptr @_ZL6g_1221, ptr @_ZL5g_245, ptr @_ZL5g_245, ptr @_ZL6g_1221], [4 x ptr] [ptr @_ZL6g_1221, ptr @_ZL5g_245, ptr @_ZL5g_245, ptr @_ZL6g_1221], [4 x ptr] [ptr @_ZL5g_245, ptr @_ZL5g_245, ptr @_ZL5g_245, ptr @_ZL5g_245], [4 x ptr] [ptr @_ZL6g_1221, ptr @_ZL6g_1221, ptr @_ZL5g_245, ptr @_ZL5g_245], [4 x ptr] [ptr @_ZL5g_245, ptr @_ZL6g_1221, ptr @_ZL5g_245, ptr @_ZL6g_1221]], [9 x [4 x ptr]] [[4 x ptr] [ptr @_ZL6g_1221, ptr @_ZL5g_245, ptr null, ptr @_ZL5g_245], [4 x ptr] [ptr @_ZL5g_245, ptr @_ZL5g_245, ptr null, ptr @_ZL6g_1221], [4 x ptr] [ptr @_ZL5g_245, ptr @_ZL6g_1221, ptr @_ZL6g_1221, ptr @_ZL5g_245], [4 x ptr] [ptr null, ptr @_ZL6g_1221, ptr @_ZL6g_1221, ptr @_ZL5g_245], [4 x ptr] [ptr @_ZL5g_245, ptr @_ZL5g_245, ptr null, ptr @_ZL6g_1221], [4 x ptr] [ptr @_ZL6g_1221, ptr @_ZL5g_245, ptr @_ZL5g_245, ptr @_ZL6g_1221], [4 x ptr] [ptr @_ZL6g_1221, ptr @_ZL5g_245, ptr @_ZL6g_1221, ptr null], [4 x ptr] [ptr @_ZL5g_245, ptr @_ZL5g_245, ptr @_ZL5g_245, ptr @_ZL6g_1221], [4 x ptr] [ptr @_ZL5g_245, ptr @_ZL5g_245, ptr @_ZL6g_1221, ptr @_ZL6g_1221]], [9 x [4 x ptr]] [[4 x ptr] [ptr @_ZL6g_1221, ptr @_ZL5g_245, ptr null, ptr @_ZL5g_245], [4 x ptr] [ptr null, ptr @_ZL6g_1221, ptr @_ZL5g_245, ptr @_ZL6g_1221], [4 x ptr] [ptr null, ptr @_ZL6g_1221, ptr null, ptr @_ZL5g_245], [4 x ptr] [ptr @_ZL5g_245, ptr @_ZL5g_245, ptr @_ZL6g_1221, ptr @_ZL6g_1221], [4 x ptr] [ptr @_ZL5g_245, ptr @_ZL6g_1221, ptr null, ptr null], [4 x ptr] [ptr null, ptr @_ZL6g_1221, ptr @_ZL5g_245, ptr @_ZL6g_1221], [4 x ptr] [ptr null, ptr @_ZL5g_245, ptr null, ptr @_ZL5g_245], [4 x ptr] [ptr @_ZL6g_1221, ptr @_ZL6g_1221, ptr @_ZL6g_1221, ptr @_ZL5g_245], [4 x ptr] [ptr null, ptr @_ZL6g_1221, ptr null, ptr null]], [9 x [4 x ptr]] [[4 x ptr] [ptr @_ZL6g_1221, ptr @_ZL6g_1221, ptr @_ZL5g_245, ptr @_ZL6g_1221], [4 x ptr] [ptr @_ZL6g_1221, ptr @_ZL5g_245, ptr null, ptr @_ZL5g_245], [4 x ptr] [ptr @_ZL6g_1221, ptr null, ptr @_ZL5g_245, ptr @_ZL5g_245], [4 x ptr] [ptr @_ZL5g_245, ptr @_ZL5g_245, ptr @_ZL5g_245, ptr @_ZL5g_245], [4 x ptr] [ptr @_ZL5g_245, ptr @_ZL6g_1221, ptr @_ZL5g_245, ptr @_ZL5g_245], [4 x ptr] [ptr @_ZL6g_1221, ptr @_ZL5g_245, ptr @_ZL6g_1221, ptr @_ZL5g_245], [4 x ptr] [ptr null, ptr null, ptr @_ZL5g_245, ptr @_ZL5g_245], [4 x ptr] [ptr @_ZL5g_245, ptr @_ZL5g_245, ptr @_ZL6g_1221, ptr @_ZL5g_245], [4 x ptr] [ptr @_ZL6g_1221, ptr @_ZL6g_1221, ptr null, ptr @_ZL5g_245]]], align 16
@_ZL5g_313 = internal global %union.U4 { i16 -29162 }, align 2, !dbg !482
@__const._ZL6func_1v.l_2419 = private unnamed_addr constant [4 x [1 x i16]] [[1 x i16] [i16 24610], [1 x i16] zeroinitializer, [1 x i16] [i16 24610], [1 x i16] zeroinitializer], align 2
@_ZL5g_149 = internal global [4 x [2 x %union.U2]] [[2 x %union.U2] [%union.U2 { i64 5 }, %union.U2 { i64 5 }], [2 x %union.U2] [%union.U2 { i64 5 }, %union.U2 { i64 5 }], [2 x %union.U2] [%union.U2 { i64 5 }, %union.U2 { i64 5 }], [2 x %union.U2] [%union.U2 { i64 5 }, %union.U2 { i64 5 }]], align 16, !dbg !491
@__const._ZL6func_1v.l_2300 = private unnamed_addr constant [4 x [9 x ptr]] [[9 x ptr] [ptr null, ptr null, ptr @_ZL5g_422, ptr null, ptr null, ptr @_ZL5g_422, ptr null, ptr null, ptr @_ZL5g_422], [9 x ptr] [ptr null, ptr null, ptr @_ZL5g_422, ptr null, ptr null, ptr @_ZL5g_422, ptr null, ptr null, ptr @_ZL5g_422], [9 x ptr] [ptr null, ptr null, ptr @_ZL5g_422, ptr null, ptr null, ptr @_ZL5g_422, ptr null, ptr null, ptr @_ZL5g_422], [9 x ptr] [ptr null, ptr null, ptr @_ZL5g_422, ptr null, ptr null, ptr @_ZL5g_422, ptr null, ptr null, ptr @_ZL5g_422]], align 16
@__const._ZL6func_1v.l_1138 = private unnamed_addr constant [4 x [3 x [5 x %union.U4]]] [[3 x [5 x %union.U4]] [[5 x %union.U4] [%union.U4 { i16 19532 }, %union.U4 { i16 19532 }, %union.U4 { i16 1 }, %union.U4 { i16 -18216 }, %union.U4 { i16 -3 }], [5 x %union.U4] [%union.U4 { i16 -23628 }, %union.U4 { i16 -1 }, %union.U4 { i16 -21420 }, %union.U4 { i16 -10934 }, %union.U4 zeroinitializer], [5 x %union.U4] [%union.U4 { i16 19532 }, %union.U4 { i16 -1 }, %union.U4 { i16 1 }, %union.U4 { i16 -18216 }, %union.U4 { i16 1 }]], [3 x [5 x %union.U4]] [[5 x %union.U4] [%union.U4 { i16 -1 }, %union.U4 { i16 -1 }, %union.U4 { i16 -1 }, %union.U4 { i16 -8 }, %union.U4 zeroinitializer], [5 x %union.U4] [%union.U4 { i16 -1 }, %union.U4 { i16 19532 }, %union.U4 { i16 1 }, %union.U4 { i16 -22925 }, %union.U4 { i16 -3 }], [5 x %union.U4] [%union.U4 { i16 -1 }, %union.U4 { i16 -23628 }, %union.U4 { i16 -21420 }, %union.U4 { i16 -8 }, %union.U4 { i16 -21420 }]], [3 x [5 x %union.U4]] [[5 x %union.U4] [%union.U4 { i16 19532 }, %union.U4 { i16 19532 }, %union.U4 { i16 1 }, %union.U4 { i16 -18216 }, %union.U4 { i16 -3 }], [5 x %union.U4] [%union.U4 { i16 -23628 }, %union.U4 { i16 -1 }, %union.U4 { i16 -21420 }, %union.U4 { i16 -10934 }, %union.U4 zeroinitializer], [5 x %union.U4] [%union.U4 { i16 19532 }, %union.U4 { i16 -1 }, %union.U4 { i16 1 }, %union.U4 { i16 -18216 }, %union.U4 { i16 1 }]], [3 x [5 x %union.U4]] [[5 x %union.U4] [%union.U4 { i16 -1 }, %union.U4 { i16 -1 }, %union.U4 { i16 -1 }, %union.U4 { i16 -8 }, %union.U4 zeroinitializer], [5 x %union.U4] [%union.U4 { i16 -1 }, %union.U4 { i16 19532 }, %union.U4 { i16 1 }, %union.U4 { i16 -22925 }, %union.U4 { i16 -3 }], [5 x %union.U4] [%union.U4 { i16 -1 }, %union.U4 { i16 -23628 }, %union.U4 { i16 -21420 }, %union.U4 { i16 -8 }, %union.U4 { i16 -21420 }]]], align 16
@_ZL5g_139 = internal global ptr @_ZL5g_140, align 8, !dbg !495
@_ZL6g_2025 = internal global ptr null, align 8, !dbg !499
@_ZL5g_744 = internal global %union.U0 { i32 -808993188 }, align 4, !dbg !505
@_ZL6g_2175 = internal global ptr null, align 8, !dbg !533
@_ZL6g_1117 = internal global ptr null, align 8, !dbg !536
@.str.164 = private unnamed_addr constant [15 x i8] c"g_5<0> = 0x%x\0A\00", align 1, !dbg !478
@_ZL6g_1680 = internal global ptr @_ZL6g_1681, align 8, !dbg !539
@.str.165 = private unnamed_addr constant [15 x i8] c"g_5<1> = 0x%x\0A\00", align 1, !dbg !480
@_ZL5g_150 = internal global ptr getelementptr (i8, ptr @_ZL5g_149, i64 8), align 8, !dbg !578
@_ZL6g_2357 = internal global ptr getelementptr (i8, ptr @_ZL5g_149, i64 56), align 8, !dbg !580
@_ZL6g_2364 = internal global ptr @_ZL6g_2365, align 8, !dbg !582
@__const._ZL6func_1v.l_2393 = private unnamed_addr constant [4 x i32] [i32 -1, i32 -1, i32 -1, i32 -1], align 16
@_ZL5g_337 = internal constant ptr @_ZL5g_338, align 8, !dbg !593
@__const._ZL6func_1v.l_2398 = private unnamed_addr constant [5 x [7 x i8]] [[7 x i8] c"\F8\80\F8\FF\F8\80\F8", [7 x i8] c"p\FC\FCp\01\00\00", [7 x i8] c"\FF\80\F6\80\FF\80\F6", [7 x i8] c"\01p\FC\FCp\01\00", [7 x i8] c"\F8\FF\F8\80\F8\FF\F8"], align 16
@_ZL5g_448 = internal global ptr getelementptr (i8, ptr @_ZL5g_449, i64 12), align 8, !dbg !598
@_ZL6g_1681 = internal global ptr @_ZL6g_1682, align 8, !dbg !600
@__const._ZL6func_1v.l_2445 = private unnamed_addr constant [5 x [10 x i64]] [[10 x i64] [i64 -3917657813870140125, i64 3849861353668823529, i64 0, i64 6766247232868170495, i64 8, i64 -3917657813870140125, i64 -728465569216903947, i64 -8166104977095878231, i64 -8166104977095878231, i64 -728465569216903947], [10 x i64] [i64 -3917657813870140125, i64 -728465569216903947, i64 -8166104977095878231, i64 -8166104977095878231, i64 -728465569216903947, i64 -3917657813870140125, i64 8, i64 6766247232868170495, i64 0, i64 3849861353668823529], [10 x i64] [i64 -3917657813870140125, i64 8, i64 6766247232868170495, i64 0, i64 3849861353668823529, i64 -3917657813870140125, i64 4, i64 -8381085126885076989, i64 -8215331073916930251, i64 3147099856984416980], [10 x i64] [i64 -3917657813870140125, i64 4, i64 -8381085126885076989, i64 -8215331073916930251, i64 3147099856984416980, i64 -3917657813870140125, i64 3147099856984416980, i64 -8215331073916930251, i64 -8381085126885076989, i64 4], [10 x i64] [i64 -3917657813870140125, i64 3147099856984416980, i64 -8215331073916930251, i64 -8381085126885076989, i64 4, i64 -3917657813870140125, i64 3849861353668823529, i64 0, i64 6766247232868170495, i64 8]], align 16
@__const._ZL6func_1v.l_2475 = private unnamed_addr constant [7 x [9 x ptr]] [[9 x ptr] [ptr @_ZL5g_150, ptr @_ZL5g_150, ptr @_ZL5g_150, ptr @_ZL5g_150, ptr @_ZL5g_150, ptr @_ZL5g_150, ptr null, ptr @_ZL5g_150, ptr null], [9 x ptr] [ptr @_ZL5g_150, ptr @_ZL5g_150, ptr @_ZL5g_150, ptr @_ZL5g_150, ptr @_ZL5g_150, ptr @_ZL5g_150, ptr null, ptr @_ZL5g_150, ptr null], [9 x ptr] [ptr @_ZL5g_150, ptr @_ZL5g_150, ptr @_ZL5g_150, ptr @_ZL5g_150, ptr @_ZL5g_150, ptr @_ZL5g_150, ptr null, ptr @_ZL5g_150, ptr null], [9 x ptr] [ptr @_ZL5g_150, ptr @_ZL5g_150, ptr @_ZL5g_150, ptr @_ZL5g_150, ptr @_ZL5g_150, ptr @_ZL5g_150, ptr null, ptr @_ZL5g_150, ptr null], [9 x ptr] [ptr @_ZL5g_150, ptr @_ZL5g_150, ptr @_ZL5g_150, ptr @_ZL5g_150, ptr @_ZL5g_150, ptr @_ZL5g_150, ptr null, ptr @_ZL5g_150, ptr null], [9 x ptr] [ptr @_ZL5g_150, ptr @_ZL5g_150, ptr @_ZL5g_150, ptr @_ZL5g_150, ptr @_ZL5g_150, ptr @_ZL5g_150, ptr null, ptr @_ZL5g_150, ptr null], [9 x ptr] [ptr @_ZL5g_150, ptr @_ZL5g_150, ptr @_ZL5g_150, ptr @_ZL5g_150, ptr @_ZL5g_150, ptr @_ZL5g_150, ptr null, ptr @_ZL5g_150, ptr null]], align 16
@__const._ZL6func_1v.l_2462 = private unnamed_addr constant [10 x i32] [i32 -939128380, i32 -1436823455, i32 -939128380, i32 -10, i32 -10, i32 -939128380, i32 -1436823455, i32 -939128380, i32 -10, i32 -10], align 16
@__const._ZL6func_1v.l_2420 = private unnamed_addr constant %union.U4 { i16 1 }, align 2
@__const._ZL6func_1v.l_2431 = private unnamed_addr constant [3 x [7 x i32]] [[7 x i32] [i32 -1, i32 1, i32 -1, i32 -9, i32 -9, i32 -1, i32 1], [7 x i32] [i32 -1458929281, i32 -2037217862, i32 1, i32 1, i32 -2037217862, i32 -1458929281, i32 -2037217862], [7 x i32] [i32 -1, i32 -9, i32 -9, i32 -1, i32 1, i32 -1, i32 -9]], align 16
@_ZL6g_2423 = internal global ptr @_ZL6g_2424, align 8, !dbg !604
@_ZL5g_653 = internal global ptr @_ZL5g_654, align 8, !dbg !620
@__const._ZL6func_1v.l_2438 = private unnamed_addr constant %union.U4 { i16 -27195 }, align 2
@_ZL6g_2504 = internal global ptr @_ZL6g_2505, align 8, !dbg !626
@__const._ZL6func_1v.l_2541 = private unnamed_addr constant [7 x [8 x i32]] [[8 x i32] [i32 -1626403490, i32 -1626403490, i32 268188372, i32 -822529915, i32 268188372, i32 -1626403490, i32 -1626403490, i32 268188372], [8 x i32] [i32 100689136, i32 268188372, i32 268188372, i32 100689136, i32 -1183618212, i32 100689136, i32 268188372, i32 268188372], [8 x i32] [i32 268188372, i32 -1183618212, i32 -822529915, i32 -822529915, i32 -1183618212, i32 268188372, i32 -1183618212, i32 -822529915], [8 x i32] [i32 100689136, i32 -1183618212, i32 100689136, i32 268188372, i32 268188372, i32 100689136, i32 -1183618212, i32 100689136], [8 x i32] [i32 -1626403490, i32 268188372, i32 -822529915, i32 268188372, i32 -1626403490, i32 -1626403490, i32 268188372, i32 -822529915], [8 x i32] [i32 -1626403490, i32 -1626403490, i32 268188372, i32 -822529915, i32 268188372, i32 -1626403490, i32 268188372, i32 100689136], [8 x i32] [i32 -822529915, i32 100689136, i32 100689136, i32 -822529915, i32 -1626403490, i32 -822529915, i32 100689136, i32 100689136]], align 16
@__const._ZL6func_1v.l_2605 = private unnamed_addr constant %union.U4 { i16 -25579 }, align 2
@_ZL6g_2505 = internal global ptr @_ZL5g_124, align 8, !dbg !630
@__const._ZL6func_1v.l_2552 = private unnamed_addr constant [8 x i32] [i32 1, i32 1323863556, i32 1, i32 1, i32 1323863556, i32 1, i32 1, i32 1323863556], align 16
@__const._ZL6func_1v.l_2573 = private unnamed_addr constant %union.U4 { i16 24992 }, align 2
@constinit = private global [5 x ptr] [ptr @_ZL5g_259, ptr @_ZL4g_91, ptr @_ZL4g_91, ptr @_ZL5g_259, ptr @_ZL4g_91], align 8
@constinit.166 = private global [5 x ptr] [ptr @_ZL4g_91, ptr @_ZL4g_91, ptr @_ZL4g_91, ptr @_ZL4g_91, ptr @_ZL4g_91], align 8
@__const._ZL6func_1v.l_2564 = private unnamed_addr constant [5 x [8 x ptr]] [[8 x ptr] [ptr @_ZL5g_313, ptr @_ZL5g_453, ptr @_ZL5g_453, ptr @_ZL5g_313, ptr @_ZL5g_453, ptr @_ZL5g_453, ptr @_ZL5g_313, ptr @_ZL5g_453], [8 x ptr] [ptr @_ZL5g_313, ptr @_ZL5g_313, ptr null, ptr @_ZL5g_313, ptr @_ZL5g_313, ptr null, ptr @_ZL5g_313, ptr @_ZL5g_313], [8 x ptr] [ptr @_ZL5g_453, ptr @_ZL5g_313, ptr @_ZL5g_453, ptr @_ZL5g_453, ptr @_ZL5g_313, ptr @_ZL5g_453, ptr @_ZL5g_453, ptr @_ZL5g_313], [8 x ptr] [ptr @_ZL5g_313, ptr @_ZL5g_453, ptr @_ZL5g_453, ptr @_ZL5g_313, ptr @_ZL5g_453, ptr @_ZL5g_453, ptr @_ZL5g_313, ptr @_ZL5g_453], [8 x ptr] [ptr @_ZL5g_313, ptr @_ZL5g_313, ptr null, ptr @_ZL5g_313, ptr @_ZL5g_313, ptr null, ptr @_ZL5g_313, ptr @_ZL5g_313]], align 16
@_ZL6g_2186 = internal constant i64 -7849629611674676947, align 8, !dbg !440
@_ZL5g_140 = internal global ptr @_ZL3g_5, align 8, !dbg !632
@_ZL5g_452 = internal constant ptr @_ZL5g_453, align 8, !dbg !634
@_ZL5g_837 = internal global { i8, i8 } { i8 -3, i8 undef }, align 2, !dbg !507
@_ZL4g_66 = internal global %union.U0 { i32 7 }, align 4, !dbg !545
@__const._ZL7func_39i2U0j.l_65 = private unnamed_addr constant [8 x [3 x ptr]] [[3 x ptr] [ptr @_ZL4g_66, ptr @_ZL4g_66, ptr @_ZL4g_66], [3 x ptr] [ptr @_ZL4g_66, ptr @_ZL4g_66, ptr @_ZL4g_66], [3 x ptr] [ptr @_ZL4g_66, ptr @_ZL4g_66, ptr @_ZL4g_66], [3 x ptr] [ptr @_ZL4g_66, ptr @_ZL4g_66, ptr @_ZL4g_66], [3 x ptr] [ptr @_ZL4g_66, ptr @_ZL4g_66, ptr @_ZL4g_66], [3 x ptr] [ptr @_ZL4g_66, ptr @_ZL4g_66, ptr @_ZL4g_66], [3 x ptr] [ptr @_ZL4g_66, ptr @_ZL4g_66, ptr @_ZL4g_66], [3 x ptr] [ptr @_ZL4g_66, ptr @_ZL4g_66, ptr @_ZL4g_66]], align 16
@__const._ZL7func_39i2U0j.l_692 = private unnamed_addr constant [6 x [1 x %union.U4]] [[1 x %union.U4] zeroinitializer, [1 x %union.U4] [%union.U4 { i16 -963 }], [1 x %union.U4] [%union.U4 { i16 -963 }], [1 x %union.U4] zeroinitializer, [1 x %union.U4] [%union.U4 { i16 -963 }], [1 x %union.U4] [%union.U4 { i16 -963 }]], align 2
@__const._ZL7func_39i2U0j.l_694 = private unnamed_addr constant [10 x ptr] [ptr @_ZL3g_5, ptr @_ZL3g_5, ptr getelementptr (i8, ptr @_ZL5g_149, i64 56), ptr @_ZL3g_2, ptr getelementptr (i8, ptr @_ZL5g_149, i64 56), ptr @_ZL3g_5, ptr @_ZL3g_5, ptr getelementptr (i8, ptr @_ZL5g_149, i64 56), ptr @_ZL3g_2, ptr getelementptr (i8, ptr @_ZL5g_149, i64 56)], align 16
@_ZL5g_366 = internal constant ptr @_ZL5g_367, align 8, !dbg !547
@_ZL5g_365 = internal global ptr @_ZL5g_366, align 8, !dbg !555
@__const._ZL7func_532U1.l_659 = private unnamed_addr constant [9 x ptr] [ptr null, ptr null, ptr @_ZL5g_365, ptr null, ptr null, ptr @_ZL5g_365, ptr null, ptr null, ptr @_ZL5g_365], align 16
@_ZL5g_667 = internal global ptr @_ZL5g_668, align 8, !dbg !558
@__const._ZL7func_532U1.l_672 = private unnamed_addr constant [6 x [7 x [4 x ptr]]] [[7 x [4 x ptr]] [[4 x ptr] [ptr @_ZL5g_667, ptr @_ZL5g_667, ptr @_ZL5g_667, ptr @_ZL5g_667], [4 x ptr] [ptr @_ZL5g_667, ptr @_ZL5g_667, ptr @_ZL5g_667, ptr @_ZL5g_667], [4 x ptr] [ptr @_ZL5g_667, ptr @_ZL5g_667, ptr @_ZL5g_667, ptr @_ZL5g_667], [4 x ptr] [ptr @_ZL5g_667, ptr @_ZL5g_667, ptr @_ZL5g_667, ptr @_ZL5g_667], [4 x ptr] [ptr @_ZL5g_667, ptr @_ZL5g_667, ptr @_ZL5g_667, ptr @_ZL5g_667], [4 x ptr] [ptr @_ZL5g_667, ptr @_ZL5g_667, ptr @_ZL5g_667, ptr @_ZL5g_667], [4 x ptr] [ptr @_ZL5g_667, ptr @_ZL5g_667, ptr @_ZL5g_667, ptr @_ZL5g_667]], [7 x [4 x ptr]] [[4 x ptr] [ptr @_ZL5g_667, ptr @_ZL5g_667, ptr @_ZL5g_667, ptr @_ZL5g_667], [4 x ptr] [ptr @_ZL5g_667, ptr @_ZL5g_667, ptr @_ZL5g_667, ptr @_ZL5g_667], [4 x ptr] [ptr @_ZL5g_667, ptr @_ZL5g_667, ptr @_ZL5g_667, ptr @_ZL5g_667], [4 x ptr] [ptr @_ZL5g_667, ptr @_ZL5g_667, ptr @_ZL5g_667, ptr @_ZL5g_667], [4 x ptr] [ptr @_ZL5g_667, ptr @_ZL5g_667, ptr @_ZL5g_667, ptr @_ZL5g_667], [4 x ptr] [ptr @_ZL5g_667, ptr @_ZL5g_667, ptr @_ZL5g_667, ptr @_ZL5g_667], [4 x ptr] [ptr @_ZL5g_667, ptr @_ZL5g_667, ptr @_ZL5g_667, ptr @_ZL5g_667]], [7 x [4 x ptr]] [[4 x ptr] [ptr @_ZL5g_667, ptr @_ZL5g_667, ptr @_ZL5g_667, ptr @_ZL5g_667], [4 x ptr] [ptr @_ZL5g_667, ptr @_ZL5g_667, ptr @_ZL5g_667, ptr @_ZL5g_667], [4 x ptr] [ptr @_ZL5g_667, ptr @_ZL5g_667, ptr @_ZL5g_667, ptr @_ZL5g_667], [4 x ptr] [ptr @_ZL5g_667, ptr @_ZL5g_667, ptr @_ZL5g_667, ptr @_ZL5g_667], [4 x ptr] [ptr @_ZL5g_667, ptr @_ZL5g_667, ptr @_ZL5g_667, ptr @_ZL5g_667], [4 x ptr] [ptr @_ZL5g_667, ptr @_ZL5g_667, ptr @_ZL5g_667, ptr @_ZL5g_667], [4 x ptr] [ptr @_ZL5g_667, ptr @_ZL5g_667, ptr @_ZL5g_667, ptr @_ZL5g_667]], [7 x [4 x ptr]] [[4 x ptr] [ptr @_ZL5g_667, ptr @_ZL5g_667, ptr @_ZL5g_667, ptr @_ZL5g_667], [4 x ptr] [ptr @_ZL5g_667, ptr @_ZL5g_667, ptr @_ZL5g_667, ptr @_ZL5g_667], [4 x ptr] [ptr @_ZL5g_667, ptr @_ZL5g_667, ptr @_ZL5g_667, ptr @_ZL5g_667], [4 x ptr] [ptr @_ZL5g_667, ptr @_ZL5g_667, ptr @_ZL5g_667, ptr @_ZL5g_667], [4 x ptr] [ptr @_ZL5g_667, ptr @_ZL5g_667, ptr @_ZL5g_667, ptr @_ZL5g_667], [4 x ptr] [ptr @_ZL5g_667, ptr @_ZL5g_667, ptr @_ZL5g_667, ptr @_ZL5g_667], [4 x ptr] [ptr @_ZL5g_667, ptr @_ZL5g_667, ptr @_ZL5g_667, ptr @_ZL5g_667]], [7 x [4 x ptr]] [[4 x ptr] [ptr @_ZL5g_667, ptr @_ZL5g_667, ptr @_ZL5g_667, ptr @_ZL5g_667], [4 x ptr] [ptr @_ZL5g_667, ptr @_ZL5g_667, ptr @_ZL5g_667, ptr @_ZL5g_667], [4 x ptr] [ptr @_ZL5g_667, ptr @_ZL5g_667, ptr @_ZL5g_667, ptr @_ZL5g_667], [4 x ptr] [ptr @_ZL5g_667, ptr @_ZL5g_667, ptr @_ZL5g_667, ptr @_ZL5g_667], [4 x ptr] [ptr @_ZL5g_667, ptr @_ZL5g_667, ptr @_ZL5g_667, ptr @_ZL5g_667], [4 x ptr] [ptr @_ZL5g_667, ptr @_ZL5g_667, ptr @_ZL5g_667, ptr @_ZL5g_667], [4 x ptr] [ptr @_ZL5g_667, ptr @_ZL5g_667, ptr @_ZL5g_667, ptr @_ZL5g_667]], [7 x [4 x ptr]] [[4 x ptr] [ptr @_ZL5g_667, ptr @_ZL5g_667, ptr @_ZL5g_667, ptr @_ZL5g_667], [4 x ptr] [ptr @_ZL5g_667, ptr @_ZL5g_667, ptr @_ZL5g_667, ptr @_ZL5g_667], [4 x ptr] [ptr @_ZL5g_667, ptr @_ZL5g_667, ptr @_ZL5g_667, ptr @_ZL5g_667], [4 x ptr] [ptr @_ZL5g_667, ptr @_ZL5g_667, ptr @_ZL5g_667, ptr @_ZL5g_667], [4 x ptr] [ptr @_ZL5g_667, ptr @_ZL5g_667, ptr @_ZL5g_667, ptr @_ZL5g_667], [4 x ptr] [ptr @_ZL5g_667, ptr @_ZL5g_667, ptr @_ZL5g_667, ptr @_ZL5g_667], [4 x ptr] [ptr @_ZL5g_667, ptr @_ZL5g_667, ptr @_ZL5g_667, ptr @_ZL5g_667]]], align 16
@__const._ZL7func_532U1.l_681 = private unnamed_addr constant [4 x i32] [i32 1646807761, i32 1646807761, i32 1646807761, i32 1646807761], align 16
@__const._ZL7func_532U1.l_689 = private unnamed_addr constant [7 x i16] [i16 -6, i16 -24617, i16 -24617, i16 -6, i16 -24617, i16 -24617, i16 -6], align 2
@_ZL5g_652 = internal global ptr @_ZL5g_653, align 8, !dbg !564
@__const._ZL7func_532U1.l_665 = private unnamed_addr constant [1 x [10 x [1 x i64]]] [[10 x [1 x i64]] [[1 x i64] [i64 -8650298959325932638], [1 x i64] [i64 -3], [1 x i64] [i64 -8650298959325932638], [1 x i64] [i64 -3], [1 x i64] [i64 -8650298959325932638], [1 x i64] [i64 -3], [1 x i64] [i64 -8650298959325932638], [1 x i64] [i64 -3], [1 x i64] [i64 -8650298959325932638], [1 x i64] [i64 -3]]], align 16
@constinit.168 = private global [5 x ptr] [ptr @_ZL3g_2, ptr null, ptr null, ptr null, ptr @_ZL3g_2], align 8
@constinit.169 = private global [5 x ptr] [ptr @_ZL3g_2, ptr null, ptr null, ptr null, ptr @_ZL3g_2], align 8
@_ZL5g_666 = internal global [3 x [10 x [2 x ptr]]] [[10 x [2 x ptr]] [[2 x ptr] [ptr @_ZL5g_667, ptr @_ZL5g_667], [2 x ptr] [ptr @_ZL5g_667, ptr @_ZL5g_667], [2 x ptr] [ptr @_ZL5g_667, ptr @_ZL5g_667], [2 x ptr] [ptr @_ZL5g_667, ptr @_ZL5g_667], [2 x ptr] [ptr @_ZL5g_667, ptr @_ZL5g_667], [2 x ptr] [ptr @_ZL5g_667, ptr @_ZL5g_667], [2 x ptr] [ptr @_ZL5g_667, ptr @_ZL5g_667], [2 x ptr] [ptr @_ZL5g_667, ptr @_ZL5g_667], [2 x ptr] [ptr @_ZL5g_667, ptr @_ZL5g_667], [2 x ptr] [ptr @_ZL5g_667, ptr @_ZL5g_667]], [10 x [2 x ptr]] [[2 x ptr] [ptr @_ZL5g_667, ptr @_ZL5g_667], [2 x ptr] [ptr @_ZL5g_667, ptr @_ZL5g_667], [2 x ptr] [ptr @_ZL5g_667, ptr @_ZL5g_667], [2 x ptr] [ptr @_ZL5g_667, ptr @_ZL5g_667], [2 x ptr] [ptr @_ZL5g_667, ptr @_ZL5g_667], [2 x ptr] [ptr @_ZL5g_667, ptr @_ZL5g_667], [2 x ptr] [ptr @_ZL5g_667, ptr @_ZL5g_667], [2 x ptr] [ptr @_ZL5g_667, ptr @_ZL5g_667], [2 x ptr] [ptr @_ZL5g_667, ptr @_ZL5g_667], [2 x ptr] [ptr @_ZL5g_667, ptr @_ZL5g_667]], [10 x [2 x ptr]] [[2 x ptr] [ptr @_ZL5g_667, ptr @_ZL5g_667], [2 x ptr] [ptr @_ZL5g_667, ptr @_ZL5g_667], [2 x ptr] [ptr @_ZL5g_667, ptr @_ZL5g_667], [2 x ptr] [ptr @_ZL5g_667, ptr @_ZL5g_667], [2 x ptr] [ptr @_ZL5g_667, ptr @_ZL5g_667], [2 x ptr] [ptr @_ZL5g_667, ptr @_ZL5g_667], [2 x ptr] [ptr @_ZL5g_667, ptr @_ZL5g_667], [2 x ptr] [ptr @_ZL5g_667, ptr @_ZL5g_667], [2 x ptr] [ptr @_ZL5g_667, ptr @_ZL5g_667], [2 x ptr] [ptr @_ZL5g_667, ptr @_ZL5g_667]]], align 16, !dbg !572
@_ZL5g_668 = internal global ptr @_ZL5g_132, align 8, !dbg !562
@__const._ZL7func_57majs2U2.l_116 = private unnamed_addr constant [8 x [9 x [3 x i32]]] [[9 x [3 x i32]] [[3 x i32] [i32 -846516339, i32 -902765594, i32 -846516339], [3 x i32] [i32 1, i32 -5, i32 113742486], [3 x i32] [i32 -4, i32 1031099311, i32 2136063165], [3 x i32] [i32 -5, i32 -164524034, i32 -3], [3 x i32] [i32 -10, i32 2136063165, i32 -7], [3 x i32] [i32 -5, i32 -872931236, i32 -2], [3 x i32] [i32 -4, i32 980693711, i32 980693711], [3 x i32] [i32 1, i32 -3, i32 -1], [3 x i32] [i32 -846516339, i32 -10, i32 8]], [9 x [3 x i32]] [[3 x i32] [i32 0, i32 -381729268, i32 780415476], [3 x i32] [i32 1, i32 1445354951, i32 1], [3 x i32] [i32 113742486, i32 1, i32 0], [3 x i32] [i32 -10, i32 980693711, i32 -846516339], [3 x i32] [i32 -7, i32 -7, i32 1], [3 x i32] [i32 1, i32 0, i32 -4], [3 x i32] [i32 583556693, i32 -2, i32 -5], [3 x i32] [i32 -4, i32 1, i32 -10], [3 x i32] [i32 -9, i32 583556693, i32 -5]], [9 x [3 x i32]] [[3 x i32] [i32 -7, i32 1445354951, i32 -4], [3 x i32] [i32 1, i32 0, i32 1], [3 x i32] [i32 -1, i32 2136063165, i32 -846516339], [3 x i32] [i32 -381729268, i32 427963075, i32 0], [3 x i32] [i32 2136063165, i32 -10, i32 1], [3 x i32] [i32 -1, i32 0, i32 -3], [3 x i32] [i32 2136063165, i32 8, i32 -6], [3 x i32] [i32 -381729268, i32 -3, i32 -3], [3 x i32] [i32 -1, i32 1, i32 0]], [9 x [3 x i32]] [[3 x i32] [i32 1, i32 -1, i32 -164524034], [3 x i32] [i32 -7, i32 1, i32 6], [3 x i32] [i32 -9, i32 1512356527, i32 -7], [3 x i32] [i32 -4, i32 1, i32 1], [3 x i32] [i32 583556693, i32 -1, i32 -381729268], [3 x i32] [i32 1, i32 1, i32 1], [3 x i32] [i32 -7, i32 -3, i32 113742486], [3 x i32] [i32 -10, i32 8, i32 -902765594], [3 x i32] [i32 113742486, i32 0, i32 583556693]], [9 x [3 x i32]] [[3 x i32] [i32 812717484, i32 -10, i32 -902765594], [3 x i32] [i32 780415476, i32 427963075, i32 113742486], [3 x i32] [i32 1, i32 2136063165, i32 1], [3 x i32] [i32 -872931236, i32 0, i32 -381729268], [3 x i32] [i32 -846516339, i32 1445354951, i32 1], [3 x i32] [i32 0, i32 583556693, i32 -7], [3 x i32] [i32 980693711, i32 1, i32 6], [3 x i32] [i32 0, i32 -2, i32 -164524034], [3 x i32] [i32 -846516339, i32 0, i32 0]], [9 x [3 x i32]] [[3 x i32] [i32 -872931236, i32 -7, i32 -3], [3 x i32] [i32 1, i32 980693711, i32 -6], [3 x i32] [i32 780415476, i32 1, i32 -3], [3 x i32] [i32 812717484, i32 1, i32 1], [3 x i32] [i32 113742486, i32 1, i32 0], [3 x i32] [i32 -10, i32 980693711, i32 -846516339], [3 x i32] [i32 -7, i32 -7, i32 1], [3 x i32] [i32 1, i32 0, i32 -4], [3 x i32] [i32 583556693, i32 -2, i32 -5]], [9 x [3 x i32]] [[3 x i32] [i32 -4, i32 1, i32 -10], [3 x i32] [i32 -9, i32 583556693, i32 -5], [3 x i32] [i32 -7, i32 1445354951, i32 -4], [3 x i32] [i32 1, i32 0, i32 1], [3 x i32] [i32 -1, i32 2136063165, i32 -846516339], [3 x i32] [i32 -381729268, i32 427963075, i32 0], [3 x i32] [i32 2136063165, i32 -10, i32 1], [3 x i32] [i32 -1, i32 0, i32 -3], [3 x i32] [i32 2136063165, i32 8, i32 -6]], [9 x [3 x i32]] [[3 x i32] [i32 -381729268, i32 -3, i32 -3], [3 x i32] [i32 -1, i32 1, i32 0], [3 x i32] [i32 1, i32 -1, i32 -164524034], [3 x i32] [i32 -7, i32 1, i32 6], [3 x i32] [i32 -9, i32 1512356527, i32 -7], [3 x i32] [i32 -4, i32 1, i32 1], [3 x i32] [i32 583556693, i32 -1, i32 -381729268], [3 x i32] [i32 1, i32 1, i32 1], [3 x i32] [i32 -7, i32 -3, i32 113742486]]], align 16
@__const._ZL7func_57majs2U2.l_572 = private unnamed_addr constant %union.U4 { i16 1 }, align 2
@__const._ZL7func_57majs2U2.l_102 = private unnamed_addr constant [5 x [4 x [4 x i64]]] [[4 x [4 x i64]] [[4 x i64] [i64 -7965347547192635289, i64 -1, i64 8687842191135717611, i64 8687842191135717611], [4 x i64] [i64 6304065726303921533, i64 6304065726303921533, i64 8687842191135717611, i64 0], [4 x i64] [i64 -7965347547192635289, i64 1, i64 6793063423703358781, i64 -1], [4 x i64] [i64 6, i64 6793063423703358781, i64 0, i64 6793063423703358781]], [4 x [4 x i64]] [[4 x i64] [i64 0, i64 6793063423703358781, i64 6, i64 -1], [4 x i64] [i64 6793063423703358781, i64 1, i64 -7965347547192635289, i64 0], [4 x i64] [i64 8687842191135717611, i64 6304065726303921533, i64 6304065726303921533, i64 8687842191135717611], [4 x i64] [i64 8687842191135717611, i64 -1, i64 -7965347547192635289, i64 -2018131615923420070]], [4 x [4 x i64]] [[4 x i64] [i64 6793063423703358781, i64 8687842191135717611, i64 6, i64 4625240128305499996], [4 x i64] [i64 0, i64 -6949724734613251999, i64 0, i64 4625240128305499996], [4 x i64] [i64 6, i64 8687842191135717611, i64 6793063423703358781, i64 -2018131615923420070], [4 x i64] [i64 -7965347547192635289, i64 -1, i64 8687842191135717611, i64 8687842191135717611]], [4 x [4 x i64]] [[4 x i64] [i64 6304065726303921533, i64 6304065726303921533, i64 8687842191135717611, i64 0], [4 x i64] [i64 -7965347547192635289, i64 1, i64 6793063423703358781, i64 -1], [4 x i64] [i64 6, i64 6793063423703358781, i64 0, i64 6793063423703358781], [4 x i64] [i64 0, i64 6793063423703358781, i64 6, i64 -1]], [4 x [4 x i64]] [[4 x i64] [i64 6793063423703358781, i64 1, i64 -7965347547192635289, i64 0], [4 x i64] [i64 8687842191135717611, i64 6304065726303921533, i64 6304065726303921533, i64 8687842191135717611], [4 x i64] [i64 8687842191135717611, i64 -1, i64 -7965347547192635289, i64 -2018131615923420070], [4 x i64] [i64 6793063423703358781, i64 8687842191135717611, i64 6, i64 4625240128305499996]]], align 16
@__const._ZL7func_57majs2U2.l_99 = private unnamed_addr constant %union.U3 { i16 -5 }, align 2
@__const._ZL7func_57majs2U2.l_104 = private unnamed_addr constant [5 x ptr] [ptr @_ZL4g_91, ptr @_ZL4g_91, ptr @_ZL4g_91, ptr @_ZL4g_91, ptr @_ZL4g_91], align 16
@_ZL5g_294 = internal constant i32 -275451831, align 4, !dbg !147
@__const._ZL7func_57majs2U2.l_545 = private unnamed_addr constant %union.U3 { i16 1 }, align 2
@__const._ZL7func_57majs2U2.l_571 = private unnamed_addr constant %union.U4 { i16 4 }, align 2
@_ZL6g_2365 = internal global ptr null, align 8, !dbg !591
@_ZL6g_1682 = internal global ptr @_ZL5g_448, align 8, !dbg !602
@_ZL6g_2424 = internal global ptr @_ZL6g_2425, align 8, !dbg !611
@_ZL6g_2425 = internal constant ptr @_ZL6g_2426, align 8, !dbg !613
@_ZL6g_2426 = internal constant [1 x ptr] [ptr getelementptr (i8, ptr @_ZL6g_2427, i64 14)], align 8, !dbg !615
@_ZL5g_654 = internal global ptr @_ZL5g_655, align 8, !dbg !622
@_ZL5g_655 = internal global ptr null, align 8, !dbg !624
@.str.170 = private unnamed_addr constant [36 x i8] c"...checksum after hashing %s : %lX\0A\00", align 1, !dbg !638
@_ZL5g_445 = internal constant { i8, i8 } { i8 -1, i8 undef }, align 2, !dbg !682
@_ZL6g_1391 = internal global { i8, i8 } { i8 -94, i8 undef }, align 2, !dbg !710
@.str.173 = private unnamed_addr constant [15 x i8] c"checksum = %X\0A\00", align 1, !dbg !896

; Function Attrs: mustprogress noinline norecurse nounwind optnone sspstrong uwtable
define dso_local noundef i32 @main(i32 noundef %0, ptr noundef %1) #0 !dbg !1266 {
  %3 = alloca i32, align 4
  %4 = alloca i32, align 4
  %5 = alloca ptr, align 8
  %6 = alloca i32, align 4
  %7 = alloca i32, align 4
  %8 = alloca i32, align 4
  %9 = alloca i32, align 4
  %10 = alloca %union.U4, align 2
  store i32 0, ptr %3, align 4
  store i32 %0, ptr %4, align 4
  call void @llvm.dbg.declare(metadata ptr %4, metadata !1272, metadata !DIExpression()), !dbg !1273
  store ptr %1, ptr %5, align 8
  call void @llvm.dbg.declare(metadata ptr %5, metadata !1274, metadata !DIExpression()), !dbg !1275
  call void @llvm.dbg.declare(metadata ptr %6, metadata !1276, metadata !DIExpression()), !dbg !1277
  call void @llvm.dbg.declare(metadata ptr %7, metadata !1278, metadata !DIExpression()), !dbg !1279
  call void @llvm.dbg.declare(metadata ptr %8, metadata !1280, metadata !DIExpression()), !dbg !1281
  call void @llvm.dbg.declare(metadata ptr %9, metadata !1282, metadata !DIExpression()), !dbg !1283
  store i32 1, ptr %9, align 4, !dbg !1283
  %11 = load i32, ptr %4, align 4, !dbg !1284
  %12 = icmp eq i32 %11, 2, !dbg !1286
  br i1 %12, label %13, label %20, !dbg !1287

13:                                               ; preds = %2
  %14 = load ptr, ptr %5, align 8, !dbg !1288
  %15 = getelementptr inbounds ptr, ptr %14, i64 1, !dbg !1288
  %16 = load ptr, ptr %15, align 8, !dbg !1288
  %17 = call i32 @strcmp(ptr noundef %16, ptr noundef @.str) #7, !dbg !1289
  %18 = icmp eq i32 %17, 0, !dbg !1290
  br i1 %18, label %19, label %20, !dbg !1291

19:                                               ; preds = %13
  store i32 1, ptr %9, align 4, !dbg !1292
  br label %20, !dbg !1293

20:                                               ; preds = %19, %13, %2
  call void @_ZL19platform_main_beginv(), !dbg !1294
  call void @_ZL12crc32_gentabv(), !dbg !1295
  %21 = load i16, ptr @_ZL5g_106, align 2, !dbg !1296
  %22 = zext i16 %21 to i32, !dbg !1296
  %23 = load i8, ptr @_ZL4g_91, align 1, !dbg !1297
  %24 = zext i8 %23 to i32, !dbg !1297
  %25 = load i32, ptr @_ZL3g_5, align 4, !dbg !1298
  %26 = load i32, ptr @_ZL3g_2, align 4, !dbg !1299
  %27 = load i32, ptr @_ZL13crc32_context, align 4, !dbg !1300
  %28 = call i32 (ptr, ...) @printf(ptr noundef @.str.1, i32 noundef %22, i32 noundef %24, i32 noundef %25, i32 noundef %26, i32 noundef %27), !dbg !1301
  call void @llvm.dbg.declare(metadata ptr %10, metadata !1302, metadata !DIExpression()), !dbg !1303
  %29 = call i16 @_ZL6func_1v(), !dbg !1304
  %30 = getelementptr inbounds %union.U4, ptr %10, i32 0, i32 0, !dbg !1304
  store i16 %29, ptr %30, align 2, !dbg !1304
  %31 = load i16, ptr @_ZL5g_106, align 2, !dbg !1305
  %32 = zext i16 %31 to i32, !dbg !1305
  %33 = load i8, ptr @_ZL4g_91, align 1, !dbg !1306
  %34 = zext i8 %33 to i32, !dbg !1306
  %35 = load i32, ptr @_ZL3g_5, align 4, !dbg !1307
  %36 = load i32, ptr @_ZL3g_2, align 4, !dbg !1308
  %37 = load i32, ptr @_ZL13crc32_context, align 4, !dbg !1309
  %38 = call i32 (ptr, ...) @printf(ptr noundef @.str.1, i32 noundef %32, i32 noundef %34, i32 noundef %35, i32 noundef %36, i32 noundef %37), !dbg !1310
  %39 = load i16, ptr %10, align 2, !dbg !1311
  %40 = sext i16 %39 to i32, !dbg !1312
  %41 = call i32 (ptr, ...) @printf(ptr noundef @.str.2, i32 noundef %40), !dbg !1313
  %42 = load i16, ptr @_ZL5g_106, align 2, !dbg !1314
  %43 = zext i16 %42 to i32, !dbg !1314
  %44 = load i8, ptr @_ZL4g_91, align 1, !dbg !1315
  %45 = zext i8 %44 to i32, !dbg !1315
  %46 = load i32, ptr @_ZL3g_5, align 4, !dbg !1316
  %47 = load i32, ptr @_ZL3g_2, align 4, !dbg !1317
  %48 = load i32, ptr @_ZL13crc32_context, align 4, !dbg !1318
  %49 = call i32 (ptr, ...) @printf(ptr noundef @.str.1, i32 noundef %43, i32 noundef %45, i32 noundef %46, i32 noundef %47, i32 noundef %48), !dbg !1319
  %50 = load i32, ptr @_ZL3g_2, align 4, !dbg !1320
  %51 = sext i32 %50 to i64, !dbg !1320
  %52 = load i32, ptr %9, align 4, !dbg !1321
  call void @_ZL15transparent_crcmPci(i64 noundef %51, ptr noundef @.str.3, i32 noundef %52), !dbg !1322
  %53 = load i16, ptr @_ZL5g_106, align 2, !dbg !1323
  %54 = zext i16 %53 to i32, !dbg !1323
  %55 = load i8, ptr @_ZL4g_91, align 1, !dbg !1324
  %56 = zext i8 %55 to i32, !dbg !1324
  %57 = load i32, ptr @_ZL3g_5, align 4, !dbg !1325
  %58 = load i32, ptr @_ZL3g_2, align 4, !dbg !1326
  %59 = load i32, ptr @_ZL13crc32_context, align 4, !dbg !1327
  %60 = call i32 (ptr, ...) @printf(ptr noundef @.str.1, i32 noundef %54, i32 noundef %56, i32 noundef %57, i32 noundef %58, i32 noundef %59), !dbg !1328
  %61 = load i32, ptr @_ZL3g_5, align 4, !dbg !1329
  %62 = sext i32 %61 to i64, !dbg !1329
  %63 = load i32, ptr %9, align 4, !dbg !1330
  call void @_ZL15transparent_crcmPci(i64 noundef %62, ptr noundef @.str.4, i32 noundef %63), !dbg !1331
  %64 = load i16, ptr @_ZL5g_106, align 2, !dbg !1332
  %65 = zext i16 %64 to i32, !dbg !1332
  %66 = load i8, ptr @_ZL4g_91, align 1, !dbg !1333
  %67 = zext i8 %66 to i32, !dbg !1333
  %68 = load i32, ptr @_ZL3g_5, align 4, !dbg !1334
  %69 = load i32, ptr @_ZL3g_2, align 4, !dbg !1335
  %70 = load i32, ptr @_ZL13crc32_context, align 4, !dbg !1336
  %71 = call i32 (ptr, ...) @printf(ptr noundef @.str.1, i32 noundef %65, i32 noundef %67, i32 noundef %68, i32 noundef %69, i32 noundef %70), !dbg !1337
  %72 = load i8, ptr @_ZL4g_91, align 1, !dbg !1338
  %73 = zext i8 %72 to i64, !dbg !1338
  %74 = load i32, ptr %9, align 4, !dbg !1339
  call void @_ZL15transparent_crcmPci(i64 noundef %73, ptr noundef @.str.5, i32 noundef %74), !dbg !1340
  %75 = load i16, ptr @_ZL5g_106, align 2, !dbg !1341
  %76 = zext i16 %75 to i32, !dbg !1341
  %77 = load i8, ptr @_ZL4g_91, align 1, !dbg !1342
  %78 = zext i8 %77 to i32, !dbg !1342
  %79 = load i32, ptr @_ZL3g_5, align 4, !dbg !1343
  %80 = load i32, ptr @_ZL3g_2, align 4, !dbg !1344
  %81 = load i32, ptr @_ZL13crc32_context, align 4, !dbg !1345
  %82 = call i32 (ptr, ...) @printf(ptr noundef @.str.1, i32 noundef %76, i32 noundef %78, i32 noundef %79, i32 noundef %80, i32 noundef %81), !dbg !1346
  %83 = load i16, ptr @_ZL5g_106, align 2, !dbg !1347
  %84 = zext i16 %83 to i64, !dbg !1347
  %85 = load i32, ptr %9, align 4, !dbg !1348
  call void @_ZL15transparent_crcmPci(i64 noundef %84, ptr noundef @.str.6, i32 noundef %85), !dbg !1349
  %86 = load i16, ptr @_ZL5g_106, align 2, !dbg !1350
  %87 = zext i16 %86 to i32, !dbg !1350
  %88 = load i8, ptr @_ZL4g_91, align 1, !dbg !1351
  %89 = zext i8 %88 to i32, !dbg !1351
  %90 = load i32, ptr @_ZL3g_5, align 4, !dbg !1352
  %91 = load i32, ptr @_ZL3g_2, align 4, !dbg !1353
  %92 = load i32, ptr @_ZL13crc32_context, align 4, !dbg !1354
  %93 = call i32 (ptr, ...) @printf(ptr noundef @.str.1, i32 noundef %87, i32 noundef %89, i32 noundef %90, i32 noundef %91, i32 noundef %92), !dbg !1355
  %94 = load i32, ptr @_ZL5g_107, align 4, !dbg !1356
  %95 = zext i32 %94 to i64, !dbg !1356
  %96 = load i32, ptr %9, align 4, !dbg !1357
  call void @_ZL15transparent_crcmPci(i64 noundef %95, ptr noundef @.str.7, i32 noundef %96), !dbg !1358
  %97 = load i16, ptr @_ZL5g_117, align 2, !dbg !1359
  %98 = sext i16 %97 to i64, !dbg !1359
  %99 = load i32, ptr %9, align 4, !dbg !1360
  call void @_ZL15transparent_crcmPci(i64 noundef %98, ptr noundef @.str.8, i32 noundef %99), !dbg !1361
  %100 = load volatile i32, ptr @_ZL5g_118, align 4, !dbg !1362
  %101 = sext i32 %100 to i64, !dbg !1362
  %102 = load i32, ptr %9, align 4, !dbg !1363
  call void @_ZL15transparent_crcmPci(i64 noundef %101, ptr noundef @.str.9, i32 noundef %102), !dbg !1364
  %103 = load i32, ptr @_ZL5g_119, align 4, !dbg !1365
  %104 = sext i32 %103 to i64, !dbg !1365
  %105 = load i32, ptr %9, align 4, !dbg !1366
  call void @_ZL15transparent_crcmPci(i64 noundef %104, ptr noundef @.str.10, i32 noundef %105), !dbg !1367
  %106 = load i16, ptr @_ZL5g_120, align 2, !dbg !1368
  %107 = sext i16 %106 to i64, !dbg !1368
  %108 = load i32, ptr %9, align 4, !dbg !1369
  call void @_ZL15transparent_crcmPci(i64 noundef %107, ptr noundef @.str.11, i32 noundef %108), !dbg !1370
  %109 = load i16, ptr @_ZL5g_124, align 2, !dbg !1371
  %110 = zext i16 %109 to i64, !dbg !1371
  %111 = load i32, ptr %9, align 4, !dbg !1372
  call void @_ZL15transparent_crcmPci(i64 noundef %110, ptr noundef @.str.12, i32 noundef %111), !dbg !1373
  %112 = load i16, ptr @_ZL5g_132, align 2, !dbg !1374
  %113 = sext i16 %112 to i64, !dbg !1375
  %114 = load i32, ptr %9, align 4, !dbg !1376
  call void @_ZL15transparent_crcmPci(i64 noundef %113, ptr noundef @.str.13, i32 noundef %114), !dbg !1377
  %115 = load i32, ptr %9, align 4, !dbg !1378
  call void @_ZL15transparent_crcmPci(i64 noundef 1, ptr noundef @.str.14, i32 noundef %115), !dbg !1379
  %116 = load i8, ptr @_ZL5g_203, align 1, !dbg !1380
  %117 = sext i8 %116 to i64, !dbg !1380
  %118 = load i32, ptr %9, align 4, !dbg !1381
  call void @_ZL15transparent_crcmPci(i64 noundef %117, ptr noundef @.str.15, i32 noundef %118), !dbg !1382
  store i32 0, ptr %6, align 4, !dbg !1383
  br label %119, !dbg !1385

119:                                              ; preds = %135, %20
  %120 = load i32, ptr %6, align 4, !dbg !1386
  %121 = icmp slt i32 %120, 5, !dbg !1388
  br i1 %121, label %122, label %138, !dbg !1389

122:                                              ; preds = %119
  %123 = load i32, ptr %6, align 4, !dbg !1390
  %124 = sext i32 %123 to i64, !dbg !1392
  %125 = getelementptr inbounds [5 x i8], ptr @_ZL5g_232, i64 0, i64 %124, !dbg !1392
  %126 = load i8, ptr %125, align 1, !dbg !1392
  %127 = sext i8 %126 to i64, !dbg !1392
  %128 = load i32, ptr %9, align 4, !dbg !1393
  call void @_ZL15transparent_crcmPci(i64 noundef %127, ptr noundef @.str.16, i32 noundef %128), !dbg !1394
  %129 = load i32, ptr %9, align 4, !dbg !1395
  %130 = icmp ne i32 %129, 0, !dbg !1395
  br i1 %130, label %131, label %134, !dbg !1397

131:                                              ; preds = %122
  %132 = load i32, ptr %6, align 4, !dbg !1398
  %133 = call i32 (ptr, ...) @printf(ptr noundef @.str.17, i32 noundef %132), !dbg !1399
  br label %134, !dbg !1399

134:                                              ; preds = %131, %122
  br label %135, !dbg !1400

135:                                              ; preds = %134
  %136 = load i32, ptr %6, align 4, !dbg !1401
  %137 = add nsw i32 %136, 1, !dbg !1401
  store i32 %137, ptr %6, align 4, !dbg !1401
  br label %119, !dbg !1402, !llvm.loop !1403

138:                                              ; preds = %119
  %139 = load i64, ptr @_ZL5g_245, align 8, !dbg !1406
  %140 = load i32, ptr %9, align 4, !dbg !1407
  call void @_ZL15transparent_crcmPci(i64 noundef %139, ptr noundef @.str.18, i32 noundef %140), !dbg !1408
  %141 = load volatile i32, ptr @_ZL5g_246, align 4, !dbg !1409
  %142 = sext i32 %141 to i64, !dbg !1409
  %143 = load i32, ptr %9, align 4, !dbg !1410
  call void @_ZL15transparent_crcmPci(i64 noundef %142, ptr noundef @.str.19, i32 noundef %143), !dbg !1411
  %144 = load volatile i16, ptr @_ZL5g_247, align 2, !dbg !1412
  %145 = zext i16 %144 to i64, !dbg !1412
  %146 = load i32, ptr %9, align 4, !dbg !1413
  call void @_ZL15transparent_crcmPci(i64 noundef %145, ptr noundef @.str.20, i32 noundef %146), !dbg !1414
  %147 = load i8, ptr @_ZL5g_259, align 1, !dbg !1415
  %148 = zext i8 %147 to i64, !dbg !1415
  %149 = load i32, ptr %9, align 4, !dbg !1416
  call void @_ZL15transparent_crcmPci(i64 noundef %148, ptr noundef @.str.21, i32 noundef %149), !dbg !1417
  %150 = load volatile i16, ptr @_ZL5g_265, align 2, !dbg !1418
  %151 = zext i16 %150 to i64, !dbg !1418
  %152 = load i32, ptr %9, align 4, !dbg !1419
  call void @_ZL15transparent_crcmPci(i64 noundef %151, ptr noundef @.str.22, i32 noundef %152), !dbg !1420
  %153 = load i32, ptr %9, align 4, !dbg !1421
  call void @_ZL15transparent_crcmPci(i64 noundef -275451831, ptr noundef @.str.23, i32 noundef %153), !dbg !1422
  %154 = load i64, ptr @_ZL5g_338, align 8, !dbg !1423
  %155 = load i32, ptr %9, align 4, !dbg !1424
  call void @_ZL15transparent_crcmPci(i64 noundef %154, ptr noundef @.str.24, i32 noundef %155), !dbg !1425
  %156 = load i32, ptr %9, align 4, !dbg !1426
  call void @_ZL15transparent_crcmPci(i64 noundef 12039, ptr noundef @.str.25, i32 noundef %156), !dbg !1427
  store i32 0, ptr %6, align 4, !dbg !1428
  br label %157, !dbg !1430

157:                                              ; preds = %177, %138
  %158 = load i32, ptr %6, align 4, !dbg !1431
  %159 = icmp slt i32 %158, 6, !dbg !1433
  br i1 %159, label %160, label %180, !dbg !1434

160:                                              ; preds = %157
  %161 = load i32, ptr %9, align 4, !dbg !1435
  %162 = icmp ne i32 %161, 0, !dbg !1435
  br i1 %162, label %163, label %170, !dbg !1438

163:                                              ; preds = %160
  %164 = load i32, ptr %6, align 4, !dbg !1439
  %165 = load i32, ptr %6, align 4, !dbg !1440
  %166 = sext i32 %165 to i64, !dbg !1441
  %167 = getelementptr inbounds [6 x i32], ptr @_ZL5g_422, i64 0, i64 %166, !dbg !1441
  %168 = load i32, ptr %167, align 4, !dbg !1441
  %169 = call i32 (ptr, ...) @printf(ptr noundef @.str.26, i32 noundef %164, i32 noundef %168), !dbg !1442
  br label %170, !dbg !1442

170:                                              ; preds = %163, %160
  %171 = load i32, ptr %6, align 4, !dbg !1443
  %172 = sext i32 %171 to i64, !dbg !1444
  %173 = getelementptr inbounds [6 x i32], ptr @_ZL5g_422, i64 0, i64 %172, !dbg !1444
  %174 = load i32, ptr %173, align 4, !dbg !1444
  %175 = sext i32 %174 to i64, !dbg !1444
  %176 = load i32, ptr %9, align 4, !dbg !1445
  call void @_ZL15transparent_crcmPci(i64 noundef %175, ptr noundef @.str.27, i32 noundef %176), !dbg !1446
  br label %177, !dbg !1447

177:                                              ; preds = %170
  %178 = load i32, ptr %6, align 4, !dbg !1448
  %179 = add nsw i32 %178, 1, !dbg !1448
  store i32 %179, ptr %6, align 4, !dbg !1448
  br label %157, !dbg !1449, !llvm.loop !1450

180:                                              ; preds = %157
  %181 = load i32, ptr %9, align 4, !dbg !1452
  call void @_ZL15transparent_crcmPci(i64 noundef -1, ptr noundef @.str.28, i32 noundef %181), !dbg !1453
  store i32 0, ptr %6, align 4, !dbg !1454
  br label %182, !dbg !1456

182:                                              ; preds = %198, %180
  %183 = load i32, ptr %6, align 4, !dbg !1457
  %184 = icmp slt i32 %183, 10, !dbg !1459
  br i1 %184, label %185, label %201, !dbg !1460

185:                                              ; preds = %182
  %186 = load i32, ptr %6, align 4, !dbg !1461
  %187 = sext i32 %186 to i64, !dbg !1463
  %188 = getelementptr inbounds [10 x i32], ptr @_ZL5g_449, i64 0, i64 %187, !dbg !1463
  %189 = load i32, ptr %188, align 4, !dbg !1463
  %190 = zext i32 %189 to i64, !dbg !1463
  %191 = load i32, ptr %9, align 4, !dbg !1464
  call void @_ZL15transparent_crcmPci(i64 noundef %190, ptr noundef @.str.29, i32 noundef %191), !dbg !1465
  %192 = load i32, ptr %9, align 4, !dbg !1466
  %193 = icmp ne i32 %192, 0, !dbg !1466
  br i1 %193, label %194, label %197, !dbg !1468

194:                                              ; preds = %185
  %195 = load i32, ptr %6, align 4, !dbg !1469
  %196 = call i32 (ptr, ...) @printf(ptr noundef @.str.17, i32 noundef %195), !dbg !1470
  br label %197, !dbg !1470

197:                                              ; preds = %194, %185
  br label %198, !dbg !1471

198:                                              ; preds = %197
  %199 = load i32, ptr %6, align 4, !dbg !1472
  %200 = add nsw i32 %199, 1, !dbg !1472
  store i32 %200, ptr %6, align 4, !dbg !1472
  br label %182, !dbg !1473, !llvm.loop !1474

201:                                              ; preds = %182
  %202 = load i16, ptr @_ZL5g_453, align 2, !dbg !1476
  %203 = zext i16 %202 to i64, !dbg !1477
  %204 = load i32, ptr %9, align 4, !dbg !1478
  call void @_ZL15transparent_crcmPci(i64 noundef %203, ptr noundef @.str.30, i32 noundef %204), !dbg !1479
  %205 = load i16, ptr @_ZL5g_455, align 2, !dbg !1480
  %206 = zext i16 %205 to i64, !dbg !1481
  %207 = load i32, ptr %9, align 4, !dbg !1482
  call void @_ZL15transparent_crcmPci(i64 noundef %206, ptr noundef @.str.31, i32 noundef %207), !dbg !1483
  %208 = load i8, ptr @_ZL5g_648, align 1, !dbg !1484
  %209 = sext i8 %208 to i64, !dbg !1484
  %210 = load i32, ptr %9, align 4, !dbg !1485
  call void @_ZL15transparent_crcmPci(i64 noundef %209, ptr noundef @.str.32, i32 noundef %210), !dbg !1486
  %211 = load i16, ptr @_ZL5g_651, align 2, !dbg !1487
  %212 = zext i16 %211 to i64, !dbg !1487
  %213 = load i32, ptr %9, align 4, !dbg !1488
  call void @_ZL15transparent_crcmPci(i64 noundef %212, ptr noundef @.str.33, i32 noundef %213), !dbg !1489
  %214 = load i32, ptr @_ZL5g_693, align 4, !dbg !1490
  %215 = sext i32 %214 to i64, !dbg !1491
  %216 = load i32, ptr %9, align 4, !dbg !1492
  call void @_ZL15transparent_crcmPci(i64 noundef %215, ptr noundef @.str.34, i32 noundef %216), !dbg !1493
  %217 = load i32, ptr @_ZL5g_695, align 4, !dbg !1494
  %218 = zext i32 %217 to i64, !dbg !1494
  %219 = load i32, ptr %9, align 4, !dbg !1495
  call void @_ZL15transparent_crcmPci(i64 noundef %218, ptr noundef @.str.35, i32 noundef %219), !dbg !1496
  %220 = load volatile i64, ptr @_ZL5g_862, align 8, !dbg !1497
  %221 = load i32, ptr %9, align 4, !dbg !1498
  call void @_ZL15transparent_crcmPci(i64 noundef %220, ptr noundef @.str.36, i32 noundef %221), !dbg !1499
  %222 = load volatile i16, ptr @_ZL6g_1175, align 2, !dbg !1500
  %223 = zext i16 %222 to i64, !dbg !1500
  %224 = load i32, ptr %9, align 4, !dbg !1501
  call void @_ZL15transparent_crcmPci(i64 noundef %223, ptr noundef @.str.37, i32 noundef %224), !dbg !1502
  %225 = load i64, ptr @_ZL6g_1221, align 8, !dbg !1503
  %226 = load i32, ptr %9, align 4, !dbg !1504
  call void @_ZL15transparent_crcmPci(i64 noundef %225, ptr noundef @.str.38, i32 noundef %226), !dbg !1505
  %227 = load i8, ptr @_ZL6g_1335, align 1, !dbg !1506
  %228 = sext i8 %227 to i64, !dbg !1506
  %229 = load i32, ptr %9, align 4, !dbg !1507
  call void @_ZL15transparent_crcmPci(i64 noundef %228, ptr noundef @.str.39, i32 noundef %229), !dbg !1508
  %230 = load volatile i32, ptr @_ZL6g_1357, align 4, !dbg !1509
  %231 = sext i32 %230 to i64, !dbg !1510
  %232 = load i32, ptr %9, align 4, !dbg !1511
  call void @_ZL15transparent_crcmPci(i64 noundef %231, ptr noundef @.str.40, i32 noundef %232), !dbg !1512
  %233 = load volatile i8, ptr @_ZL6g_1391, align 2, !dbg !1513
  %234 = sext i8 %233 to i64, !dbg !1514
  %235 = load i32, ptr %9, align 4, !dbg !1515
  call void @_ZL15transparent_crcmPci(i64 noundef %234, ptr noundef @.str.41, i32 noundef %235), !dbg !1516
  %236 = load i64, ptr @_ZL6g_1487, align 8, !dbg !1517
  %237 = load i32, ptr %9, align 4, !dbg !1518
  call void @_ZL15transparent_crcmPci(i64 noundef %236, ptr noundef @.str.42, i32 noundef %237), !dbg !1519
  %238 = load i32, ptr @_ZL6g_1499, align 4, !dbg !1520
  %239 = sext i32 %238 to i64, !dbg !1520
  %240 = load i32, ptr %9, align 4, !dbg !1521
  call void @_ZL15transparent_crcmPci(i64 noundef %239, ptr noundef @.str.43, i32 noundef %240), !dbg !1522
  store i32 0, ptr %6, align 4, !dbg !1523
  br label %241, !dbg !1525

241:                                              ; preds = %281, %201
  %242 = load i32, ptr %6, align 4, !dbg !1526
  %243 = icmp slt i32 %242, 10, !dbg !1528
  br i1 %243, label %244, label %284, !dbg !1529

244:                                              ; preds = %241
  store i32 0, ptr %7, align 4, !dbg !1530
  br label %245, !dbg !1533

245:                                              ; preds = %277, %244
  %246 = load i32, ptr %7, align 4, !dbg !1534
  %247 = icmp slt i32 %246, 8, !dbg !1536
  br i1 %247, label %248, label %280, !dbg !1537

248:                                              ; preds = %245
  store i32 0, ptr %8, align 4, !dbg !1538
  br label %249, !dbg !1541

249:                                              ; preds = %273, %248
  %250 = load i32, ptr %8, align 4, !dbg !1542
  %251 = icmp slt i32 %250, 2, !dbg !1544
  br i1 %251, label %252, label %276, !dbg !1545

252:                                              ; preds = %249
  %253 = load i32, ptr %6, align 4, !dbg !1546
  %254 = sext i32 %253 to i64, !dbg !1548
  %255 = getelementptr inbounds [10 x [8 x [2 x i32]]], ptr @_ZL6g_1554, i64 0, i64 %254, !dbg !1548
  %256 = load i32, ptr %7, align 4, !dbg !1549
  %257 = sext i32 %256 to i64, !dbg !1548
  %258 = getelementptr inbounds [8 x [2 x i32]], ptr %255, i64 0, i64 %257, !dbg !1548
  %259 = load i32, ptr %8, align 4, !dbg !1550
  %260 = sext i32 %259 to i64, !dbg !1548
  %261 = getelementptr inbounds [2 x i32], ptr %258, i64 0, i64 %260, !dbg !1548
  %262 = load i32, ptr %261, align 4, !dbg !1548
  %263 = zext i32 %262 to i64, !dbg !1548
  %264 = load i32, ptr %9, align 4, !dbg !1551
  call void @_ZL15transparent_crcmPci(i64 noundef %263, ptr noundef @.str.44, i32 noundef %264), !dbg !1552
  %265 = load i32, ptr %9, align 4, !dbg !1553
  %266 = icmp ne i32 %265, 0, !dbg !1553
  br i1 %266, label %267, label %272, !dbg !1555

267:                                              ; preds = %252
  %268 = load i32, ptr %6, align 4, !dbg !1556
  %269 = load i32, ptr %7, align 4, !dbg !1557
  %270 = load i32, ptr %8, align 4, !dbg !1558
  %271 = call i32 (ptr, ...) @printf(ptr noundef @.str.45, i32 noundef %268, i32 noundef %269, i32 noundef %270), !dbg !1559
  br label %272, !dbg !1559

272:                                              ; preds = %267, %252
  br label %273, !dbg !1560

273:                                              ; preds = %272
  %274 = load i32, ptr %8, align 4, !dbg !1561
  %275 = add nsw i32 %274, 1, !dbg !1561
  store i32 %275, ptr %8, align 4, !dbg !1561
  br label %249, !dbg !1562, !llvm.loop !1563

276:                                              ; preds = %249
  br label %277, !dbg !1565

277:                                              ; preds = %276
  %278 = load i32, ptr %7, align 4, !dbg !1566
  %279 = add nsw i32 %278, 1, !dbg !1566
  store i32 %279, ptr %7, align 4, !dbg !1566
  br label %245, !dbg !1567, !llvm.loop !1568

280:                                              ; preds = %245
  br label %281, !dbg !1570

281:                                              ; preds = %280
  %282 = load i32, ptr %6, align 4, !dbg !1571
  %283 = add nsw i32 %282, 1, !dbg !1571
  store i32 %283, ptr %6, align 4, !dbg !1571
  br label %241, !dbg !1572, !llvm.loop !1573

284:                                              ; preds = %241
  %285 = load i32, ptr %9, align 4, !dbg !1575
  call void @_ZL15transparent_crcmPci(i64 noundef 5215, ptr noundef @.str.46, i32 noundef %285), !dbg !1576
  %286 = load i32, ptr %9, align 4, !dbg !1577
  call void @_ZL15transparent_crcmPci(i64 noundef 2, ptr noundef @.str.47, i32 noundef %286), !dbg !1578
  store i32 0, ptr %6, align 4, !dbg !1579
  br label %287, !dbg !1581

287:                                              ; preds = %303, %284
  %288 = load i32, ptr %6, align 4, !dbg !1582
  %289 = icmp slt i32 %288, 8, !dbg !1584
  br i1 %289, label %290, label %306, !dbg !1585

290:                                              ; preds = %287
  %291 = load i32, ptr %6, align 4, !dbg !1586
  %292 = sext i32 %291 to i64, !dbg !1588
  %293 = getelementptr inbounds [8 x %union.U3], ptr @_ZL6g_1717, i64 0, i64 %292, !dbg !1588
  %294 = load i16, ptr %293, align 2, !dbg !1589
  %295 = sext i16 %294 to i64, !dbg !1588
  %296 = load i32, ptr %9, align 4, !dbg !1590
  call void @_ZL15transparent_crcmPci(i64 noundef %295, ptr noundef @.str.48, i32 noundef %296), !dbg !1591
  %297 = load i32, ptr %9, align 4, !dbg !1592
  %298 = icmp ne i32 %297, 0, !dbg !1592
  br i1 %298, label %299, label %302, !dbg !1594

299:                                              ; preds = %290
  %300 = load i32, ptr %6, align 4, !dbg !1595
  %301 = call i32 (ptr, ...) @printf(ptr noundef @.str.17, i32 noundef %300), !dbg !1596
  br label %302, !dbg !1596

302:                                              ; preds = %299, %290
  br label %303, !dbg !1597

303:                                              ; preds = %302
  %304 = load i32, ptr %6, align 4, !dbg !1598
  %305 = add nsw i32 %304, 1, !dbg !1598
  store i32 %305, ptr %6, align 4, !dbg !1598
  br label %287, !dbg !1599, !llvm.loop !1600

306:                                              ; preds = %287
  %307 = load i32, ptr @_ZL6g_1877, align 4, !dbg !1602
  %308 = zext i32 %307 to i64, !dbg !1602
  %309 = load i32, ptr %9, align 4, !dbg !1603
  call void @_ZL15transparent_crcmPci(i64 noundef %308, ptr noundef @.str.49, i32 noundef %309), !dbg !1604
  %310 = load i32, ptr @_ZL6g_1883, align 4, !dbg !1605
  %311 = zext i32 %310 to i64, !dbg !1605
  %312 = load i32, ptr %9, align 4, !dbg !1606
  call void @_ZL15transparent_crcmPci(i64 noundef %311, ptr noundef @.str.50, i32 noundef %312), !dbg !1607
  %313 = load i32, ptr @_ZL6g_1884, align 4, !dbg !1608
  %314 = zext i32 %313 to i64, !dbg !1608
  %315 = load i32, ptr %9, align 4, !dbg !1609
  call void @_ZL15transparent_crcmPci(i64 noundef %314, ptr noundef @.str.51, i32 noundef %315), !dbg !1610
  %316 = load i32, ptr @_ZL6g_1885, align 4, !dbg !1611
  %317 = zext i32 %316 to i64, !dbg !1611
  %318 = load i32, ptr %9, align 4, !dbg !1612
  call void @_ZL15transparent_crcmPci(i64 noundef %317, ptr noundef @.str.52, i32 noundef %318), !dbg !1613
  %319 = load i32, ptr @_ZL6g_1886, align 4, !dbg !1614
  %320 = zext i32 %319 to i64, !dbg !1614
  %321 = load i32, ptr %9, align 4, !dbg !1615
  call void @_ZL15transparent_crcmPci(i64 noundef %320, ptr noundef @.str.53, i32 noundef %321), !dbg !1616
  %322 = load i32, ptr @_ZL6g_1887, align 4, !dbg !1617
  %323 = zext i32 %322 to i64, !dbg !1617
  %324 = load i32, ptr %9, align 4, !dbg !1618
  call void @_ZL15transparent_crcmPci(i64 noundef %323, ptr noundef @.str.54, i32 noundef %324), !dbg !1619
  %325 = load i32, ptr @_ZL6g_1888, align 4, !dbg !1620
  %326 = zext i32 %325 to i64, !dbg !1620
  %327 = load i32, ptr %9, align 4, !dbg !1621
  call void @_ZL15transparent_crcmPci(i64 noundef %326, ptr noundef @.str.55, i32 noundef %327), !dbg !1622
  store i32 0, ptr %6, align 4, !dbg !1623
  br label %328, !dbg !1625

328:                                              ; preds = %344, %306
  %329 = load i32, ptr %6, align 4, !dbg !1626
  %330 = icmp slt i32 %329, 10, !dbg !1628
  br i1 %330, label %331, label %347, !dbg !1629

331:                                              ; preds = %328
  %332 = load i32, ptr %6, align 4, !dbg !1630
  %333 = sext i32 %332 to i64, !dbg !1632
  %334 = getelementptr inbounds [10 x i32], ptr @_ZL6g_1889, i64 0, i64 %333, !dbg !1632
  %335 = load i32, ptr %334, align 4, !dbg !1632
  %336 = zext i32 %335 to i64, !dbg !1632
  %337 = load i32, ptr %9, align 4, !dbg !1633
  call void @_ZL15transparent_crcmPci(i64 noundef %336, ptr noundef @.str.56, i32 noundef %337), !dbg !1634
  %338 = load i32, ptr %9, align 4, !dbg !1635
  %339 = icmp ne i32 %338, 0, !dbg !1635
  br i1 %339, label %340, label %343, !dbg !1637

340:                                              ; preds = %331
  %341 = load i32, ptr %6, align 4, !dbg !1638
  %342 = call i32 (ptr, ...) @printf(ptr noundef @.str.17, i32 noundef %341), !dbg !1639
  br label %343, !dbg !1639

343:                                              ; preds = %340, %331
  br label %344, !dbg !1640

344:                                              ; preds = %343
  %345 = load i32, ptr %6, align 4, !dbg !1641
  %346 = add nsw i32 %345, 1, !dbg !1641
  store i32 %346, ptr %6, align 4, !dbg !1641
  br label %328, !dbg !1642, !llvm.loop !1643

347:                                              ; preds = %328
  %348 = load i32, ptr @_ZL6g_1890, align 4, !dbg !1645
  %349 = zext i32 %348 to i64, !dbg !1645
  %350 = load i32, ptr %9, align 4, !dbg !1646
  call void @_ZL15transparent_crcmPci(i64 noundef %349, ptr noundef @.str.57, i32 noundef %350), !dbg !1647
  %351 = load i32, ptr @_ZL6g_1891, align 4, !dbg !1648
  %352 = zext i32 %351 to i64, !dbg !1648
  %353 = load i32, ptr %9, align 4, !dbg !1649
  call void @_ZL15transparent_crcmPci(i64 noundef %352, ptr noundef @.str.58, i32 noundef %353), !dbg !1650
  store i32 0, ptr %6, align 4, !dbg !1651
  br label %354, !dbg !1653

354:                                              ; preds = %370, %347
  %355 = load i32, ptr %6, align 4, !dbg !1654
  %356 = icmp slt i32 %355, 5, !dbg !1656
  br i1 %356, label %357, label %373, !dbg !1657

357:                                              ; preds = %354
  %358 = load i32, ptr %6, align 4, !dbg !1658
  %359 = sext i32 %358 to i64, !dbg !1660
  %360 = getelementptr inbounds [5 x i32], ptr @_ZL6g_1892, i64 0, i64 %359, !dbg !1660
  %361 = load i32, ptr %360, align 4, !dbg !1660
  %362 = zext i32 %361 to i64, !dbg !1660
  %363 = load i32, ptr %9, align 4, !dbg !1661
  call void @_ZL15transparent_crcmPci(i64 noundef %362, ptr noundef @.str.59, i32 noundef %363), !dbg !1662
  %364 = load i32, ptr %9, align 4, !dbg !1663
  %365 = icmp ne i32 %364, 0, !dbg !1663
  br i1 %365, label %366, label %369, !dbg !1665

366:                                              ; preds = %357
  %367 = load i32, ptr %6, align 4, !dbg !1666
  %368 = call i32 (ptr, ...) @printf(ptr noundef @.str.17, i32 noundef %367), !dbg !1667
  br label %369, !dbg !1667

369:                                              ; preds = %366, %357
  br label %370, !dbg !1668

370:                                              ; preds = %369
  %371 = load i32, ptr %6, align 4, !dbg !1669
  %372 = add nsw i32 %371, 1, !dbg !1669
  store i32 %372, ptr %6, align 4, !dbg !1669
  br label %354, !dbg !1670, !llvm.loop !1671

373:                                              ; preds = %354
  store i32 0, ptr %6, align 4, !dbg !1673
  br label %374, !dbg !1675

374:                                              ; preds = %390, %373
  %375 = load i32, ptr %6, align 4, !dbg !1676
  %376 = icmp slt i32 %375, 7, !dbg !1678
  br i1 %376, label %377, label %393, !dbg !1679

377:                                              ; preds = %374
  %378 = load i32, ptr %6, align 4, !dbg !1680
  %379 = sext i32 %378 to i64, !dbg !1682
  %380 = getelementptr inbounds [7 x i32], ptr @_ZL6g_1893, i64 0, i64 %379, !dbg !1682
  %381 = load i32, ptr %380, align 4, !dbg !1682
  %382 = zext i32 %381 to i64, !dbg !1682
  %383 = load i32, ptr %9, align 4, !dbg !1683
  call void @_ZL15transparent_crcmPci(i64 noundef %382, ptr noundef @.str.60, i32 noundef %383), !dbg !1684
  %384 = load i32, ptr %9, align 4, !dbg !1685
  %385 = icmp ne i32 %384, 0, !dbg !1685
  br i1 %385, label %386, label %389, !dbg !1687

386:                                              ; preds = %377
  %387 = load i32, ptr %6, align 4, !dbg !1688
  %388 = call i32 (ptr, ...) @printf(ptr noundef @.str.17, i32 noundef %387), !dbg !1689
  br label %389, !dbg !1689

389:                                              ; preds = %386, %377
  br label %390, !dbg !1690

390:                                              ; preds = %389
  %391 = load i32, ptr %6, align 4, !dbg !1691
  %392 = add nsw i32 %391, 1, !dbg !1691
  store i32 %392, ptr %6, align 4, !dbg !1691
  br label %374, !dbg !1692, !llvm.loop !1693

393:                                              ; preds = %374
  store i32 0, ptr %6, align 4, !dbg !1695
  br label %394, !dbg !1697

394:                                              ; preds = %410, %393
  %395 = load i32, ptr %6, align 4, !dbg !1698
  %396 = icmp slt i32 %395, 8, !dbg !1700
  br i1 %396, label %397, label %413, !dbg !1701

397:                                              ; preds = %394
  %398 = load i32, ptr %6, align 4, !dbg !1702
  %399 = sext i32 %398 to i64, !dbg !1704
  %400 = getelementptr inbounds [8 x i32], ptr @_ZL6g_1894, i64 0, i64 %399, !dbg !1704
  %401 = load i32, ptr %400, align 4, !dbg !1704
  %402 = zext i32 %401 to i64, !dbg !1704
  %403 = load i32, ptr %9, align 4, !dbg !1705
  call void @_ZL15transparent_crcmPci(i64 noundef %402, ptr noundef @.str.61, i32 noundef %403), !dbg !1706
  %404 = load i32, ptr %9, align 4, !dbg !1707
  %405 = icmp ne i32 %404, 0, !dbg !1707
  br i1 %405, label %406, label %409, !dbg !1709

406:                                              ; preds = %397
  %407 = load i32, ptr %6, align 4, !dbg !1710
  %408 = call i32 (ptr, ...) @printf(ptr noundef @.str.17, i32 noundef %407), !dbg !1711
  br label %409, !dbg !1711

409:                                              ; preds = %406, %397
  br label %410, !dbg !1712

410:                                              ; preds = %409
  %411 = load i32, ptr %6, align 4, !dbg !1713
  %412 = add nsw i32 %411, 1, !dbg !1713
  store i32 %412, ptr %6, align 4, !dbg !1713
  br label %394, !dbg !1714, !llvm.loop !1715

413:                                              ; preds = %394
  %414 = load i32, ptr @_ZL6g_1895, align 4, !dbg !1717
  %415 = zext i32 %414 to i64, !dbg !1717
  %416 = load i32, ptr %9, align 4, !dbg !1718
  call void @_ZL15transparent_crcmPci(i64 noundef %415, ptr noundef @.str.62, i32 noundef %416), !dbg !1719
  %417 = load i32, ptr @_ZL6g_1896, align 4, !dbg !1720
  %418 = zext i32 %417 to i64, !dbg !1720
  %419 = load i32, ptr %9, align 4, !dbg !1721
  call void @_ZL15transparent_crcmPci(i64 noundef %418, ptr noundef @.str.63, i32 noundef %419), !dbg !1722
  %420 = load i32, ptr @_ZL6g_1897, align 4, !dbg !1723
  %421 = zext i32 %420 to i64, !dbg !1723
  %422 = load i32, ptr %9, align 4, !dbg !1724
  call void @_ZL15transparent_crcmPci(i64 noundef %421, ptr noundef @.str.64, i32 noundef %422), !dbg !1725
  %423 = load i32, ptr @_ZL6g_1898, align 4, !dbg !1726
  %424 = zext i32 %423 to i64, !dbg !1726
  %425 = load i32, ptr %9, align 4, !dbg !1727
  call void @_ZL15transparent_crcmPci(i64 noundef %424, ptr noundef @.str.65, i32 noundef %425), !dbg !1728
  %426 = load i32, ptr @_ZL6g_1899, align 4, !dbg !1729
  %427 = zext i32 %426 to i64, !dbg !1729
  %428 = load i32, ptr %9, align 4, !dbg !1730
  call void @_ZL15transparent_crcmPci(i64 noundef %427, ptr noundef @.str.66, i32 noundef %428), !dbg !1731
  store i32 0, ptr %6, align 4, !dbg !1732
  br label %429, !dbg !1734

429:                                              ; preds = %445, %413
  %430 = load i32, ptr %6, align 4, !dbg !1735
  %431 = icmp slt i32 %430, 3, !dbg !1737
  br i1 %431, label %432, label %448, !dbg !1738

432:                                              ; preds = %429
  %433 = load i32, ptr %6, align 4, !dbg !1739
  %434 = sext i32 %433 to i64, !dbg !1741
  %435 = getelementptr inbounds [3 x i32], ptr @_ZL6g_1900, i64 0, i64 %434, !dbg !1741
  %436 = load i32, ptr %435, align 4, !dbg !1741
  %437 = zext i32 %436 to i64, !dbg !1741
  %438 = load i32, ptr %9, align 4, !dbg !1742
  call void @_ZL15transparent_crcmPci(i64 noundef %437, ptr noundef @.str.67, i32 noundef %438), !dbg !1743
  %439 = load i32, ptr %9, align 4, !dbg !1744
  %440 = icmp ne i32 %439, 0, !dbg !1744
  br i1 %440, label %441, label %444, !dbg !1746

441:                                              ; preds = %432
  %442 = load i32, ptr %6, align 4, !dbg !1747
  %443 = call i32 (ptr, ...) @printf(ptr noundef @.str.17, i32 noundef %442), !dbg !1748
  br label %444, !dbg !1748

444:                                              ; preds = %441, %432
  br label %445, !dbg !1749

445:                                              ; preds = %444
  %446 = load i32, ptr %6, align 4, !dbg !1750
  %447 = add nsw i32 %446, 1, !dbg !1750
  store i32 %447, ptr %6, align 4, !dbg !1750
  br label %429, !dbg !1751, !llvm.loop !1752

448:                                              ; preds = %429
  %449 = load i32, ptr @_ZL6g_1901, align 4, !dbg !1754
  %450 = zext i32 %449 to i64, !dbg !1754
  %451 = load i32, ptr %9, align 4, !dbg !1755
  call void @_ZL15transparent_crcmPci(i64 noundef %450, ptr noundef @.str.68, i32 noundef %451), !dbg !1756
  %452 = load i32, ptr @_ZL6g_1902, align 4, !dbg !1757
  %453 = zext i32 %452 to i64, !dbg !1757
  %454 = load i32, ptr %9, align 4, !dbg !1758
  call void @_ZL15transparent_crcmPci(i64 noundef %453, ptr noundef @.str.69, i32 noundef %454), !dbg !1759
  %455 = load i32, ptr @_ZL6g_1903, align 4, !dbg !1760
  %456 = zext i32 %455 to i64, !dbg !1760
  %457 = load i32, ptr %9, align 4, !dbg !1761
  call void @_ZL15transparent_crcmPci(i64 noundef %456, ptr noundef @.str.70, i32 noundef %457), !dbg !1762
  %458 = load i32, ptr @_ZL6g_1904, align 4, !dbg !1763
  %459 = zext i32 %458 to i64, !dbg !1763
  %460 = load i32, ptr %9, align 4, !dbg !1764
  call void @_ZL15transparent_crcmPci(i64 noundef %459, ptr noundef @.str.71, i32 noundef %460), !dbg !1765
  %461 = load i32, ptr @_ZL6g_1905, align 4, !dbg !1766
  %462 = zext i32 %461 to i64, !dbg !1766
  %463 = load i32, ptr %9, align 4, !dbg !1767
  call void @_ZL15transparent_crcmPci(i64 noundef %462, ptr noundef @.str.72, i32 noundef %463), !dbg !1768
  %464 = load i32, ptr @_ZL6g_1906, align 4, !dbg !1769
  %465 = zext i32 %464 to i64, !dbg !1769
  %466 = load i32, ptr %9, align 4, !dbg !1770
  call void @_ZL15transparent_crcmPci(i64 noundef %465, ptr noundef @.str.73, i32 noundef %466), !dbg !1771
  %467 = load i32, ptr @_ZL6g_1907, align 4, !dbg !1772
  %468 = zext i32 %467 to i64, !dbg !1772
  %469 = load i32, ptr %9, align 4, !dbg !1773
  call void @_ZL15transparent_crcmPci(i64 noundef %468, ptr noundef @.str.74, i32 noundef %469), !dbg !1774
  %470 = load i32, ptr @_ZL6g_1908, align 4, !dbg !1775
  %471 = zext i32 %470 to i64, !dbg !1775
  %472 = load i32, ptr %9, align 4, !dbg !1776
  call void @_ZL15transparent_crcmPci(i64 noundef %471, ptr noundef @.str.75, i32 noundef %472), !dbg !1777
  %473 = load i32, ptr @_ZL6g_1909, align 4, !dbg !1778
  %474 = zext i32 %473 to i64, !dbg !1778
  %475 = load i32, ptr %9, align 4, !dbg !1779
  call void @_ZL15transparent_crcmPci(i64 noundef %474, ptr noundef @.str.76, i32 noundef %475), !dbg !1780
  %476 = load i32, ptr @_ZL6g_1910, align 4, !dbg !1781
  %477 = zext i32 %476 to i64, !dbg !1781
  %478 = load i32, ptr %9, align 4, !dbg !1782
  call void @_ZL15transparent_crcmPci(i64 noundef %477, ptr noundef @.str.77, i32 noundef %478), !dbg !1783
  %479 = load i32, ptr @_ZL6g_1911, align 4, !dbg !1784
  %480 = zext i32 %479 to i64, !dbg !1784
  %481 = load i32, ptr %9, align 4, !dbg !1785
  call void @_ZL15transparent_crcmPci(i64 noundef %480, ptr noundef @.str.78, i32 noundef %481), !dbg !1786
  %482 = load i32, ptr @_ZL6g_1912, align 4, !dbg !1787
  %483 = zext i32 %482 to i64, !dbg !1787
  %484 = load i32, ptr %9, align 4, !dbg !1788
  call void @_ZL15transparent_crcmPci(i64 noundef %483, ptr noundef @.str.79, i32 noundef %484), !dbg !1789
  %485 = load i32, ptr @_ZL6g_1913, align 4, !dbg !1790
  %486 = zext i32 %485 to i64, !dbg !1790
  %487 = load i32, ptr %9, align 4, !dbg !1791
  call void @_ZL15transparent_crcmPci(i64 noundef %486, ptr noundef @.str.80, i32 noundef %487), !dbg !1792
  %488 = load i32, ptr @_ZL6g_1914, align 4, !dbg !1793
  %489 = zext i32 %488 to i64, !dbg !1793
  %490 = load i32, ptr %9, align 4, !dbg !1794
  call void @_ZL15transparent_crcmPci(i64 noundef %489, ptr noundef @.str.81, i32 noundef %490), !dbg !1795
  %491 = load i32, ptr @_ZL6g_1915, align 4, !dbg !1796
  %492 = zext i32 %491 to i64, !dbg !1796
  %493 = load i32, ptr %9, align 4, !dbg !1797
  call void @_ZL15transparent_crcmPci(i64 noundef %492, ptr noundef @.str.82, i32 noundef %493), !dbg !1798
  store i32 0, ptr %6, align 4, !dbg !1799
  br label %494, !dbg !1801

494:                                              ; preds = %510, %448
  %495 = load i32, ptr %6, align 4, !dbg !1802
  %496 = icmp slt i32 %495, 1, !dbg !1804
  br i1 %496, label %497, label %513, !dbg !1805

497:                                              ; preds = %494
  %498 = load i32, ptr %6, align 4, !dbg !1806
  %499 = sext i32 %498 to i64, !dbg !1808
  %500 = getelementptr inbounds [1 x i32], ptr @_ZL6g_1916, i64 0, i64 %499, !dbg !1808
  %501 = load i32, ptr %500, align 4, !dbg !1808
  %502 = zext i32 %501 to i64, !dbg !1808
  %503 = load i32, ptr %9, align 4, !dbg !1809
  call void @_ZL15transparent_crcmPci(i64 noundef %502, ptr noundef @.str.83, i32 noundef %503), !dbg !1810
  %504 = load i32, ptr %9, align 4, !dbg !1811
  %505 = icmp ne i32 %504, 0, !dbg !1811
  br i1 %505, label %506, label %509, !dbg !1813

506:                                              ; preds = %497
  %507 = load i32, ptr %6, align 4, !dbg !1814
  %508 = call i32 (ptr, ...) @printf(ptr noundef @.str.17, i32 noundef %507), !dbg !1815
  br label %509, !dbg !1815

509:                                              ; preds = %506, %497
  br label %510, !dbg !1816

510:                                              ; preds = %509
  %511 = load i32, ptr %6, align 4, !dbg !1817
  %512 = add nsw i32 %511, 1, !dbg !1817
  store i32 %512, ptr %6, align 4, !dbg !1817
  br label %494, !dbg !1818, !llvm.loop !1819

513:                                              ; preds = %494
  %514 = load i32, ptr @_ZL6g_1917, align 4, !dbg !1821
  %515 = zext i32 %514 to i64, !dbg !1821
  %516 = load i32, ptr %9, align 4, !dbg !1822
  call void @_ZL15transparent_crcmPci(i64 noundef %515, ptr noundef @.str.84, i32 noundef %516), !dbg !1823
  %517 = load i32, ptr @_ZL6g_1918, align 4, !dbg !1824
  %518 = zext i32 %517 to i64, !dbg !1824
  %519 = load i32, ptr %9, align 4, !dbg !1825
  call void @_ZL15transparent_crcmPci(i64 noundef %518, ptr noundef @.str.85, i32 noundef %519), !dbg !1826
  %520 = load i32, ptr @_ZL6g_1919, align 4, !dbg !1827
  %521 = zext i32 %520 to i64, !dbg !1827
  %522 = load i32, ptr %9, align 4, !dbg !1828
  call void @_ZL15transparent_crcmPci(i64 noundef %521, ptr noundef @.str.86, i32 noundef %522), !dbg !1829
  %523 = load i32, ptr @_ZL6g_1920, align 4, !dbg !1830
  %524 = zext i32 %523 to i64, !dbg !1830
  %525 = load i32, ptr %9, align 4, !dbg !1831
  call void @_ZL15transparent_crcmPci(i64 noundef %524, ptr noundef @.str.87, i32 noundef %525), !dbg !1832
  %526 = load i32, ptr @_ZL6g_1921, align 4, !dbg !1833
  %527 = zext i32 %526 to i64, !dbg !1833
  %528 = load i32, ptr %9, align 4, !dbg !1834
  call void @_ZL15transparent_crcmPci(i64 noundef %527, ptr noundef @.str.88, i32 noundef %528), !dbg !1835
  %529 = load i32, ptr @_ZL6g_1922, align 16, !dbg !1836
  %530 = call i32 (ptr, ...) @printf(ptr noundef @.str.89, i32 noundef %529), !dbg !1837
  %531 = load i32, ptr getelementptr inbounds ([9 x i32], ptr @_ZL6g_1922, i64 0, i64 1), align 4, !dbg !1838
  %532 = call i32 (ptr, ...) @printf(ptr noundef @.str.90, i32 noundef %531), !dbg !1839
  %533 = load i32, ptr getelementptr inbounds ([9 x i32], ptr @_ZL6g_1922, i64 0, i64 2), align 8, !dbg !1840
  %534 = call i32 (ptr, ...) @printf(ptr noundef @.str.91, i32 noundef %533), !dbg !1841
  %535 = load i32, ptr getelementptr inbounds ([9 x i32], ptr @_ZL6g_1922, i64 0, i64 3), align 4, !dbg !1842
  %536 = call i32 (ptr, ...) @printf(ptr noundef @.str.92, i32 noundef %535), !dbg !1843
  %537 = load i32, ptr getelementptr inbounds ([9 x i32], ptr @_ZL6g_1922, i64 0, i64 4), align 16, !dbg !1844
  %538 = call i32 (ptr, ...) @printf(ptr noundef @.str.93, i32 noundef %537), !dbg !1845
  %539 = load i32, ptr getelementptr inbounds ([9 x i32], ptr @_ZL6g_1922, i64 0, i64 5), align 4, !dbg !1846
  %540 = call i32 (ptr, ...) @printf(ptr noundef @.str.94, i32 noundef %539), !dbg !1847
  %541 = load i32, ptr getelementptr inbounds ([9 x i32], ptr @_ZL6g_1922, i64 0, i64 6), align 8, !dbg !1848
  %542 = call i32 (ptr, ...) @printf(ptr noundef @.str.95, i32 noundef %541), !dbg !1849
  %543 = load i32, ptr getelementptr inbounds ([9 x i32], ptr @_ZL6g_1922, i64 0, i64 7), align 4, !dbg !1850
  %544 = call i32 (ptr, ...) @printf(ptr noundef @.str.96, i32 noundef %543), !dbg !1851
  %545 = load i32, ptr getelementptr inbounds ([9 x i32], ptr @_ZL6g_1922, i64 0, i64 8), align 16, !dbg !1852
  %546 = call i32 (ptr, ...) @printf(ptr noundef @.str.97, i32 noundef %545), !dbg !1853
  %547 = load i32, ptr getelementptr inbounds ([4 x [9 x i32]], ptr @_ZL6g_1922, i64 0, i64 1), align 4, !dbg !1854
  %548 = call i32 (ptr, ...) @printf(ptr noundef @.str.98, i32 noundef %547), !dbg !1855
  %549 = load i32, ptr getelementptr inbounds ([4 x [9 x i32]], ptr @_ZL6g_1922, i64 0, i64 1, i64 1), align 4, !dbg !1856
  %550 = call i32 (ptr, ...) @printf(ptr noundef @.str.99, i32 noundef %549), !dbg !1857
  %551 = load i32, ptr getelementptr inbounds ([4 x [9 x i32]], ptr @_ZL6g_1922, i64 0, i64 1, i64 2), align 4, !dbg !1858
  %552 = call i32 (ptr, ...) @printf(ptr noundef @.str.100, i32 noundef %551), !dbg !1859
  %553 = load i32, ptr getelementptr inbounds ([4 x [9 x i32]], ptr @_ZL6g_1922, i64 0, i64 1, i64 3), align 4, !dbg !1860
  %554 = call i32 (ptr, ...) @printf(ptr noundef @.str.101, i32 noundef %553), !dbg !1861
  %555 = load i32, ptr getelementptr inbounds ([4 x [9 x i32]], ptr @_ZL6g_1922, i64 0, i64 1, i64 4), align 4, !dbg !1862
  %556 = call i32 (ptr, ...) @printf(ptr noundef @.str.102, i32 noundef %555), !dbg !1863
  %557 = load i32, ptr getelementptr inbounds ([4 x [9 x i32]], ptr @_ZL6g_1922, i64 0, i64 1, i64 5), align 4, !dbg !1864
  %558 = call i32 (ptr, ...) @printf(ptr noundef @.str.103, i32 noundef %557), !dbg !1865
  %559 = load i32, ptr getelementptr inbounds ([4 x [9 x i32]], ptr @_ZL6g_1922, i64 0, i64 1, i64 6), align 4, !dbg !1866
  %560 = call i32 (ptr, ...) @printf(ptr noundef @.str.104, i32 noundef %559), !dbg !1867
  %561 = load i32, ptr getelementptr inbounds ([4 x [9 x i32]], ptr @_ZL6g_1922, i64 0, i64 1, i64 7), align 4, !dbg !1868
  %562 = call i32 (ptr, ...) @printf(ptr noundef @.str.105, i32 noundef %561), !dbg !1869
  %563 = load i32, ptr getelementptr inbounds ([4 x [9 x i32]], ptr @_ZL6g_1922, i64 0, i64 1, i64 8), align 4, !dbg !1870
  %564 = call i32 (ptr, ...) @printf(ptr noundef @.str.106, i32 noundef %563), !dbg !1871
  %565 = load i32, ptr getelementptr inbounds ([4 x [9 x i32]], ptr @_ZL6g_1922, i64 0, i64 2), align 8, !dbg !1872
  %566 = call i32 (ptr, ...) @printf(ptr noundef @.str.107, i32 noundef %565), !dbg !1873
  %567 = load i32, ptr getelementptr inbounds ([4 x [9 x i32]], ptr @_ZL6g_1922, i64 0, i64 2, i64 1), align 4, !dbg !1874
  %568 = call i32 (ptr, ...) @printf(ptr noundef @.str.108, i32 noundef %567), !dbg !1875
  %569 = load i32, ptr getelementptr inbounds ([4 x [9 x i32]], ptr @_ZL6g_1922, i64 0, i64 2, i64 2), align 8, !dbg !1876
  %570 = call i32 (ptr, ...) @printf(ptr noundef @.str.109, i32 noundef %569), !dbg !1877
  %571 = load i32, ptr getelementptr inbounds ([4 x [9 x i32]], ptr @_ZL6g_1922, i64 0, i64 2, i64 3), align 4, !dbg !1878
  %572 = call i32 (ptr, ...) @printf(ptr noundef @.str.110, i32 noundef %571), !dbg !1879
  %573 = load i32, ptr getelementptr inbounds ([4 x [9 x i32]], ptr @_ZL6g_1922, i64 0, i64 2, i64 4), align 8, !dbg !1880
  %574 = call i32 (ptr, ...) @printf(ptr noundef @.str.111, i32 noundef %573), !dbg !1881
  %575 = load i32, ptr getelementptr inbounds ([4 x [9 x i32]], ptr @_ZL6g_1922, i64 0, i64 2, i64 5), align 4, !dbg !1882
  %576 = call i32 (ptr, ...) @printf(ptr noundef @.str.112, i32 noundef %575), !dbg !1883
  %577 = load i32, ptr getelementptr inbounds ([4 x [9 x i32]], ptr @_ZL6g_1922, i64 0, i64 2, i64 6), align 8, !dbg !1884
  %578 = call i32 (ptr, ...) @printf(ptr noundef @.str.113, i32 noundef %577), !dbg !1885
  %579 = load i32, ptr getelementptr inbounds ([4 x [9 x i32]], ptr @_ZL6g_1922, i64 0, i64 2, i64 7), align 4, !dbg !1886
  %580 = call i32 (ptr, ...) @printf(ptr noundef @.str.114, i32 noundef %579), !dbg !1887
  %581 = load i32, ptr getelementptr inbounds ([4 x [9 x i32]], ptr @_ZL6g_1922, i64 0, i64 2, i64 8), align 8, !dbg !1888
  %582 = call i32 (ptr, ...) @printf(ptr noundef @.str.115, i32 noundef %581), !dbg !1889
  %583 = load i32, ptr getelementptr inbounds ([4 x [9 x i32]], ptr @_ZL6g_1922, i64 0, i64 3), align 4, !dbg !1890
  %584 = call i32 (ptr, ...) @printf(ptr noundef @.str.116, i32 noundef %583), !dbg !1891
  %585 = load i32, ptr getelementptr inbounds ([4 x [9 x i32]], ptr @_ZL6g_1922, i64 0, i64 3, i64 1), align 4, !dbg !1892
  %586 = call i32 (ptr, ...) @printf(ptr noundef @.str.117, i32 noundef %585), !dbg !1893
  %587 = load i32, ptr getelementptr inbounds ([4 x [9 x i32]], ptr @_ZL6g_1922, i64 0, i64 3, i64 2), align 4, !dbg !1894
  %588 = call i32 (ptr, ...) @printf(ptr noundef @.str.118, i32 noundef %587), !dbg !1895
  %589 = load i32, ptr getelementptr inbounds ([4 x [9 x i32]], ptr @_ZL6g_1922, i64 0, i64 3, i64 3), align 4, !dbg !1896
  %590 = call i32 (ptr, ...) @printf(ptr noundef @.str.119, i32 noundef %589), !dbg !1897
  %591 = load i32, ptr getelementptr inbounds ([4 x [9 x i32]], ptr @_ZL6g_1922, i64 0, i64 3, i64 4), align 4, !dbg !1898
  %592 = call i32 (ptr, ...) @printf(ptr noundef @.str.120, i32 noundef %591), !dbg !1899
  %593 = load i32, ptr getelementptr inbounds ([4 x [9 x i32]], ptr @_ZL6g_1922, i64 0, i64 3, i64 5), align 4, !dbg !1900
  %594 = call i32 (ptr, ...) @printf(ptr noundef @.str.121, i32 noundef %593), !dbg !1901
  %595 = load i32, ptr getelementptr inbounds ([4 x [9 x i32]], ptr @_ZL6g_1922, i64 0, i64 3, i64 6), align 4, !dbg !1902
  %596 = call i32 (ptr, ...) @printf(ptr noundef @.str.122, i32 noundef %595), !dbg !1903
  %597 = load i32, ptr getelementptr inbounds ([4 x [9 x i32]], ptr @_ZL6g_1922, i64 0, i64 3, i64 7), align 4, !dbg !1904
  %598 = call i32 (ptr, ...) @printf(ptr noundef @.str.123, i32 noundef %597), !dbg !1905
  %599 = load i32, ptr getelementptr inbounds ([4 x [9 x i32]], ptr @_ZL6g_1922, i64 0, i64 3, i64 8), align 4, !dbg !1906
  %600 = call i32 (ptr, ...) @printf(ptr noundef @.str.124, i32 noundef %599), !dbg !1907
  store i32 0, ptr %6, align 4, !dbg !1908
  br label %601, !dbg !1910

601:                                              ; preds = %636, %513
  %602 = load i32, ptr %6, align 4, !dbg !1911
  %603 = icmp slt i32 %602, 4, !dbg !1913
  br i1 %603, label %604, label %639, !dbg !1914

604:                                              ; preds = %601
  store i32 0, ptr %7, align 4, !dbg !1915
  br label %605, !dbg !1918

605:                                              ; preds = %632, %604
  %606 = load i32, ptr %7, align 4, !dbg !1919
  %607 = icmp slt i32 %606, 9, !dbg !1921
  br i1 %607, label %608, label %635, !dbg !1922

608:                                              ; preds = %605
  %609 = load i32, ptr %9, align 4, !dbg !1923
  %610 = icmp ne i32 %609, 0, !dbg !1923
  br i1 %610, label %611, label %622, !dbg !1926

611:                                              ; preds = %608
  %612 = load i32, ptr %6, align 4, !dbg !1927
  %613 = load i32, ptr %7, align 4, !dbg !1928
  %614 = load i32, ptr %6, align 4, !dbg !1929
  %615 = sext i32 %614 to i64, !dbg !1930
  %616 = getelementptr inbounds [4 x [9 x i32]], ptr @_ZL6g_1922, i64 0, i64 %615, !dbg !1930
  %617 = load i32, ptr %7, align 4, !dbg !1931
  %618 = sext i32 %617 to i64, !dbg !1930
  %619 = getelementptr inbounds [9 x i32], ptr %616, i64 0, i64 %618, !dbg !1930
  %620 = load i32, ptr %619, align 4, !dbg !1930
  %621 = call i32 (ptr, ...) @printf(ptr noundef @.str.125, i32 noundef %612, i32 noundef %613, i32 noundef %620), !dbg !1932
  br label %622, !dbg !1932

622:                                              ; preds = %611, %608
  %623 = load i32, ptr %6, align 4, !dbg !1933
  %624 = sext i32 %623 to i64, !dbg !1934
  %625 = getelementptr inbounds [4 x [9 x i32]], ptr @_ZL6g_1922, i64 0, i64 %624, !dbg !1934
  %626 = load i32, ptr %7, align 4, !dbg !1935
  %627 = sext i32 %626 to i64, !dbg !1934
  %628 = getelementptr inbounds [9 x i32], ptr %625, i64 0, i64 %627, !dbg !1934
  %629 = load i32, ptr %628, align 4, !dbg !1934
  %630 = zext i32 %629 to i64, !dbg !1934
  %631 = load i32, ptr %9, align 4, !dbg !1936
  call void @_ZL15transparent_crcmPci(i64 noundef %630, ptr noundef @.str.126, i32 noundef %631), !dbg !1937
  br label %632, !dbg !1938

632:                                              ; preds = %622
  %633 = load i32, ptr %7, align 4, !dbg !1939
  %634 = add nsw i32 %633, 1, !dbg !1939
  store i32 %634, ptr %7, align 4, !dbg !1939
  br label %605, !dbg !1940, !llvm.loop !1941

635:                                              ; preds = %605
  br label %636, !dbg !1943

636:                                              ; preds = %635
  %637 = load i32, ptr %6, align 4, !dbg !1944
  %638 = add nsw i32 %637, 1, !dbg !1944
  store i32 %638, ptr %6, align 4, !dbg !1944
  br label %601, !dbg !1945, !llvm.loop !1946

639:                                              ; preds = %601
  %640 = load i32, ptr @_ZL6g_1923, align 4, !dbg !1948
  %641 = zext i32 %640 to i64, !dbg !1948
  %642 = load i32, ptr %9, align 4, !dbg !1949
  call void @_ZL15transparent_crcmPci(i64 noundef %641, ptr noundef @.str.127, i32 noundef %642), !dbg !1950
  %643 = load i32, ptr @_ZL6g_1924, align 4, !dbg !1951
  %644 = zext i32 %643 to i64, !dbg !1951
  %645 = load i32, ptr %9, align 4, !dbg !1952
  call void @_ZL15transparent_crcmPci(i64 noundef %644, ptr noundef @.str.128, i32 noundef %645), !dbg !1953
  %646 = load i32, ptr @_ZL6g_1925, align 4, !dbg !1954
  %647 = zext i32 %646 to i64, !dbg !1954
  %648 = load i32, ptr %9, align 4, !dbg !1955
  call void @_ZL15transparent_crcmPci(i64 noundef %647, ptr noundef @.str.129, i32 noundef %648), !dbg !1956
  %649 = load i32, ptr @_ZL6g_1926, align 4, !dbg !1957
  %650 = zext i32 %649 to i64, !dbg !1957
  %651 = load i32, ptr %9, align 4, !dbg !1958
  call void @_ZL15transparent_crcmPci(i64 noundef %650, ptr noundef @.str.130, i32 noundef %651), !dbg !1959
  %652 = load i32, ptr @_ZL6g_1927, align 4, !dbg !1960
  %653 = zext i32 %652 to i64, !dbg !1960
  %654 = load i32, ptr %9, align 4, !dbg !1961
  call void @_ZL15transparent_crcmPci(i64 noundef %653, ptr noundef @.str.131, i32 noundef %654), !dbg !1962
  %655 = load i32, ptr @_ZL6g_1928, align 4, !dbg !1963
  %656 = zext i32 %655 to i64, !dbg !1963
  %657 = load i32, ptr %9, align 4, !dbg !1964
  call void @_ZL15transparent_crcmPci(i64 noundef %656, ptr noundef @.str.132, i32 noundef %657), !dbg !1965
  %658 = load i32, ptr @_ZL6g_1929, align 4, !dbg !1966
  %659 = zext i32 %658 to i64, !dbg !1966
  %660 = load i32, ptr %9, align 4, !dbg !1967
  call void @_ZL15transparent_crcmPci(i64 noundef %659, ptr noundef @.str.133, i32 noundef %660), !dbg !1968
  %661 = load i32, ptr @_ZL6g_1930, align 4, !dbg !1969
  %662 = zext i32 %661 to i64, !dbg !1969
  %663 = load i32, ptr %9, align 4, !dbg !1970
  call void @_ZL15transparent_crcmPci(i64 noundef %662, ptr noundef @.str.134, i32 noundef %663), !dbg !1971
  %664 = load i32, ptr @_ZL6g_1931, align 4, !dbg !1972
  %665 = zext i32 %664 to i64, !dbg !1972
  %666 = load i32, ptr %9, align 4, !dbg !1973
  call void @_ZL15transparent_crcmPci(i64 noundef %665, ptr noundef @.str.135, i32 noundef %666), !dbg !1974
  %667 = load i32, ptr @_ZL6g_1932, align 4, !dbg !1975
  %668 = zext i32 %667 to i64, !dbg !1975
  %669 = load i32, ptr %9, align 4, !dbg !1976
  call void @_ZL15transparent_crcmPci(i64 noundef %668, ptr noundef @.str.136, i32 noundef %669), !dbg !1977
  store i32 0, ptr %6, align 4, !dbg !1978
  br label %670, !dbg !1980

670:                                              ; preds = %686, %639
  %671 = load i32, ptr %6, align 4, !dbg !1981
  %672 = icmp slt i32 %671, 8, !dbg !1983
  br i1 %672, label %673, label %689, !dbg !1984

673:                                              ; preds = %670
  %674 = load i32, ptr %6, align 4, !dbg !1985
  %675 = sext i32 %674 to i64, !dbg !1987
  %676 = getelementptr inbounds [8 x i32], ptr @_ZL6g_1933, i64 0, i64 %675, !dbg !1987
  %677 = load i32, ptr %676, align 4, !dbg !1987
  %678 = zext i32 %677 to i64, !dbg !1987
  %679 = load i32, ptr %9, align 4, !dbg !1988
  call void @_ZL15transparent_crcmPci(i64 noundef %678, ptr noundef @.str.137, i32 noundef %679), !dbg !1989
  %680 = load i32, ptr %9, align 4, !dbg !1990
  %681 = icmp ne i32 %680, 0, !dbg !1990
  br i1 %681, label %682, label %685, !dbg !1992

682:                                              ; preds = %673
  %683 = load i32, ptr %6, align 4, !dbg !1993
  %684 = call i32 (ptr, ...) @printf(ptr noundef @.str.17, i32 noundef %683), !dbg !1994
  br label %685, !dbg !1994

685:                                              ; preds = %682, %673
  br label %686, !dbg !1995

686:                                              ; preds = %685
  %687 = load i32, ptr %6, align 4, !dbg !1996
  %688 = add nsw i32 %687, 1, !dbg !1996
  store i32 %688, ptr %6, align 4, !dbg !1996
  br label %670, !dbg !1997, !llvm.loop !1998

689:                                              ; preds = %670
  %690 = load i32, ptr @_ZL6g_1934, align 4, !dbg !2000
  %691 = zext i32 %690 to i64, !dbg !2000
  %692 = load i32, ptr %9, align 4, !dbg !2001
  call void @_ZL15transparent_crcmPci(i64 noundef %691, ptr noundef @.str.138, i32 noundef %692), !dbg !2002
  %693 = load i32, ptr @_ZL6g_1935, align 4, !dbg !2003
  %694 = zext i32 %693 to i64, !dbg !2003
  %695 = load i32, ptr %9, align 4, !dbg !2004
  call void @_ZL15transparent_crcmPci(i64 noundef %694, ptr noundef @.str.139, i32 noundef %695), !dbg !2005
  %696 = load i32, ptr @_ZL6g_1936, align 4, !dbg !2006
  %697 = zext i32 %696 to i64, !dbg !2006
  %698 = load i32, ptr %9, align 4, !dbg !2007
  call void @_ZL15transparent_crcmPci(i64 noundef %697, ptr noundef @.str.140, i32 noundef %698), !dbg !2008
  %699 = load i32, ptr @_ZL6g_1937, align 4, !dbg !2009
  %700 = zext i32 %699 to i64, !dbg !2009
  %701 = load i32, ptr %9, align 4, !dbg !2010
  call void @_ZL15transparent_crcmPci(i64 noundef %700, ptr noundef @.str.141, i32 noundef %701), !dbg !2011
  %702 = load i32, ptr @_ZL6g_1938, align 4, !dbg !2012
  %703 = zext i32 %702 to i64, !dbg !2012
  %704 = load i32, ptr %9, align 4, !dbg !2013
  call void @_ZL15transparent_crcmPci(i64 noundef %703, ptr noundef @.str.142, i32 noundef %704), !dbg !2014
  %705 = load i32, ptr @_ZL6g_1939, align 4, !dbg !2015
  %706 = zext i32 %705 to i64, !dbg !2015
  %707 = load i32, ptr %9, align 4, !dbg !2016
  call void @_ZL15transparent_crcmPci(i64 noundef %706, ptr noundef @.str.143, i32 noundef %707), !dbg !2017
  %708 = load i32, ptr @_ZL6g_1940, align 4, !dbg !2018
  %709 = zext i32 %708 to i64, !dbg !2018
  %710 = load i32, ptr %9, align 4, !dbg !2019
  call void @_ZL15transparent_crcmPci(i64 noundef %709, ptr noundef @.str.144, i32 noundef %710), !dbg !2020
  %711 = load i32, ptr @_ZL6g_1941, align 4, !dbg !2021
  %712 = zext i32 %711 to i64, !dbg !2021
  %713 = load i32, ptr %9, align 4, !dbg !2022
  call void @_ZL15transparent_crcmPci(i64 noundef %712, ptr noundef @.str.145, i32 noundef %713), !dbg !2023
  store i32 0, ptr %6, align 4, !dbg !2024
  br label %714, !dbg !2026

714:                                              ; preds = %754, %689
  %715 = load i32, ptr %6, align 4, !dbg !2027
  %716 = icmp slt i32 %715, 4, !dbg !2029
  br i1 %716, label %717, label %757, !dbg !2030

717:                                              ; preds = %714
  store i32 0, ptr %7, align 4, !dbg !2031
  br label %718, !dbg !2034

718:                                              ; preds = %750, %717
  %719 = load i32, ptr %7, align 4, !dbg !2035
  %720 = icmp slt i32 %719, 8, !dbg !2037
  br i1 %720, label %721, label %753, !dbg !2038

721:                                              ; preds = %718
  store i32 0, ptr %8, align 4, !dbg !2039
  br label %722, !dbg !2042

722:                                              ; preds = %746, %721
  %723 = load i32, ptr %8, align 4, !dbg !2043
  %724 = icmp slt i32 %723, 4, !dbg !2045
  br i1 %724, label %725, label %749, !dbg !2046

725:                                              ; preds = %722
  %726 = load i32, ptr %6, align 4, !dbg !2047
  %727 = sext i32 %726 to i64, !dbg !2049
  %728 = getelementptr inbounds [4 x [8 x [4 x i32]]], ptr @_ZL6g_1942, i64 0, i64 %727, !dbg !2049
  %729 = load i32, ptr %7, align 4, !dbg !2050
  %730 = sext i32 %729 to i64, !dbg !2049
  %731 = getelementptr inbounds [8 x [4 x i32]], ptr %728, i64 0, i64 %730, !dbg !2049
  %732 = load i32, ptr %8, align 4, !dbg !2051
  %733 = sext i32 %732 to i64, !dbg !2049
  %734 = getelementptr inbounds [4 x i32], ptr %731, i64 0, i64 %733, !dbg !2049
  %735 = load i32, ptr %734, align 4, !dbg !2049
  %736 = zext i32 %735 to i64, !dbg !2049
  %737 = load i32, ptr %9, align 4, !dbg !2052
  call void @_ZL15transparent_crcmPci(i64 noundef %736, ptr noundef @.str.146, i32 noundef %737), !dbg !2053
  %738 = load i32, ptr %9, align 4, !dbg !2054
  %739 = icmp ne i32 %738, 0, !dbg !2054
  br i1 %739, label %740, label %745, !dbg !2056

740:                                              ; preds = %725
  %741 = load i32, ptr %6, align 4, !dbg !2057
  %742 = load i32, ptr %7, align 4, !dbg !2058
  %743 = load i32, ptr %8, align 4, !dbg !2059
  %744 = call i32 (ptr, ...) @printf(ptr noundef @.str.45, i32 noundef %741, i32 noundef %742, i32 noundef %743), !dbg !2060
  br label %745, !dbg !2060

745:                                              ; preds = %740, %725
  br label %746, !dbg !2061

746:                                              ; preds = %745
  %747 = load i32, ptr %8, align 4, !dbg !2062
  %748 = add nsw i32 %747, 1, !dbg !2062
  store i32 %748, ptr %8, align 4, !dbg !2062
  br label %722, !dbg !2063, !llvm.loop !2064

749:                                              ; preds = %722
  br label %750, !dbg !2066

750:                                              ; preds = %749
  %751 = load i32, ptr %7, align 4, !dbg !2067
  %752 = add nsw i32 %751, 1, !dbg !2067
  store i32 %752, ptr %7, align 4, !dbg !2067
  br label %718, !dbg !2068, !llvm.loop !2069

753:                                              ; preds = %718
  br label %754, !dbg !2071

754:                                              ; preds = %753
  %755 = load i32, ptr %6, align 4, !dbg !2072
  %756 = add nsw i32 %755, 1, !dbg !2072
  store i32 %756, ptr %6, align 4, !dbg !2072
  br label %714, !dbg !2073, !llvm.loop !2074

757:                                              ; preds = %714
  %758 = load i32, ptr @_ZL6g_1943, align 4, !dbg !2076
  %759 = zext i32 %758 to i64, !dbg !2076
  %760 = load i32, ptr %9, align 4, !dbg !2077
  call void @_ZL15transparent_crcmPci(i64 noundef %759, ptr noundef @.str.147, i32 noundef %760), !dbg !2078
  store i32 0, ptr %6, align 4, !dbg !2079
  br label %761, !dbg !2081

761:                                              ; preds = %777, %757
  %762 = load i32, ptr %6, align 4, !dbg !2082
  %763 = icmp slt i32 %762, 10, !dbg !2084
  br i1 %763, label %764, label %780, !dbg !2085

764:                                              ; preds = %761
  %765 = load i32, ptr %6, align 4, !dbg !2086
  %766 = sext i32 %765 to i64, !dbg !2088
  %767 = getelementptr inbounds [10 x i32], ptr @_ZL6g_1944, i64 0, i64 %766, !dbg !2088
  %768 = load i32, ptr %767, align 4, !dbg !2088
  %769 = zext i32 %768 to i64, !dbg !2088
  %770 = load i32, ptr %9, align 4, !dbg !2089
  call void @_ZL15transparent_crcmPci(i64 noundef %769, ptr noundef @.str.148, i32 noundef %770), !dbg !2090
  %771 = load i32, ptr %9, align 4, !dbg !2091
  %772 = icmp ne i32 %771, 0, !dbg !2091
  br i1 %772, label %773, label %776, !dbg !2093

773:                                              ; preds = %764
  %774 = load i32, ptr %6, align 4, !dbg !2094
  %775 = call i32 (ptr, ...) @printf(ptr noundef @.str.17, i32 noundef %774), !dbg !2095
  br label %776, !dbg !2095

776:                                              ; preds = %773, %764
  br label %777, !dbg !2096

777:                                              ; preds = %776
  %778 = load i32, ptr %6, align 4, !dbg !2097
  %779 = add nsw i32 %778, 1, !dbg !2097
  store i32 %779, ptr %6, align 4, !dbg !2097
  br label %761, !dbg !2098, !llvm.loop !2099

780:                                              ; preds = %761
  store i32 0, ptr %6, align 4, !dbg !2101
  br label %781, !dbg !2103

781:                                              ; preds = %797, %780
  %782 = load i32, ptr %6, align 4, !dbg !2104
  %783 = icmp slt i32 %782, 7, !dbg !2106
  br i1 %783, label %784, label %800, !dbg !2107

784:                                              ; preds = %781
  %785 = load i32, ptr %6, align 4, !dbg !2108
  %786 = sext i32 %785 to i64, !dbg !2110
  %787 = getelementptr inbounds [7 x i32], ptr @_ZL6g_1945, i64 0, i64 %786, !dbg !2110
  %788 = load i32, ptr %787, align 4, !dbg !2110
  %789 = zext i32 %788 to i64, !dbg !2110
  %790 = load i32, ptr %9, align 4, !dbg !2111
  call void @_ZL15transparent_crcmPci(i64 noundef %789, ptr noundef @.str.149, i32 noundef %790), !dbg !2112
  %791 = load i32, ptr %9, align 4, !dbg !2113
  %792 = icmp ne i32 %791, 0, !dbg !2113
  br i1 %792, label %793, label %796, !dbg !2115

793:                                              ; preds = %784
  %794 = load i32, ptr %6, align 4, !dbg !2116
  %795 = call i32 (ptr, ...) @printf(ptr noundef @.str.17, i32 noundef %794), !dbg !2117
  br label %796, !dbg !2117

796:                                              ; preds = %793, %784
  br label %797, !dbg !2118

797:                                              ; preds = %796
  %798 = load i32, ptr %6, align 4, !dbg !2119
  %799 = add nsw i32 %798, 1, !dbg !2119
  store i32 %799, ptr %6, align 4, !dbg !2119
  br label %781, !dbg !2120, !llvm.loop !2121

800:                                              ; preds = %781
  %801 = load i32, ptr @_ZL6g_1946, align 4, !dbg !2123
  %802 = zext i32 %801 to i64, !dbg !2123
  %803 = load i32, ptr %9, align 4, !dbg !2124
  call void @_ZL15transparent_crcmPci(i64 noundef %802, ptr noundef @.str.150, i32 noundef %803), !dbg !2125
  %804 = load i32, ptr @_ZL6g_1947, align 4, !dbg !2126
  %805 = zext i32 %804 to i64, !dbg !2126
  %806 = load i32, ptr %9, align 4, !dbg !2127
  call void @_ZL15transparent_crcmPci(i64 noundef %805, ptr noundef @.str.151, i32 noundef %806), !dbg !2128
  %807 = load i32, ptr @_ZL6g_1948, align 4, !dbg !2129
  %808 = zext i32 %807 to i64, !dbg !2129
  %809 = load i32, ptr %9, align 4, !dbg !2130
  call void @_ZL15transparent_crcmPci(i64 noundef %808, ptr noundef @.str.152, i32 noundef %809), !dbg !2131
  %810 = load i32, ptr @_ZL6g_2024, align 4, !dbg !2132
  %811 = sext i32 %810 to i64, !dbg !2133
  %812 = load i32, ptr %9, align 4, !dbg !2134
  call void @_ZL15transparent_crcmPci(i64 noundef %811, ptr noundef @.str.153, i32 noundef %812), !dbg !2135
  %813 = load volatile i32, ptr @_ZL6g_2072, align 4, !dbg !2136
  %814 = sext i32 %813 to i64, !dbg !2136
  %815 = load i32, ptr %9, align 4, !dbg !2137
  call void @_ZL15transparent_crcmPci(i64 noundef %814, ptr noundef @.str.154, i32 noundef %815), !dbg !2138
  %816 = load i32, ptr %9, align 4, !dbg !2139
  call void @_ZL15transparent_crcmPci(i64 noundef -7849629611674676947, ptr noundef @.str.155, i32 noundef %816), !dbg !2140
  %817 = load i32, ptr %9, align 4, !dbg !2141
  call void @_ZL15transparent_crcmPci(i64 noundef 15412, ptr noundef @.str.156, i32 noundef %817), !dbg !2142
  store i32 0, ptr %6, align 4, !dbg !2143
  br label %818, !dbg !2145

818:                                              ; preds = %846, %800
  %819 = load i32, ptr %6, align 4, !dbg !2146
  %820 = icmp slt i32 %819, 1, !dbg !2148
  br i1 %820, label %821, label %849, !dbg !2149

821:                                              ; preds = %818
  store i32 0, ptr %7, align 4, !dbg !2150
  br label %822, !dbg !2153

822:                                              ; preds = %842, %821
  %823 = load i32, ptr %7, align 4, !dbg !2154
  %824 = icmp slt i32 %823, 5, !dbg !2156
  br i1 %824, label %825, label %845, !dbg !2157

825:                                              ; preds = %822
  %826 = load i32, ptr %6, align 4, !dbg !2158
  %827 = sext i32 %826 to i64, !dbg !2160
  %828 = getelementptr inbounds [1 x [5 x i32]], ptr @_ZL6g_2324, i64 0, i64 %827, !dbg !2160
  %829 = load i32, ptr %7, align 4, !dbg !2161
  %830 = sext i32 %829 to i64, !dbg !2160
  %831 = getelementptr inbounds [5 x i32], ptr %828, i64 0, i64 %830, !dbg !2160
  %832 = load i32, ptr %831, align 4, !dbg !2160
  %833 = zext i32 %832 to i64, !dbg !2160
  %834 = load i32, ptr %9, align 4, !dbg !2162
  call void @_ZL15transparent_crcmPci(i64 noundef %833, ptr noundef @.str.157, i32 noundef %834), !dbg !2163
  %835 = load i32, ptr %9, align 4, !dbg !2164
  %836 = icmp ne i32 %835, 0, !dbg !2164
  br i1 %836, label %837, label %841, !dbg !2166

837:                                              ; preds = %825
  %838 = load i32, ptr %6, align 4, !dbg !2167
  %839 = load i32, ptr %7, align 4, !dbg !2168
  %840 = call i32 (ptr, ...) @printf(ptr noundef @.str.158, i32 noundef %838, i32 noundef %839), !dbg !2169
  br label %841, !dbg !2169

841:                                              ; preds = %837, %825
  br label %842, !dbg !2170

842:                                              ; preds = %841
  %843 = load i32, ptr %7, align 4, !dbg !2171
  %844 = add nsw i32 %843, 1, !dbg !2171
  store i32 %844, ptr %7, align 4, !dbg !2171
  br label %822, !dbg !2172, !llvm.loop !2173

845:                                              ; preds = %822
  br label %846, !dbg !2175

846:                                              ; preds = %845
  %847 = load i32, ptr %6, align 4, !dbg !2176
  %848 = add nsw i32 %847, 1, !dbg !2176
  store i32 %848, ptr %6, align 4, !dbg !2176
  br label %818, !dbg !2177, !llvm.loop !2178

849:                                              ; preds = %818
  %850 = load i32, ptr @_ZL6g_2354, align 4, !dbg !2180
  %851 = sext i32 %850 to i64, !dbg !2180
  %852 = load i32, ptr %9, align 4, !dbg !2181
  call void @_ZL15transparent_crcmPci(i64 noundef %851, ptr noundef @.str.159, i32 noundef %852), !dbg !2182
  %853 = load volatile i32, ptr @_ZL6g_2382, align 4, !dbg !2183
  %854 = zext i32 %853 to i64, !dbg !2183
  %855 = load i32, ptr %9, align 4, !dbg !2184
  call void @_ZL15transparent_crcmPci(i64 noundef %854, ptr noundef @.str.160, i32 noundef %855), !dbg !2185
  store i32 0, ptr %6, align 4, !dbg !2186
  br label %856, !dbg !2188

856:                                              ; preds = %884, %849
  %857 = load i32, ptr %6, align 4, !dbg !2189
  %858 = icmp slt i32 %857, 4, !dbg !2191
  br i1 %858, label %859, label %887, !dbg !2192

859:                                              ; preds = %856
  store i32 0, ptr %7, align 4, !dbg !2193
  br label %860, !dbg !2196

860:                                              ; preds = %880, %859
  %861 = load i32, ptr %7, align 4, !dbg !2197
  %862 = icmp slt i32 %861, 6, !dbg !2199
  br i1 %862, label %863, label %883, !dbg !2200

863:                                              ; preds = %860
  %864 = load i32, ptr %6, align 4, !dbg !2201
  %865 = sext i32 %864 to i64, !dbg !2203
  %866 = getelementptr inbounds [4 x [6 x %union.U4]], ptr @_ZL6g_2427, i64 0, i64 %865, !dbg !2203
  %867 = load i32, ptr %7, align 4, !dbg !2204
  %868 = sext i32 %867 to i64, !dbg !2203
  %869 = getelementptr inbounds [6 x %union.U4], ptr %866, i64 0, i64 %868, !dbg !2203
  %870 = load i16, ptr %869, align 2, !dbg !2205
  %871 = zext i16 %870 to i64, !dbg !2203
  %872 = load i32, ptr %9, align 4, !dbg !2206
  call void @_ZL15transparent_crcmPci(i64 noundef %871, ptr noundef @.str.161, i32 noundef %872), !dbg !2207
  %873 = load i32, ptr %9, align 4, !dbg !2208
  %874 = icmp ne i32 %873, 0, !dbg !2208
  br i1 %874, label %875, label %879, !dbg !2210

875:                                              ; preds = %863
  %876 = load i32, ptr %6, align 4, !dbg !2211
  %877 = load i32, ptr %7, align 4, !dbg !2212
  %878 = call i32 (ptr, ...) @printf(ptr noundef @.str.158, i32 noundef %876, i32 noundef %877), !dbg !2213
  br label %879, !dbg !2213

879:                                              ; preds = %875, %863
  br label %880, !dbg !2214

880:                                              ; preds = %879
  %881 = load i32, ptr %7, align 4, !dbg !2215
  %882 = add nsw i32 %881, 1, !dbg !2215
  store i32 %882, ptr %7, align 4, !dbg !2215
  br label %860, !dbg !2216, !llvm.loop !2217

883:                                              ; preds = %860
  br label %884, !dbg !2219

884:                                              ; preds = %883
  %885 = load i32, ptr %6, align 4, !dbg !2220
  %886 = add nsw i32 %885, 1, !dbg !2220
  store i32 %886, ptr %6, align 4, !dbg !2220
  br label %856, !dbg !2221, !llvm.loop !2222

887:                                              ; preds = %856
  %888 = load i16, ptr @_ZL6g_2519, align 2, !dbg !2224
  %889 = sext i16 %888 to i64, !dbg !2224
  %890 = load i32, ptr %9, align 4, !dbg !2225
  call void @_ZL15transparent_crcmPci(i64 noundef %889, ptr noundef @.str.162, i32 noundef %890), !dbg !2226
  %891 = load volatile i16, ptr @_ZL6g_2599, align 2, !dbg !2227
  %892 = zext i16 %891 to i64, !dbg !2227
  %893 = load i32, ptr %9, align 4, !dbg !2228
  call void @_ZL15transparent_crcmPci(i64 noundef %892, ptr noundef @.str.163, i32 noundef %893), !dbg !2229
  %894 = load i32, ptr @_ZL13crc32_context, align 4, !dbg !2230
  %895 = zext i32 %894 to i64, !dbg !2230
  %896 = xor i64 %895, 4294967295, !dbg !2231
  %897 = trunc i64 %896 to i32, !dbg !2230
  %898 = load i32, ptr %9, align 4, !dbg !2232
  call void @_ZL17platform_main_endji(i32 noundef %897, i32 noundef %898), !dbg !2233
  ret i32 0, !dbg !2234
}

; Function Attrs: nocallback nofree nosync nounwind speculatable willreturn memory(none)
declare void @llvm.dbg.declare(metadata, metadata, metadata) #1

; Function Attrs: nounwind willreturn memory(read)
declare i32 @strcmp(ptr noundef, ptr noundef) #2

; Function Attrs: mustprogress noinline nounwind optnone sspstrong uwtable
define internal void @_ZL19platform_main_beginv() #3 !dbg !2235 {
  ret void, !dbg !2238
}

; Function Attrs: mustprogress noinline nounwind optnone sspstrong uwtable
define internal void @_ZL12crc32_gentabv() #3 !dbg !2239 {
  %1 = alloca i32, align 4
  %2 = alloca i32, align 4
  %3 = alloca i32, align 4
  %4 = alloca i32, align 4
  call void @llvm.dbg.declare(metadata ptr %1, metadata !2240, metadata !DIExpression()), !dbg !2241
  call void @llvm.dbg.declare(metadata ptr %2, metadata !2242, metadata !DIExpression()), !dbg !2243
  store i32 -306674912, ptr %2, align 4, !dbg !2243
  call void @llvm.dbg.declare(metadata ptr %3, metadata !2244, metadata !DIExpression()), !dbg !2245
  call void @llvm.dbg.declare(metadata ptr %4, metadata !2246, metadata !DIExpression()), !dbg !2247
  store i32 0, ptr %3, align 4, !dbg !2248
  br label %5, !dbg !2250

5:                                                ; preds = %33, %0
  %6 = load i32, ptr %3, align 4, !dbg !2251
  %7 = icmp slt i32 %6, 256, !dbg !2253
  br i1 %7, label %8, label %36, !dbg !2254

8:                                                ; preds = %5
  %9 = load i32, ptr %3, align 4, !dbg !2255
  store i32 %9, ptr %1, align 4, !dbg !2257
  store i32 8, ptr %4, align 4, !dbg !2258
  br label %10, !dbg !2260

10:                                               ; preds = %25, %8
  %11 = load i32, ptr %4, align 4, !dbg !2261
  %12 = icmp sgt i32 %11, 0, !dbg !2263
  br i1 %12, label %13, label %28, !dbg !2264

13:                                               ; preds = %10
  %14 = load i32, ptr %1, align 4, !dbg !2265
  %15 = and i32 %14, 1, !dbg !2268
  %16 = icmp ne i32 %15, 0, !dbg !2265
  br i1 %16, label %17, label %21, !dbg !2269

17:                                               ; preds = %13
  %18 = load i32, ptr %1, align 4, !dbg !2270
  %19 = lshr i32 %18, 1, !dbg !2272
  %20 = xor i32 %19, -306674912, !dbg !2273
  store i32 %20, ptr %1, align 4, !dbg !2274
  br label %24, !dbg !2275

21:                                               ; preds = %13
  %22 = load i32, ptr %1, align 4, !dbg !2276
  %23 = lshr i32 %22, 1, !dbg !2276
  store i32 %23, ptr %1, align 4, !dbg !2276
  br label %24

24:                                               ; preds = %21, %17
  br label %25, !dbg !2278

25:                                               ; preds = %24
  %26 = load i32, ptr %4, align 4, !dbg !2279
  %27 = add nsw i32 %26, -1, !dbg !2279
  store i32 %27, ptr %4, align 4, !dbg !2279
  br label %10, !dbg !2280, !llvm.loop !2281

28:                                               ; preds = %10
  %29 = load i32, ptr %1, align 4, !dbg !2283
  %30 = load i32, ptr %3, align 4, !dbg !2284
  %31 = sext i32 %30 to i64, !dbg !2285
  %32 = getelementptr inbounds [256 x i32], ptr @_ZL9crc32_tab, i64 0, i64 %31, !dbg !2285
  store i32 %29, ptr %32, align 4, !dbg !2286
  br label %33, !dbg !2287

33:                                               ; preds = %28
  %34 = load i32, ptr %3, align 4, !dbg !2288
  %35 = add nsw i32 %34, 1, !dbg !2288
  store i32 %35, ptr %3, align 4, !dbg !2288
  br label %5, !dbg !2289, !llvm.loop !2290

36:                                               ; preds = %5
  ret void, !dbg !2292
}

declare i32 @printf(ptr noundef, ...) #4

; Function Attrs: mustprogress noinline nounwind optnone sspstrong uwtable
define internal i16 @_ZL6func_1v() #3 !dbg !2293 {
  %1 = alloca %union.U4, align 2
  %2 = alloca %union.U0, align 4
  %3 = alloca i32, align 4
  %4 = alloca i32, align 4
  %5 = alloca i32, align 4
  %6 = alloca i32, align 4
  %7 = alloca ptr, align 8
  %8 = alloca ptr, align 8
  %9 = alloca i64, align 8
  %10 = alloca [7 x [9 x [4 x ptr]]], align 16
  %11 = alloca ptr, align 8
  %12 = alloca ptr, align 8
  %13 = alloca ptr, align 8
  %14 = alloca ptr, align 8
  %15 = alloca [4 x [1 x i16]], align 2
  %16 = alloca ptr, align 8
  %17 = alloca i16, align 2
  %18 = alloca ptr, align 8
  %19 = alloca i32, align 4
  %20 = alloca i32, align 4
  %21 = alloca i32, align 4
  %22 = alloca i32, align 4
  %23 = alloca i32, align 4
  %24 = alloca ptr, align 8
  %25 = alloca [1 x [10 x i64]], align 16
  %26 = alloca i32, align 4
  %27 = alloca i64, align 8
  %28 = alloca [6 x i32], align 16
  %29 = alloca i32, align 4
  %30 = alloca i32, align 4
  %31 = alloca i32, align 4
  %32 = alloca i16, align 2
  %33 = alloca i32, align 4
  %34 = alloca i32, align 4
  %35 = alloca ptr, align 8
  %36 = alloca ptr, align 8
  %37 = alloca ptr, align 8
  %38 = alloca ptr, align 8
  %39 = alloca ptr, align 8
  %40 = alloca ptr, align 8
  %41 = alloca [4 x [9 x ptr]], align 16
  %42 = alloca i32, align 4
  %43 = alloca i32, align 4
  %44 = alloca i16, align 2
  %45 = alloca [4 x [3 x [5 x %union.U4]]], align 16
  %46 = alloca i16, align 2
  %47 = alloca i64, align 8
  %48 = alloca i32, align 4
  %49 = alloca i32, align 4
  %50 = alloca i32, align 4
  %51 = alloca i16, align 2
  %52 = alloca ptr, align 8
  %53 = alloca ptr, align 8
  %54 = alloca i16, align 2
  %55 = alloca ptr, align 8
  %56 = alloca %union.U0, align 4
  %57 = alloca ptr, align 8
  %58 = alloca ptr, align 8
  %59 = alloca ptr, align 8
  %60 = alloca [3 x [2 x ptr]], align 16
  %61 = alloca [6 x ptr], align 16
  %62 = alloca ptr, align 8
  %63 = alloca i32, align 4
  %64 = alloca i32, align 4
  %65 = alloca i32, align 4
  %66 = alloca i32, align 4
  %67 = alloca i32, align 4
  %68 = alloca i32, align 4
  %69 = alloca i32, align 4
  %70 = alloca %union.U0, align 4
  %71 = alloca %union.U1, align 2
  %72 = alloca %union.U0, align 4
  %73 = alloca %union.U1, align 2
  %74 = alloca [4 x i32], align 16
  %75 = alloca [4 x ptr], align 16
  %76 = alloca i32, align 4
  %77 = alloca i32, align 4
  %78 = alloca [5 x [7 x i8]], align 16
  %79 = alloca i32, align 4
  %80 = alloca i32, align 4
  %81 = alloca i32, align 4
  %82 = alloca i32, align 4
  %83 = alloca i32, align 4
  %84 = alloca [5 x [10 x i64]], align 16
  %85 = alloca i32, align 4
  %86 = alloca i64, align 8
  %87 = alloca [1 x ptr], align 8
  %88 = alloca [7 x [9 x ptr]], align 16
  %89 = alloca i32, align 4
  %90 = alloca i32, align 4
  %91 = alloca i16, align 2
  %92 = alloca %union.U4, align 2
  %93 = alloca i32, align 4
  %94 = alloca [10 x i32], align 16
  %95 = alloca i32, align 4
  %96 = alloca i32, align 4
  %97 = alloca i32, align 4
  %98 = alloca [3 x [7 x i32]], align 16
  %99 = alloca ptr, align 8
  %100 = alloca i32, align 4
  %101 = alloca i32, align 4
  %102 = alloca ptr, align 8
  %103 = alloca i32, align 4
  %104 = alloca ptr, align 8
  %105 = alloca %union.U0, align 4
  %106 = alloca ptr, align 8
  %107 = alloca i32, align 4
  %108 = alloca i32, align 4
  %109 = alloca [7 x [8 x i32]], align 16
  %110 = alloca ptr, align 8
  %111 = alloca %union.U4, align 2
  %112 = alloca i32, align 4
  %113 = alloca i32, align 4
  %114 = alloca i8, align 1
  %115 = alloca i32, align 4
  %116 = alloca i32, align 4
  %117 = alloca i32, align 4
  %118 = alloca i32, align 4
  %119 = alloca [8 x i32], align 16
  %120 = alloca %union.U1, align 2
  %121 = alloca i32, align 4
  %122 = alloca [8 x i16], align 16
  %123 = alloca %union.U4, align 2
  %124 = alloca ptr, align 8
  %125 = alloca [6 x [5 x ptr]], align 16
  %126 = alloca i16, align 2
  %127 = alloca ptr, align 8
  %128 = alloca i32, align 4
  %129 = alloca i32, align 4
  %130 = alloca i32, align 4
  %131 = alloca i32, align 4
  %132 = alloca i32, align 4
  %133 = alloca i32, align 4
  %134 = alloca i32, align 4
  %135 = alloca i32, align 4
  %136 = alloca [8 x i32], align 16
  %137 = alloca [5 x [8 x ptr]], align 16
  %138 = alloca i32, align 4
  %139 = alloca i32, align 4
  call void @llvm.dbg.declare(metadata ptr %2, metadata !2296, metadata !DIExpression()), !dbg !2297
  store i32 -207668134, ptr %2, align 4, !dbg !2298
  call void @llvm.dbg.declare(metadata ptr %3, metadata !2299, metadata !DIExpression()), !dbg !2300
  store i32 -1795190700, ptr %3, align 4, !dbg !2300
  call void @llvm.dbg.declare(metadata ptr %4, metadata !2301, metadata !DIExpression()), !dbg !2302
  store i32 -1, ptr %4, align 4, !dbg !2302
  call void @llvm.dbg.declare(metadata ptr %5, metadata !2303, metadata !DIExpression()), !dbg !2304
  store i32 -1689060711, ptr %5, align 4, !dbg !2304
  call void @llvm.dbg.declare(metadata ptr %6, metadata !2305, metadata !DIExpression()), !dbg !2306
  store i32 1272617434, ptr %6, align 4, !dbg !2306
  call void @llvm.dbg.declare(metadata ptr %7, metadata !2307, metadata !DIExpression()), !dbg !2310
  store ptr @_ZL6g_2199, ptr %7, align 8, !dbg !2310
  call void @llvm.dbg.declare(metadata ptr %8, metadata !2311, metadata !DIExpression()), !dbg !2313
  store ptr %7, ptr %8, align 8, !dbg !2313
  call void @llvm.dbg.declare(metadata ptr %9, metadata !2314, metadata !DIExpression()), !dbg !2315
  store i64 903025031038103379, ptr %9, align 8, !dbg !2315
  call void @llvm.dbg.declare(metadata ptr %10, metadata !2316, metadata !DIExpression()), !dbg !2320
  call void @llvm.memcpy.p0.p0.i64(ptr align 16 %10, ptr align 16 @__const._ZL6func_1v.l_2323, i64 2016, i1 false), !dbg !2320
  call void @llvm.dbg.declare(metadata ptr %11, metadata !2321, metadata !DIExpression()), !dbg !2323
  store ptr null, ptr %11, align 8, !dbg !2323
  call void @llvm.dbg.declare(metadata ptr %12, metadata !2324, metadata !DIExpression()), !dbg !2326
  store ptr %11, ptr %12, align 8, !dbg !2326
  call void @llvm.dbg.declare(metadata ptr %13, metadata !2327, metadata !DIExpression()), !dbg !2328
  store ptr @_ZL5g_313, ptr %13, align 8, !dbg !2328
  call void @llvm.dbg.declare(metadata ptr %14, metadata !2329, metadata !DIExpression()), !dbg !2332
  store ptr null, ptr %14, align 8, !dbg !2332
  call void @llvm.dbg.declare(metadata ptr %15, metadata !2333, metadata !DIExpression()), !dbg !2336
  call void @llvm.memcpy.p0.p0.i64(ptr align 2 %15, ptr align 2 @__const._ZL6func_1v.l_2419, i64 8, i1 false), !dbg !2336
  call void @llvm.dbg.declare(metadata ptr %16, metadata !2337, metadata !DIExpression()), !dbg !2338
  store ptr null, ptr %16, align 8, !dbg !2338
  call void @llvm.dbg.declare(metadata ptr %17, metadata !2339, metadata !DIExpression()), !dbg !2340
  store i16 1, ptr %17, align 2, !dbg !2340
  call void @llvm.dbg.declare(metadata ptr %18, metadata !2341, metadata !DIExpression()), !dbg !2342
  store ptr null, ptr %18, align 8, !dbg !2342
  call void @llvm.dbg.declare(metadata ptr %19, metadata !2343, metadata !DIExpression()), !dbg !2344
  store i32 -1, ptr %19, align 4, !dbg !2344
  call void @llvm.dbg.declare(metadata ptr %20, metadata !2345, metadata !DIExpression()), !dbg !2346
  store i32 594264973, ptr %20, align 4, !dbg !2346
  call void @llvm.dbg.declare(metadata ptr %21, metadata !2347, metadata !DIExpression()), !dbg !2348
  store i32 0, ptr %21, align 4, !dbg !2348
  call void @llvm.dbg.declare(metadata ptr %22, metadata !2349, metadata !DIExpression()), !dbg !2350
  store i32 -8, ptr %22, align 4, !dbg !2350
  call void @llvm.dbg.declare(metadata ptr %23, metadata !2351, metadata !DIExpression()), !dbg !2352
  store i32 -1, ptr %23, align 4, !dbg !2352
  call void @llvm.dbg.declare(metadata ptr %24, metadata !2353, metadata !DIExpression()), !dbg !2354
  store ptr null, ptr %24, align 8, !dbg !2354
  call void @llvm.dbg.declare(metadata ptr %25, metadata !2355, metadata !DIExpression()), !dbg !2358
  call void @llvm.dbg.declare(metadata ptr %26, metadata !2359, metadata !DIExpression()), !dbg !2360
  store i32 -1576952829, ptr %26, align 4, !dbg !2360
  call void @llvm.dbg.declare(metadata ptr %27, metadata !2361, metadata !DIExpression()), !dbg !2362
  store i64 5682451316754310983, ptr %27, align 8, !dbg !2362
  call void @llvm.dbg.declare(metadata ptr %28, metadata !2363, metadata !DIExpression()), !dbg !2365
  call void @llvm.dbg.declare(metadata ptr %29, metadata !2366, metadata !DIExpression()), !dbg !2367
  call void @llvm.dbg.declare(metadata ptr %30, metadata !2368, metadata !DIExpression()), !dbg !2369
  call void @llvm.dbg.declare(metadata ptr %31, metadata !2370, metadata !DIExpression()), !dbg !2371
  store i32 0, ptr %29, align 4, !dbg !2372
  br label %140, !dbg !2374

140:                                              ; preds = %158, %0
  %141 = load i32, ptr %29, align 4, !dbg !2375
  %142 = icmp slt i32 %141, 1, !dbg !2377
  br i1 %142, label %143, label %161, !dbg !2378

143:                                              ; preds = %140
  store i32 0, ptr %30, align 4, !dbg !2379
  br label %144, !dbg !2382

144:                                              ; preds = %154, %143
  %145 = load i32, ptr %30, align 4, !dbg !2383
  %146 = icmp slt i32 %145, 10, !dbg !2385
  br i1 %146, label %147, label %157, !dbg !2386

147:                                              ; preds = %144
  %148 = load i32, ptr %29, align 4, !dbg !2387
  %149 = sext i32 %148 to i64, !dbg !2388
  %150 = getelementptr inbounds [1 x [10 x i64]], ptr %25, i64 0, i64 %149, !dbg !2388
  %151 = load i32, ptr %30, align 4, !dbg !2389
  %152 = sext i32 %151 to i64, !dbg !2388
  %153 = getelementptr inbounds [10 x i64], ptr %150, i64 0, i64 %152, !dbg !2388
  store i64 3399871360421987074, ptr %153, align 8, !dbg !2390
  br label %154, !dbg !2388

154:                                              ; preds = %147
  %155 = load i32, ptr %30, align 4, !dbg !2391
  %156 = add nsw i32 %155, 1, !dbg !2391
  store i32 %156, ptr %30, align 4, !dbg !2391
  br label %144, !dbg !2392, !llvm.loop !2393

157:                                              ; preds = %144
  br label %158, !dbg !2395

158:                                              ; preds = %157
  %159 = load i32, ptr %29, align 4, !dbg !2396
  %160 = add nsw i32 %159, 1, !dbg !2396
  store i32 %160, ptr %29, align 4, !dbg !2396
  br label %140, !dbg !2397, !llvm.loop !2398

161:                                              ; preds = %140
  store i32 0, ptr %29, align 4, !dbg !2400
  br label %162, !dbg !2402

162:                                              ; preds = %169, %161
  %163 = load i32, ptr %29, align 4, !dbg !2403
  %164 = icmp slt i32 %163, 6, !dbg !2405
  br i1 %164, label %165, label %172, !dbg !2406

165:                                              ; preds = %162
  %166 = load i32, ptr %29, align 4, !dbg !2407
  %167 = sext i32 %166 to i64, !dbg !2408
  %168 = getelementptr inbounds [6 x i32], ptr %28, i64 0, i64 %167, !dbg !2408
  store i32 2087786319, ptr %168, align 4, !dbg !2409
  br label %169, !dbg !2408

169:                                              ; preds = %165
  %170 = load i32, ptr %29, align 4, !dbg !2410
  %171 = add nsw i32 %170, 1, !dbg !2410
  store i32 %171, ptr %29, align 4, !dbg !2410
  br label %162, !dbg !2411, !llvm.loop !2412

172:                                              ; preds = %162
  store i32 0, ptr @_ZL3g_2, align 4, !dbg !2414
  br label %173, !dbg !2416

173:                                              ; preds = %195, %172
  %174 = load i32, ptr @_ZL3g_2, align 4, !dbg !2417
  %175 = icmp eq i32 %174, 7, !dbg !2419
  br i1 %175, label %176, label %198, !dbg !2420

176:                                              ; preds = %173
  call void @llvm.dbg.declare(metadata ptr %32, metadata !2421, metadata !DIExpression()), !dbg !2423
  store i16 -3, ptr %32, align 2, !dbg !2423
  call void @llvm.dbg.declare(metadata ptr %33, metadata !2424, metadata !DIExpression()), !dbg !2425
  store i32 6, ptr %33, align 4, !dbg !2425
  call void @llvm.dbg.declare(metadata ptr %34, metadata !2426, metadata !DIExpression()), !dbg !2427
  store i32 7, ptr %34, align 4, !dbg !2427
  call void @llvm.dbg.declare(metadata ptr %35, metadata !2428, metadata !DIExpression()), !dbg !2429
  store ptr getelementptr inbounds ([4 x [2 x %union.U2]], ptr @_ZL5g_149, i64 0, i64 3, i64 1), ptr %35, align 8, !dbg !2429
  call void @llvm.dbg.declare(metadata ptr %36, metadata !2430, metadata !DIExpression()), !dbg !2431
  store ptr %34, ptr %36, align 8, !dbg !2431
  call void @llvm.dbg.declare(metadata ptr %37, metadata !2432, metadata !DIExpression()), !dbg !2433
  store ptr getelementptr inbounds ([6 x i32], ptr @_ZL5g_422, i64 0, i64 1), ptr %37, align 8, !dbg !2433
  call void @llvm.dbg.declare(metadata ptr %38, metadata !2434, metadata !DIExpression()), !dbg !2435
  store ptr %4, ptr %38, align 8, !dbg !2435
  call void @llvm.dbg.declare(metadata ptr %39, metadata !2436, metadata !DIExpression()), !dbg !2437
  store ptr @_ZL5g_422, ptr %39, align 8, !dbg !2437
  call void @llvm.dbg.declare(metadata ptr %40, metadata !2438, metadata !DIExpression()), !dbg !2439
  store ptr %34, ptr %40, align 8, !dbg !2439
  call void @llvm.dbg.declare(metadata ptr %41, metadata !2440, metadata !DIExpression()), !dbg !2442
  call void @llvm.memcpy.p0.p0.i64(ptr align 16 %41, ptr align 16 @__const._ZL6func_1v.l_2300, i64 288, i1 false), !dbg !2442
  call void @llvm.dbg.declare(metadata ptr %42, metadata !2443, metadata !DIExpression()), !dbg !2444
  call void @llvm.dbg.declare(metadata ptr %43, metadata !2445, metadata !DIExpression()), !dbg !2446
  store i32 12, ptr @_ZL3g_5, align 4, !dbg !2447
  br label %177, !dbg !2449

177:                                              ; preds = %181, %176
  %178 = load i32, ptr @_ZL3g_5, align 4, !dbg !2450
  %179 = icmp sge i32 %178, -3, !dbg !2452
  br i1 %179, label %180, label %186, !dbg !2453

180:                                              ; preds = %177
  call void @llvm.dbg.declare(metadata ptr %44, metadata !2454, metadata !DIExpression()), !dbg !2456
  store i16 30679, ptr %44, align 2, !dbg !2456
  call void @llvm.dbg.declare(metadata ptr %45, metadata !2457, metadata !DIExpression()), !dbg !2460
  call void @llvm.memcpy.p0.p0.i64(ptr align 16 %45, ptr align 16 @__const._ZL6func_1v.l_1138, i64 120, i1 false), !dbg !2460
  call void @llvm.dbg.declare(metadata ptr %46, metadata !2461, metadata !DIExpression()), !dbg !2462
  store i16 -1, ptr %46, align 2, !dbg !2462
  call void @llvm.dbg.declare(metadata ptr %47, metadata !2463, metadata !DIExpression()), !dbg !2464
  store i64 6970159599675675478, ptr %47, align 8, !dbg !2464
  call void @llvm.dbg.declare(metadata ptr %48, metadata !2465, metadata !DIExpression()), !dbg !2466
  call void @llvm.dbg.declare(metadata ptr %49, metadata !2467, metadata !DIExpression()), !dbg !2468
  call void @llvm.dbg.declare(metadata ptr %50, metadata !2469, metadata !DIExpression()), !dbg !2470
  br label %181, !dbg !2471

181:                                              ; preds = %180
  %182 = load i32, ptr @_ZL3g_5, align 4, !dbg !2472
  %183 = sext i32 %182 to i64, !dbg !2472
  %184 = call noundef i64 @_ZL25safe_sub_func_int64_t_s_sll(i64 noundef %183, i64 noundef 7), !dbg !2473
  %185 = trunc i64 %184 to i32, !dbg !2473
  store i32 %185, ptr @_ZL3g_5, align 4, !dbg !2474
  br label %177, !dbg !2475, !llvm.loop !2476

186:                                              ; preds = %177
  %187 = load ptr, ptr @_ZL5g_139, align 8, !dbg !2478
  %188 = load ptr, ptr %187, align 8, !dbg !2480
  %189 = load i32, ptr %188, align 4, !dbg !2481
  %190 = icmp ne i32 %189, 0, !dbg !2482
  br i1 %190, label %191, label %192, !dbg !2483

191:                                              ; preds = %186
  br label %198, !dbg !2484

192:                                              ; preds = %186
  %193 = load i32, ptr %6, align 4, !dbg !2485
  %194 = add i32 %193, 1, !dbg !2485
  store i32 %194, ptr %6, align 4, !dbg !2485
  br label %195, !dbg !2486

195:                                              ; preds = %192
  %196 = load i32, ptr @_ZL3g_2, align 4, !dbg !2487
  %197 = add nsw i32 %196, 1, !dbg !2487
  store i32 %197, ptr @_ZL3g_2, align 4, !dbg !2487
  br label %173, !dbg !2488, !llvm.loop !2489

198:                                              ; preds = %191, %173
  %199 = load i32, ptr %5, align 4, !dbg !2491
  %200 = sext i32 %199 to i64, !dbg !2491
  %201 = load i32, ptr %2, align 4, !dbg !2493
  %202 = icmp ne i32 %201, 0, !dbg !2494
  br i1 %202, label %233, label %203, !dbg !2495

203:                                              ; preds = %198
  %204 = load i32, ptr %6, align 4, !dbg !2496
  %205 = zext i32 %204 to i64, !dbg !2496
  %206 = load i32, ptr @_ZL6g_1931, align 4, !dbg !2497
  %207 = trunc i32 %206 to i8, !dbg !2497
  %208 = load volatile ptr, ptr @_ZL6g_2025, align 8, !dbg !2498
  %209 = load ptr, ptr %8, align 8, !dbg !2499
  %210 = icmp ne ptr %208, %209, !dbg !2500
  %211 = zext i1 %210 to i8, !dbg !2501
  %212 = load i32, ptr %5, align 4, !dbg !2502
  %213 = trunc i32 %212 to i8, !dbg !2502
  %214 = call noundef zeroext i8 @_ZL25safe_mul_func_uint8_t_u_uhh(i8 noundef zeroext %211, i8 noundef zeroext %213), !dbg !2503
  %215 = zext i8 %214 to i16, !dbg !2504
  %216 = load i64, ptr %9, align 8, !dbg !2505
  %217 = trunc i64 %216 to i16, !dbg !2505
  %218 = call noundef zeroext i16 @_ZL26safe_div_func_uint16_t_u_utt(i16 noundef zeroext %215, i16 noundef zeroext %217), !dbg !2506
  %219 = zext i16 %218 to i32, !dbg !2507
  %220 = load i32, ptr %2, align 4, !dbg !2508
  %221 = call noundef i32 @_ZL26safe_add_func_uint32_t_u_ujj(i32 noundef %219, i32 noundef %220), !dbg !2509
  %222 = trunc i32 %221 to i16, !dbg !2510
  %223 = call noundef signext i16 @_ZL28safe_lshift_func_int16_t_s_usj(i16 noundef signext %222, i32 noundef 4), !dbg !2511
  %224 = trunc i16 %223 to i8, !dbg !2512
  %225 = call noundef zeroext i8 @_ZL25safe_add_func_uint8_t_u_uhh(i8 noundef zeroext %207, i8 noundef zeroext %224), !dbg !2513
  %226 = icmp eq i64 %205, 7, !dbg !2514
  %227 = zext i1 %226 to i8, !dbg !2515
  %228 = call noundef zeroext i8 @_ZL28safe_lshift_func_uint8_t_u_shi(i8 noundef zeroext %227, i32 noundef 1), !dbg !2516
  %229 = load i32, ptr %6, align 4, !dbg !2517
  %230 = trunc i32 %229 to i8, !dbg !2517
  %231 = call noundef signext i8 @_ZL24safe_sub_func_int8_t_s_saa(i8 noundef signext %228, i8 noundef signext %230), !dbg !2518
  %232 = icmp ne i8 %231, 0, !dbg !2519
  br label %233, !dbg !2495

233:                                              ; preds = %203, %198
  %234 = phi i1 [ true, %198 ], [ %232, %203 ]
  %235 = zext i1 %234 to i64, !dbg !2520
  %236 = call noundef i64 @_ZL26safe_add_func_uint64_t_u_umm(i64 noundef 7838281458710188276, i64 noundef %235), !dbg !2521
  %237 = icmp uge i64 %200, %236, !dbg !2522
  %238 = zext i1 %237 to i32, !dbg !2523
  %239 = load i32, ptr %3, align 4, !dbg !2524
  %240 = and i32 %239, %238, !dbg !2524
  store i32 %240, ptr %3, align 4, !dbg !2524
  %241 = load i32, ptr @_ZL6g_2324, align 16, !dbg !2525
  %242 = or i32 %240, %241, !dbg !2526
  br i1 true, label %243, label %841, !dbg !2527

243:                                              ; preds = %233
  call void @llvm.dbg.declare(metadata ptr %51, metadata !2528, metadata !DIExpression()), !dbg !2530
  store i16 14316, ptr %51, align 2, !dbg !2530
  call void @llvm.dbg.declare(metadata ptr %52, metadata !2531, metadata !DIExpression()), !dbg !2533
  store ptr @_ZL5g_744, ptr %52, align 8, !dbg !2533
  call void @llvm.dbg.declare(metadata ptr %53, metadata !2534, metadata !DIExpression()), !dbg !2535
  store ptr @_ZL5g_422, ptr %53, align 8, !dbg !2535
  call void @llvm.dbg.declare(metadata ptr %54, metadata !2536, metadata !DIExpression()), !dbg !2537
  store i16 -6, ptr %54, align 2, !dbg !2537
  call void @llvm.dbg.declare(metadata ptr %55, metadata !2538, metadata !DIExpression()), !dbg !2539
  store ptr @_ZL5g_837, ptr %55, align 8, !dbg !2539
  call void @llvm.dbg.declare(metadata ptr %56, metadata !2540, metadata !DIExpression()), !dbg !2541
  store i32 569081037, ptr %56, align 4, !dbg !2542
  call void @llvm.dbg.declare(metadata ptr %57, metadata !2543, metadata !DIExpression()), !dbg !2544
  store ptr @_ZL5g_338, ptr %57, align 8, !dbg !2544
  call void @llvm.dbg.declare(metadata ptr %58, metadata !2545, metadata !DIExpression()), !dbg !2546
  store ptr @_ZL6g_1487, ptr %58, align 8, !dbg !2546
  call void @llvm.dbg.declare(metadata ptr %59, metadata !2547, metadata !DIExpression()), !dbg !2548
  store ptr @_ZL6g_2175, ptr %59, align 8, !dbg !2548
  call void @llvm.dbg.declare(metadata ptr %60, metadata !2549, metadata !DIExpression()), !dbg !2552
  %244 = getelementptr inbounds [3 x [2 x ptr]], ptr %60, i64 0, i64 0, !dbg !2553
  %245 = getelementptr inbounds [2 x ptr], ptr %244, i64 0, i64 0, !dbg !2554
  store ptr %59, ptr %245, align 8, !dbg !2554
  %246 = getelementptr inbounds ptr, ptr %245, i64 1, !dbg !2554
  store ptr %59, ptr %246, align 8, !dbg !2554
  %247 = getelementptr inbounds [2 x ptr], ptr %244, i64 1, !dbg !2553
  %248 = getelementptr inbounds [2 x ptr], ptr %247, i64 0, i64 0, !dbg !2555
  store ptr %59, ptr %248, align 8, !dbg !2555
  %249 = getelementptr inbounds ptr, ptr %248, i64 1, !dbg !2555
  store ptr %59, ptr %249, align 8, !dbg !2555
  %250 = getelementptr inbounds [2 x ptr], ptr %247, i64 1, !dbg !2553
  %251 = getelementptr inbounds [2 x ptr], ptr %250, i64 0, i64 0, !dbg !2556
  store ptr %59, ptr %251, align 8, !dbg !2556
  %252 = getelementptr inbounds ptr, ptr %251, i64 1, !dbg !2556
  store ptr %59, ptr %252, align 8, !dbg !2556
  call void @llvm.dbg.declare(metadata ptr %61, metadata !2557, metadata !DIExpression()), !dbg !2560
  %253 = getelementptr inbounds [6 x ptr], ptr %61, i64 0, i64 0, !dbg !2561
  %254 = getelementptr inbounds [3 x [2 x ptr]], ptr %60, i64 0, i64 1, !dbg !2562
  %255 = getelementptr inbounds [2 x ptr], ptr %254, i64 0, i64 0, !dbg !2562
  store ptr %255, ptr %253, align 8, !dbg !2561
  %256 = getelementptr inbounds ptr, ptr %253, i64 1, !dbg !2561
  %257 = getelementptr inbounds [3 x [2 x ptr]], ptr %60, i64 0, i64 1, !dbg !2563
  %258 = getelementptr inbounds [2 x ptr], ptr %257, i64 0, i64 0, !dbg !2563
  store ptr %258, ptr %256, align 8, !dbg !2561
  %259 = getelementptr inbounds ptr, ptr %256, i64 1, !dbg !2561
  %260 = getelementptr inbounds [3 x [2 x ptr]], ptr %60, i64 0, i64 2, !dbg !2564
  %261 = getelementptr inbounds [2 x ptr], ptr %260, i64 0, i64 0, !dbg !2564
  store ptr %261, ptr %259, align 8, !dbg !2561
  %262 = getelementptr inbounds ptr, ptr %259, i64 1, !dbg !2561
  %263 = getelementptr inbounds [3 x [2 x ptr]], ptr %60, i64 0, i64 1, !dbg !2565
  %264 = getelementptr inbounds [2 x ptr], ptr %263, i64 0, i64 0, !dbg !2565
  store ptr %264, ptr %262, align 8, !dbg !2561
  %265 = getelementptr inbounds ptr, ptr %262, i64 1, !dbg !2561
  %266 = getelementptr inbounds [3 x [2 x ptr]], ptr %60, i64 0, i64 1, !dbg !2566
  %267 = getelementptr inbounds [2 x ptr], ptr %266, i64 0, i64 0, !dbg !2566
  store ptr %267, ptr %265, align 8, !dbg !2561
  %268 = getelementptr inbounds ptr, ptr %265, i64 1, !dbg !2561
  %269 = getelementptr inbounds [3 x [2 x ptr]], ptr %60, i64 0, i64 2, !dbg !2567
  %270 = getelementptr inbounds [2 x ptr], ptr %269, i64 0, i64 0, !dbg !2567
  store ptr %270, ptr %268, align 8, !dbg !2561
  call void @llvm.dbg.declare(metadata ptr %62, metadata !2568, metadata !DIExpression()), !dbg !2570
  store ptr @_ZL6g_1117, ptr %62, align 8, !dbg !2570
  call void @llvm.dbg.declare(metadata ptr %63, metadata !2571, metadata !DIExpression()), !dbg !2572
  store i32 252273539, ptr %63, align 4, !dbg !2572
  call void @llvm.dbg.declare(metadata ptr %64, metadata !2573, metadata !DIExpression()), !dbg !2574
  store i32 -1732997855, ptr %64, align 4, !dbg !2574
  call void @llvm.dbg.declare(metadata ptr %65, metadata !2575, metadata !DIExpression()), !dbg !2576
  store i32 -638229174, ptr %65, align 4, !dbg !2576
  call void @llvm.dbg.declare(metadata ptr %66, metadata !2577, metadata !DIExpression()), !dbg !2578
  store i32 -1478310357, ptr %66, align 4, !dbg !2578
  call void @llvm.dbg.declare(metadata ptr %67, metadata !2579, metadata !DIExpression()), !dbg !2580
  store i32 -1343789299, ptr %67, align 4, !dbg !2580
  call void @llvm.dbg.declare(metadata ptr %68, metadata !2581, metadata !DIExpression()), !dbg !2582
  call void @llvm.dbg.declare(metadata ptr %69, metadata !2583, metadata !DIExpression()), !dbg !2584
  %271 = load i32, ptr @_ZL3g_5, align 4, !dbg !2585
  %272 = call i32 (ptr, ...) @printf(ptr noundef @.str.164, i32 noundef %271), !dbg !2586
  %273 = load i32, ptr @_ZL6g_1946, align 4, !dbg !2587
  %274 = trunc i32 %273 to i16, !dbg !2587
  %275 = call noundef zeroext i16 @_ZL29safe_rshift_func_uint16_t_u_sti(i16 noundef zeroext %274, i32 noundef 7), !dbg !2588
  %276 = zext i16 %275 to i32, !dbg !2589
  %277 = load i16, ptr %51, align 2, !dbg !2590
  %278 = sext i16 %277 to i32, !dbg !2590
  %279 = icmp ne i32 %276, %278, !dbg !2591
  %280 = zext i1 %279 to i32, !dbg !2592
  %281 = load ptr, ptr @_ZL6g_1680, align 8, !dbg !2593
  %282 = load ptr, ptr %281, align 8, !dbg !2594
  %283 = load ptr, ptr %282, align 8, !dbg !2595
  %284 = load ptr, ptr %283, align 8, !dbg !2596
  %285 = load i32, ptr %284, align 4, !dbg !2597
  %286 = load i32, ptr %4, align 4, !dbg !2598
  %287 = and i32 %286, %285, !dbg !2598
  store i32 %287, ptr %4, align 4, !dbg !2598
  %288 = sext i32 %287 to i64, !dbg !2599
  %289 = and i64 -2, %288, !dbg !2600
  %290 = trunc i64 %289 to i16, !dbg !2601
  %291 = load ptr, ptr %52, align 8, !dbg !2602
  store i16 24035, ptr %291, align 2, !dbg !2603
  %292 = call noundef zeroext i16 @_ZL26safe_mul_func_uint16_t_u_utt(i16 noundef zeroext %290, i16 noundef zeroext 24035), !dbg !2604
  %293 = zext i16 %292 to i64, !dbg !2605
  %294 = load i32, ptr @_ZL6g_1899, align 4, !dbg !2606
  %295 = zext i32 %294 to i64, !dbg !2606
  store i64 %295, ptr @_ZL6g_1221, align 8, !dbg !2607
  %296 = load ptr, ptr %53, align 8, !dbg !2608
  %297 = icmp eq ptr null, %296, !dbg !2609
  %298 = zext i1 %297 to i64, !dbg !2610
  %299 = icmp ne i64 %295, %298, !dbg !2611
  %300 = zext i1 %299 to i64, !dbg !2612
  %301 = or i64 %300, 29, !dbg !2613
  %302 = and i64 %293, %301, !dbg !2614
  %303 = icmp eq i64 %302, 1, !dbg !2615
  %304 = zext i1 %303 to i32, !dbg !2616
  %305 = xor i32 %280, %304, !dbg !2617
  %306 = load ptr, ptr @_ZL5g_139, align 8, !dbg !2618
  %307 = load ptr, ptr %306, align 8, !dbg !2619
  %308 = load i32, ptr %307, align 4, !dbg !2620
  %309 = and i32 %308, %305, !dbg !2620
  store i32 %309, ptr %307, align 4, !dbg !2620
  %310 = load i32, ptr @_ZL3g_5, align 4, !dbg !2621
  %311 = call i32 (ptr, ...) @printf(ptr noundef @.str.165, i32 noundef %310), !dbg !2622
  %312 = load ptr, ptr %53, align 8, !dbg !2623
  %313 = load i32, ptr %312, align 4, !dbg !2624
  %314 = call noundef i32 @_ZL29safe_rshift_func_uint32_t_u_sji(i32 noundef %313, i32 noundef 28), !dbg !2625
  %315 = call noundef i32 @_ZL29safe_rshift_func_uint32_t_u_sji(i32 noundef %314, i32 noundef 1), !dbg !2626
  %316 = zext i32 %315 to i64, !dbg !2627
  %317 = load i32, ptr getelementptr inbounds ([10 x i32], ptr @_ZL6g_1944, i64 0, i64 9), align 4, !dbg !2628
  %318 = zext i32 %317 to i64, !dbg !2628
  %319 = call noundef i64 @_ZL26safe_mul_func_uint64_t_u_umm(i64 noundef %316, i64 noundef %318), !dbg !2629
  %320 = load i32, ptr @_ZL5g_422, align 16, !dbg !2630
  %321 = trunc i32 %320 to i16, !dbg !2630
  %322 = call noundef i64 @_ZL32safe_unary_minus_func_uint64_t_um(i64 noundef 0), !dbg !2631
  %323 = trunc i64 %322 to i16, !dbg !2632
  %324 = call noundef signext i16 @_ZL31safe_unary_minus_func_int16_t_ss(i16 noundef signext %323), !dbg !2633
  %325 = trunc i16 %324 to i8, !dbg !2634
  %326 = load i32, ptr getelementptr inbounds ([4 x [9 x i32]], ptr @_ZL6g_1922, i64 0, i64 1, i64 5), align 4, !dbg !2635
  %327 = zext i32 %326 to i64, !dbg !2635
  %328 = or i64 -3, %327, !dbg !2636
  %329 = load ptr, ptr %53, align 8, !dbg !2637
  %330 = load i32, ptr %329, align 4, !dbg !2638
  %331 = trunc i32 %330 to i16, !dbg !2639
  %332 = call noundef zeroext i16 @_ZL26safe_sub_func_uint16_t_u_utt(i16 noundef zeroext %331, i16 noundef zeroext -12655), !dbg !2640
  %333 = zext i16 %332 to i64, !dbg !2641
  %334 = xor i64 %328, %333, !dbg !2642
  %335 = trunc i64 %334 to i8, !dbg !2643
  %336 = call noundef signext i8 @_ZL24safe_sub_func_int8_t_s_saa(i8 noundef signext %325, i8 noundef signext %335), !dbg !2644
  %337 = load i32, ptr getelementptr inbounds ([5 x i32], ptr @_ZL6g_1892, i64 0, i64 3), align 4, !dbg !2645
  %338 = load i32, ptr %2, align 4, !dbg !2646
  %339 = icmp ne i32 %337, %338, !dbg !2647
  %340 = zext i1 %339 to i64, !dbg !2648
  store i64 %340, ptr @_ZL6g_1221, align 8, !dbg !2649
  %341 = load i32, ptr %3, align 4, !dbg !2650
  %342 = sext i32 %341 to i64, !dbg !2650
  %343 = call noundef i64 @_ZL25safe_sub_func_int64_t_s_sll(i64 noundef %340, i64 noundef %342), !dbg !2651
  %344 = icmp ne i64 %343, 0, !dbg !2652
  %345 = xor i1 %344, true, !dbg !2653
  %346 = load ptr, ptr @_ZL5g_150, align 8, !dbg !2654
  %347 = load ptr, ptr %53, align 8, !dbg !2655
  %348 = load i32, ptr %347, align 4, !dbg !2656
  %349 = icmp ne i32 %348, 0, !dbg !2657
  br i1 %349, label %353, label %350, !dbg !2658

350:                                              ; preds = %243
  %351 = load i16, ptr %54, align 2, !dbg !2659
  %352 = icmp ne i16 %351, 0, !dbg !2659
  br label %353, !dbg !2658

353:                                              ; preds = %350, %243
  %354 = phi i1 [ true, %243 ], [ %352, %350 ]
  %355 = load i32, ptr %6, align 4, !dbg !2660
  %356 = load ptr, ptr %53, align 8, !dbg !2661
  %357 = load i32, ptr %356, align 4, !dbg !2662
  %358 = icmp ule i32 %355, %357, !dbg !2663
  %359 = zext i1 %358 to i16, !dbg !2664
  %360 = load ptr, ptr %55, align 8, !dbg !2665
  store i16 %359, ptr %360, align 2, !dbg !2666
  %361 = call noundef zeroext i16 @_ZL26safe_sub_func_uint16_t_u_utt(i16 noundef zeroext %321, i16 noundef zeroext %359), !dbg !2667
  %362 = zext i16 %361 to i64, !dbg !2668
  %363 = icmp slt i64 %362, 59803, !dbg !2669
  %364 = zext i1 %363 to i32, !dbg !2670
  call void @llvm.memcpy.p0.p0.i64(ptr align 4 %70, ptr align 4 %56, i64 4, i1 false), !dbg !2671
  %365 = load i32, ptr getelementptr inbounds ([5 x i32], ptr @_ZL6g_1892, i64 0, i64 1), align 4, !dbg !2672
  %366 = getelementptr inbounds %union.U0, ptr %70, i32 0, i32 0, !dbg !2673
  %367 = load i32, ptr %366, align 4, !dbg !2673
  %368 = call i16 @_ZL7func_39i2U0j(i32 noundef %364, i32 %367, i32 noundef %365), !dbg !2673
  %369 = getelementptr inbounds %union.U1, ptr %71, i32 0, i32 0, !dbg !2673
  store i16 %368, ptr %369, align 2, !dbg !2673
  %370 = load i32, ptr @_ZL6g_2354, align 4, !dbg !2674
  %371 = load ptr, ptr %53, align 8, !dbg !2675
  store i32 %370, ptr %371, align 4, !dbg !2676
  store i16 0, ptr @_ZL5g_106, align 2, !dbg !2677
  br label %372, !dbg !2679

372:                                              ; preds = %378, %353
  %373 = load i16, ptr @_ZL5g_106, align 2, !dbg !2680
  %374 = zext i16 %373 to i32, !dbg !2680
  %375 = icmp sgt i32 %374, 31, !dbg !2682
  br i1 %375, label %376, label %381, !dbg !2683

376:                                              ; preds = %372
  %377 = load ptr, ptr %53, align 8, !dbg !2684
  store ptr %377, ptr @_ZL6g_2357, align 8, !dbg !2686
  br label %378, !dbg !2687

378:                                              ; preds = %376
  %379 = load i16, ptr @_ZL5g_106, align 2, !dbg !2688
  %380 = add i16 %379, 1, !dbg !2688
  store i16 %380, ptr @_ZL5g_106, align 2, !dbg !2688
  br label %372, !dbg !2689, !llvm.loop !2690

381:                                              ; preds = %372
  %382 = load i32, ptr %3, align 4, !dbg !2692
  %383 = sext i32 %382 to i64, !dbg !2692
  %384 = load volatile ptr, ptr @_ZL6g_2364, align 8, !dbg !2694
  %385 = load i32, ptr @_ZL6g_1910, align 4, !dbg !2695
  %386 = load ptr, ptr %53, align 8, !dbg !2696
  %387 = load i32, ptr %386, align 4, !dbg !2697
  %388 = sext i32 %387 to i64, !dbg !2698
  %389 = call noundef i64 @_ZL26safe_mul_func_uint64_t_u_umm(i64 noundef 5063416666836942707, i64 noundef %388), !dbg !2699
  %390 = icmp ne i64 %389, 0, !dbg !2700
  br i1 %390, label %414, label %391, !dbg !2701

391:                                              ; preds = %381
  %392 = load i32, ptr getelementptr inbounds ([4 x [9 x i32]], ptr @_ZL6g_1922, i64 0, i64 3, i64 1), align 4, !dbg !2702
  %393 = zext i32 %392 to i64, !dbg !2702
  %394 = load ptr, ptr %12, align 8, !dbg !2703
  %395 = icmp ne ptr null, %394, !dbg !2704
  %396 = zext i1 %395 to i64, !dbg !2705
  %397 = call noundef i64 @_ZL26safe_add_func_uint64_t_u_umm(i64 noundef %393, i64 noundef %396), !dbg !2706
  %398 = icmp uge i64 -1, %397, !dbg !2707
  %399 = zext i1 %398 to i32, !dbg !2708
  %400 = load i32, ptr @_ZL6g_1907, align 4, !dbg !2709
  %401 = icmp ult i32 %399, %400, !dbg !2710
  %402 = xor i1 %401, true, !dbg !2711
  %403 = zext i1 %402 to i64, !dbg !2712
  %404 = icmp eq i64 %403, -1, !dbg !2713
  %405 = zext i1 %404 to i64, !dbg !2714
  %406 = or i64 %405, 238, !dbg !2715
  %407 = load ptr, ptr %57, align 8, !dbg !2716
  store i64 %406, ptr %407, align 8, !dbg !2717
  %408 = load ptr, ptr %58, align 8, !dbg !2718
  %409 = load i64, ptr %408, align 8, !dbg !2719
  %410 = xor i64 %409, %406, !dbg !2719
  store i64 %410, ptr %408, align 8, !dbg !2719
  %411 = load ptr, ptr %13, align 8, !dbg !2720
  %412 = load ptr, ptr %13, align 8, !dbg !2721
  %413 = icmp eq ptr %411, %412, !dbg !2722
  br label %414, !dbg !2701

414:                                              ; preds = %391, %381
  %415 = phi i1 [ true, %381 ], [ true, %391 ]
  %416 = load ptr, ptr %53, align 8, !dbg !2723
  %417 = load i32, ptr %416, align 4, !dbg !2724
  %418 = and i32 %385, %417, !dbg !2725
  %419 = load i8, ptr @_ZL4g_91, align 1, !dbg !2726
  %420 = zext i8 %419 to i64, !dbg !2727
  %421 = load i32, ptr @_ZL6g_1943, align 4, !dbg !2728
  %422 = zext i32 %421 to i64, !dbg !2728
  %423 = call noundef i64 @_ZL26safe_mod_func_uint64_t_u_umm(i64 noundef %420, i64 noundef %422), !dbg !2729
  %424 = load ptr, ptr %53, align 8, !dbg !2730
  %425 = load i32, ptr %424, align 4, !dbg !2731
  %426 = sext i32 %425 to i64, !dbg !2732
  %427 = icmp uge i64 %423, %426, !dbg !2733
  %428 = getelementptr inbounds [3 x [2 x ptr]], ptr %60, i64 0, i64 2, !dbg !2734
  %429 = getelementptr inbounds [2 x ptr], ptr %428, i64 0, i64 0, !dbg !2734
  %430 = load ptr, ptr %429, align 16, !dbg !2734
  store ptr %430, ptr %14, align 8, !dbg !2735
  %431 = icmp ne ptr %384, %430, !dbg !2736
  %432 = zext i1 %431 to i32, !dbg !2737
  %433 = xor i32 %432, -275451831, !dbg !2738
  call void @llvm.memcpy.p0.p0.i64(ptr align 4 %72, ptr align 4 %2, i64 4, i1 false), !dbg !2739
  %434 = load i32, ptr %4, align 4, !dbg !2740
  %435 = getelementptr inbounds %union.U0, ptr %72, i32 0, i32 0, !dbg !2741
  %436 = load i32, ptr %435, align 4, !dbg !2741
  %437 = call i16 @_ZL7func_39i2U0j(i32 noundef %433, i32 %436, i32 noundef %434), !dbg !2741
  %438 = getelementptr inbounds %union.U1, ptr %73, i32 0, i32 0, !dbg !2741
  store i16 %437, ptr %438, align 2, !dbg !2741
  %439 = load i32, ptr %4, align 4, !dbg !2742
  %440 = icmp ne i32 %439, 0, !dbg !2743
  br i1 %440, label %441, label %442, !dbg !2744

441:                                              ; preds = %414
  br label %442

442:                                              ; preds = %441, %414
  %443 = phi i1 [ false, %414 ], [ true, %441 ], !dbg !2745
  %444 = xor i1 %443, true, !dbg !2746
  %445 = zext i1 %444 to i64, !dbg !2747
  %446 = icmp ugt i64 %445, 0, !dbg !2748
  %447 = zext i1 %446 to i32, !dbg !2749
  %448 = xor i32 %447, -1, !dbg !2750
  %449 = load i32, ptr @_ZL6g_1937, align 4, !dbg !2751
  %450 = icmp eq i32 %448, %449, !dbg !2752
  %451 = call noundef i64 @_ZL25safe_add_func_int64_t_s_sll(i64 noundef %383, i64 noundef -5067512586769809598), !dbg !2753
  %452 = load ptr, ptr %57, align 8, !dbg !2754
  %453 = icmp eq ptr %9, %452, !dbg !2755
  %454 = zext i1 %453 to i32, !dbg !2756
  %455 = load i32, ptr @_ZL6g_1899, align 4, !dbg !2757
  %456 = icmp eq i32 %454, %455, !dbg !2758
  %457 = load volatile i32, ptr @_ZL6g_2382, align 4, !dbg !2759
  %458 = load i32, ptr @_ZL6g_1905, align 4, !dbg !2760
  %459 = icmp ult i32 %457, %458, !dbg !2761
  %460 = zext i1 %459 to i16, !dbg !2762
  %461 = call noundef zeroext i16 @_ZL26safe_div_func_uint16_t_u_utt(i16 noundef zeroext %460, i16 noundef zeroext -12113), !dbg !2763
  %462 = icmp ne i16 %461, 0, !dbg !2764
  br i1 %462, label %463, label %684, !dbg !2765

463:                                              ; preds = %442
  call void @llvm.dbg.declare(metadata ptr %74, metadata !2766, metadata !DIExpression()), !dbg !2769
  call void @llvm.memcpy.p0.p0.i64(ptr align 16 %74, ptr align 16 @__const._ZL6func_1v.l_2393, i64 16, i1 false), !dbg !2769
  call void @llvm.dbg.declare(metadata ptr %75, metadata !2770, metadata !DIExpression()), !dbg !2773
  call void @llvm.dbg.declare(metadata ptr %76, metadata !2774, metadata !DIExpression()), !dbg !2775
  store i32 6, ptr %76, align 4, !dbg !2775
  call void @llvm.dbg.declare(metadata ptr %77, metadata !2776, metadata !DIExpression()), !dbg !2777
  store i32 0, ptr %77, align 4, !dbg !2778
  br label %464, !dbg !2780

464:                                              ; preds = %471, %463
  %465 = load i32, ptr %77, align 4, !dbg !2781
  %466 = icmp slt i32 %465, 4, !dbg !2783
  br i1 %466, label %467, label %474, !dbg !2784

467:                                              ; preds = %464
  %468 = load i32, ptr %77, align 4, !dbg !2785
  %469 = sext i32 %468 to i64, !dbg !2786
  %470 = getelementptr inbounds [4 x ptr], ptr %75, i64 0, i64 %469, !dbg !2786
  store ptr @_ZL5g_648, ptr %470, align 8, !dbg !2787
  br label %471, !dbg !2786

471:                                              ; preds = %467
  %472 = load i32, ptr %77, align 4, !dbg !2788
  %473 = add nsw i32 %472, 1, !dbg !2788
  store i32 %473, ptr %77, align 4, !dbg !2788
  br label %464, !dbg !2789, !llvm.loop !2790

474:                                              ; preds = %464
  %475 = load volatile ptr, ptr @_ZL5g_337, align 8, !dbg !2792
  %476 = load ptr, ptr %62, align 8, !dbg !2793
  %477 = icmp ne ptr null, %476, !dbg !2794
  %478 = zext i1 %477 to i32, !dbg !2795
  store i8 61, ptr @_ZL5g_259, align 1, !dbg !2796
  %479 = icmp ne i32 %478, 61, !dbg !2797
  %480 = zext i1 %479 to i8, !dbg !2798
  %481 = call noundef zeroext i8 @_ZL28safe_lshift_func_uint8_t_u_shi(i8 noundef zeroext %480, i32 noundef 3), !dbg !2799
  %482 = load ptr, ptr @_ZL5g_150, align 8, !dbg !2800
  %483 = load ptr, ptr @_ZL5g_150, align 8, !dbg !2801
  %484 = call noundef nonnull align 8 dereferenceable(8) ptr @_ZN2U2aSERKS_(ptr noundef nonnull align 8 dereferenceable(8) %483, ptr noundef nonnull align 8 dereferenceable(8) %482), !dbg !2802
  %485 = icmp ne ptr %53, %53, !dbg !2803
  %486 = zext i1 %485 to i64, !dbg !2804
  %487 = call noundef i64 @_ZL32safe_unary_minus_func_uint64_t_um(i64 noundef %486), !dbg !2805
  %488 = load ptr, ptr %13, align 8, !dbg !2806
  %489 = load ptr, ptr %62, align 8, !dbg !2807
  %490 = load ptr, ptr %489, align 8, !dbg !2808
  %491 = icmp ne ptr %488, %490, !dbg !2809
  %492 = zext i1 %491 to i64, !dbg !2810
  %493 = or i64 %492, 2, !dbg !2811
  %494 = load i32, ptr %6, align 4, !dbg !2812
  %495 = zext i32 %494 to i64, !dbg !2812
  %496 = icmp ult i64 %493, %495, !dbg !2813
  %497 = zext i1 %496 to i32, !dbg !2814
  %498 = load ptr, ptr %53, align 8, !dbg !2815
  %499 = load i32, ptr %498, align 4, !dbg !2816
  %500 = icmp sge i32 %497, %499, !dbg !2817
  %501 = zext i1 %500 to i32, !dbg !2818
  %502 = load i32, ptr getelementptr inbounds ([8 x i32], ptr @_ZL6g_1894, i64 0, i64 4), align 16, !dbg !2819
  %503 = icmp ugt i32 %501, %502, !dbg !2820
  %504 = zext i1 %503 to i64, !dbg !2821
  %505 = icmp ult i64 %487, %504, !dbg !2822
  %506 = zext i1 %505 to i32, !dbg !2823
  %507 = load ptr, ptr %53, align 8, !dbg !2824
  %508 = load i32, ptr %507, align 4, !dbg !2825
  %509 = xor i32 %506, %508, !dbg !2826
  %510 = getelementptr inbounds [4 x i32], ptr %74, i64 0, i64 0, !dbg !2827
  %511 = load i32, ptr %510, align 16, !dbg !2828
  %512 = or i32 %511, %509, !dbg !2828
  store i32 %512, ptr %510, align 16, !dbg !2828
  %513 = icmp ne i32 %512, 0, !dbg !2829
  br i1 %513, label %514, label %518, !dbg !2830

514:                                              ; preds = %474
  %515 = getelementptr inbounds [4 x i32], ptr %74, i64 0, i64 2, !dbg !2831
  %516 = load i32, ptr %515, align 8, !dbg !2831
  %517 = icmp ne i32 %516, 0, !dbg !2831
  br label %518

518:                                              ; preds = %514, %474
  %519 = phi i1 [ false, %474 ], [ %517, %514 ], !dbg !2832
  %520 = zext i1 %519 to i64, !dbg !2833
  %521 = icmp sgt i64 %520, 1709356644, !dbg !2834
  %522 = zext i1 %521 to i16, !dbg !2835
  %523 = call noundef zeroext i16 @_ZL29safe_rshift_func_uint16_t_u_sti(i16 noundef zeroext %522, i32 noundef 7), !dbg !2836
  %524 = zext i16 %523 to i32, !dbg !2837
  %525 = call noundef i32 @_ZL26safe_div_func_uint32_t_u_ujj(i32 noundef %524, i32 noundef 1), !dbg !2838
  %526 = load i32, ptr %76, align 4, !dbg !2839
  %527 = and i32 %526, %525, !dbg !2839
  store i32 %527, ptr %76, align 4, !dbg !2839
  %528 = load i32, ptr %5, align 4, !dbg !2840
  %529 = icmp eq i32 %527, %528, !dbg !2841
  br i1 %529, label %531, label %530, !dbg !2842

530:                                              ; preds = %518
  br label %531, !dbg !2842

531:                                              ; preds = %530, %518
  %532 = phi i1 [ true, %518 ], [ true, %530 ]
  %533 = zext i1 %532 to i16, !dbg !2843
  %534 = call noundef signext i16 @_ZL25safe_mod_func_int16_t_s_sss(i16 noundef signext %533, i16 noundef signext 6553), !dbg !2844
  %535 = sext i16 %534 to i32, !dbg !2845
  %536 = xor i32 %535, 15412, !dbg !2846
  %537 = load ptr, ptr @_ZL5g_139, align 8, !dbg !2847
  %538 = load ptr, ptr %537, align 8, !dbg !2848
  %539 = load i32, ptr %538, align 4, !dbg !2849
  %540 = xor i32 %539, %536, !dbg !2849
  store i32 %540, ptr %538, align 4, !dbg !2849
  store i32 0, ptr @_ZL6g_1904, align 4, !dbg !2850
  br label %541, !dbg !2852

541:                                              ; preds = %680, %531
  %542 = load i32, ptr @_ZL6g_1904, align 4, !dbg !2853
  %543 = icmp ule i32 %542, 7, !dbg !2855
  br i1 %543, label %544, label %683, !dbg !2856

544:                                              ; preds = %541
  store i32 0, ptr @_ZL6g_1921, align 4, !dbg !2857
  br label %545, !dbg !2860

545:                                              ; preds = %676, %544
  %546 = load i32, ptr @_ZL6g_1921, align 4, !dbg !2861
  %547 = icmp ule i32 %546, 7, !dbg !2863
  br i1 %547, label %548, label %679, !dbg !2864

548:                                              ; preds = %545
  call void @llvm.dbg.declare(metadata ptr %78, metadata !2865, metadata !DIExpression()), !dbg !2869
  call void @llvm.memcpy.p0.p0.i64(ptr align 16 %78, ptr align 16 @__const._ZL6func_1v.l_2398, i64 35, i1 false), !dbg !2869
  call void @llvm.dbg.declare(metadata ptr %79, metadata !2870, metadata !DIExpression()), !dbg !2871
  call void @llvm.dbg.declare(metadata ptr %80, metadata !2872, metadata !DIExpression()), !dbg !2873
  store i32 0, ptr @_ZL6g_1898, align 4, !dbg !2874
  br label %549, !dbg !2876

549:                                              ; preds = %672, %548
  %550 = load i32, ptr @_ZL6g_1898, align 4, !dbg !2877
  %551 = icmp ule i32 %550, 7, !dbg !2879
  br i1 %551, label %552, label %675, !dbg !2880

552:                                              ; preds = %549
  call void @llvm.dbg.declare(metadata ptr %81, metadata !2881, metadata !DIExpression()), !dbg !2883
  store i32 -290470832, ptr %81, align 4, !dbg !2883
  call void @llvm.dbg.declare(metadata ptr %82, metadata !2884, metadata !DIExpression()), !dbg !2885
  %553 = load i32, ptr @_ZL6g_1921, align 4, !dbg !2886
  %554 = add i32 %553, 1, !dbg !2888
  %555 = zext i32 %554 to i64, !dbg !2889
  %556 = getelementptr inbounds [10 x i32], ptr @_ZL6g_1944, i64 0, i64 %555, !dbg !2889
  %557 = load i32, ptr %556, align 4, !dbg !2889
  %558 = icmp ne i32 %557, 0, !dbg !2889
  br i1 %558, label %559, label %560, !dbg !2890

559:                                              ; preds = %552
  br label %675, !dbg !2891

560:                                              ; preds = %552
  %561 = getelementptr inbounds [4 x i32], ptr %74, i64 0, i64 2, !dbg !2892
  %562 = load i32, ptr %561, align 8, !dbg !2892
  %563 = sext i32 %562 to i64, !dbg !2892
  %564 = icmp sle i64 %563, 4098852423, !dbg !2893
  %565 = zext i1 %564 to i32, !dbg !2894
  %566 = getelementptr inbounds [5 x [7 x i8]], ptr %78, i64 0, i64 4, !dbg !2895
  %567 = getelementptr inbounds [7 x i8], ptr %566, i64 0, i64 0, !dbg !2895
  %568 = load i8, ptr %567, align 4, !dbg !2895
  %569 = zext i8 %568 to i64, !dbg !2895
  %570 = call noundef i64 @_ZL31safe_unary_minus_func_int64_t_sl(i64 noundef 0), !dbg !2896
  %571 = load ptr, ptr %55, align 8, !dbg !2897
  %572 = load i16, ptr %571, align 2, !dbg !2898
  %573 = zext i16 %572 to i64, !dbg !2898
  %574 = and i64 %573, %570, !dbg !2898
  %575 = trunc i64 %574 to i16, !dbg !2898
  store i16 %575, ptr %571, align 2, !dbg !2898
  %576 = zext i16 %575 to i64, !dbg !2899
  %577 = load ptr, ptr @_ZL5g_448, align 8, !dbg !2900
  %578 = load i32, ptr %577, align 4, !dbg !2901
  %579 = load i32, ptr @_ZL6g_1898, align 4, !dbg !2902
  %580 = add i32 %579, 2, !dbg !2903
  %581 = zext i32 %580 to i64, !dbg !2904
  %582 = getelementptr inbounds [10 x i32], ptr @_ZL6g_1944, i64 0, i64 %581, !dbg !2904
  store i32 %578, ptr %582, align 4, !dbg !2905
  %583 = load i32, ptr %76, align 4, !dbg !2906
  %584 = sext i32 %583 to i64, !dbg !2906
  %585 = icmp ne i64 -383318305269343207, %584, !dbg !2907
  %586 = zext i1 %585 to i32, !dbg !2908
  %587 = load volatile i32, ptr @_ZL5g_246, align 4, !dbg !2909
  %588 = icmp sgt i32 %586, %587, !dbg !2910
  %589 = zext i1 %588 to i64, !dbg !2911
  %590 = icmp ugt i64 %589, 1, !dbg !2912
  %591 = zext i1 %590 to i32, !dbg !2913
  %592 = call noundef i32 @_ZL28safe_rshift_func_int32_t_s_sii(i32 noundef %591, i32 noundef 7), !dbg !2914
  %593 = trunc i32 %592 to i16, !dbg !2915
  %594 = call noundef signext i16 @_ZL28safe_lshift_func_int16_t_s_usj(i16 noundef signext %593, i32 noundef 2), !dbg !2916
  %595 = sext i16 %594 to i32, !dbg !2917
  %596 = call noundef i32 @_ZL29safe_lshift_func_uint32_t_u_sji(i32 noundef %578, i32 noundef %595), !dbg !2918
  %597 = zext i32 %596 to i64, !dbg !2919
  %598 = load i32, ptr @_ZL6g_1885, align 4, !dbg !2920
  %599 = zext i32 %598 to i64, !dbg !2920
  %600 = call noundef i64 @_ZL25safe_mod_func_int64_t_s_sll(i64 noundef %597, i64 noundef %599), !dbg !2921
  %601 = or i64 %576, %600, !dbg !2922
  %602 = load i32, ptr %81, align 4, !dbg !2923
  %603 = sext i32 %602 to i64, !dbg !2923
  %604 = icmp sgt i64 %601, %603, !dbg !2924
  %605 = zext i1 %604 to i8, !dbg !2925
  %606 = load i32, ptr @_ZL6g_2354, align 4, !dbg !2926
  %607 = trunc i32 %606 to i8, !dbg !2926
  %608 = call noundef signext i8 @_ZL24safe_add_func_int8_t_s_saa(i8 noundef signext %605, i8 noundef signext %607), !dbg !2927
  %609 = sext i8 %608 to i64, !dbg !2928
  %610 = load i64, ptr @_ZL5g_338, align 8, !dbg !2929
  %611 = call noundef i64 @_ZL25safe_mod_func_int64_t_s_sll(i64 noundef %609, i64 noundef %610), !dbg !2930
  %612 = trunc i64 %611 to i16, !dbg !2931
  %613 = call noundef signext i16 @_ZL25safe_mul_func_int16_t_s_sss(i16 noundef signext 7, i16 noundef signext %612), !dbg !2932
  %614 = sext i16 %613 to i64, !dbg !2933
  %615 = icmp ne i64 %614, 4022093807, !dbg !2934
  %616 = zext i1 %615 to i64, !dbg !2935
  %617 = icmp slt i64 %616, 1, !dbg !2936
  %618 = zext i1 %617 to i32, !dbg !2937
  %619 = getelementptr inbounds [4 x [1 x i16]], ptr %15, i64 0, i64 2, !dbg !2938
  %620 = getelementptr inbounds [1 x i16], ptr %619, i64 0, i64 0, !dbg !2938
  %621 = load i16, ptr %620, align 2, !dbg !2938
  %622 = zext i16 %621 to i32, !dbg !2938
  %623 = icmp eq i32 %618, %622, !dbg !2939
  %624 = zext i1 %623 to i32, !dbg !2940
  %625 = getelementptr inbounds [5 x [7 x i8]], ptr %78, i64 0, i64 2, !dbg !2941
  %626 = getelementptr inbounds [7 x i8], ptr %625, i64 0, i64 4, !dbg !2941
  %627 = load i8, ptr %626, align 2, !dbg !2941
  %628 = zext i8 %627 to i32, !dbg !2941
  %629 = icmp ne i32 %624, %628, !dbg !2942
  %630 = zext i1 %629 to i32, !dbg !2943
  %631 = load ptr, ptr @_ZL6g_1680, align 8, !dbg !2944
  %632 = load ptr, ptr %631, align 8, !dbg !2945
  %633 = load ptr, ptr %632, align 8, !dbg !2946
  %634 = load ptr, ptr %633, align 8, !dbg !2947
  %635 = load i32, ptr %634, align 4, !dbg !2948
  %636 = icmp ne i32 %630, %635, !dbg !2949
  %637 = zext i1 %636 to i64, !dbg !2950
  %638 = icmp slt i64 %637, 5244673685766057056, !dbg !2951
  %639 = zext i1 %638 to i32, !dbg !2952
  %640 = load ptr, ptr @_ZL6g_1681, align 8, !dbg !2953
  %641 = load ptr, ptr %640, align 8, !dbg !2954
  %642 = load ptr, ptr %641, align 8, !dbg !2955
  %643 = load i32, ptr %642, align 4, !dbg !2956
  %644 = call noundef i32 @_ZL26safe_div_func_uint32_t_u_ujj(i32 noundef %639, i32 noundef %643), !dbg !2957
  %645 = zext i32 %644 to i64, !dbg !2958
  %646 = load i32, ptr %81, align 4, !dbg !2959
  %647 = call noundef i64 @_ZL28safe_lshift_func_int64_t_s_sli(i64 noundef %645, i32 noundef %646), !dbg !2960
  %648 = getelementptr inbounds [4 x [1 x i16]], ptr %15, i64 0, i64 1, !dbg !2961
  %649 = getelementptr inbounds [1 x i16], ptr %648, i64 0, i64 0, !dbg !2961
  %650 = load i16, ptr %649, align 2, !dbg !2961
  %651 = zext i16 %650 to i64, !dbg !2961
  %652 = icmp slt i64 %647, %651, !dbg !2962
  %653 = load ptr, ptr %53, align 8, !dbg !2963
  %654 = load i32, ptr %653, align 4, !dbg !2964
  %655 = sext i32 %654 to i64, !dbg !2965
  %656 = call noundef i64 @_ZL26safe_div_func_uint64_t_u_umm(i64 noundef %569, i64 noundef %655), !dbg !2966
  %657 = load i32, ptr @_ZL6g_2324, align 16, !dbg !2967
  %658 = zext i32 %657 to i64, !dbg !2967
  %659 = xor i64 %656, %658, !dbg !2968
  %660 = icmp ne i64 %659, 0, !dbg !2969
  br i1 %660, label %661, label %664, !dbg !2970

661:                                              ; preds = %560
  %662 = load i32, ptr @_ZL6g_1948, align 4, !dbg !2971
  %663 = icmp ne i32 %662, 0, !dbg !2971
  br label %664

664:                                              ; preds = %661, %560
  %665 = phi i1 [ false, %560 ], [ %663, %661 ], !dbg !2972
  %666 = zext i1 %665 to i32, !dbg !2973
  %667 = icmp sge i32 %565, %666, !dbg !2974
  %668 = zext i1 %667 to i64, !dbg !2975
  %669 = icmp sle i64 %668, 0, !dbg !2976
  %670 = zext i1 %669 to i32, !dbg !2977
  %671 = load ptr, ptr @_ZL6g_2357, align 8, !dbg !2978
  store i32 %670, ptr %671, align 4, !dbg !2979
  br label %672, !dbg !2980

672:                                              ; preds = %664
  %673 = load i32, ptr @_ZL6g_1898, align 4, !dbg !2981
  %674 = add i32 %673, 1, !dbg !2981
  store i32 %674, ptr @_ZL6g_1898, align 4, !dbg !2981
  br label %549, !dbg !2982, !llvm.loop !2983

675:                                              ; preds = %559, %549
  br label %676, !dbg !2985

676:                                              ; preds = %675
  %677 = load i32, ptr @_ZL6g_1921, align 4, !dbg !2986
  %678 = add i32 %677, 1, !dbg !2986
  store i32 %678, ptr @_ZL6g_1921, align 4, !dbg !2986
  br label %545, !dbg !2987, !llvm.loop !2988

679:                                              ; preds = %545
  br label %680, !dbg !2990

680:                                              ; preds = %679
  %681 = load i32, ptr @_ZL6g_1904, align 4, !dbg !2991
  %682 = add i32 %681, 1, !dbg !2991
  store i32 %682, ptr @_ZL6g_1904, align 4, !dbg !2991
  br label %541, !dbg !2992, !llvm.loop !2993

683:                                              ; preds = %541
  br label %840, !dbg !2995

684:                                              ; preds = %442
  call void @llvm.dbg.declare(metadata ptr %83, metadata !2996, metadata !DIExpression()), !dbg !2998
  store i32 -1902289856, ptr %83, align 4, !dbg !2998
  call void @llvm.dbg.declare(metadata ptr %84, metadata !2999, metadata !DIExpression()), !dbg !3002
  call void @llvm.memcpy.p0.p0.i64(ptr align 16 %84, ptr align 16 @__const._ZL6func_1v.l_2445, i64 400, i1 false), !dbg !3002
  call void @llvm.dbg.declare(metadata ptr %85, metadata !3003, metadata !DIExpression()), !dbg !3004
  store i32 757060412, ptr %85, align 4, !dbg !3004
  call void @llvm.dbg.declare(metadata ptr %86, metadata !3005, metadata !DIExpression()), !dbg !3006
  store i64 -6161547311127722695, ptr %86, align 8, !dbg !3006
  call void @llvm.dbg.declare(metadata ptr %87, metadata !3007, metadata !DIExpression()), !dbg !3009
  call void @llvm.dbg.declare(metadata ptr %88, metadata !3010, metadata !DIExpression()), !dbg !3014
  call void @llvm.memcpy.p0.p0.i64(ptr align 16 %88, ptr align 16 @__const._ZL6func_1v.l_2475, i64 504, i1 false), !dbg !3014
  call void @llvm.dbg.declare(metadata ptr %89, metadata !3015, metadata !DIExpression()), !dbg !3016
  call void @llvm.dbg.declare(metadata ptr %90, metadata !3017, metadata !DIExpression()), !dbg !3018
  store i32 0, ptr %89, align 4, !dbg !3019
  br label %685, !dbg !3021

685:                                              ; preds = %692, %684
  %686 = load i32, ptr %89, align 4, !dbg !3022
  %687 = icmp slt i32 %686, 1, !dbg !3024
  br i1 %687, label %688, label %695, !dbg !3025

688:                                              ; preds = %685
  %689 = load i32, ptr %89, align 4, !dbg !3026
  %690 = sext i32 %689 to i64, !dbg !3027
  %691 = getelementptr inbounds [1 x ptr], ptr %87, i64 0, i64 %690, !dbg !3027
  store ptr @_ZL5g_338, ptr %691, align 8, !dbg !3028
  br label %692, !dbg !3027

692:                                              ; preds = %688
  %693 = load i32, ptr %89, align 4, !dbg !3029
  %694 = add nsw i32 %693, 1, !dbg !3029
  store i32 %694, ptr %89, align 4, !dbg !3029
  br label %685, !dbg !3030, !llvm.loop !3031

695:                                              ; preds = %685
  store i32 0, ptr @_ZL6g_1934, align 4, !dbg !3033
  br label %696, !dbg !3035

696:                                              ; preds = %760, %695
  %697 = load i32, ptr @_ZL6g_1934, align 4, !dbg !3036
  %698 = icmp ule i32 %697, 6, !dbg !3038
  br i1 %698, label %699, label %763, !dbg !3039

699:                                              ; preds = %696
  call void @llvm.dbg.declare(metadata ptr %91, metadata !3040, metadata !DIExpression()), !dbg !3042
  store i16 -1834, ptr %91, align 2, !dbg !3042
  call void @llvm.dbg.declare(metadata ptr %92, metadata !3043, metadata !DIExpression()), !dbg !3044
  call void @llvm.memset.p0.i64(ptr align 2 %92, i8 0, i64 2, i1 false), !dbg !3044
  call void @llvm.dbg.declare(metadata ptr %93, metadata !3045, metadata !DIExpression()), !dbg !3046
  store i32 -1, ptr %93, align 4, !dbg !3046
  call void @llvm.dbg.declare(metadata ptr %94, metadata !3047, metadata !DIExpression()), !dbg !3049
  call void @llvm.memcpy.p0.p0.i64(ptr align 16 %94, ptr align 16 @__const._ZL6func_1v.l_2462, i64 40, i1 false), !dbg !3049
  call void @llvm.dbg.declare(metadata ptr %95, metadata !3050, metadata !DIExpression()), !dbg !3051
  store i32 -849278951, ptr %95, align 4, !dbg !3051
  call void @llvm.dbg.declare(metadata ptr %96, metadata !3052, metadata !DIExpression()), !dbg !3053
  store i32 -1, ptr %96, align 4, !dbg !3053
  call void @llvm.dbg.declare(metadata ptr %97, metadata !3054, metadata !DIExpression()), !dbg !3055
  store i32 0, ptr @_ZL5g_693, align 4, !dbg !3056
  br label %700, !dbg !3058

700:                                              ; preds = %704, %699
  %701 = load i32, ptr @_ZL5g_693, align 4, !dbg !3059
  %702 = icmp sle i32 %701, 6, !dbg !3061
  br i1 %702, label %703, label %707, !dbg !3062

703:                                              ; preds = %700
  call void @llvm.dbg.declare(metadata ptr %1, metadata !3063, metadata !DIExpression()), !dbg !3065
  call void @llvm.memcpy.p0.p0.i64(ptr align 2 %1, ptr align 2 @__const._ZL6func_1v.l_2420, i64 2, i1 false), !dbg !3065
  br label %1078, !dbg !3066

704:                                              ; No predecessors!
  %705 = load i32, ptr @_ZL5g_693, align 4, !dbg !3067
  %706 = add nsw i32 %705, 1, !dbg !3067
  store i32 %706, ptr @_ZL5g_693, align 4, !dbg !3067
  br label %700, !dbg !3068, !llvm.loop !3069

707:                                              ; preds = %700
  store i32 1, ptr @_ZL5g_744, align 4, !dbg !3071
  br label %708, !dbg !3073

708:                                              ; preds = %756, %707
  %709 = load i32, ptr @_ZL5g_744, align 4, !dbg !3074
  %710 = icmp ule i32 %709, 6, !dbg !3076
  br i1 %710, label %711, label %759, !dbg !3077

711:                                              ; preds = %708
  call void @llvm.dbg.declare(metadata ptr %98, metadata !3078, metadata !DIExpression()), !dbg !3082
  call void @llvm.memcpy.p0.p0.i64(ptr align 16 %98, ptr align 16 @__const._ZL6func_1v.l_2431, i64 84, i1 false), !dbg !3082
  call void @llvm.dbg.declare(metadata ptr %99, metadata !3083, metadata !DIExpression()), !dbg !3085
  store ptr null, ptr %99, align 8, !dbg !3085
  call void @llvm.dbg.declare(metadata ptr %100, metadata !3086, metadata !DIExpression()), !dbg !3087
  call void @llvm.dbg.declare(metadata ptr %101, metadata !3088, metadata !DIExpression()), !dbg !3089
  store i32 0, ptr @_ZL6g_1928, align 4, !dbg !3090
  br label %712, !dbg !3092

712:                                              ; preds = %740, %711
  %713 = load i32, ptr @_ZL6g_1928, align 4, !dbg !3093
  %714 = icmp ule i32 %713, 6, !dbg !3095
  br i1 %714, label %715, label %743, !dbg !3096

715:                                              ; preds = %712
  call void @llvm.dbg.declare(metadata ptr %102, metadata !3097, metadata !DIExpression()), !dbg !3100
  store ptr @_ZL6g_2423, ptr %102, align 8, !dbg !3100
  call void @llvm.dbg.declare(metadata ptr %103, metadata !3101, metadata !DIExpression()), !dbg !3102
  %716 = load ptr, ptr @_ZL6g_2423, align 8, !dbg !3103
  %717 = load ptr, ptr %102, align 8, !dbg !3104
  store ptr %716, ptr %717, align 8, !dbg !3105
  %718 = icmp eq ptr %716, null, !dbg !3106
  %719 = zext i1 %718 to i16, !dbg !3107
  %720 = load i32, ptr @_ZL6g_1928, align 4, !dbg !3108
  %721 = zext i32 %720 to i64, !dbg !3109
  %722 = getelementptr inbounds [7 x i32], ptr @_ZL6g_1945, i64 0, i64 %721, !dbg !3109
  %723 = load i32, ptr %722, align 4, !dbg !3109
  %724 = trunc i32 %723 to i8, !dbg !3109
  %725 = call noundef zeroext i8 @_ZL28safe_lshift_func_uint8_t_u_uhj(i8 noundef zeroext %724, i32 noundef 1), !dbg !3110
  %726 = zext i8 %725 to i32, !dbg !3111
  %727 = call noundef signext i16 @_ZL28safe_rshift_func_int16_t_s_ssi(i16 noundef signext %719, i32 noundef %726), !dbg !3112
  %728 = sext i16 %727 to i32, !dbg !3113
  %729 = getelementptr inbounds [3 x [7 x i32]], ptr %98, i64 0, i64 1, !dbg !3114
  %730 = getelementptr inbounds [7 x i32], ptr %729, i64 0, i64 4, !dbg !3114
  %731 = load i32, ptr %730, align 4, !dbg !3115
  %732 = or i32 %731, %728, !dbg !3115
  store i32 %732, ptr %730, align 4, !dbg !3115
  store i16 -1, ptr %91, align 2, !dbg !3116
  %733 = load ptr, ptr @_ZL5g_653, align 8, !dbg !3117
  %734 = load ptr, ptr %733, align 8, !dbg !3118
  %735 = load ptr, ptr %734, align 8, !dbg !3119
  %736 = load ptr, ptr @_ZL5g_653, align 8, !dbg !3120
  %737 = load ptr, ptr %736, align 8, !dbg !3121
  store ptr %735, ptr %737, align 8, !dbg !3122
  %738 = load i32, ptr %83, align 4, !dbg !3123
  %739 = add i32 %738, -1, !dbg !3123
  store i32 %739, ptr %83, align 4, !dbg !3123
  br label %740, !dbg !3124

740:                                              ; preds = %715
  %741 = load i32, ptr @_ZL6g_1928, align 4, !dbg !3125
  %742 = add i32 %741, 1, !dbg !3125
  store i32 %742, ptr @_ZL6g_1928, align 4, !dbg !3125
  br label %712, !dbg !3126, !llvm.loop !3127

743:                                              ; preds = %712
  store i32 -1, ptr @_ZL6g_1939, align 4, !dbg !3129
  br label %744, !dbg !3131

744:                                              ; preds = %752, %743
  %745 = load i32, ptr @_ZL6g_1939, align 4, !dbg !3132
  %746 = icmp ne i32 %745, 55, !dbg !3134
  br i1 %746, label %747, label %755, !dbg !3135

747:                                              ; preds = %744
  call void @llvm.dbg.declare(metadata ptr %1, metadata !3136, metadata !DIExpression()), !dbg !3138
  call void @llvm.memcpy.p0.p0.i64(ptr align 2 %1, ptr align 2 @__const._ZL6func_1v.l_2438, i64 2, i1 false), !dbg !3138
  %748 = load i32, ptr %83, align 4, !dbg !3139
  %749 = icmp ne i32 %748, 0, !dbg !3139
  br i1 %749, label %750, label %751, !dbg !3141

750:                                              ; preds = %747
  br label %755, !dbg !3142

751:                                              ; preds = %747
  br label %1078, !dbg !3143

752:                                              ; No predecessors!
  %753 = load i32, ptr @_ZL6g_1939, align 4, !dbg !3144
  %754 = add i32 %753, 1, !dbg !3144
  store i32 %754, ptr @_ZL6g_1939, align 4, !dbg !3144
  br label %744, !dbg !3145, !llvm.loop !3146

755:                                              ; preds = %750, %744
  br label %756, !dbg !3148

756:                                              ; preds = %755
  %757 = load i32, ptr @_ZL5g_744, align 4, !dbg !3149
  %758 = add i32 %757, 1, !dbg !3149
  store i32 %758, ptr @_ZL5g_744, align 4, !dbg !3149
  br label %708, !dbg !3150, !llvm.loop !3151

759:                                              ; preds = %708
  br label %760, !dbg !3153

760:                                              ; preds = %759
  %761 = load i32, ptr @_ZL6g_1934, align 4, !dbg !3154
  %762 = add i32 %761, 1, !dbg !3154
  store i32 %762, ptr @_ZL6g_1934, align 4, !dbg !3154
  br label %696, !dbg !3155, !llvm.loop !3156

763:                                              ; preds = %696
  %764 = load i32, ptr %85, align 4, !dbg !3158
  %765 = icmp ne i32 %764, 0, !dbg !3158
  br i1 %765, label %766, label %835, !dbg !3159

766:                                              ; preds = %763
  %767 = load ptr, ptr %53, align 8, !dbg !3160
  %768 = load i32, ptr %767, align 4, !dbg !3161
  %769 = trunc i32 %768 to i16, !dbg !3162
  %770 = load ptr, ptr @_ZL6g_2423, align 8, !dbg !3163
  %771 = load ptr, ptr %770, align 8, !dbg !3164
  %772 = load ptr, ptr %771, align 8, !dbg !3165
  %773 = load ptr, ptr %772, align 8, !dbg !3166
  %774 = load ptr, ptr %53, align 8, !dbg !3167
  %775 = load i32, ptr %774, align 4, !dbg !3168
  %776 = trunc i32 %775 to i16, !dbg !3169
  %777 = call noundef signext i16 @_ZL28safe_rshift_func_int16_t_s_ssi(i16 noundef signext %776, i32 noundef 7), !dbg !3170
  %778 = sext i16 %777 to i64, !dbg !3171
  %779 = load ptr, ptr @_ZL5g_150, align 8, !dbg !3172
  %780 = load ptr, ptr @_ZL5g_150, align 8, !dbg !3173
  %781 = call noundef nonnull align 8 dereferenceable(8) ptr @_ZN2U2aSERKS_(ptr noundef nonnull align 8 dereferenceable(8) %780, ptr noundef nonnull align 8 dereferenceable(8) %779), !dbg !3174
  %782 = load i32, ptr %2, align 4, !dbg !3175
  %783 = sext i32 %782 to i64, !dbg !3176
  %784 = xor i64 23858, %783, !dbg !3177
  %785 = load i32, ptr @_ZL6g_2024, align 4, !dbg !3178
  %786 = icmp ne i32 %785, 0, !dbg !3179
  br i1 %786, label %788, label %787, !dbg !3180

787:                                              ; preds = %766
  br label %788, !dbg !3180

788:                                              ; preds = %787, %766
  %789 = phi i1 [ true, %766 ], [ true, %787 ]
  %790 = load i16, ptr %17, align 2, !dbg !3181
  %791 = trunc i16 %790 to i8, !dbg !3182
  %792 = call noundef zeroext i8 @_ZL25safe_div_func_uint8_t_u_uhh(i8 noundef zeroext 1, i8 noundef zeroext %791), !dbg !3183
  %793 = zext i8 %792 to i64, !dbg !3184
  %794 = call noundef i64 @_ZL26safe_mul_func_uint64_t_u_umm(i64 noundef %784, i64 noundef %793), !dbg !3185
  %795 = call noundef i64 @_ZL25safe_div_func_int64_t_s_sll(i64 noundef %778, i64 noundef %794), !dbg !3186
  %796 = trunc i64 %795 to i16, !dbg !3187
  %797 = call noundef zeroext i16 @_ZL26safe_div_func_uint16_t_u_utt(i16 noundef zeroext %769, i16 noundef zeroext %796), !dbg !3188
  %798 = zext i16 %797 to i32, !dbg !3189
  %799 = load i32, ptr %2, align 4, !dbg !3190
  %800 = or i32 %798, %799, !dbg !3191
  %801 = getelementptr inbounds [4 x [1 x i16]], ptr %15, i64 0, i64 3, !dbg !3192
  %802 = getelementptr inbounds [1 x i16], ptr %801, i64 0, i64 0, !dbg !3192
  %803 = load i16, ptr %802, align 2, !dbg !3192
  %804 = zext i16 %803 to i32, !dbg !3192
  %805 = or i32 %800, %804, !dbg !3193
  %806 = getelementptr inbounds [4 x [1 x i16]], ptr %15, i64 0, i64 2, !dbg !3194
  %807 = getelementptr inbounds [1 x i16], ptr %806, i64 0, i64 0, !dbg !3194
  %808 = load i16, ptr %807, align 2, !dbg !3194
  %809 = zext i16 %808 to i32, !dbg !3194
  %810 = call noundef i32 @_ZL29safe_rshift_func_uint32_t_u_ujj(i32 noundef %805, i32 noundef %809), !dbg !3195
  %811 = zext i32 %810 to i64, !dbg !3196
  %812 = load ptr, ptr %53, align 8, !dbg !3197
  %813 = load i32, ptr %812, align 4, !dbg !3198
  %814 = sext i32 %813 to i64, !dbg !3199
  %815 = call noundef i64 @_ZL25safe_div_func_int64_t_s_sll(i64 noundef %811, i64 noundef %814), !dbg !3200
  %816 = load i32, ptr %83, align 4, !dbg !3201
  %817 = zext i32 %816 to i64, !dbg !3201
  %818 = icmp ne i64 %815, %817, !dbg !3202
  %819 = zext i1 %818 to i32, !dbg !3203
  %820 = load ptr, ptr %53, align 8, !dbg !3204
  %821 = load i32, ptr %820, align 4, !dbg !3205
  %822 = icmp sge i32 %819, %821, !dbg !3206
  %823 = zext i1 %822 to i8, !dbg !3207
  %824 = load i32, ptr @_ZL6g_1932, align 4, !dbg !3208
  %825 = call noundef zeroext i8 @_ZL28safe_lshift_func_uint8_t_u_shi(i8 noundef zeroext %823, i32 noundef %824), !dbg !3209
  %826 = call noundef signext i8 @_ZL24safe_add_func_int8_t_s_saa(i8 noundef signext %825, i8 noundef signext 82), !dbg !3210
  %827 = sext i8 %826 to i64, !dbg !3211
  %828 = getelementptr inbounds [5 x [10 x i64]], ptr %84, i64 0, i64 3, !dbg !3212
  %829 = getelementptr inbounds [10 x i64], ptr %828, i64 0, i64 2, !dbg !3212
  %830 = load i64, ptr %829, align 16, !dbg !3212
  %831 = call noundef i64 @_ZL26safe_mul_func_uint64_t_u_umm(i64 noundef %827, i64 noundef %830), !dbg !3213
  %832 = load i32, ptr %85, align 4, !dbg !3214
  %833 = load ptr, ptr %53, align 8, !dbg !3215
  store i32 %832, ptr %833, align 4, !dbg !3216
  %834 = icmp ne i32 %832, 0, !dbg !3217
  br label %835

835:                                              ; preds = %788, %763
  %836 = phi i1 [ false, %763 ], [ %834, %788 ], !dbg !3218
  %837 = zext i1 %836 to i32, !dbg !3219
  %838 = load ptr, ptr @_ZL5g_139, align 8, !dbg !3220
  %839 = load ptr, ptr %838, align 8, !dbg !3221
  store i32 %837, ptr %839, align 4, !dbg !3222
  br label %840

840:                                              ; preds = %835, %683
  br label %1076, !dbg !3223

841:                                              ; preds = %233
  call void @llvm.dbg.declare(metadata ptr %104, metadata !3224, metadata !DIExpression()), !dbg !3227
  store ptr @_ZL6g_2504, ptr %104, align 8, !dbg !3227
  call void @llvm.dbg.declare(metadata ptr %105, metadata !3228, metadata !DIExpression()), !dbg !3229
  store i32 -1, ptr %105, align 4, !dbg !3230
  call void @llvm.dbg.declare(metadata ptr %106, metadata !3231, metadata !DIExpression()), !dbg !3232
  store ptr @_ZL5g_313, ptr %106, align 8, !dbg !3232
  call void @llvm.dbg.declare(metadata ptr %107, metadata !3233, metadata !DIExpression()), !dbg !3234
  store i32 197268864, ptr %107, align 4, !dbg !3234
  call void @llvm.dbg.declare(metadata ptr %108, metadata !3235, metadata !DIExpression()), !dbg !3236
  store i32 -199073996, ptr %108, align 4, !dbg !3236
  call void @llvm.dbg.declare(metadata ptr %109, metadata !3237, metadata !DIExpression()), !dbg !3240
  call void @llvm.memcpy.p0.p0.i64(ptr align 16 %109, ptr align 16 @__const._ZL6func_1v.l_2541, i64 224, i1 false), !dbg !3240
  call void @llvm.dbg.declare(metadata ptr %110, metadata !3241, metadata !DIExpression()), !dbg !3242
  store ptr %27, ptr %110, align 8, !dbg !3242
  call void @llvm.dbg.declare(metadata ptr %111, metadata !3243, metadata !DIExpression()), !dbg !3244
  call void @llvm.memcpy.p0.p0.i64(ptr align 2 %111, ptr align 2 @__const._ZL6func_1v.l_2605, i64 2, i1 false), !dbg !3244
  call void @llvm.dbg.declare(metadata ptr %112, metadata !3245, metadata !DIExpression()), !dbg !3246
  call void @llvm.dbg.declare(metadata ptr %113, metadata !3247, metadata !DIExpression()), !dbg !3248
  %842 = load i64, ptr getelementptr inbounds ([4 x [2 x %union.U2]], ptr @_ZL5g_149, i64 0, i64 3, i64 1), align 8, !dbg !3249
  %843 = call noundef i64 @_ZL31safe_unary_minus_func_int64_t_sl(i64 noundef %842), !dbg !3251
  %844 = load ptr, ptr @_ZL5g_150, align 8, !dbg !3252
  %845 = load ptr, ptr @_ZL6g_2504, align 8, !dbg !3253
  %846 = load ptr, ptr %104, align 8, !dbg !3254
  store ptr %845, ptr %846, align 8, !dbg !3255
  %847 = icmp ne ptr %845, @_ZL6g_2505, !dbg !3256
  %848 = load ptr, ptr @_ZL5g_448, align 8, !dbg !3257
  %849 = load i32, ptr %848, align 4, !dbg !3258
  %850 = call noundef i32 @_ZL25safe_sub_func_int32_t_s_sii(i32 noundef 2093652833, i32 noundef %849), !dbg !3259
  %851 = load i32, ptr %2, align 4, !dbg !3260
  %852 = icmp eq i32 %850, %851, !dbg !3261
  %853 = zext i1 %852 to i16, !dbg !3262
  %854 = load ptr, ptr %106, align 8, !dbg !3263
  store i16 %853, ptr %854, align 2, !dbg !3264
  %855 = load i32, ptr %105, align 4, !dbg !3265
  %856 = trunc i32 %855 to i16, !dbg !3266
  %857 = call noundef signext i16 @_ZL25safe_mod_func_int16_t_s_sss(i16 noundef signext %853, i16 noundef signext %856), !dbg !3267
  %858 = sext i16 %857 to i32, !dbg !3268
  %859 = load i32, ptr getelementptr inbounds ([4 x [9 x i32]], ptr @_ZL6g_1922, i64 0, i64 2, i64 1), align 4, !dbg !3269
  %860 = icmp ule i32 %858, %859, !dbg !3270
  %861 = zext i1 %860 to i32, !dbg !3271
  %862 = load i32, ptr %5, align 4, !dbg !3272
  %863 = icmp sle i32 %861, %862, !dbg !3273
  %864 = zext i1 %863 to i32, !dbg !3274
  %865 = load i32, ptr %105, align 4, !dbg !3275
  %866 = icmp ne i32 %864, %865, !dbg !3276
  br i1 %866, label %871, label %867, !dbg !3277

867:                                              ; preds = %841
  %868 = load volatile ptr, ptr @_ZL5g_337, align 8, !dbg !3278
  %869 = load i64, ptr %868, align 8, !dbg !3279
  %870 = icmp ne i64 %869, 0, !dbg !3280
  br label %871, !dbg !3277

871:                                              ; preds = %867, %841
  %872 = phi i1 [ true, %841 ], [ %870, %867 ]
  %873 = zext i1 %872 to i16, !dbg !3281
  %874 = call noundef signext i16 @_ZL28safe_rshift_func_int16_t_s_usj(i16 noundef signext %873, i32 noundef 14), !dbg !3282
  %875 = sext i16 %874 to i64, !dbg !3283
  %876 = load i32, ptr @_ZL6g_1930, align 4, !dbg !3284
  %877 = call noundef i64 @_ZL29safe_lshift_func_uint64_t_u_smi(i64 noundef %875, i32 noundef %876), !dbg !3285
  %878 = icmp ult i64 1746, %877, !dbg !3286
  %879 = zext i1 %878 to i32, !dbg !3287
  %880 = load i32, ptr %105, align 4, !dbg !3288
  %881 = icmp eq i32 %879, %880, !dbg !3289
  %882 = zext i1 %881 to i16, !dbg !3290
  %883 = call noundef signext i16 @_ZL25safe_mod_func_int16_t_s_sss(i16 noundef signext %882, i16 noundef signext 4663), !dbg !3291
  %884 = sext i16 %883 to i64, !dbg !3292
  %885 = icmp slt i64 %884, 2978496419, !dbg !3293
  %886 = zext i1 %885 to i32, !dbg !3294
  %887 = call noundef i64 @_ZL29safe_rshift_func_uint64_t_u_umj(i64 noundef %843, i32 noundef %886), !dbg !3295
  %888 = trunc i64 %887 to i32, !dbg !3296
  %889 = call noundef i64 @_ZL28safe_lshift_func_int64_t_s_ulj(i64 noundef -8285731994164951014, i32 noundef %888), !dbg !3297
  %890 = or i64 %889, 63187, !dbg !3298
  %891 = trunc i64 %890 to i8, !dbg !3299
  %892 = load i16, ptr @_ZL6g_2519, align 2, !dbg !3300
  %893 = trunc i16 %892 to i8, !dbg !3300
  %894 = call noundef zeroext i8 @_ZL25safe_add_func_uint8_t_u_uhh(i8 noundef zeroext %891, i8 noundef zeroext %893), !dbg !3301
  %895 = icmp ne i8 %894, 0, !dbg !3302
  br i1 %895, label %896, label %1065, !dbg !3303

896:                                              ; preds = %871
  call void @llvm.dbg.declare(metadata ptr %114, metadata !3304, metadata !DIExpression()), !dbg !3306
  store i8 1, ptr %114, align 1, !dbg !3306
  call void @llvm.dbg.declare(metadata ptr %115, metadata !3307, metadata !DIExpression()), !dbg !3308
  store i32 2118415308, ptr %115, align 4, !dbg !3308
  call void @llvm.dbg.declare(metadata ptr %116, metadata !3309, metadata !DIExpression()), !dbg !3310
  store i32 1, ptr %116, align 4, !dbg !3310
  call void @llvm.dbg.declare(metadata ptr %117, metadata !3311, metadata !DIExpression()), !dbg !3312
  store i32 1564788400, ptr %117, align 4, !dbg !3312
  call void @llvm.dbg.declare(metadata ptr %118, metadata !3313, metadata !DIExpression()), !dbg !3314
  store i32 -72581471, ptr %118, align 4, !dbg !3314
  call void @llvm.dbg.declare(metadata ptr %119, metadata !3315, metadata !DIExpression()), !dbg !3317
  call void @llvm.memcpy.p0.p0.i64(ptr align 16 %119, ptr align 16 @__const._ZL6func_1v.l_2552, i64 32, i1 false), !dbg !3317
  call void @llvm.dbg.declare(metadata ptr %120, metadata !3318, metadata !DIExpression()), !dbg !3319
  store i8 0, ptr %120, align 2, !dbg !3320
  call void @llvm.dbg.declare(metadata ptr %121, metadata !3321, metadata !DIExpression()), !dbg !3322
  store i32 1200670702, ptr %121, align 4, !dbg !3322
  call void @llvm.dbg.declare(metadata ptr %122, metadata !3323, metadata !DIExpression()), !dbg !3325
  call void @llvm.dbg.declare(metadata ptr %123, metadata !3326, metadata !DIExpression()), !dbg !3327
  call void @llvm.memcpy.p0.p0.i64(ptr align 2 %123, ptr align 2 @__const._ZL6func_1v.l_2573, i64 2, i1 false), !dbg !3327
  call void @llvm.dbg.declare(metadata ptr %124, metadata !3328, metadata !DIExpression()), !dbg !3329
  store ptr @_ZL5g_837, ptr %124, align 8, !dbg !3329
  call void @llvm.dbg.declare(metadata ptr %125, metadata !3330, metadata !DIExpression()), !dbg !3333
  %897 = getelementptr inbounds [6 x [5 x ptr]], ptr %125, i64 0, i64 0, !dbg !3334
  %898 = getelementptr inbounds [5 x ptr], ptr %897, i64 0, i64 0, !dbg !3335
  store ptr %114, ptr %898, align 8, !dbg !3335
  %899 = getelementptr inbounds ptr, ptr %898, i64 1, !dbg !3335
  store ptr @_ZL4g_91, ptr %899, align 8, !dbg !3335
  %900 = getelementptr inbounds ptr, ptr %899, i64 1, !dbg !3335
  store ptr @_ZL4g_91, ptr %900, align 8, !dbg !3335
  %901 = getelementptr inbounds ptr, ptr %900, i64 1, !dbg !3335
  store ptr @_ZL4g_91, ptr %901, align 8, !dbg !3335
  %902 = getelementptr inbounds ptr, ptr %901, i64 1, !dbg !3335
  store ptr @_ZL4g_91, ptr %902, align 8, !dbg !3335
  %903 = getelementptr inbounds [5 x ptr], ptr %897, i64 1, !dbg !3334
  %904 = getelementptr inbounds [5 x ptr], ptr %903, i64 0, i64 0, !dbg !3336
  store ptr @_ZL4g_91, ptr %904, align 8, !dbg !3336
  %905 = getelementptr inbounds ptr, ptr %904, i64 1, !dbg !3336
  store ptr %114, ptr %905, align 8, !dbg !3336
  %906 = getelementptr inbounds ptr, ptr %905, i64 1, !dbg !3336
  store ptr @_ZL4g_91, ptr %906, align 8, !dbg !3336
  %907 = getelementptr inbounds ptr, ptr %906, i64 1, !dbg !3336
  store ptr @_ZL5g_259, ptr %907, align 8, !dbg !3336
  %908 = getelementptr inbounds ptr, ptr %907, i64 1, !dbg !3336
  store ptr @_ZL4g_91, ptr %908, align 8, !dbg !3336
  %909 = getelementptr inbounds [5 x ptr], ptr %903, i64 1, !dbg !3334
  %910 = getelementptr inbounds [5 x ptr], ptr %909, i64 0, i64 0, !dbg !3337
  call void @llvm.memcpy.p0.p0.i64(ptr align 8 %909, ptr align 8 @constinit, i64 40, i1 false), !dbg !3337
  %911 = getelementptr inbounds [5 x ptr], ptr %909, i64 1, !dbg !3334
  %912 = getelementptr inbounds [5 x ptr], ptr %911, i64 0, i64 0, !dbg !3338
  call void @llvm.memcpy.p0.p0.i64(ptr align 8 %911, ptr align 8 @constinit.166, i64 40, i1 false), !dbg !3338
  %913 = getelementptr inbounds [5 x ptr], ptr %911, i64 1, !dbg !3334
  %914 = getelementptr inbounds [5 x ptr], ptr %913, i64 0, i64 0, !dbg !3339
  store ptr @_ZL4g_91, ptr %914, align 8, !dbg !3339
  %915 = getelementptr inbounds ptr, ptr %914, i64 1, !dbg !3339
  store ptr @_ZL5g_259, ptr %915, align 8, !dbg !3339
  %916 = getelementptr inbounds ptr, ptr %915, i64 1, !dbg !3339
  store ptr @_ZL4g_91, ptr %916, align 8, !dbg !3339
  %917 = getelementptr inbounds ptr, ptr %916, i64 1, !dbg !3339
  store ptr @_ZL4g_91, ptr %917, align 8, !dbg !3339
  %918 = getelementptr inbounds ptr, ptr %917, i64 1, !dbg !3339
  store ptr %114, ptr %918, align 8, !dbg !3339
  %919 = getelementptr inbounds [5 x ptr], ptr %913, i64 1, !dbg !3334
  %920 = getelementptr inbounds [5 x ptr], ptr %919, i64 0, i64 0, !dbg !3340
  store ptr %114, ptr %920, align 8, !dbg !3340
  %921 = getelementptr inbounds ptr, ptr %920, i64 1, !dbg !3340
  store ptr @_ZL5g_259, ptr %921, align 8, !dbg !3340
  %922 = getelementptr inbounds ptr, ptr %921, i64 1, !dbg !3340
  store ptr @_ZL4g_91, ptr %922, align 8, !dbg !3340
  %923 = getelementptr inbounds ptr, ptr %922, i64 1, !dbg !3340
  store ptr @_ZL5g_259, ptr %923, align 8, !dbg !3340
  %924 = getelementptr inbounds ptr, ptr %923, i64 1, !dbg !3340
  store ptr @_ZL4g_91, ptr %924, align 8, !dbg !3340
  call void @llvm.dbg.declare(metadata ptr %126, metadata !3341, metadata !DIExpression()), !dbg !3342
  store i16 7524, ptr %126, align 2, !dbg !3342
  call void @llvm.dbg.declare(metadata ptr %127, metadata !3343, metadata !DIExpression()), !dbg !3344
  store ptr %123, ptr %127, align 8, !dbg !3344
  call void @llvm.dbg.declare(metadata ptr %128, metadata !3345, metadata !DIExpression()), !dbg !3346
  call void @llvm.dbg.declare(metadata ptr %129, metadata !3347, metadata !DIExpression()), !dbg !3348
  store i32 0, ptr %128, align 4, !dbg !3349
  br label %925, !dbg !3351

925:                                              ; preds = %932, %896
  %926 = load i32, ptr %128, align 4, !dbg !3352
  %927 = icmp slt i32 %926, 8, !dbg !3354
  br i1 %927, label %928, label %935, !dbg !3355

928:                                              ; preds = %925
  %929 = load i32, ptr %128, align 4, !dbg !3356
  %930 = sext i32 %929 to i64, !dbg !3357
  %931 = getelementptr inbounds [8 x i16], ptr %122, i64 0, i64 %930, !dbg !3357
  store i16 1, ptr %931, align 2, !dbg !3358
  br label %932, !dbg !3357

932:                                              ; preds = %928
  %933 = load i32, ptr %128, align 4, !dbg !3359
  %934 = add nsw i32 %933, 1, !dbg !3359
  store i32 %934, ptr %128, align 4, !dbg !3359
  br label %925, !dbg !3360, !llvm.loop !3361

935:                                              ; preds = %925
  store i32 0, ptr %4, align 4, !dbg !3363
  br label %936, !dbg !3365

936:                                              ; preds = %951, %935
  %937 = load i32, ptr %4, align 4, !dbg !3366
  %938 = icmp sle i32 %937, -27, !dbg !3368
  br i1 %938, label %939, label %954, !dbg !3369

939:                                              ; preds = %936
  call void @llvm.dbg.declare(metadata ptr %130, metadata !3370, metadata !DIExpression()), !dbg !3372
  store i32 -6, ptr %130, align 4, !dbg !3372
  call void @llvm.dbg.declare(metadata ptr %131, metadata !3373, metadata !DIExpression()), !dbg !3374
  store i32 -1202443627, ptr %131, align 4, !dbg !3374
  call void @llvm.dbg.declare(metadata ptr %132, metadata !3375, metadata !DIExpression()), !dbg !3376
  store i32 9, ptr %132, align 4, !dbg !3376
  call void @llvm.dbg.declare(metadata ptr %133, metadata !3377, metadata !DIExpression()), !dbg !3378
  store i32 1326141411, ptr %133, align 4, !dbg !3378
  call void @llvm.dbg.declare(metadata ptr %134, metadata !3379, metadata !DIExpression()), !dbg !3380
  store i32 -1, ptr %134, align 4, !dbg !3380
  call void @llvm.dbg.declare(metadata ptr %135, metadata !3381, metadata !DIExpression()), !dbg !3382
  store i32 -1, ptr %135, align 4, !dbg !3382
  call void @llvm.dbg.declare(metadata ptr %136, metadata !3383, metadata !DIExpression()), !dbg !3384
  call void @llvm.dbg.declare(metadata ptr %137, metadata !3385, metadata !DIExpression()), !dbg !3388
  call void @llvm.memcpy.p0.p0.i64(ptr align 16 %137, ptr align 16 @__const._ZL6func_1v.l_2564, i64 320, i1 false), !dbg !3388
  call void @llvm.dbg.declare(metadata ptr %138, metadata !3389, metadata !DIExpression()), !dbg !3390
  call void @llvm.dbg.declare(metadata ptr %139, metadata !3391, metadata !DIExpression()), !dbg !3392
  store i32 0, ptr %138, align 4, !dbg !3393
  br label %940, !dbg !3395

940:                                              ; preds = %947, %939
  %941 = load i32, ptr %138, align 4, !dbg !3396
  %942 = icmp slt i32 %941, 8, !dbg !3398
  br i1 %942, label %943, label %950, !dbg !3399

943:                                              ; preds = %940
  %944 = load i32, ptr %138, align 4, !dbg !3400
  %945 = sext i32 %944 to i64, !dbg !3401
  %946 = getelementptr inbounds [8 x i32], ptr %136, i64 0, i64 %945, !dbg !3401
  store i32 -476256381, ptr %946, align 4, !dbg !3402
  br label %947, !dbg !3401

947:                                              ; preds = %943
  %948 = load i32, ptr %138, align 4, !dbg !3403
  %949 = add nsw i32 %948, 1, !dbg !3403
  store i32 %949, ptr %138, align 4, !dbg !3403
  br label %940, !dbg !3404, !llvm.loop !3405

950:                                              ; preds = %940
  br label %951, !dbg !3407

951:                                              ; preds = %950
  %952 = load i32, ptr %4, align 4, !dbg !3408
  %953 = add nsw i32 %952, -1, !dbg !3408
  store i32 %953, ptr %4, align 4, !dbg !3408
  br label %936, !dbg !3409, !llvm.loop !3410

954:                                              ; preds = %936
  store i16 0, ptr @_ZL5g_837, align 2, !dbg !3412
  br label %955, !dbg !3414

955:                                              ; preds = %974, %954
  %956 = load i16, ptr @_ZL5g_837, align 2, !dbg !3415
  %957 = sext i16 %956 to i32, !dbg !3417
  %958 = icmp slt i32 %957, 1, !dbg !3418
  br i1 %958, label %959, label %979, !dbg !3419

959:                                              ; preds = %955
  store i32 0, ptr @_ZL6g_1939, align 4, !dbg !3420
  br label %960, !dbg !3423

960:                                              ; preds = %970, %959
  %961 = load i32, ptr @_ZL6g_1939, align 4, !dbg !3424
  %962 = icmp ult i32 %961, 5, !dbg !3426
  br i1 %962, label %963, label %973, !dbg !3427

963:                                              ; preds = %960
  %964 = load i16, ptr @_ZL5g_837, align 2, !dbg !3428
  %965 = sext i16 %964 to i64, !dbg !3430
  %966 = getelementptr inbounds [1 x [5 x i32]], ptr @_ZL6g_2324, i64 0, i64 %965, !dbg !3430
  %967 = load i32, ptr @_ZL6g_1939, align 4, !dbg !3431
  %968 = zext i32 %967 to i64, !dbg !3430
  %969 = getelementptr inbounds [5 x i32], ptr %966, i64 0, i64 %968, !dbg !3430
  store i32 1769521508, ptr %969, align 4, !dbg !3432
  br label %970, !dbg !3433

970:                                              ; preds = %963
  %971 = load i32, ptr @_ZL6g_1939, align 4, !dbg !3434
  %972 = add i32 %971, 1, !dbg !3434
  store i32 %972, ptr @_ZL6g_1939, align 4, !dbg !3434
  br label %960, !dbg !3435, !llvm.loop !3436

973:                                              ; preds = %960
  br label %974, !dbg !3438

974:                                              ; preds = %973
  %975 = load i16, ptr @_ZL5g_837, align 2, !dbg !3439
  %976 = sext i16 %975 to i32, !dbg !3439
  %977 = add nsw i32 %976, 1, !dbg !3439
  %978 = trunc i32 %977 to i16, !dbg !3439
  store i16 %978, ptr @_ZL5g_837, align 2, !dbg !3439
  br label %955, !dbg !3440, !llvm.loop !3441

979:                                              ; preds = %955
  %980 = load ptr, ptr @_ZL6g_2504, align 8, !dbg !3443
  %981 = load ptr, ptr %980, align 8, !dbg !3444
  %982 = load i16, ptr %981, align 2, !dbg !3445
  %983 = icmp ne i16 %982, 0, !dbg !3446
  br i1 %983, label %984, label %987, !dbg !3447

984:                                              ; preds = %979
  %985 = load i32, ptr @_ZL6g_1946, align 4, !dbg !3448
  %986 = icmp ne i32 %985, 0, !dbg !3448
  br label %987

987:                                              ; preds = %984, %979
  %988 = phi i1 [ false, %979 ], [ %986, %984 ], !dbg !3449
  %989 = zext i1 %988 to i64, !dbg !3450
  %990 = getelementptr inbounds [7 x [8 x i32]], ptr %109, i64 0, i64 4, !dbg !3451
  %991 = getelementptr inbounds [8 x i32], ptr %990, i64 0, i64 5, !dbg !3451
  %992 = load i32, ptr %991, align 4, !dbg !3451
  %993 = load i32, ptr %26, align 4, !dbg !3452
  %994 = load i64, ptr %27, align 8, !dbg !3453
  %995 = icmp ne i64 %994, 0, !dbg !3453
  %996 = xor i1 %995, true, !dbg !3454
  %997 = zext i1 %996 to i32, !dbg !3455
  %998 = getelementptr inbounds [6 x i32], ptr %28, i64 0, i64 3, !dbg !3456
  %999 = load i32, ptr %998, align 4, !dbg !3457
  %1000 = add i32 %999, 1, !dbg !3457
  store i32 %1000, ptr %998, align 4, !dbg !3457
  %1001 = load i8, ptr @_ZL5g_259, align 1, !dbg !3458
  %1002 = zext i8 %1001 to i32, !dbg !3458
  %1003 = xor i32 %1002, %999, !dbg !3458
  %1004 = trunc i32 %1003 to i8, !dbg !3458
  store i8 %1004, ptr @_ZL5g_259, align 1, !dbg !3458
  %1005 = zext i8 %1004 to i32, !dbg !3459
  %1006 = trunc i32 %1005 to i8, !dbg !3460
  %1007 = load volatile i16, ptr @_ZL6g_2599, align 2, !dbg !3461
  %1008 = load ptr, ptr %110, align 8, !dbg !3462
  %1009 = icmp ne ptr @_ZL6g_2186, %1008, !dbg !3463
  %1010 = zext i1 %1009 to i8, !dbg !3464
  %1011 = call noundef zeroext i8 @_ZL25safe_add_func_uint8_t_u_uhh(i8 noundef zeroext %1006, i8 noundef zeroext %1010), !dbg !3465
  %1012 = zext i8 %1011 to i64, !dbg !3466
  %1013 = or i64 %1012, 0, !dbg !3467
  %1014 = xor i64 0, %1013, !dbg !3468
  %1015 = trunc i64 %1014 to i16, !dbg !3469
  %1016 = load ptr, ptr %106, align 8, !dbg !3470
  store i16 %1015, ptr %1016, align 2, !dbg !3471
  %1017 = load i16, ptr %126, align 2, !dbg !3472
  %1018 = call noundef signext i16 @_ZL25safe_add_func_int16_t_s_sss(i16 noundef signext %1015, i16 noundef signext %1017), !dbg !3473
  %1019 = sext i16 %1018 to i32, !dbg !3474
  store i32 %1019, ptr %22, align 4, !dbg !3475
  %1020 = icmp sge i32 %997, %1019, !dbg !3476
  %1021 = getelementptr inbounds [4 x [1 x i16]], ptr %15, i64 0, i64 2, !dbg !3477
  %1022 = getelementptr inbounds [1 x i16], ptr %1021, i64 0, i64 0, !dbg !3477
  %1023 = load i16, ptr %1022, align 2, !dbg !3477
  %1024 = zext i16 %1023 to i32, !dbg !3478
  %1025 = load i16, ptr @_ZL5g_453, align 2, !dbg !3479
  %1026 = zext i16 %1025 to i32, !dbg !3480
  %1027 = and i32 %1024, %1026, !dbg !3481
  %1028 = trunc i32 %1027 to i16, !dbg !3482
  %1029 = call noundef zeroext i16 @_ZL26safe_mul_func_uint16_t_u_utt(i16 noundef zeroext %1028, i16 noundef zeroext 0), !dbg !3483
  %1030 = zext i16 %1029 to i64, !dbg !3484
  %1031 = icmp sge i64 %1030, 8678000381446302913, !dbg !3485
  %1032 = zext i1 %1031 to i16, !dbg !3486
  %1033 = load ptr, ptr @_ZL6g_2504, align 8, !dbg !3487
  %1034 = load ptr, ptr %1033, align 8, !dbg !3488
  %1035 = load i16, ptr %1034, align 2, !dbg !3489
  %1036 = call noundef zeroext i16 @_ZL26safe_mul_func_uint16_t_u_utt(i16 noundef zeroext %1032, i16 noundef zeroext %1035), !dbg !3490
  %1037 = zext i16 %1036 to i32, !dbg !3491
  %1038 = icmp sge i32 %993, %1037, !dbg !3492
  %1039 = zext i1 %1038 to i32, !dbg !3493
  %1040 = getelementptr inbounds [7 x [8 x i32]], ptr %109, i64 0, i64 5, !dbg !3494
  %1041 = getelementptr inbounds [8 x i32], ptr %1040, i64 0, i64 0, !dbg !3494
  %1042 = load i32, ptr %1041, align 16, !dbg !3494
  %1043 = or i32 %1039, %1042, !dbg !3495
  %1044 = call noundef i32 @_ZL25safe_sub_func_int32_t_s_sii(i32 noundef %992, i32 noundef %1043), !dbg !3496
  %1045 = load i32, ptr %2, align 4, !dbg !3497
  %1046 = call noundef i32 @_ZL25safe_sub_func_int32_t_s_sii(i32 noundef %1044, i32 noundef %1045), !dbg !3498
  %1047 = load ptr, ptr @_ZL6g_2504, align 8, !dbg !3499
  %1048 = load ptr, ptr %1047, align 8, !dbg !3500
  %1049 = load i16, ptr %1048, align 2, !dbg !3501
  %1050 = zext i16 %1049 to i32, !dbg !3502
  %1051 = xor i32 %1046, %1050, !dbg !3503
  %1052 = trunc i32 %1051 to i16, !dbg !3504
  %1053 = load ptr, ptr %127, align 8, !dbg !3505
  store i16 %1052, ptr %1053, align 2, !dbg !3506
  %1054 = zext i16 %1052 to i32, !dbg !3507
  %1055 = getelementptr inbounds [7 x [8 x i32]], ptr %109, i64 0, i64 5, !dbg !3508
  %1056 = getelementptr inbounds [8 x i32], ptr %1055, i64 0, i64 0, !dbg !3508
  %1057 = load i32, ptr %1056, align 16, !dbg !3508
  %1058 = or i32 %1054, %1057, !dbg !3509
  %1059 = sext i32 %1058 to i64, !dbg !3510
  %1060 = load ptr, ptr %110, align 8, !dbg !3511
  store i64 %1059, ptr %1060, align 8, !dbg !3512
  %1061 = call noundef i64 @_ZL29safe_rshift_func_uint64_t_u_umj(i64 noundef %1059, i32 noundef 36), !dbg !3513
  %1062 = icmp ugt i64 %989, %1061, !dbg !3514
  %1063 = zext i1 %1062 to i32, !dbg !3515
  %1064 = load ptr, ptr @_ZL5g_140, align 8, !dbg !3516
  store i32 %1063, ptr %1064, align 4, !dbg !3517
  br label %1075, !dbg !3518

1065:                                             ; preds = %871
  store i32 0, ptr @_ZL6g_1904, align 4, !dbg !3519
  br label %1066, !dbg !3522

1066:                                             ; preds = %1071, %1065
  %1067 = load i32, ptr @_ZL6g_1904, align 4, !dbg !3523
  %1068 = icmp ule i32 %1067, 20, !dbg !3525
  br i1 %1068, label %1069, label %1074, !dbg !3526

1069:                                             ; preds = %1066
  %1070 = load volatile ptr, ptr @_ZL5g_452, align 8, !dbg !3527
  call void @llvm.memcpy.p0.p0.i64(ptr align 2 %1, ptr align 2 %1070, i64 2, i1 false), !dbg !3529
  br label %1078, !dbg !3530

1071:                                             ; No predecessors!
  %1072 = load i32, ptr @_ZL6g_1904, align 4, !dbg !3531
  %1073 = add i32 %1072, 1, !dbg !3531
  store i32 %1073, ptr @_ZL6g_1904, align 4, !dbg !3531
  br label %1066, !dbg !3532, !llvm.loop !3533

1074:                                             ; preds = %1066
  call void @llvm.memcpy.p0.p0.i64(ptr align 2 %1, ptr align 2 %111, i64 2, i1 false), !dbg !3535
  br label %1078, !dbg !3536

1075:                                             ; preds = %987
  br label %1076

1076:                                             ; preds = %1075, %840
  %1077 = load ptr, ptr %13, align 8, !dbg !3537
  call void @llvm.memcpy.p0.p0.i64(ptr align 2 %1, ptr align 2 %1077, i64 2, i1 false), !dbg !3538
  br label %1078, !dbg !3539

1078:                                             ; preds = %1076, %1074, %1069, %751, %703
  %1079 = getelementptr inbounds %union.U4, ptr %1, i32 0, i32 0, !dbg !3540
  %1080 = load i16, ptr %1079, align 2, !dbg !3540
  ret i16 %1080, !dbg !3540
}

; Function Attrs: mustprogress noinline nounwind optnone sspstrong uwtable
define internal void @_ZL15transparent_crcmPci(i64 noundef %0, ptr noundef %1, i32 noundef %2) #3 !dbg !3541 {
  %4 = alloca i64, align 8
  %5 = alloca ptr, align 8
  %6 = alloca i32, align 4
  store i64 %0, ptr %4, align 8
  call void @llvm.dbg.declare(metadata ptr %4, metadata !3544, metadata !DIExpression()), !dbg !3545
  store ptr %1, ptr %5, align 8
  call void @llvm.dbg.declare(metadata ptr %5, metadata !3546, metadata !DIExpression()), !dbg !3547
  store i32 %2, ptr %6, align 4
  call void @llvm.dbg.declare(metadata ptr %6, metadata !3548, metadata !DIExpression()), !dbg !3549
  %7 = load i64, ptr %4, align 8, !dbg !3550
  call void @_ZL12crc32_8bytesm(i64 noundef %7), !dbg !3551
  %8 = load i32, ptr %6, align 4, !dbg !3552
  %9 = icmp ne i32 %8, 0, !dbg !3552
  br i1 %9, label %10, label %16, !dbg !3554

10:                                               ; preds = %3
  %11 = load ptr, ptr %5, align 8, !dbg !3555
  %12 = load i32, ptr @_ZL13crc32_context, align 4, !dbg !3557
  %13 = zext i32 %12 to i64, !dbg !3557
  %14 = xor i64 %13, 4294967295, !dbg !3558
  %15 = call i32 (ptr, ...) @printf(ptr noundef @.str.170, ptr noundef %11, i64 noundef %14), !dbg !3559
  br label %16, !dbg !3560

16:                                               ; preds = %10, %3
  ret void, !dbg !3561
}

; Function Attrs: mustprogress noinline nounwind optnone sspstrong uwtable
define internal void @_ZL17platform_main_endji(i32 noundef %0, i32 noundef %1) #3 !dbg !3562 {
  %3 = alloca i32, align 4
  %4 = alloca i32, align 4
  store i32 %0, ptr %3, align 4
  call void @llvm.dbg.declare(metadata ptr %3, metadata !3565, metadata !DIExpression()), !dbg !3566
  store i32 %1, ptr %4, align 4
  call void @llvm.dbg.declare(metadata ptr %4, metadata !3567, metadata !DIExpression()), !dbg !3568
  %5 = load i32, ptr %3, align 4, !dbg !3569
  %6 = call i32 (ptr, ...) @printf(ptr noundef @.str.173, i32 noundef %5), !dbg !3570
  ret void, !dbg !3571
}

; Function Attrs: nocallback nofree nounwind willreturn memory(argmem: readwrite)
declare void @llvm.memcpy.p0.p0.i64(ptr noalias nocapture writeonly, ptr noalias nocapture readonly, i64, i1 immarg) #5

; Function Attrs: mustprogress noinline nounwind optnone sspstrong uwtable
define internal noundef i64 @_ZL25safe_sub_func_int64_t_s_sll(i64 noundef %0, i64 noundef %1) #3 !dbg !3572 {
  %3 = alloca i64, align 8
  %4 = alloca i64, align 8
  store i64 %0, ptr %3, align 8
  call void @llvm.dbg.declare(metadata ptr %3, metadata !3576, metadata !DIExpression()), !dbg !3577
  store i64 %1, ptr %4, align 8
  call void @llvm.dbg.declare(metadata ptr %4, metadata !3578, metadata !DIExpression()), !dbg !3579
  %5 = load i64, ptr %3, align 8, !dbg !3580
  %6 = load i64, ptr %4, align 8, !dbg !3581
  %7 = xor i64 %5, %6, !dbg !3582
  %8 = load i64, ptr %3, align 8, !dbg !3583
  %9 = load i64, ptr %3, align 8, !dbg !3584
  %10 = load i64, ptr %4, align 8, !dbg !3585
  %11 = xor i64 %9, %10, !dbg !3586
  %12 = and i64 %11, -9223372036854775808, !dbg !3587
  %13 = xor i64 %8, %12, !dbg !3588
  %14 = load i64, ptr %4, align 8, !dbg !3589
  %15 = sub nsw i64 %13, %14, !dbg !3590
  %16 = load i64, ptr %4, align 8, !dbg !3591
  %17 = xor i64 %15, %16, !dbg !3592
  %18 = and i64 %7, %17, !dbg !3593
  %19 = icmp slt i64 %18, 0, !dbg !3594
  br i1 %19, label %20, label %22, !dbg !3595

20:                                               ; preds = %2
  %21 = load i64, ptr %3, align 8, !dbg !3596
  br label %26, !dbg !3595

22:                                               ; preds = %2
  %23 = load i64, ptr %3, align 8, !dbg !3597
  %24 = load i64, ptr %4, align 8, !dbg !3598
  %25 = sub nsw i64 %23, %24, !dbg !3599
  br label %26, !dbg !3595

26:                                               ; preds = %22, %20
  %27 = phi i64 [ %21, %20 ], [ %25, %22 ], !dbg !3595
  ret i64 %27, !dbg !3600
}

; Function Attrs: mustprogress noinline nounwind optnone sspstrong uwtable
define internal noundef i64 @_ZL26safe_add_func_uint64_t_u_umm(i64 noundef %0, i64 noundef %1) #3 !dbg !3601 {
  %3 = alloca i64, align 8
  %4 = alloca i64, align 8
  store i64 %0, ptr %3, align 8
  call void @llvm.dbg.declare(metadata ptr %3, metadata !3604, metadata !DIExpression()), !dbg !3605
  store i64 %1, ptr %4, align 8
  call void @llvm.dbg.declare(metadata ptr %4, metadata !3606, metadata !DIExpression()), !dbg !3607
  %5 = load i64, ptr %3, align 8, !dbg !3608
  %6 = load i64, ptr %4, align 8, !dbg !3609
  %7 = add i64 %5, %6, !dbg !3610
  ret i64 %7, !dbg !3611
}

; Function Attrs: mustprogress noinline nounwind optnone sspstrong uwtable
define internal noundef signext i8 @_ZL24safe_sub_func_int8_t_s_saa(i8 noundef signext %0, i8 noundef signext %1) #3 !dbg !3612 {
  %3 = alloca i8, align 1
  %4 = alloca i8, align 1
  store i8 %0, ptr %3, align 1
  call void @llvm.dbg.declare(metadata ptr %3, metadata !3615, metadata !DIExpression()), !dbg !3616
  store i8 %1, ptr %4, align 1
  call void @llvm.dbg.declare(metadata ptr %4, metadata !3617, metadata !DIExpression()), !dbg !3618
  %5 = load i8, ptr %3, align 1, !dbg !3619
  %6 = sext i8 %5 to i32, !dbg !3619
  %7 = load i8, ptr %4, align 1, !dbg !3620
  %8 = sext i8 %7 to i32, !dbg !3620
  %9 = sub nsw i32 %6, %8, !dbg !3621
  %10 = trunc i32 %9 to i8, !dbg !3622
  ret i8 %10, !dbg !3623
}

; Function Attrs: mustprogress noinline nounwind optnone sspstrong uwtable
define internal noundef zeroext i8 @_ZL28safe_lshift_func_uint8_t_u_shi(i8 noundef zeroext %0, i32 noundef %1) #3 !dbg !3624 {
  %3 = alloca i8, align 1
  %4 = alloca i32, align 4
  store i8 %0, ptr %3, align 1
  call void @llvm.dbg.declare(metadata ptr %3, metadata !3627, metadata !DIExpression()), !dbg !3628
  store i32 %1, ptr %4, align 4
  call void @llvm.dbg.declare(metadata ptr %4, metadata !3629, metadata !DIExpression()), !dbg !3630
  %5 = load i32, ptr %4, align 4, !dbg !3631
  %6 = icmp slt i32 %5, 0, !dbg !3632
  br i1 %6, label %16, label %7, !dbg !3633

7:                                                ; preds = %2
  %8 = load i32, ptr %4, align 4, !dbg !3634
  %9 = icmp sge i32 %8, 32, !dbg !3635
  br i1 %9, label %16, label %10, !dbg !3636

10:                                               ; preds = %7
  %11 = load i8, ptr %3, align 1, !dbg !3637
  %12 = zext i8 %11 to i32, !dbg !3637
  %13 = load i32, ptr %4, align 4, !dbg !3638
  %14 = ashr i32 255, %13, !dbg !3639
  %15 = icmp sgt i32 %12, %14, !dbg !3640
  br i1 %15, label %16, label %19, !dbg !3641

16:                                               ; preds = %10, %7, %2
  %17 = load i8, ptr %3, align 1, !dbg !3642
  %18 = zext i8 %17 to i32, !dbg !3643
  br label %24, !dbg !3641

19:                                               ; preds = %10
  %20 = load i8, ptr %3, align 1, !dbg !3644
  %21 = zext i8 %20 to i32, !dbg !3644
  %22 = load i32, ptr %4, align 4, !dbg !3645
  %23 = shl i32 %21, %22, !dbg !3646
  br label %24, !dbg !3641

24:                                               ; preds = %19, %16
  %25 = phi i32 [ %18, %16 ], [ %23, %19 ], !dbg !3641
  %26 = trunc i32 %25 to i8, !dbg !3641
  ret i8 %26, !dbg !3647
}

; Function Attrs: mustprogress noinline nounwind optnone sspstrong uwtable
define internal noundef zeroext i8 @_ZL25safe_add_func_uint8_t_u_uhh(i8 noundef zeroext %0, i8 noundef zeroext %1) #3 !dbg !3648 {
  %3 = alloca i8, align 1
  %4 = alloca i8, align 1
  store i8 %0, ptr %3, align 1
  call void @llvm.dbg.declare(metadata ptr %3, metadata !3651, metadata !DIExpression()), !dbg !3652
  store i8 %1, ptr %4, align 1
  call void @llvm.dbg.declare(metadata ptr %4, metadata !3653, metadata !DIExpression()), !dbg !3654
  %5 = load i8, ptr %3, align 1, !dbg !3655
  %6 = zext i8 %5 to i32, !dbg !3655
  %7 = load i8, ptr %4, align 1, !dbg !3656
  %8 = zext i8 %7 to i32, !dbg !3656
  %9 = add nsw i32 %6, %8, !dbg !3657
  %10 = trunc i32 %9 to i8, !dbg !3655
  ret i8 %10, !dbg !3658
}

; Function Attrs: mustprogress noinline nounwind optnone sspstrong uwtable
define internal noundef signext i16 @_ZL28safe_lshift_func_int16_t_s_usj(i16 noundef signext %0, i32 noundef %1) #3 !dbg !3659 {
  %3 = alloca i16, align 2
  %4 = alloca i32, align 4
  store i16 %0, ptr %3, align 2
  call void @llvm.dbg.declare(metadata ptr %3, metadata !3662, metadata !DIExpression()), !dbg !3663
  store i32 %1, ptr %4, align 4
  call void @llvm.dbg.declare(metadata ptr %4, metadata !3664, metadata !DIExpression()), !dbg !3665
  %5 = load i16, ptr %3, align 2, !dbg !3666
  %6 = sext i16 %5 to i32, !dbg !3666
  %7 = icmp slt i32 %6, 0, !dbg !3667
  br i1 %7, label %17, label %8, !dbg !3668

8:                                                ; preds = %2
  %9 = load i32, ptr %4, align 4, !dbg !3669
  %10 = icmp uge i32 %9, 32, !dbg !3670
  br i1 %10, label %17, label %11, !dbg !3671

11:                                               ; preds = %8
  %12 = load i16, ptr %3, align 2, !dbg !3672
  %13 = sext i16 %12 to i32, !dbg !3672
  %14 = load i32, ptr %4, align 4, !dbg !3673
  %15 = ashr i32 32767, %14, !dbg !3674
  %16 = icmp sgt i32 %13, %15, !dbg !3675
  br i1 %16, label %17, label %20, !dbg !3676

17:                                               ; preds = %11, %8, %2
  %18 = load i16, ptr %3, align 2, !dbg !3677
  %19 = sext i16 %18 to i32, !dbg !3678
  br label %25, !dbg !3676

20:                                               ; preds = %11
  %21 = load i16, ptr %3, align 2, !dbg !3679
  %22 = sext i16 %21 to i32, !dbg !3679
  %23 = load i32, ptr %4, align 4, !dbg !3680
  %24 = shl i32 %22, %23, !dbg !3681
  br label %25, !dbg !3676

25:                                               ; preds = %20, %17
  %26 = phi i32 [ %19, %17 ], [ %24, %20 ], !dbg !3676
  %27 = trunc i32 %26 to i16, !dbg !3676
  ret i16 %27, !dbg !3682
}

; Function Attrs: mustprogress noinline nounwind optnone sspstrong uwtable
define internal noundef i32 @_ZL26safe_add_func_uint32_t_u_ujj(i32 noundef %0, i32 noundef %1) #3 !dbg !3683 {
  %3 = alloca i32, align 4
  %4 = alloca i32, align 4
  store i32 %0, ptr %3, align 4
  call void @llvm.dbg.declare(metadata ptr %3, metadata !3686, metadata !DIExpression()), !dbg !3687
  store i32 %1, ptr %4, align 4
  call void @llvm.dbg.declare(metadata ptr %4, metadata !3688, metadata !DIExpression()), !dbg !3689
  %5 = load i32, ptr %3, align 4, !dbg !3690
  %6 = load i32, ptr %4, align 4, !dbg !3691
  %7 = add i32 %5, %6, !dbg !3692
  ret i32 %7, !dbg !3693
}

; Function Attrs: mustprogress noinline nounwind optnone sspstrong uwtable
define internal noundef zeroext i16 @_ZL26safe_div_func_uint16_t_u_utt(i16 noundef zeroext %0, i16 noundef zeroext %1) #3 !dbg !3694 {
  %3 = alloca i16, align 2
  %4 = alloca i16, align 2
  store i16 %0, ptr %3, align 2
  call void @llvm.dbg.declare(metadata ptr %3, metadata !3697, metadata !DIExpression()), !dbg !3698
  store i16 %1, ptr %4, align 2
  call void @llvm.dbg.declare(metadata ptr %4, metadata !3699, metadata !DIExpression()), !dbg !3700
  %5 = load i16, ptr %4, align 2, !dbg !3701
  %6 = zext i16 %5 to i32, !dbg !3701
  %7 = icmp eq i32 %6, 0, !dbg !3702
  br i1 %7, label %8, label %11, !dbg !3703

8:                                                ; preds = %2
  %9 = load i16, ptr %3, align 2, !dbg !3704
  %10 = zext i16 %9 to i32, !dbg !3705
  br label %17, !dbg !3703

11:                                               ; preds = %2
  %12 = load i16, ptr %3, align 2, !dbg !3706
  %13 = zext i16 %12 to i32, !dbg !3706
  %14 = load i16, ptr %4, align 2, !dbg !3707
  %15 = zext i16 %14 to i32, !dbg !3707
  %16 = sdiv i32 %13, %15, !dbg !3708
  br label %17, !dbg !3703

17:                                               ; preds = %11, %8
  %18 = phi i32 [ %10, %8 ], [ %16, %11 ], !dbg !3703
  %19 = trunc i32 %18 to i16, !dbg !3703
  ret i16 %19, !dbg !3709
}

; Function Attrs: mustprogress noinline nounwind optnone sspstrong uwtable
define internal noundef zeroext i8 @_ZL25safe_mul_func_uint8_t_u_uhh(i8 noundef zeroext %0, i8 noundef zeroext %1) #3 !dbg !3710 {
  %3 = alloca i8, align 1
  %4 = alloca i8, align 1
  store i8 %0, ptr %3, align 1
  call void @llvm.dbg.declare(metadata ptr %3, metadata !3711, metadata !DIExpression()), !dbg !3712
  store i8 %1, ptr %4, align 1
  call void @llvm.dbg.declare(metadata ptr %4, metadata !3713, metadata !DIExpression()), !dbg !3714
  %5 = load i8, ptr %3, align 1, !dbg !3715
  %6 = zext i8 %5 to i32, !dbg !3715
  %7 = load i8, ptr %4, align 1, !dbg !3716
  %8 = zext i8 %7 to i32, !dbg !3716
  %9 = mul i32 %6, %8, !dbg !3717
  %10 = trunc i32 %9 to i8, !dbg !3718
  ret i8 %10, !dbg !3719
}

; Function Attrs: mustprogress noinline nounwind optnone sspstrong uwtable
define internal noundef zeroext i16 @_ZL29safe_rshift_func_uint16_t_u_sti(i16 noundef zeroext %0, i32 noundef %1) #3 !dbg !3720 {
  %3 = alloca i16, align 2
  %4 = alloca i32, align 4
  store i16 %0, ptr %3, align 2
  call void @llvm.dbg.declare(metadata ptr %3, metadata !3723, metadata !DIExpression()), !dbg !3724
  store i32 %1, ptr %4, align 4
  call void @llvm.dbg.declare(metadata ptr %4, metadata !3725, metadata !DIExpression()), !dbg !3726
  %5 = load i32, ptr %4, align 4, !dbg !3727
  %6 = icmp slt i32 %5, 0, !dbg !3728
  br i1 %6, label %10, label %7, !dbg !3729

7:                                                ; preds = %2
  %8 = load i32, ptr %4, align 4, !dbg !3730
  %9 = icmp sge i32 %8, 32, !dbg !3731
  br i1 %9, label %10, label %13, !dbg !3732

10:                                               ; preds = %7, %2
  %11 = load i16, ptr %3, align 2, !dbg !3733
  %12 = zext i16 %11 to i32, !dbg !3734
  br label %18, !dbg !3732

13:                                               ; preds = %7
  %14 = load i16, ptr %3, align 2, !dbg !3735
  %15 = zext i16 %14 to i32, !dbg !3735
  %16 = load i32, ptr %4, align 4, !dbg !3736
  %17 = ashr i32 %15, %16, !dbg !3737
  br label %18, !dbg !3732

18:                                               ; preds = %13, %10
  %19 = phi i32 [ %12, %10 ], [ %17, %13 ], !dbg !3732
  %20 = trunc i32 %19 to i16, !dbg !3732
  ret i16 %20, !dbg !3738
}

; Function Attrs: mustprogress noinline nounwind optnone sspstrong uwtable
define internal noundef zeroext i16 @_ZL26safe_mul_func_uint16_t_u_utt(i16 noundef zeroext %0, i16 noundef zeroext %1) #3 !dbg !3739 {
  %3 = alloca i16, align 2
  %4 = alloca i16, align 2
  store i16 %0, ptr %3, align 2
  call void @llvm.dbg.declare(metadata ptr %3, metadata !3740, metadata !DIExpression()), !dbg !3741
  store i16 %1, ptr %4, align 2
  call void @llvm.dbg.declare(metadata ptr %4, metadata !3742, metadata !DIExpression()), !dbg !3743
  %5 = load i16, ptr %3, align 2, !dbg !3744
  %6 = zext i16 %5 to i32, !dbg !3744
  %7 = load i16, ptr %4, align 2, !dbg !3745
  %8 = zext i16 %7 to i32, !dbg !3745
  %9 = mul i32 %6, %8, !dbg !3746
  %10 = trunc i32 %9 to i16, !dbg !3747
  ret i16 %10, !dbg !3748
}

; Function Attrs: mustprogress noinline nounwind optnone sspstrong uwtable
define internal i16 @_ZL7func_39i2U0j(i32 noundef %0, i32 %1, i32 noundef %2) #3 !dbg !3749 {
  %4 = alloca %union.U1, align 2
  %5 = alloca %union.U0, align 4
  %6 = alloca i32, align 4
  %7 = alloca i32, align 4
  %8 = alloca %union.U0, align 4
  %9 = alloca ptr, align 8
  %10 = alloca [8 x [3 x ptr]], align 16
  %11 = alloca i32, align 4
  %12 = alloca i64, align 8
  %13 = alloca [8 x [4 x ptr]], align 16
  %14 = alloca i32, align 4
  %15 = alloca %union.U2, align 8
  %16 = alloca [6 x [1 x %union.U4]], align 2
  %17 = alloca [10 x ptr], align 16
  %18 = alloca i32, align 4
  %19 = alloca i32, align 4
  %20 = alloca %union.U1, align 2
  %21 = alloca %union.U0, align 4
  %22 = alloca %union.U2, align 8
  %23 = alloca %union.U4, align 2
  %24 = alloca %union.U0, align 4
  %25 = getelementptr inbounds %union.U0, ptr %5, i32 0, i32 0
  store i32 %1, ptr %25, align 4
  store i32 %0, ptr %6, align 4
  call void @llvm.dbg.declare(metadata ptr %6, metadata !3752, metadata !DIExpression()), !dbg !3753
  call void @llvm.dbg.declare(metadata ptr %5, metadata !3754, metadata !DIExpression()), !dbg !3755
  store i32 %2, ptr %7, align 4
  call void @llvm.dbg.declare(metadata ptr %7, metadata !3756, metadata !DIExpression()), !dbg !3757
  call void @llvm.dbg.declare(metadata ptr %8, metadata !3758, metadata !DIExpression()), !dbg !3759
  store i32 8, ptr %8, align 4, !dbg !3760
  call void @llvm.dbg.declare(metadata ptr %9, metadata !3761, metadata !DIExpression()), !dbg !3762
  store ptr %8, ptr %9, align 8, !dbg !3762
  call void @llvm.dbg.declare(metadata ptr %10, metadata !3763, metadata !DIExpression()), !dbg !3766
  call void @llvm.memcpy.p0.p0.i64(ptr align 16 %10, ptr align 16 @__const._ZL7func_39i2U0j.l_65, i64 192, i1 false), !dbg !3766
  call void @llvm.dbg.declare(metadata ptr %11, metadata !3767, metadata !DIExpression()), !dbg !3768
  store i32 0, ptr %11, align 4, !dbg !3768
  call void @llvm.dbg.declare(metadata ptr %12, metadata !3769, metadata !DIExpression()), !dbg !3770
  store i64 -1, ptr %12, align 8, !dbg !3770
  call void @llvm.dbg.declare(metadata ptr %4, metadata !3771, metadata !DIExpression()), !dbg !3772
  store i8 0, ptr %4, align 2, !dbg !3773
  call void @llvm.dbg.declare(metadata ptr %13, metadata !3774, metadata !DIExpression()), !dbg !3777
  call void @llvm.dbg.declare(metadata ptr %14, metadata !3778, metadata !DIExpression()), !dbg !3779
  store i32 -1587066959, ptr %14, align 4, !dbg !3779
  call void @llvm.dbg.declare(metadata ptr %15, metadata !3780, metadata !DIExpression()), !dbg !3781
  store i64 -3918988697788526482, ptr %15, align 8, !dbg !3782
  call void @llvm.dbg.declare(metadata ptr %16, metadata !3783, metadata !DIExpression()), !dbg !3786
  call void @llvm.memcpy.p0.p0.i64(ptr align 2 %16, ptr align 2 @__const._ZL7func_39i2U0j.l_692, i64 12, i1 false), !dbg !3786
  call void @llvm.dbg.declare(metadata ptr %17, metadata !3787, metadata !DIExpression()), !dbg !3789
  call void @llvm.memcpy.p0.p0.i64(ptr align 16 %17, ptr align 16 @__const._ZL7func_39i2U0j.l_694, i64 80, i1 false), !dbg !3789
  call void @llvm.dbg.declare(metadata ptr %18, metadata !3790, metadata !DIExpression()), !dbg !3791
  call void @llvm.dbg.declare(metadata ptr %19, metadata !3792, metadata !DIExpression()), !dbg !3793
  store i32 0, ptr %18, align 4, !dbg !3794
  br label %26, !dbg !3796

26:                                               ; preds = %44, %3
  %27 = load i32, ptr %18, align 4, !dbg !3797
  %28 = icmp slt i32 %27, 8, !dbg !3799
  br i1 %28, label %29, label %47, !dbg !3800

29:                                               ; preds = %26
  store i32 0, ptr %19, align 4, !dbg !3801
  br label %30, !dbg !3804

30:                                               ; preds = %40, %29
  %31 = load i32, ptr %19, align 4, !dbg !3805
  %32 = icmp slt i32 %31, 4, !dbg !3807
  br i1 %32, label %33, label %43, !dbg !3808

33:                                               ; preds = %30
  %34 = load i32, ptr %18, align 4, !dbg !3809
  %35 = sext i32 %34 to i64, !dbg !3810
  %36 = getelementptr inbounds [8 x [4 x ptr]], ptr %13, i64 0, i64 %35, !dbg !3810
  %37 = load i32, ptr %19, align 4, !dbg !3811
  %38 = sext i32 %37 to i64, !dbg !3810
  %39 = getelementptr inbounds [4 x ptr], ptr %36, i64 0, i64 %38, !dbg !3810
  store ptr @_ZL4g_66, ptr %39, align 8, !dbg !3812
  br label %40, !dbg !3810

40:                                               ; preds = %33
  %41 = load i32, ptr %19, align 4, !dbg !3813
  %42 = add nsw i32 %41, 1, !dbg !3813
  store i32 %42, ptr %19, align 4, !dbg !3813
  br label %30, !dbg !3814, !llvm.loop !3815

43:                                               ; preds = %30
  br label %44, !dbg !3817

44:                                               ; preds = %43
  %45 = load i32, ptr %18, align 4, !dbg !3818
  %46 = add nsw i32 %45, 1, !dbg !3818
  store i32 %46, ptr %18, align 4, !dbg !3818
  br label %26, !dbg !3819, !llvm.loop !3820

47:                                               ; preds = %26
  %48 = load ptr, ptr %9, align 8, !dbg !3822
  %49 = call noundef nonnull align 4 dereferenceable(4) ptr @_ZN2U0aSERKS_(ptr noundef nonnull align 4 dereferenceable(4) %48, ptr noundef nonnull align 4 dereferenceable(4) %8), !dbg !3823
  %50 = call noundef nonnull align 4 dereferenceable(4) ptr @_ZN2U0aSERKS_(ptr noundef nonnull align 4 dereferenceable(4) %5, ptr noundef nonnull align 4 dereferenceable(4) %49), !dbg !3824
  %51 = load i32, ptr @_ZL3g_5, align 4, !dbg !3825
  %52 = sext i32 %51 to i64, !dbg !3826
  %53 = load i32, ptr @_ZL3g_5, align 4, !dbg !3827
  %54 = trunc i32 %53 to i8, !dbg !3827
  %55 = load i32, ptr %11, align 4, !dbg !3828
  %56 = sext i32 %55 to i64, !dbg !3828
  %57 = load i64, ptr %12, align 8, !dbg !3829
  %58 = trunc i64 %57 to i32, !dbg !3829
  %59 = load i32, ptr %6, align 4, !dbg !3830
  %60 = load i32, ptr %7, align 4, !dbg !3831
  %61 = icmp ugt i32 %59, %60, !dbg !3832
  %62 = zext i1 %61 to i16, !dbg !3833
  %63 = load i32, ptr %6, align 4, !dbg !3834
  %64 = call noundef signext i16 @_ZL28safe_lshift_func_int16_t_s_ssi(i16 noundef signext %62, i32 noundef %63), !dbg !3835
  %65 = icmp ne i16 %64, 0, !dbg !3836
  br i1 %65, label %67, label %66, !dbg !3837

66:                                               ; preds = %47
  br label %67, !dbg !3837

67:                                               ; preds = %66, %47
  %68 = phi i1 [ true, %47 ], [ true, %66 ]
  %69 = zext i1 %68 to i32, !dbg !3838
