; ModuleID = 'cpp/csmith3.cpp'
source_filename = "cpp/csmith3.cpp"
target datalayout = "e-m:e-p270:32:32-p271:32:32-p272:64:64-i64:64-f80:128-n8:16:32:64-S128"
target triple = "x86_64-pc-linux-gnu"

%union.U4 = type { i32 }
%union.U2 = type { i64 }
%union.U0 = type { i64 }
%union.U1 = type { i64 }
%union.U3 = type { i32 }

@.str = private unnamed_addr constant [2 x i8] c"1\00", align 1, !dbg !0
@_ZL3g_2 = internal global [7 x [4 x i32]] [[4 x i32] [i32 0, i32 8, i32 -480768703, i32 -480768703], [4 x i32] [i32 2062921611, i32 2062921611, i32 0, i32 -480768703], [4 x i32] [i32 0, i32 8, i32 0, i32 0], [4 x i32] zeroinitializer, [4 x i32] [i32 2062921611, i32 0, i32 -480768703, i32 0], [4 x i32] [i32 0, i32 8, i32 -480768703, i32 -480768703], [4 x i32] [i32 2062921611, i32 2062921611, i32 0, i32 -480768703]], align 16, !dbg !8
@.str.1 = private unnamed_addr constant [10 x i8] c"g_2[i][j]\00", align 1, !dbg !12
@.str.2 = private unnamed_addr constant [18 x i8] c"index = [%d][%d]\0A\00", align 1, !dbg !17
@_ZL3g_3 = internal global i32 -896738774, align 4, !dbg !370
@.str.3 = private unnamed_addr constant [4 x i8] c"g_3\00", align 1, !dbg !22
@_ZL3g_6 = internal global i32 -3, align 4, !dbg !372
@.str.4 = private unnamed_addr constant [4 x i8] c"g_6\00", align 1, !dbg !27
@_ZL3g_9 = internal global i32 -9, align 4, !dbg !374
@.str.5 = private unnamed_addr constant [4 x i8] c"g_9\00", align 1, !dbg !29
@_ZL4g_31 = internal global %union.U4 { i32 -940891289 }, align 4, !dbg !376
@.str.6 = private unnamed_addr constant [8 x i8] c"g_31.f0\00", align 1, !dbg !31
@.str.7 = private unnamed_addr constant [11 x i8] c"g_49[i].f0\00", align 1, !dbg !36
@.str.8 = private unnamed_addr constant [14 x i8] c"index = [%d]\0A\00", align 1, !dbg !41
@_ZL4g_73 = internal global i32 -1111125813, align 4, !dbg !407
@.str.9 = private unnamed_addr constant [5 x i8] c"g_73\00", align 1, !dbg !46
@_ZL4g_87 = internal global i32 1702162951, align 4, !dbg !409
@.str.10 = private unnamed_addr constant [5 x i8] c"g_87\00", align 1, !dbg !51
@_ZL5g_101 = internal global i64 8647310974659456043, align 8, !dbg !411
@.str.11 = private unnamed_addr constant [6 x i8] c"g_101\00", align 1, !dbg !53
@_ZL5g_110 = internal global i64 2436467400145030738, align 8, !dbg !413
@.str.12 = private unnamed_addr constant [6 x i8] c"g_110\00", align 1, !dbg !58
@.str.13 = private unnamed_addr constant [9 x i8] c"g_119.f0\00", align 1, !dbg !60
@_ZL5g_132 = internal global i16 -1, align 2, !dbg !436
@.str.14 = private unnamed_addr constant [6 x i8] c"g_132\00", align 1, !dbg !65
@_ZL5g_136 = internal global i16 1, align 2, !dbg !441
@.str.15 = private unnamed_addr constant [6 x i8] c"g_136\00", align 1, !dbg !67
@_ZL5g_145 = internal global i16 -9, align 2, !dbg !443
@.str.16 = private unnamed_addr constant [6 x i8] c"g_145\00", align 1, !dbg !69
@_ZL5g_172 = internal global [8 x i16] [i16 -21964, i16 -21964, i16 -21964, i16 -21964, i16 -21964, i16 -21964, i16 -21964, i16 -21964], align 16, !dbg !445
@.str.17 = private unnamed_addr constant [9 x i8] c"g_172[i]\00", align 1, !dbg !71
@_ZL5g_198 = internal global i64 7152858526314228666, align 8, !dbg !448
@.str.18 = private unnamed_addr constant [6 x i8] c"g_198\00", align 1, !dbg !73
@_ZL5g_221 = internal global i64 6, align 8, !dbg !451
@.str.19 = private unnamed_addr constant [6 x i8] c"g_221\00", align 1, !dbg !75
@.str.20 = private unnamed_addr constant [9 x i8] c"g_228.f0\00", align 1, !dbg !77
@_ZL5g_230 = internal global [7 x [4 x [8 x i8]]] [[4 x [8 x i8]] [[8 x i8] c")\FF\FF)\FF\01\FF\01", [8 x i8] c"\FF\FF)\FF\FF)\FF\FF", [8 x i8] c"\01\FF\01\01\FF\01\01\FF", [8 x i8] c"\FF\01\01\FF\01\01\FF\01"], [4 x [8 x i8]] [[8 x i8] c"\FF\FF)\FF\FF)\FF\FF", [8 x i8] c"\01\FF\01\01\FF\01\01\FF", [8 x i8] c"\FF\01\01\FF\01\01\FF\01", [8 x i8] c"\FF\FF)\FF\FF)\FF\FF"], [4 x [8 x i8]] [[8 x i8] c"\01\FF\01\01\FF\01\01\FF", [8 x i8] c"\FF\01\01\FF\01\01\FF\01", [8 x i8] c"\FF\FF)\FF\FF)\FF\FF", [8 x i8] c"\01\FF\01\01\FF\01\01\FF"], [4 x [8 x i8]] [[8 x i8] c"\FF\01\01\FF\01\01\FF\01", [8 x i8] c"\FF\FF)\FF\FF)\FF\FF", [8 x i8] c"\01\FF\01\01\FF\01\01\FF", [8 x i8] c"\FF\01\01\FF\01\01\FF\01"], [4 x [8 x i8]] [[8 x i8] c"\FF\FF)\FF\FF)\FF\FF", [8 x i8] c"\01\FF\01\01\FF\01\01\FF", [8 x i8] c"\FF\01\01\FF\01\01\FF\01", [8 x i8] c"\FF\FF)\FF\FF)\FF\FF"], [4 x [8 x i8]] [[8 x i8] c"\01\FF\01\01\FF\01\01\FF", [8 x i8] c"\FF\01\01\FF\01\01\FF\01", [8 x i8] c"\FF\FF)\FF\FF)\FF\FF", [8 x i8] c"\01\FF\01\01\FF\01\01\FF"], [4 x [8 x i8]] [[8 x i8] c"\FF\01\01\FF))\01)", [8 x i8] c"\01\01\FF\01\01\FF\01\01", [8 x i8] c")\01))\01))\01", [8 x i8] c"\01))\01))\01)"]], align 16, !dbg !455
@.str.21 = private unnamed_addr constant [15 x i8] c"g_230[i][j][k]\00", align 1, !dbg !79
@.str.22 = private unnamed_addr constant [22 x i8] c"index = [%d][%d][%d]\0A\00", align 1, !dbg !84
@.str.23 = private unnamed_addr constant [6 x i8] c"g_234\00", align 1, !dbg !97
@_ZL5g_321 = internal global i32 1059582353, align 4, !dbg !459
@.str.24 = private unnamed_addr constant [6 x i8] c"g_321\00", align 1, !dbg !99
@_ZL5g_329 = internal global i32 -1134057137, align 4, !dbg !461
@.str.25 = private unnamed_addr constant [6 x i8] c"g_329\00", align 1, !dbg !101
@_ZL5g_348 = internal global [4 x [9 x [2 x i8]]] [[9 x [2 x i8]] [[2 x i8] c"\BB\B5", [2 x i8] c"\F6\B5", [2 x i8] c"\BB\05", [2 x i8] c"S\95", [2 x i8] c"\89\89", [2 x i8] c"\05\F6", [2 x i8] c"\06\F8", [2 x i8] c"+y", [2 x i8] c"\00+"], [9 x [2 x i8]] [[2 x i8] c"f\BB", [2 x i8] c"f+", [2 x i8] c"\00y", [2 x i8] c"+\F8", [2 x i8] c"\06\F6", [2 x i8] c"\05\89", [2 x i8] c"\89\95", [2 x i8] c"S\05", [2 x i8] c"\BB\B5"], [9 x [2 x i8]] [[2 x i8] c"\F6\B5", [2 x i8] c"\BB\05", [2 x i8] c"S\95", [2 x i8] c"\89\89", [2 x i8] c"\05\F6", [2 x i8] c"\06\F8", [2 x i8] c"+y", [2 x i8] c"\00+", [2 x i8] c"f\BB"], [9 x [2 x i8]] [[2 x i8] c"f+", [2 x i8] c"\00y", [2 x i8] c"+\F8", [2 x i8] c"\06\F6", [2 x i8] c"\05\89", [2 x i8] c"\89\95", [2 x i8] c"S\05", [2 x i8] c"\BB\B5", [2 x i8] c"\F6\B5"]], align 16, !dbg !464
@.str.26 = private unnamed_addr constant [15 x i8] c"g_348[i][j][k]\00", align 1, !dbg !103
@_ZL5g_368 = internal constant %union.U2 { i64 -3 }, align 8, !dbg !468
@.str.27 = private unnamed_addr constant [9 x i8] c"g_368.f0\00", align 1, !dbg !105
@_ZL5g_439 = internal constant %union.U0 { i64 6 }, align 8, !dbg !474
@.str.28 = private unnamed_addr constant [9 x i8] c"g_439.f0\00", align 1, !dbg !107
@_ZL5g_496 = internal global i16 -16660, align 2, !dbg !480
@.str.29 = private unnamed_addr constant [6 x i8] c"g_496\00", align 1, !dbg !109
@_ZL5g_505 = internal global [10 x [5 x i64]] [[5 x i64] [i64 -3897893294118110264, i64 0, i64 -3897893294118110264, i64 0, i64 -3897893294118110264], [5 x i64] zeroinitializer, [5 x i64] [i64 -3897893294118110264, i64 0, i64 -3897893294118110264, i64 0, i64 -3897893294118110264], [5 x i64] zeroinitializer, [5 x i64] [i64 -3897893294118110264, i64 0, i64 -3897893294118110264, i64 0, i64 -3897893294118110264], [5 x i64] zeroinitializer, [5 x i64] [i64 -3897893294118110264, i64 0, i64 -3897893294118110264, i64 0, i64 -3897893294118110264], [5 x i64] zeroinitializer, [5 x i64] [i64 -3897893294118110264, i64 0, i64 -3897893294118110264, i64 0, i64 -3897893294118110264], [5 x i64] zeroinitializer], align 16, !dbg !482
@.str.30 = private unnamed_addr constant [12 x i8] c"g_505[i][j]\00", align 1, !dbg !111
@_ZL5g_592 = internal constant %union.U2 { i64 8297812175028322530 }, align 8, !dbg !486
@.str.31 = private unnamed_addr constant [9 x i8] c"g_592.f0\00", align 1, !dbg !116
@.str.32 = private unnamed_addr constant [6 x i8] c"g_605\00", align 1, !dbg !125
@.str.33 = private unnamed_addr constant [6 x i8] c"g_607\00", align 1, !dbg !129
@.str.34 = private unnamed_addr constant [15 x i8] c"g_628[i][j].f0\00", align 1, !dbg !131
@_ZL5g_632 = internal global [1 x i8] c"\9E", align 1, !dbg !492
@.str.35 = private unnamed_addr constant [9 x i8] c"g_632[i]\00", align 1, !dbg !133
@.str.36 = private unnamed_addr constant [9 x i8] c"g_648.f0\00", align 1, !dbg !135
@_ZL5g_745 = internal global i16 5, align 2, !dbg !499
@.str.37 = private unnamed_addr constant [6 x i8] c"g_745\00", align 1, !dbg !137
@_ZL5g_845 = internal global i16 1, align 2, !dbg !502
@.str.38 = private unnamed_addr constant [6 x i8] c"g_845\00", align 1, !dbg !139
@_ZL5g_889 = internal global i8 -1, align 1, !dbg !504
@.str.39 = private unnamed_addr constant [6 x i8] c"g_889\00", align 1, !dbg !141
@_ZL5g_891 = internal global i32 1742244061, align 4, !dbg !507
@.str.40 = private unnamed_addr constant [6 x i8] c"g_891\00", align 1, !dbg !143
@_ZL5g_895 = internal global i32 -1105146351, align 4, !dbg !509
@.str.41 = private unnamed_addr constant [6 x i8] c"g_895\00", align 1, !dbg !145
@_ZL5g_896 = internal global [1 x [4 x i32]] [[4 x i32] [i32 9, i32 9, i32 9, i32 9]], align 16, !dbg !511
@.str.42 = private unnamed_addr constant [12 x i8] c"g_896[i][j]\00", align 1, !dbg !147
@_ZL5g_897 = internal global i32 -1705830285, align 4, !dbg !515
@.str.43 = private unnamed_addr constant [6 x i8] c"g_897\00", align 1, !dbg !149
@_ZL5g_898 = internal global i32 -265744693, align 4, !dbg !517
@.str.44 = private unnamed_addr constant [6 x i8] c"g_898\00", align 1, !dbg !151
@_ZL5g_899 = internal global i32 1571029600, align 4, !dbg !519
@.str.45 = private unnamed_addr constant [6 x i8] c"g_899\00", align 1, !dbg !153
@_ZL5g_900 = internal global i32 1659601672, align 4, !dbg !521
@.str.46 = private unnamed_addr constant [6 x i8] c"g_900\00", align 1, !dbg !155
@_ZL5g_901 = internal global i32 -1, align 4, !dbg !523
@.str.47 = private unnamed_addr constant [6 x i8] c"g_901\00", align 1, !dbg !157
@_ZL5g_902 = internal global [6 x [9 x i32]] [[9 x i32] [i32 1880546429, i32 0, i32 -9, i32 1880546429, i32 0, i32 0, i32 1880546429, i32 -9, i32 0], [9 x i32] [i32 1880546429, i32 0, i32 -9, i32 1880546429, i32 0, i32 0, i32 1880546429, i32 -9, i32 0], [9 x i32] [i32 1880546429, i32 0, i32 -9, i32 1880546429, i32 0, i32 0, i32 1880546429, i32 -9, i32 0], [9 x i32] [i32 1880546429, i32 0, i32 -9, i32 1880546429, i32 0, i32 0, i32 1880546429, i32 -9, i32 0], [9 x i32] [i32 1880546429, i32 0, i32 -9, i32 1880546429, i32 0, i32 0, i32 1880546429, i32 -9, i32 0], [9 x i32] [i32 1880546429, i32 0, i32 -9, i32 1880546429, i32 0, i32 0, i32 1880546429, i32 -9, i32 0]], align 16, !dbg !525
@.str.48 = private unnamed_addr constant [12 x i8] c"g_902[i][j]\00", align 1, !dbg !159
@_ZL5g_903 = internal global i32 -854938876, align 4, !dbg !529
@.str.49 = private unnamed_addr constant [6 x i8] c"g_903\00", align 1, !dbg !161
@_ZL5g_904 = internal global i32 -6, align 4, !dbg !531
@.str.50 = private unnamed_addr constant [6 x i8] c"g_904\00", align 1, !dbg !163
@_ZL5g_905 = internal global i32 -724438725, align 4, !dbg !533
@.str.51 = private unnamed_addr constant [6 x i8] c"g_905\00", align 1, !dbg !165
@_ZL5g_906 = internal global [10 x [9 x [2 x i32]]] [[9 x [2 x i32]] [[2 x i32] [i32 -4, i32 1], [2 x i32] [i32 -4, i32 -4], [2 x i32] [i32 1, i32 -4], [2 x i32] [i32 -4, i32 1], [2 x i32] [i32 -4, i32 -4], [2 x i32] [i32 1, i32 -4], [2 x i32] [i32 -4, i32 1], [2 x i32] [i32 -4, i32 1], [2 x i32] [i32 -1, i32 1]], [9 x [2 x i32]] [[2 x i32] [i32 1, i32 -1], [2 x i32] [i32 1, i32 1], [2 x i32] [i32 -1, i32 1], [2 x i32] [i32 1, i32 -1], [2 x i32] [i32 1, i32 1], [2 x i32] [i32 -1, i32 1], [2 x i32] [i32 1, i32 -1], [2 x i32] [i32 1, i32 1], [2 x i32] [i32 -1, i32 1]], [9 x [2 x i32]] [[2 x i32] [i32 1, i32 -1], [2 x i32] [i32 1, i32 1], [2 x i32] [i32 -1, i32 1], [2 x i32] [i32 1, i32 -1], [2 x i32] [i32 1, i32 1], [2 x i32] [i32 -1, i32 1], [2 x i32] [i32 1, i32 -1], [2 x i32] [i32 1, i32 1], [2 x i32] [i32 -1, i32 1]], [9 x [2 x i32]] [[2 x i32] [i32 1, i32 -1], [2 x i32] [i32 1, i32 1], [2 x i32] [i32 -1, i32 1], [2 x i32] [i32 1, i32 -1], [2 x i32] [i32 1, i32 1], [2 x i32] [i32 -1, i32 1], [2 x i32] [i32 1, i32 -1], [2 x i32] [i32 1, i32 1], [2 x i32] [i32 -1, i32 1]], [9 x [2 x i32]] [[2 x i32] [i32 1, i32 -1], [2 x i32] [i32 1, i32 1], [2 x i32] [i32 -1, i32 1], [2 x i32] [i32 1, i32 -1], [2 x i32] [i32 1, i32 1], [2 x i32] [i32 -1, i32 1], [2 x i32] [i32 1, i32 -1], [2 x i32] [i32 1, i32 1], [2 x i32] [i32 -1, i32 1]], [9 x [2 x i32]] [[2 x i32] [i32 1, i32 -1], [2 x i32] [i32 1, i32 1], [2 x i32] [i32 -1, i32 1], [2 x i32] [i32 1, i32 -1], [2 x i32] [i32 1, i32 1], [2 x i32] [i32 -1, i32 1], [2 x i32] [i32 1, i32 -1], [2 x i32] [i32 1, i32 1], [2 x i32] [i32 -1, i32 1]], [9 x [2 x i32]] [[2 x i32] [i32 1, i32 -1], [2 x i32] [i32 1, i32 1], [2 x i32] [i32 -1, i32 1], [2 x i32] [i32 1, i32 -1], [2 x i32] [i32 1, i32 1], [2 x i32] [i32 -1, i32 1], [2 x i32] [i32 1, i32 -1], [2 x i32] [i32 1, i32 1], [2 x i32] [i32 -1, i32 1]], [9 x [2 x i32]] [[2 x i32] [i32 1, i32 -1], [2 x i32] [i32 1, i32 1], [2 x i32] [i32 -1, i32 1], [2 x i32] [i32 1, i32 -1], [2 x i32] [i32 1, i32 1], [2 x i32] [i32 -1, i32 1], [2 x i32] [i32 1, i32 -1], [2 x i32] [i32 1, i32 1], [2 x i32] [i32 -1, i32 1]], [9 x [2 x i32]] [[2 x i32] [i32 1, i32 -1], [2 x i32] [i32 1, i32 1], [2 x i32] [i32 -1, i32 1], [2 x i32] [i32 1, i32 -1], [2 x i32] [i32 1, i32 1], [2 x i32] [i32 -1, i32 1], [2 x i32] [i32 1, i32 -1], [2 x i32] [i32 1, i32 1], [2 x i32] [i32 -1, i32 1]], [9 x [2 x i32]] [[2 x i32] [i32 1, i32 -1], [2 x i32] [i32 1, i32 1], [2 x i32] [i32 -1, i32 1], [2 x i32] [i32 1, i32 -1], [2 x i32] [i32 1, i32 1], [2 x i32] [i32 -1, i32 1], [2 x i32] [i32 1, i32 -1], [2 x i32] [i32 1, i32 1], [2 x i32] [i32 -1, i32 1]]], align 16, !dbg !535
@.str.52 = private unnamed_addr constant [15 x i8] c"g_906[i][j][k]\00", align 1, !dbg !167
@_ZL5g_907 = internal global i32 0, align 4, !dbg !539
@.str.53 = private unnamed_addr constant [6 x i8] c"g_907\00", align 1, !dbg !169
@_ZL5g_908 = internal global i32 -33440709, align 4, !dbg !541
@.str.54 = private unnamed_addr constant [6 x i8] c"g_908\00", align 1, !dbg !171
@_ZL5g_909 = internal global i32 -1, align 4, !dbg !543
@.str.55 = private unnamed_addr constant [6 x i8] c"g_909\00", align 1, !dbg !173
@_ZL5g_910 = internal global i32 5, align 4, !dbg !545
@.str.56 = private unnamed_addr constant [6 x i8] c"g_910\00", align 1, !dbg !175
@_ZL5g_911 = internal global i32 0, align 4, !dbg !547
@.str.57 = private unnamed_addr constant [6 x i8] c"g_911\00", align 1, !dbg !177
@_ZL5g_912 = internal global i32 -6, align 4, !dbg !549
@.str.58 = private unnamed_addr constant [6 x i8] c"g_912\00", align 1, !dbg !179
@_ZL5g_913 = internal global i32 1725078336, align 4, !dbg !551
@.str.59 = private unnamed_addr constant [6 x i8] c"g_913\00", align 1, !dbg !181
@_ZL5g_917 = internal global %union.U4 { i32 1 }, align 4, !dbg !553
@.str.60 = private unnamed_addr constant [9 x i8] c"g_917.f0\00", align 1, !dbg !183
@_ZL5g_966 = internal global %union.U0 { i64 1 }, align 8, !dbg !555
@.str.61 = private unnamed_addr constant [9 x i8] c"g_966.f0\00", align 1, !dbg !185
@_ZL5g_981 = internal global %union.U2 { i64 7196488666485241667 }, align 8, !dbg !557
@.str.62 = private unnamed_addr constant [9 x i8] c"g_981.f0\00", align 1, !dbg !187
@.str.63 = private unnamed_addr constant [7 x i8] c"g_1057\00", align 1, !dbg !195
@_ZL6g_1114 = internal global i8 -1, align 1, !dbg !559
@.str.64 = private unnamed_addr constant [7 x i8] c"g_1114\00", align 1, !dbg !200
@_ZL6g_1115 = internal global i8 -4, align 1, !dbg !561
@.str.65 = private unnamed_addr constant [7 x i8] c"g_1115\00", align 1, !dbg !202
@_ZL6g_1116 = internal global [10 x i8] c"\9C\01\01\9C\01\01\9C\01\01\9C", align 1, !dbg !563
@.str.66 = private unnamed_addr constant [10 x i8] c"g_1116[i]\00", align 1, !dbg !204
@_ZL6g_1117 = internal global i8 5, align 1, !dbg !566
@.str.67 = private unnamed_addr constant [7 x i8] c"g_1117\00", align 1, !dbg !206
@_ZL6g_1118 = internal global i8 0, align 1, !dbg !568
@.str.68 = private unnamed_addr constant [7 x i8] c"g_1118\00", align 1, !dbg !208
@_ZL6g_1119 = internal global [10 x [10 x i8]] [[10 x i8] c"\12I\01\FFI\FF\01\12\09\09", [10 x i8] c"\FF\01I\12\12I\01\FFI\FF", [10 x i8] c"\12\F9\AF\12\AF\F9\12\09\09\12", [10 x i8] c"\09\FF\AF\AF\FF\09\F9\FF\F9\09", [10 x i8] c"\01\FFI\FF\01I\12\12I\01", [10 x i8] c"\01\F9\F9\01\AF\09\01\09\AF\01", [10 x i8] c"\09\01\09\AF\01\F9\F9\01\AF\09", [10 x i8] c"\12\12I\01\FFI\FF\01I\12", [10 x i8] c"\FF\F9\09\FF\AF\AF\FF\09\F9\FF", [10 x i8] c"\09\12\F9\AF\12\AF\F9\12\09\09"], align 16, !dbg !570
@.str.69 = private unnamed_addr constant [13 x i8] c"g_1119[i][j]\00", align 1, !dbg !210
@_ZL6g_1120 = internal global i8 119, align 1, !dbg !574
@.str.70 = private unnamed_addr constant [7 x i8] c"g_1120\00", align 1, !dbg !215
@_ZL6g_1121 = internal global i8 0, align 1, !dbg !576
@.str.71 = private unnamed_addr constant [7 x i8] c"g_1121\00", align 1, !dbg !217
@_ZL6g_1122 = internal global i8 9, align 1, !dbg !578
@.str.72 = private unnamed_addr constant [7 x i8] c"g_1122\00", align 1, !dbg !219
@_ZL6g_1123 = internal global i8 1, align 1, !dbg !580
@.str.73 = private unnamed_addr constant [7 x i8] c"g_1123\00", align 1, !dbg !221
@_ZL6g_1124 = internal global i8 3, align 1, !dbg !582
@.str.74 = private unnamed_addr constant [7 x i8] c"g_1124\00", align 1, !dbg !223
@_ZL6g_1125 = internal global i8 1, align 1, !dbg !584
@.str.75 = private unnamed_addr constant [7 x i8] c"g_1125\00", align 1, !dbg !225
@_ZL6g_1126 = internal global i8 65, align 1, !dbg !586
@.str.76 = private unnamed_addr constant [7 x i8] c"g_1126\00", align 1, !dbg !227
@_ZL6g_1127 = internal global i8 -2, align 1, !dbg !588
@.str.77 = private unnamed_addr constant [7 x i8] c"g_1127\00", align 1, !dbg !229
@_ZL6g_1128 = internal global i8 49, align 1, !dbg !590
@.str.78 = private unnamed_addr constant [7 x i8] c"g_1128\00", align 1, !dbg !231
@_ZL6g_1162 = internal global [6 x [1 x i64]] [[1 x i64] zeroinitializer, [1 x i64] zeroinitializer, [1 x i64] [i64 7], [1 x i64] zeroinitializer, [1 x i64] zeroinitializer, [1 x i64] [i64 7]], align 16, !dbg !592
@.str.79 = private unnamed_addr constant [13 x i8] c"g_1162[i][j]\00", align 1, !dbg !233
@.str.80 = private unnamed_addr constant [10 x i8] c"g_1223.f0\00", align 1, !dbg !235
@_ZL6g_1254 = internal global [4 x %union.U2] [%union.U2 { i64 -7 }, %union.U2 { i64 -7 }, %union.U2 { i64 -7 }, %union.U2 { i64 -7 }], align 16, !dbg !598
@.str.81 = private unnamed_addr constant [13 x i8] c"g_1254[i].f0\00", align 1, !dbg !237
@_ZL6g_1263 = internal global i32 -7, align 4, !dbg !601
@.str.82 = private unnamed_addr constant [7 x i8] c"g_1263\00", align 1, !dbg !239
@_ZL6g_1393 = internal constant [4 x %union.U2] [%union.U2 { i64 2 }, %union.U2 { i64 2 }, %union.U2 { i64 2 }, %union.U2 { i64 2 }], align 16, !dbg !603
@.str.83 = private unnamed_addr constant [13 x i8] c"g_1393[i].f0\00", align 1, !dbg !241
@_ZL6g_1395 = internal global %union.U2 { i64 5 }, align 8, !dbg !606
@.str.84 = private unnamed_addr constant [10 x i8] c"g_1395.f0\00", align 1, !dbg !243
@_ZL6g_1425 = internal global i16 -1, align 2, !dbg !608
@.str.85 = private unnamed_addr constant [7 x i8] c"g_1425\00", align 1, !dbg !245
@_ZL6g_1455 = internal global i32 -9, align 4, !dbg !610
@.str.86 = private unnamed_addr constant [7 x i8] c"g_1455\00", align 1, !dbg !247
@_ZL6g_1483 = internal global [7 x %union.U4] zeroinitializer, align 16, !dbg !613
@.str.87 = private unnamed_addr constant [13 x i8] c"g_1483[i].f0\00", align 1, !dbg !249
@_ZL6g_1485 = internal global %union.U4 zeroinitializer, align 4, !dbg !616
@.str.88 = private unnamed_addr constant [10 x i8] c"g_1485.f0\00", align 1, !dbg !251
@_ZL6g_1486 = internal global [8 x [5 x [6 x %union.U4]]] [[5 x [6 x %union.U4]] [[6 x %union.U4] [%union.U4 zeroinitializer, %union.U4 { i32 -1720076086 }, %union.U4 { i32 1 }, %union.U4 { i32 -10 }, %union.U4 { i32 -668551512 }, %union.U4 { i32 -5 }], [6 x %union.U4] [%union.U4 { i32 -5 }, %union.U4 { i32 -1785568280 }, %union.U4 { i32 969257559 }, %union.U4 { i32 -10 }, %union.U4 { i32 -1141563814 }, %union.U4 { i32 57419200 }], [6 x %union.U4] [%union.U4 zeroinitializer, %union.U4 { i32 1 }, %union.U4 { i32 -8 }, %union.U4 { i32 57419200 }, %union.U4 { i32 1264694045 }, %union.U4 { i32 -668551512 }], [6 x %union.U4] [%union.U4 { i32 -1 }, %union.U4 zeroinitializer, %union.U4 { i32 988311844 }, %union.U4 { i32 5 }, %union.U4 { i32 1 }, %union.U4 zeroinitializer], [6 x %union.U4] [%union.U4 { i32 -355327501 }, %union.U4 { i32 -1 }, %union.U4 { i32 -2 }, %union.U4 { i32 1786630877 }, %union.U4 { i32 -1168677694 }, %union.U4 { i32 1 }]], [5 x [6 x %union.U4]] [[6 x %union.U4] [%union.U4 { i32 605141929 }, %union.U4 { i32 -34190953 }, %union.U4 { i32 8 }, %union.U4 { i32 1556669131 }, %union.U4 { i32 57419200 }, %union.U4 { i32 -1 }], [6 x %union.U4] [%union.U4 { i32 -1999714880 }, %union.U4 { i32 1301180675 }, %union.U4 { i32 -1720076086 }, %union.U4 { i32 8 }, %union.U4 { i32 107597971 }, %union.U4 zeroinitializer], [6 x %union.U4] [%union.U4 { i32 -1388277702 }, %union.U4 { i32 -1 }, %union.U4 { i32 -1 }, %union.U4 { i32 -1 }, %union.U4 { i32 -1 }, %union.U4 { i32 -1 }], [6 x %union.U4] [%union.U4 { i32 547737062 }, %union.U4 { i32 -1459871866 }, %union.U4 { i32 -1 }, %union.U4 { i32 1264694045 }, %union.U4 { i32 -1785568280 }, %union.U4 { i32 -1 }], [6 x %union.U4] [%union.U4 { i32 -9 }, %union.U4 { i32 4 }, %union.U4 { i32 -34190953 }, %union.U4 { i32 1 }, %union.U4 { i32 3 }, %union.U4 zeroinitializer]], [5 x [6 x %union.U4]] [[6 x %union.U4] [%union.U4 { i32 -1168677694 }, %union.U4 { i32 -5 }, %union.U4 { i32 -9 }, %union.U4 { i32 1301180675 }, %union.U4 { i32 1 }, %union.U4 { i32 1 }], [6 x %union.U4] [%union.U4 { i32 -7 }, %union.U4 { i32 -10 }, %union.U4 { i32 -10 }, %union.U4 { i32 -7 }, %union.U4 zeroinitializer, %union.U4 { i32 1 }], [6 x %union.U4] [%union.U4 zeroinitializer, %union.U4 { i32 -1 }, %union.U4 { i32 3 }, %union.U4 { i32 -5 }, %union.U4 { i32 -5 }, %union.U4 { i32 -1999714880 }], [6 x %union.U4] [%union.U4 { i32 1 }, %union.U4 { i32 -34190953 }, %union.U4 { i32 4 }, %union.U4 { i32 -9 }, %union.U4 { i32 -5 }, %union.U4 zeroinitializer], [6 x %union.U4] [%union.U4 { i32 -10 }, %union.U4 { i32 -1 }, %union.U4 { i32 -4 }, %union.U4 { i32 -1 }, %union.U4 { i32 1786630877 }, %union.U4 { i32 573307184 }]], [5 x [6 x %union.U4]] [[6 x %union.U4] [%union.U4 { i32 -3 }, %union.U4 { i32 1 }, %union.U4 { i32 -8 }, %union.U4 zeroinitializer, %union.U4 { i32 1 }, %union.U4 { i32 -1 }], [6 x %union.U4] [%union.U4 { i32 2 }, %union.U4 { i32 988311844 }, %union.U4 { i32 -737960688 }, %union.U4 { i32 1786630877 }, %union.U4 { i32 1 }, %union.U4 { i32 -10 }], [6 x %union.U4] [%union.U4 { i32 1 }, %union.U4 { i32 -1 }, %union.U4 { i32 -5 }, %union.U4 { i32 1 }, %union.U4 { i32 8 }, %union.U4 { i32 -470825304 }], [6 x %union.U4] [%union.U4 { i32 -2 }, %union.U4 { i32 4 }, %union.U4 { i32 -1999714880 }, %union.U4 { i32 -1141563814 }, %union.U4 { i32 -1 }, %union.U4 { i32 -737960688 }], [6 x %union.U4] [%union.U4 { i32 -1 }, %union.U4 zeroinitializer, %union.U4 { i32 1 }, %union.U4 { i32 988311844 }, %union.U4 { i32 1885733400 }, %union.U4 zeroinitializer]], [5 x [6 x %union.U4]] [[6 x %union.U4] [%union.U4 { i32 1 }, %union.U4 { i32 -470825304 }, %union.U4 zeroinitializer, %union.U4 { i32 5 }, %union.U4 { i32 -1459871866 }, %union.U4 { i32 -10 }], [6 x %union.U4] [%union.U4 { i32 1 }, %union.U4 { i32 -320823881 }, %union.U4 { i32 57419200 }, %union.U4 { i32 -1388277702 }, %union.U4 { i32 3 }, %union.U4 { i32 -7 }], [6 x %union.U4] [%union.U4 { i32 -1 }, %union.U4 { i32 -1 }, %union.U4 zeroinitializer, %union.U4 { i32 -1 }, %union.U4 { i32 -1 }, %union.U4 { i32 3 }], [6 x %union.U4] [%union.U4 { i32 -864799825 }, %union.U4 { i32 547737062 }, %union.U4 zeroinitializer, %union.U4 { i32 547737062 }, %union.U4 { i32 -864799825 }, %union.U4 { i32 -1 }], [6 x %union.U4] [%union.U4 { i32 -355327501 }, %union.U4 { i32 2 }, %union.U4 { i32 969257559 }, %union.U4 { i32 -34190953 }, %union.U4 { i32 -1 }, %union.U4 { i32 1 }]], [5 x [6 x %union.U4]] [[6 x %union.U4] [%union.U4 { i32 -1459871866 }, %union.U4 { i32 8 }, %union.U4 { i32 547737062 }, %union.U4 { i32 2 }, %union.U4 { i32 1556669131 }, %union.U4 { i32 1 }], [6 x %union.U4] [%union.U4 { i32 -1 }, %union.U4 zeroinitializer, %union.U4 { i32 969257559 }, %union.U4 { i32 4 }, %union.U4 { i32 -1388277702 }, %union.U4 { i32 -1 }], [6 x %union.U4] [%union.U4 { i32 1556669131 }, %union.U4 { i32 3 }, %union.U4 zeroinitializer, %union.U4 { i32 1 }, %union.U4 { i32 -9 }, %union.U4 { i32 3 }], [6 x %union.U4] [%union.U4 { i32 -10 }, %union.U4 { i32 1 }, %union.U4 zeroinitializer, %union.U4 { i32 1301180675 }, %union.U4 { i32 3 }, %union.U4 { i32 -7 }], [6 x %union.U4] [%union.U4 zeroinitializer, %union.U4 { i32 -1 }, %union.U4 { i32 57419200 }, %union.U4 { i32 -10 }, %union.U4 zeroinitializer, %union.U4 { i32 -10 }]], [5 x [6 x %union.U4]] [[6 x %union.U4] [%union.U4 { i32 -1785568280 }, %union.U4 { i32 -668551512 }, %union.U4 zeroinitializer, %union.U4 zeroinitializer, %union.U4 { i32 -10 }, %union.U4 zeroinitializer], [6 x %union.U4] [%union.U4 { i32 1 }, %union.U4 { i32 -1720076086 }, %union.U4 { i32 1 }, %union.U4 { i32 -10 }, %union.U4 { i32 969257559 }, %union.U4 { i32 -737960688 }], [6 x %union.U4] [%union.U4 { i32 -8 }, %union.U4 { i32 -521376373 }, %union.U4 { i32 -1999714880 }, %union.U4 { i32 -4 }, %union.U4 { i32 1 }, %union.U4 { i32 -470825304 }], [6 x %union.U4] [%union.U4 zeroinitializer, %union.U4 { i32 -737960688 }, %union.U4 { i32 -5 }, %union.U4 { i32 1 }, %union.U4 { i32 -1 }, %union.U4 { i32 -10 }], [6 x %union.U4] [%union.U4 zeroinitializer, %union.U4 { i32 -1999714880 }, %union.U4 { i32 -737960688 }, %union.U4 { i32 -1168677694 }, %union.U4 { i32 -4 }, %union.U4 { i32 -1 }]], [5 x [6 x %union.U4]] [[6 x %union.U4] [%union.U4 { i32 573307184 }, %union.U4 { i32 -1141563814 }, %union.U4 { i32 -8 }, %union.U4 { i32 -8 }, %union.U4 { i32 -1141563814 }, %union.U4 { i32 573307184 }], [6 x %union.U4] [%union.U4 zeroinitializer, %union.U4 { i32 -5 }, %union.U4 { i32 -4 }, %union.U4 { i32 -5 }, %union.U4 { i32 -3 }, %union.U4 zeroinitializer], [6 x %union.U4] [%union.U4 { i32 1264694045 }, %union.U4 { i32 -10 }, %union.U4 { i32 4 }, %union.U4 { i32 3 }, %union.U4 { i32 605141929 }, %union.U4 { i32 -1999714880 }], [6 x %union.U4] [%union.U4 { i32 1264694045 }, %union.U4 { i32 -10 }, %union.U4 { i32 3 }, %union.U4 { i32 -5 }, %union.U4 zeroinitializer, %union.U4 { i32 107597971 }], [6 x %union.U4] [%union.U4 zeroinitializer, %union.U4 { i32 -3 }, %union.U4 { i32 1 }, %union.U4 { i32 -8 }, %union.U4 zeroinitializer, %union.U4 { i32 1 }]]], align 16, !dbg !618
@.str.89 = private unnamed_addr constant [19 x i8] c"g_1486[i][j][k].f0\00", align 1, !dbg !253
@_ZL6g_1487 = internal global [7 x [3 x %union.U4]] [[3 x %union.U4] [%union.U4 { i32 -876090328 }, %union.U4 { i32 -2013269975 }, %union.U4 { i32 -2013269975 }], [3 x %union.U4] [%union.U4 { i32 -7 }, %union.U4 { i32 -6 }, %union.U4 { i32 -1 }], [3 x %union.U4] [%union.U4 { i32 -876090328 }, %union.U4 { i32 -4 }, %union.U4 { i32 -876090328 }], [3 x %union.U4] [%union.U4 { i32 1 }, %union.U4 { i32 -7 }, %union.U4 { i32 -1 }], [3 x %union.U4] [%union.U4 { i32 1798019317 }, %union.U4 { i32 1798019317 }, %union.U4 { i32 -2013269975 }], [3 x %union.U4] [%union.U4 { i32 -1 }, %union.U4 { i32 -7 }, %union.U4 { i32 -7 }], [3 x %union.U4] [%union.U4 { i32 -2013269975 }, %union.U4 { i32 -4 }, %union.U4 { i32 -6 }]], align 16, !dbg !622
@.str.90 = private unnamed_addr constant [16 x i8] c"g_1487[i][j].f0\00", align 1, !dbg !258
@_ZL6g_1488 = internal global %union.U4 zeroinitializer, align 4, !dbg !626
@.str.91 = private unnamed_addr constant [10 x i8] c"g_1488.f0\00", align 1, !dbg !263
@_ZL6g_1489 = internal global %union.U4 { i32 5 }, align 4, !dbg !628
@.str.92 = private unnamed_addr constant [10 x i8] c"g_1489.f0\00", align 1, !dbg !265
@_ZL6g_1490 = internal global %union.U4 zeroinitializer, align 4, !dbg !630
@.str.93 = private unnamed_addr constant [10 x i8] c"g_1490.f0\00", align 1, !dbg !267
@_ZL6g_1491 = internal global %union.U4 { i32 1002139513 }, align 4, !dbg !632
@.str.94 = private unnamed_addr constant [10 x i8] c"g_1491.f0\00", align 1, !dbg !269
@_ZL6g_1492 = internal global %union.U4 { i32 -198522307 }, align 4, !dbg !634
@.str.95 = private unnamed_addr constant [10 x i8] c"g_1492.f0\00", align 1, !dbg !271
@_ZL6g_1493 = internal global %union.U4 { i32 6 }, align 4, !dbg !636
@.str.96 = private unnamed_addr constant [10 x i8] c"g_1493.f0\00", align 1, !dbg !273
@_ZL6g_1494 = internal global %union.U4 { i32 1275414939 }, align 4, !dbg !638
@.str.97 = private unnamed_addr constant [10 x i8] c"g_1494.f0\00", align 1, !dbg !275
@_ZL6g_1495 = internal global [8 x [9 x %union.U4]] [[9 x %union.U4] [%union.U4 { i32 6 }, %union.U4 { i32 -10 }, %union.U4 { i32 372730107 }, %union.U4 { i32 1166832534 }, %union.U4 { i32 6 }, %union.U4 { i32 -446258385 }, %union.U4 { i32 -446258385 }, %union.U4 { i32 6 }, %union.U4 { i32 1803487586 }], [9 x %union.U4] [%union.U4 { i32 -1 }, %union.U4 { i32 1 }, %union.U4 { i32 -1 }, %union.U4 { i32 -3 }, %union.U4 { i32 -1 }, %union.U4 { i32 -1 }, %union.U4 { i32 1 }, %union.U4 { i32 -1 }, %union.U4 { i32 -1 }], [9 x %union.U4] [%union.U4 { i32 780691251 }, %union.U4 { i32 1166832534 }, %union.U4 { i32 1144475005 }, %union.U4 { i32 -446258385 }, %union.U4 { i32 1144475005 }, %union.U4 { i32 1166832534 }, %union.U4 { i32 780691251 }, %union.U4 { i32 -2 }, %union.U4 { i32 -780073045 }], [9 x %union.U4] [%union.U4 { i32 1 }, %union.U4 { i32 -1 }, %union.U4 { i32 -1 }, %union.U4 { i32 -3 }, %union.U4 { i32 -1 }, %union.U4 { i32 1 }, %union.U4 { i32 -1 }, %union.U4 { i32 -3 }, %union.U4 { i32 -1 }], [9 x %union.U4] [%union.U4 { i32 -446258385 }, %union.U4 { i32 -446258385 }, %union.U4 { i32 6 }, %union.U4 { i32 1803487586 }, %union.U4 { i32 -780073045 }, %union.U4 { i32 -4 }, %union.U4 { i32 1166832534 }, %union.U4 { i32 -2 }, %union.U4 { i32 1166832534 }], [9 x %union.U4] [%union.U4 { i32 -1 }, %union.U4 { i32 1032582900 }, %union.U4 { i32 -1 }, %union.U4 { i32 -1 }, %union.U4 { i32 1032582900 }, %union.U4 { i32 -1 }, %union.U4 { i32 1820694186 }, %union.U4 { i32 -1 }, %union.U4 { i32 793772947 }], [9 x %union.U4] [%union.U4 { i32 -2 }, %union.U4 { i32 -6 }, %union.U4 { i32 6 }, %union.U4 { i32 801066048 }, %union.U4 { i32 780691251 }, %union.U4 { i32 780691251 }, %union.U4 { i32 801066048 }, %union.U4 { i32 6 }, %union.U4 { i32 -6 }], [9 x %union.U4] [%union.U4 { i32 1032582900 }, %union.U4 { i32 5 }, %union.U4 { i32 -1 }, %union.U4 { i32 -1 }, %union.U4 { i32 2143740916 }, %union.U4 { i32 -3 }, %union.U4 { i32 1820694186 }, %union.U4 { i32 1820694186 }, %union.U4 { i32 -3 }]], align 16, !dbg !640
@.str.98 = private unnamed_addr constant [16 x i8] c"g_1495[i][j].f0\00", align 1, !dbg !277
@_ZL6g_1496 = internal global %union.U4 { i32 -481288580 }, align 4, !dbg !644
@.str.99 = private unnamed_addr constant [10 x i8] c"g_1496.f0\00", align 1, !dbg !279
@_ZL6g_1497 = internal global %union.U4 { i32 -10 }, align 4, !dbg !646
@.str.100 = private unnamed_addr constant [10 x i8] c"g_1497.f0\00", align 1, !dbg !281
@_ZL6g_1498 = internal global [7 x [8 x %union.U4]] [[8 x %union.U4] [%union.U4 { i32 4 }, %union.U4 { i32 747127526 }, %union.U4 zeroinitializer, %union.U4 { i32 4 }, %union.U4 { i32 -2 }, %union.U4 { i32 -2 }, %union.U4 { i32 4 }, %union.U4 zeroinitializer], [8 x %union.U4] [%union.U4 { i32 -339335271 }, %union.U4 { i32 -339335271 }, %union.U4 { i32 -1 }, %union.U4 { i32 1996138335 }, %union.U4 { i32 4 }, %union.U4 { i32 -1 }, %union.U4 { i32 4 }, %union.U4 { i32 1996138335 }], [8 x %union.U4] [%union.U4 zeroinitializer, %union.U4 { i32 1996138335 }, %union.U4 zeroinitializer, %union.U4 { i32 -2 }, %union.U4 { i32 1996138335 }, %union.U4 { i32 747127526 }, %union.U4 { i32 747127526 }, %union.U4 { i32 1996138335 }], [8 x %union.U4] [%union.U4 { i32 1996138335 }, %union.U4 { i32 747127526 }, %union.U4 { i32 747127526 }, %union.U4 { i32 1996138335 }, %union.U4 { i32 -2 }, %union.U4 zeroinitializer, %union.U4 { i32 1996138335 }, %union.U4 zeroinitializer], [8 x %union.U4] [%union.U4 { i32 1996138335 }, %union.U4 { i32 4 }, %union.U4 { i32 -1 }, %union.U4 { i32 4 }, %union.U4 { i32 1996138335 }, %union.U4 { i32 -1 }, %union.U4 { i32 -339335271 }, %union.U4 { i32 -339335271 }], [8 x %union.U4] [%union.U4 zeroinitializer, %union.U4 { i32 4 }, %union.U4 { i32 -2 }, %union.U4 { i32 -2 }, %union.U4 { i32 4 }, %union.U4 zeroinitializer, %union.U4 { i32 747127526 }, %union.U4 { i32 4 }], [8 x %union.U4] [%union.U4 { i32 -339335271 }, %union.U4 { i32 747127526 }, %union.U4 { i32 -2 }, %union.U4 { i32 -339335271 }, %union.U4 { i32 -2 }, %union.U4 { i32 747127526 }, %union.U4 { i32 -339335271 }, %union.U4 zeroinitializer]], align 16, !dbg !648
@.str.101 = private unnamed_addr constant [16 x i8] c"g_1498[i][j].f0\00", align 1, !dbg !283
@_ZL6g_1499 = internal global [1 x %union.U4] [%union.U4 { i32 24995911 }], align 4, !dbg !652
@.str.102 = private unnamed_addr constant [13 x i8] c"g_1499[i].f0\00", align 1, !dbg !285
@_ZL6g_1500 = internal global %union.U4 { i32 -6 }, align 4, !dbg !655
@.str.103 = private unnamed_addr constant [10 x i8] c"g_1500.f0\00", align 1, !dbg !287
@_ZL6g_1501 = internal global %union.U4 { i32 104934849 }, align 4, !dbg !657
@.str.104 = private unnamed_addr constant [10 x i8] c"g_1501.f0\00", align 1, !dbg !289
@_ZL6g_1502 = internal global %union.U4 { i32 3 }, align 4, !dbg !659
@.str.105 = private unnamed_addr constant [10 x i8] c"g_1502.f0\00", align 1, !dbg !291
@_ZL6g_1503 = internal global %union.U4 { i32 4 }, align 4, !dbg !661
@.str.106 = private unnamed_addr constant [10 x i8] c"g_1503.f0\00", align 1, !dbg !293
@_ZL6g_1504 = internal global %union.U4 { i32 -438776011 }, align 4, !dbg !663
@.str.107 = private unnamed_addr constant [10 x i8] c"g_1504.f0\00", align 1, !dbg !295
@_ZL6g_1505 = internal global %union.U4 { i32 -946612236 }, align 4, !dbg !665
@.str.108 = private unnamed_addr constant [10 x i8] c"g_1505.f0\00", align 1, !dbg !297
@_ZL6g_1506 = internal global %union.U4 { i32 -768254087 }, align 4, !dbg !667
@.str.109 = private unnamed_addr constant [10 x i8] c"g_1506.f0\00", align 1, !dbg !299
@_ZL6g_1507 = internal global %union.U4 { i32 85307091 }, align 4, !dbg !669
@.str.110 = private unnamed_addr constant [10 x i8] c"g_1507.f0\00", align 1, !dbg !301
@_ZL6g_1508 = internal global %union.U4 { i32 -2079018199 }, align 4, !dbg !671
@.str.111 = private unnamed_addr constant [10 x i8] c"g_1508.f0\00", align 1, !dbg !303
@_ZL6g_1509 = internal global %union.U4 { i32 629939028 }, align 4, !dbg !673
@.str.112 = private unnamed_addr constant [10 x i8] c"g_1509.f0\00", align 1, !dbg !305
@_ZL6g_1510 = internal global %union.U4 { i32 159106307 }, align 4, !dbg !675
@.str.113 = private unnamed_addr constant [10 x i8] c"g_1510.f0\00", align 1, !dbg !307
@_ZL6g_1511 = internal global %union.U4 { i32 -3 }, align 4, !dbg !677
@.str.114 = private unnamed_addr constant [10 x i8] c"g_1511.f0\00", align 1, !dbg !309
@_ZL6g_1512 = internal global %union.U4 { i32 6 }, align 4, !dbg !679
@.str.115 = private unnamed_addr constant [10 x i8] c"g_1512.f0\00", align 1, !dbg !311
@_ZL6g_1513 = internal global %union.U4 zeroinitializer, align 4, !dbg !681
@.str.116 = private unnamed_addr constant [10 x i8] c"g_1513.f0\00", align 1, !dbg !313
@_ZL6g_1514 = internal global %union.U4 { i32 1 }, align 4, !dbg !683
@.str.117 = private unnamed_addr constant [10 x i8] c"g_1514.f0\00", align 1, !dbg !315
@_ZL6g_1515 = internal global %union.U4 { i32 5 }, align 4, !dbg !685
@.str.118 = private unnamed_addr constant [10 x i8] c"g_1515.f0\00", align 1, !dbg !317
@_ZL6g_1516 = internal global [1 x %union.U4] [%union.U4 { i32 -373709662 }], align 4, !dbg !687
@.str.119 = private unnamed_addr constant [13 x i8] c"g_1516[i].f0\00", align 1, !dbg !319
@_ZL6g_1517 = internal global %union.U4 { i32 7 }, align 4, !dbg !689
@.str.120 = private unnamed_addr constant [10 x i8] c"g_1517.f0\00", align 1, !dbg !321
@_ZL6g_1518 = internal global [6 x %union.U4] [%union.U4 { i32 -1000712962 }, %union.U4 { i32 -1000712962 }, %union.U4 { i32 -1000712962 }, %union.U4 { i32 -1000712962 }, %union.U4 { i32 -1000712962 }, %union.U4 { i32 -1000712962 }], align 16, !dbg !691
@.str.121 = private unnamed_addr constant [13 x i8] c"g_1518[i].f0\00", align 1, !dbg !323
@_ZL6g_1519 = internal global %union.U4 zeroinitializer, align 4, !dbg !694
@.str.122 = private unnamed_addr constant [10 x i8] c"g_1519.f0\00", align 1, !dbg !325
@_ZL6g_1520 = internal global %union.U4 { i32 -1392902401 }, align 4, !dbg !696
@.str.123 = private unnamed_addr constant [10 x i8] c"g_1520.f0\00", align 1, !dbg !327
@_ZL6g_1521 = internal global %union.U4 { i32 -440429995 }, align 4, !dbg !698
@.str.124 = private unnamed_addr constant [10 x i8] c"g_1521.f0\00", align 1, !dbg !329
@_ZL6g_1522 = internal global %union.U4 { i32 6 }, align 4, !dbg !700
@.str.125 = private unnamed_addr constant [10 x i8] c"g_1522.f0\00", align 1, !dbg !331
@_ZL6g_1534 = internal global i16 0, align 2, !dbg !702
@.str.126 = private unnamed_addr constant [7 x i8] c"g_1534\00", align 1, !dbg !333
@_ZL6g_1597 = internal global %union.U4 { i32 -541486882 }, align 4, !dbg !704
@.str.127 = private unnamed_addr constant [10 x i8] c"g_1597.f0\00", align 1, !dbg !335
@_ZL13crc32_context = internal global i32 -1, align 4, !dbg !709
@_ZL9crc32_tab = internal global [256 x i32] zeroinitializer, align 16, !dbg !337
@__const._ZL6func_1v.l_1586 = private unnamed_addr constant [7 x [5 x [1 x i8]]] [[5 x [1 x i8]] [[1 x i8] c"\07", [1 x i8] c"1", [1 x i8] c"\17", [1 x i8] c"1", [1 x i8] c"\07"], [5 x [1 x i8]] [[1 x i8] c"\EC", [1 x i8] c"\F7", [1 x i8] zeroinitializer, [1 x i8] c"\F7", [1 x i8] c"\F7"], [5 x [1 x i8]] [[1 x i8] zeroinitializer, [1 x i8] c"\F7", [1 x i8] c"\EC", [1 x i8] c"\07", [1 x i8] c"1"], [5 x [1 x i8]] [[1 x i8] c"\17", [1 x i8] c"1", [1 x i8] c"\07", [1 x i8] c"\EC", [1 x i8] c"\F7"], [5 x [1 x i8]] [[1 x i8] zeroinitializer, [1 x i8] c"\F7", [1 x i8] c"\F7", [1 x i8] zeroinitializer, [1 x i8] c"\F7"], [5 x [1 x i8]] [[1 x i8] c"\EC", [1 x i8] c"\07", [1 x i8] c"1", [1 x i8] c"\17", [1 x i8] c"1"], [5 x [1 x i8]] [[1 x i8] c"\07", [1 x i8] c"\EC", [1 x i8] c"\F7", [1 x i8] zeroinitializer, [1 x i8] c"\F7"]], align 16
@_ZL4g_93 = internal global [3 x ptr] [ptr @_ZL4g_87, ptr @_ZL4g_87, ptr @_ZL4g_87], align 16, !dbg !346
@__const._ZL6func_1v.l_1479 = private unnamed_addr constant [9 x ptr] [ptr getelementptr (i8, ptr @_ZL5g_172, i64 4), ptr getelementptr (i8, ptr @_ZL5g_172, i64 4), ptr getelementptr (i8, ptr @_ZL5g_172, i64 14), ptr getelementptr (i8, ptr @_ZL5g_172, i64 4), ptr getelementptr (i8, ptr @_ZL5g_172, i64 4), ptr getelementptr (i8, ptr @_ZL5g_172, i64 14), ptr getelementptr (i8, ptr @_ZL5g_172, i64 4), ptr getelementptr (i8, ptr @_ZL5g_172, i64 4), ptr getelementptr (i8, ptr @_ZL5g_172, i64 14)], align 16
@__const._ZL6func_1v.l_1484 = private unnamed_addr constant [7 x [8 x [4 x ptr]]] [[8 x [4 x ptr]] [[4 x ptr] [ptr @_ZL6g_1496, ptr @_ZL6g_1489, ptr @_ZL6g_1509, ptr @_ZL6g_1512], [4 x ptr] [ptr getelementptr (i8, ptr @_ZL6g_1486, i64 812), ptr @_ZL6g_1489, ptr null, ptr @_ZL6g_1494], [4 x ptr] [ptr null, ptr @_ZL6g_1489, ptr null, ptr null], [4 x ptr] [ptr @_ZL6g_1514, ptr @_ZL6g_1501, ptr @_ZL6g_1514, ptr @_ZL6g_1512], [4 x ptr] [ptr null, ptr null, ptr @_ZL6g_1503, ptr @_ZL6g_1512], [4 x ptr] [ptr null, ptr @_ZL6g_1501, ptr @_ZL6g_1496, ptr null], [4 x ptr] [ptr @_ZL6g_1509, ptr @_ZL6g_1489, ptr @_ZL6g_1496, ptr @_ZL6g_1489], [4 x ptr] [ptr null, ptr null, ptr @_ZL6g_1503, ptr null]], [8 x [4 x ptr]] [[4 x ptr] [ptr null, ptr null, ptr @_ZL6g_1514, ptr @_ZL6g_1489], [4 x ptr] [ptr @_ZL6g_1514, ptr @_ZL6g_1489, ptr null, ptr null], [4 x ptr] [ptr @_ZL6g_1514, ptr @_ZL6g_1501, ptr @_ZL6g_1514, ptr @_ZL6g_1512], [4 x ptr] [ptr null, ptr null, ptr @_ZL6g_1503, ptr @_ZL6g_1512], [4 x ptr] [ptr null, ptr @_ZL6g_1501, ptr @_ZL6g_1496, ptr null], [4 x ptr] [ptr @_ZL6g_1509, ptr @_ZL6g_1489, ptr @_ZL6g_1496, ptr @_ZL6g_1489], [4 x ptr] [ptr null, ptr null, ptr @_ZL6g_1503, ptr null], [4 x ptr] [ptr null, ptr null, ptr @_ZL6g_1514, ptr @_ZL6g_1489]], [8 x [4 x ptr]] [[4 x ptr] [ptr @_ZL6g_1514, ptr @_ZL6g_1489, ptr null, ptr null], [4 x ptr] [ptr @_ZL6g_1514, ptr @_ZL6g_1501, ptr @_ZL6g_1514, ptr @_ZL6g_1512], [4 x ptr] [ptr null, ptr null, ptr @_ZL6g_1503, ptr @_ZL6g_1512], [4 x ptr] [ptr null, ptr @_ZL6g_1501, ptr @_ZL6g_1496, ptr null], [4 x ptr] [ptr @_ZL6g_1509, ptr @_ZL6g_1489, ptr @_ZL6g_1496, ptr @_ZL6g_1489], [4 x ptr] [ptr null, ptr null, ptr @_ZL6g_1503, ptr null], [4 x ptr] [ptr null, ptr null, ptr @_ZL6g_1514, ptr @_ZL6g_1489], [4 x ptr] [ptr @_ZL6g_1514, ptr @_ZL6g_1489, ptr null, ptr null]], [8 x [4 x ptr]] [[4 x ptr] [ptr @_ZL6g_1514, ptr @_ZL6g_1501, ptr @_ZL6g_1514, ptr @_ZL6g_1512], [4 x ptr] [ptr null, ptr null, ptr @_ZL6g_1503, ptr @_ZL6g_1512], [4 x ptr] [ptr null, ptr @_ZL6g_1501, ptr @_ZL6g_1496, ptr null], [4 x ptr] [ptr @_ZL6g_1509, ptr @_ZL6g_1489, ptr @_ZL6g_1496, ptr @_ZL6g_1489], [4 x ptr] [ptr null, ptr null, ptr @_ZL6g_1503, ptr null], [4 x ptr] [ptr null, ptr null, ptr @_ZL6g_1514, ptr @_ZL6g_1489], [4 x ptr] [ptr @_ZL6g_1514, ptr @_ZL6g_1489, ptr null, ptr null], [4 x ptr] [ptr @_ZL6g_1514, ptr @_ZL6g_1501, ptr @_ZL6g_1514, ptr @_ZL6g_1512]], [8 x [4 x ptr]] [[4 x ptr] [ptr null, ptr null, ptr @_ZL6g_1503, ptr @_ZL6g_1512], [4 x ptr] [ptr null, ptr @_ZL6g_1501, ptr @_ZL6g_1496, ptr null], [4 x ptr] [ptr @_ZL6g_1509, ptr @_ZL6g_1489, ptr @_ZL6g_1496, ptr @_ZL6g_1489], [4 x ptr] [ptr null, ptr null, ptr @_ZL6g_1503, ptr null], [4 x ptr] [ptr null, ptr null, ptr @_ZL6g_1514, ptr @_ZL6g_1489], [4 x ptr] [ptr @_ZL6g_1514, ptr @_ZL6g_1489, ptr null, ptr null], [4 x ptr] [ptr @_ZL6g_1514, ptr @_ZL6g_1501, ptr @_ZL6g_1514, ptr @_ZL6g_1512], [4 x ptr] [ptr null, ptr null, ptr @_ZL6g_1503, ptr @_ZL6g_1512]], [8 x [4 x ptr]] [[4 x ptr] [ptr null, ptr @_ZL6g_1501, ptr @_ZL6g_1496, ptr null], [4 x ptr] [ptr @_ZL6g_1509, ptr @_ZL6g_1489, ptr @_ZL6g_1496, ptr @_ZL6g_1489], [4 x ptr] [ptr null, ptr null, ptr @_ZL6g_1503, ptr null], [4 x ptr] [ptr null, ptr null, ptr @_ZL6g_1514, ptr @_ZL6g_1489], [4 x ptr] [ptr @_ZL6g_1514, ptr @_ZL6g_1489, ptr null, ptr null], [4 x ptr] [ptr @_ZL6g_1514, ptr @_ZL6g_1501, ptr @_ZL6g_1514, ptr @_ZL6g_1512], [4 x ptr] [ptr null, ptr null, ptr @_ZL6g_1503, ptr @_ZL6g_1512], [4 x ptr] [ptr null, ptr @_ZL6g_1501, ptr @_ZL6g_1496, ptr null]], [8 x [4 x ptr]] [[4 x ptr] [ptr @_ZL6g_1509, ptr @_ZL6g_1489, ptr @_ZL6g_1496, ptr @_ZL6g_1489], [4 x ptr] [ptr null, ptr null, ptr @_ZL6g_1503, ptr null], [4 x ptr] [ptr @_ZL6g_1514, ptr null, ptr @_ZL6g_1509, ptr null], [4 x ptr] [ptr @_ZL6g_1509, ptr null, ptr getelementptr (i8, ptr @_ZL6g_1486, i64 812), ptr @_ZL6g_1512], [4 x ptr] [ptr @_ZL6g_1509, ptr @_ZL6g_1494, ptr @_ZL6g_1509, ptr null], [4 x ptr] [ptr @_ZL6g_1514, ptr @_ZL6g_1512, ptr @_ZL6g_1496, ptr null], [4 x ptr] [ptr getelementptr (i8, ptr @_ZL6g_1486, i64 812), ptr @_ZL6g_1494, ptr null, ptr @_ZL6g_1512], [4 x ptr] [ptr @_ZL6g_1503, ptr null, ptr null, ptr null]]], align 16
@_ZL6g_1482 = internal global [8 x [10 x ptr]] [[10 x ptr] [ptr getelementptr (i8, ptr @_ZL6g_1483, i64 4), ptr null, ptr getelementptr (i8, ptr @_ZL6g_1483, i64 16), ptr getelementptr (i8, ptr @_ZL6g_1483, i64 4), ptr getelementptr (i8, ptr @_ZL6g_1483, i64 16), ptr getelementptr (i8, ptr @_ZL6g_1483, i64 4), ptr getelementptr (i8, ptr @_ZL6g_1483, i64 16), ptr null, ptr getelementptr (i8, ptr @_ZL6g_1483, i64 4), ptr getelementptr (i8, ptr @_ZL6g_1483, i64 4)], [10 x ptr] [ptr getelementptr (i8, ptr @_ZL6g_1483, i64 4), ptr null, ptr getelementptr (i8, ptr @_ZL6g_1483, i64 16), ptr getelementptr (i8, ptr @_ZL6g_1483, i64 4), ptr getelementptr (i8, ptr @_ZL6g_1483, i64 16), ptr getelementptr (i8, ptr @_ZL6g_1483, i64 4), ptr getelementptr (i8, ptr @_ZL6g_1483, i64 16), ptr null, ptr getelementptr (i8, ptr @_ZL6g_1483, i64 4), ptr getelementptr (i8, ptr @_ZL6g_1483, i64 4)], [10 x ptr] [ptr getelementptr (i8, ptr @_ZL6g_1483, i64 4), ptr null, ptr getelementptr (i8, ptr @_ZL6g_1483, i64 16), ptr getelementptr (i8, ptr @_ZL6g_1483, i64 4), ptr getelementptr (i8, ptr @_ZL6g_1483, i64 16), ptr getelementptr (i8, ptr @_ZL6g_1483, i64 4), ptr getelementptr (i8, ptr @_ZL6g_1483, i64 16), ptr null, ptr getelementptr (i8, ptr @_ZL6g_1483, i64 4), ptr getelementptr (i8, ptr @_ZL6g_1483, i64 4)], [10 x ptr] [ptr getelementptr (i8, ptr @_ZL6g_1483, i64 4), ptr null, ptr getelementptr (i8, ptr @_ZL6g_1483, i64 16), ptr getelementptr (i8, ptr @_ZL6g_1483, i64 4), ptr getelementptr (i8, ptr @_ZL6g_1483, i64 16), ptr getelementptr (i8, ptr @_ZL6g_1483, i64 4), ptr getelementptr (i8, ptr @_ZL6g_1483, i64 16), ptr null, ptr getelementptr (i8, ptr @_ZL6g_1483, i64 4), ptr getelementptr (i8, ptr @_ZL6g_1483, i64 4)], [10 x ptr] [ptr getelementptr (i8, ptr @_ZL6g_1483, i64 4), ptr null, ptr getelementptr (i8, ptr @_ZL6g_1483, i64 16), ptr getelementptr (i8, ptr @_ZL6g_1483, i64 4), ptr getelementptr (i8, ptr @_ZL6g_1483, i64 16), ptr getelementptr (i8, ptr @_ZL6g_1483, i64 4), ptr getelementptr (i8, ptr @_ZL6g_1483, i64 16), ptr null, ptr getelementptr (i8, ptr @_ZL6g_1483, i64 4), ptr getelementptr (i8, ptr @_ZL6g_1483, i64 4)], [10 x ptr] [ptr getelementptr (i8, ptr @_ZL6g_1483, i64 4), ptr null, ptr getelementptr (i8, ptr @_ZL6g_1483, i64 16), ptr getelementptr (i8, ptr @_ZL6g_1483, i64 4), ptr getelementptr (i8, ptr @_ZL6g_1483, i64 16), ptr getelementptr (i8, ptr @_ZL6g_1483, i64 4), ptr getelementptr (i8, ptr @_ZL6g_1483, i64 16), ptr null, ptr getelementptr (i8, ptr @_ZL6g_1483, i64 4), ptr getelementptr (i8, ptr @_ZL6g_1483, i64 4)], [10 x ptr] [ptr getelementptr (i8, ptr @_ZL6g_1483, i64 4), ptr null, ptr getelementptr (i8, ptr @_ZL6g_1483, i64 16), ptr getelementptr (i8, ptr @_ZL6g_1483, i64 4), ptr getelementptr (i8, ptr @_ZL6g_1483, i64 16), ptr getelementptr (i8, ptr @_ZL6g_1483, i64 4), ptr getelementptr (i8, ptr @_ZL6g_1483, i64 16), ptr null, ptr getelementptr (i8, ptr @_ZL6g_1483, i64 4), ptr getelementptr (i8, ptr @_ZL6g_1483, i64 4)], [10 x ptr] [ptr getelementptr (i8, ptr @_ZL6g_1483, i64 4), ptr null, ptr getelementptr (i8, ptr @_ZL6g_1483, i64 16), ptr getelementptr (i8, ptr @_ZL6g_1483, i64 4), ptr getelementptr (i8, ptr @_ZL6g_1483, i64 16), ptr getelementptr (i8, ptr @_ZL6g_1483, i64 4), ptr getelementptr (i8, ptr @_ZL6g_1483, i64 16), ptr null, ptr getelementptr (i8, ptr @_ZL6g_1483, i64 4), ptr getelementptr (i8, ptr @_ZL6g_1483, i64 4)]], align 16, !dbg !352
@__const._ZL6func_1v.l_1598 = private unnamed_addr constant [6 x [8 x [5 x ptr]]] [[8 x [5 x ptr]] [[5 x ptr] [ptr @_ZL5g_132, ptr null, ptr @_ZL5g_496, ptr @_ZL5g_496, ptr null], [5 x ptr] [ptr @_ZL5g_132, ptr @_ZL5g_496, ptr @_ZL5g_132, ptr @_ZL5g_132, ptr @_ZL5g_496], [5 x ptr] [ptr @_ZL5g_132, ptr @_ZL5g_145, ptr @_ZL5g_145, ptr @_ZL5g_132, ptr @_ZL5g_132], [5 x ptr] [ptr @_ZL5g_132, ptr @_ZL5g_132, ptr @_ZL5g_496, ptr @_ZL5g_132, ptr @_ZL5g_145], [5 x ptr] [ptr @_ZL5g_496, ptr @_ZL5g_496, ptr null, ptr @_ZL5g_132, ptr null], [5 x ptr] [ptr @_ZL5g_496, ptr @_ZL5g_145, ptr @_ZL5g_496, ptr @_ZL5g_132, ptr @_ZL5g_145], [5 x ptr] [ptr null, ptr @_ZL5g_132, ptr @_ZL5g_132, ptr @_ZL5g_132, ptr @_ZL5g_132], [5 x ptr] [ptr @_ZL5g_496, ptr @_ZL5g_496, ptr @_ZL5g_145, ptr @_ZL5g_132, ptr @_ZL5g_145]], [8 x [5 x ptr]] [[5 x ptr] [ptr null, ptr @_ZL5g_132, ptr @_ZL5g_145, ptr @_ZL5g_496, ptr @_ZL5g_132], [5 x ptr] [ptr @_ZL5g_132, ptr @_ZL5g_496, ptr null, ptr @_ZL5g_496, ptr @_ZL5g_496], [5 x ptr] [ptr @_ZL5g_132, ptr @_ZL5g_132, ptr null, ptr null, ptr null], [5 x ptr] [ptr @_ZL5g_132, ptr @_ZL5g_496, ptr @_ZL5g_496, ptr @_ZL5g_496, ptr @_ZL5g_132], [5 x ptr] [ptr @_ZL5g_496, ptr @_ZL5g_132, ptr @_ZL5g_496, ptr null, ptr @_ZL5g_132], [5 x ptr] [ptr @_ZL5g_496, ptr @_ZL5g_145, ptr @_ZL5g_132, ptr @_ZL5g_132, ptr @_ZL5g_496], [5 x ptr] [ptr @_ZL5g_496, ptr @_ZL5g_496, ptr @_ZL5g_132, ptr @_ZL5g_132, ptr @_ZL5g_132], [5 x ptr] [ptr @_ZL5g_496, ptr @_ZL5g_132, ptr @_ZL5g_496, ptr @_ZL5g_132, ptr @_ZL5g_132]], [8 x [5 x ptr]] [[5 x ptr] [ptr @_ZL5g_132, ptr @_ZL5g_145, ptr @_ZL5g_132, ptr @_ZL5g_496, ptr null], [5 x ptr] [ptr @_ZL5g_145, ptr @_ZL5g_496, ptr @_ZL5g_496, ptr @_ZL5g_496, ptr @_ZL5g_496], [5 x ptr] [ptr @_ZL5g_145, ptr null, ptr @_ZL5g_496, ptr @_ZL5g_496, ptr @_ZL5g_132], [5 x ptr] [ptr @_ZL5g_132, ptr @_ZL5g_496, ptr @_ZL5g_496, ptr @_ZL5g_496, ptr @_ZL5g_145], [5 x ptr] [ptr @_ZL5g_145, ptr @_ZL5g_132, ptr @_ZL5g_132, ptr @_ZL5g_132, ptr @_ZL5g_132], [5 x ptr] [ptr @_ZL5g_132, ptr @_ZL5g_145, ptr @_ZL5g_496, ptr @_ZL5g_145, ptr @_ZL5g_145], [5 x ptr] [ptr @_ZL5g_496, ptr @_ZL5g_145, ptr @_ZL5g_132, ptr @_ZL5g_145, ptr null], [5 x ptr] [ptr @_ZL5g_496, ptr null, ptr @_ZL5g_132, ptr @_ZL5g_132, ptr @_ZL5g_145]], [8 x [5 x ptr]] [[5 x ptr] [ptr @_ZL5g_496, ptr null, ptr @_ZL5g_496, ptr @_ZL5g_145, ptr @_ZL5g_132], [5 x ptr] [ptr @_ZL5g_132, ptr @_ZL5g_496, ptr @_ZL5g_496, ptr @_ZL5g_132, ptr @_ZL5g_496], [5 x ptr] [ptr @_ZL5g_145, ptr @_ZL5g_496, ptr null, ptr @_ZL5g_496, ptr null], [5 x ptr] [ptr @_ZL5g_132, ptr @_ZL5g_132, ptr null, ptr @_ZL5g_496, ptr @_ZL5g_496], [5 x ptr] [ptr @_ZL5g_145, ptr @_ZL5g_132, ptr @_ZL5g_145, ptr @_ZL5g_496, ptr @_ZL5g_496], [5 x ptr] [ptr @_ZL5g_145, ptr @_ZL5g_496, ptr @_ZL5g_145, ptr @_ZL5g_132, ptr @_ZL5g_145], [5 x ptr] [ptr @_ZL5g_132, ptr @_ZL5g_132, ptr @_ZL5g_132, ptr @_ZL5g_145, ptr @_ZL5g_132], [5 x ptr] [ptr @_ZL5g_496, ptr @_ZL5g_496, ptr @_ZL5g_496, ptr @_ZL5g_132, ptr @_ZL5g_132]], [8 x [5 x ptr]] [[5 x ptr] [ptr @_ZL5g_496, ptr @_ZL5g_496, ptr null, ptr @_ZL5g_145, ptr null], [5 x ptr] [ptr @_ZL5g_496, ptr @_ZL5g_496, ptr null, ptr @_ZL5g_496, ptr @_ZL5g_145], [5 x ptr] [ptr @_ZL5g_132, ptr @_ZL5g_496, ptr @_ZL5g_145, ptr @_ZL5g_496, ptr @_ZL5g_132], [5 x ptr] [ptr @_ZL5g_496, ptr @_ZL5g_496, ptr @_ZL5g_132, ptr @_ZL5g_132, ptr @_ZL5g_145], [5 x ptr] [ptr @_ZL5g_145, ptr @_ZL5g_145, ptr null, ptr @_ZL5g_496, ptr @_ZL5g_145], [5 x ptr] [ptr @_ZL5g_132, ptr @_ZL5g_496, ptr @_ZL5g_132, ptr @_ZL5g_496, ptr @_ZL5g_145], [5 x ptr] [ptr @_ZL5g_496, ptr @_ZL5g_496, ptr @_ZL5g_145, ptr @_ZL5g_132, ptr @_ZL5g_132], [5 x ptr] [ptr @_ZL5g_145, ptr @_ZL5g_132, ptr @_ZL5g_145, ptr @_ZL5g_496, ptr @_ZL5g_145]], [8 x [5 x ptr]] [[5 x ptr] [ptr @_ZL5g_145, ptr null, ptr null, ptr @_ZL5g_145, ptr @_ZL5g_496], [5 x ptr] [ptr @_ZL5g_132, ptr @_ZL5g_145, ptr @_ZL5g_132, ptr @_ZL5g_132, ptr @_ZL5g_145], [5 x ptr] [ptr null, ptr @_ZL5g_496, ptr null, ptr @_ZL5g_496, ptr @_ZL5g_145], [5 x ptr] [ptr @_ZL5g_496, ptr @_ZL5g_496, ptr @_ZL5g_145, ptr @_ZL5g_145, ptr @_ZL5g_496], [5 x ptr] [ptr null, ptr @_ZL5g_496, ptr @_ZL5g_145, ptr @_ZL5g_145, ptr null], [5 x ptr] [ptr @_ZL5g_496, ptr @_ZL5g_132, ptr @_ZL5g_132, ptr @_ZL5g_132, ptr @_ZL5g_496], [5 x ptr] [ptr null, ptr @_ZL5g_132, ptr null, ptr null, ptr @_ZL5g_132], [5 x ptr] [ptr @_ZL5g_496, ptr null, ptr @_ZL5g_132, ptr @_ZL5g_496, ptr @_ZL5g_496]]], align 16
@.str.128 = private unnamed_addr constant [36 x i8] c"...checksum after hashing %s : %lX\0A\00", align 1, !dbg !365
@_ZL4g_49 = internal global [2 x { i8, [7 x i8] }] [{ i8, [7 x i8] } { i8 28, [7 x i8] undef }, { i8, [7 x i8] } { i8 28, [7 x i8] undef }], align 16, !dbg !378
@_ZL5g_119 = internal global { i8, [3 x i8] } { i8 -2, [3 x i8] undef }, align 4, !dbg !415
@_ZL5g_228 = internal global { i8, [3 x i8] } { i8 -1, [3 x i8] undef }, align 4, !dbg !453
@_ZL5g_628 = internal constant [10 x [9 x { i8, [7 x i8] }]] [[9 x { i8, [7 x i8] }] [{ i8, [7 x i8] } { i8 -1, [7 x i8] undef }, { i8, [7 x i8] } { i8 -111, [7 x i8] undef }, { i8, [7 x i8] } { i8 -6, [7 x i8] undef }, { i8, [7 x i8] } { i8 -6, [7 x i8] undef }, { i8, [7 x i8] } { i8 -111, [7 x i8] undef }, { i8, [7 x i8] } { i8 -1, [7 x i8] undef }, { i8, [7 x i8] } { i8 -1, [7 x i8] undef }, { i8, [7 x i8] } { i8 87, [7 x i8] undef }, { i8, [7 x i8] } { i8 -112, [7 x i8] undef }], [9 x { i8, [7 x i8] }] [{ i8, [7 x i8] } { i8 81, [7 x i8] undef }, { i8, [7 x i8] } { i8 1, [7 x i8] undef }, { i8, [7 x i8] } { i8 26, [7 x i8] undef }, { i8, [7 x i8] } { i8 87, [7 x i8] undef }, { i8, [7 x i8] } { i8 -2, [7 x i8] undef }, { i8, [7 x i8] } { i8 0, [7 x i8] undef }, { i8, [7 x i8] } { i8 0, [7 x i8] undef }, { i8, [7 x i8] } { i8 -1, [7 x i8] undef }, { i8, [7 x i8] } { i8 1, [7 x i8] undef }], [9 x { i8, [7 x i8] }] [{ i8, [7 x i8] } { i8 -19, [7 x i8] undef }, { i8, [7 x i8] } { i8 -4, [7 x i8] undef }, { i8, [7 x i8] } { i8 -1, [7 x i8] undef }, { i8, [7 x i8] } { i8 -1, [7 x i8] undef }, { i8, [7 x i8] } { i8 -2, [7 x i8] undef }, { i8, [7 x i8] } { i8 88, [7 x i8] undef }, { i8, [7 x i8] } { i8 -1, [7 x i8] undef }, { i8, [7 x i8] } { i8 -19, [7 x i8] undef }, { i8, [7 x i8] } { i8 -2, [7 x i8] undef }], [9 x { i8, [7 x i8] }] [{ i8, [7 x i8] } { i8 -1, [7 x i8] undef }, { i8, [7 x i8] } { i8 -1, [7 x i8] undef }, { i8, [7 x i8] } { i8 -2, [7 x i8] undef }, { i8, [7 x i8] } { i8 88, [7 x i8] undef }, { i8, [7 x i8] } { i8 -4, [7 x i8] undef }, { i8, [7 x i8] } { i8 -11, [7 x i8] undef }, { i8, [7 x i8] } { i8 26, [7 x i8] undef }, { i8, [7 x i8] } { i8 26, [7 x i8] undef }, { i8, [7 x i8] } { i8 -11, [7 x i8] undef }], [9 x { i8, [7 x i8] }] [{ i8, [7 x i8] } { i8 0, [7 x i8] undef }, { i8, [7 x i8] } { i8 -1, [7 x i8] undef }, { i8, [7 x i8] } { i8 4, [7 x i8] undef }, { i8, [7 x i8] } { i8 -1, [7 x i8] undef }, { i8, [7 x i8] } { i8 0, [7 x i8] undef }, { i8, [7 x i8] } { i8 9, [7 x i8] undef }, { i8, [7 x i8] } { i8 -44, [7 x i8] undef }, { i8, [7 x i8] } { i8 -112, [7 x i8] undef }, { i8, [7 x i8] } { i8 -1, [7 x i8] undef }], [9 x { i8, [7 x i8] }] [{ i8, [7 x i8] } { i8 26, [7 x i8] undef }, { i8, [7 x i8] } { i8 -4, [7 x i8] undef }, { i8, [7 x i8] } { i8 1, [7 x i8] undef }, { i8, [7 x i8] } { i8 -6, [7 x i8] undef }, { i8, [7 x i8] } { i8 -1, [7 x i8] undef }, { i8, [7 x i8] } { i8 47, [7 x i8] undef }, { i8, [7 x i8] } { i8 -1, [7 x i8] undef }, { i8, [7 x i8] } { i8 1, [7 x i8] undef }, { i8, [7 x i8] } { i8 -117, [7 x i8] undef }], [9 x { i8, [7 x i8] }] [{ i8, [7 x i8] } { i8 0, [7 x i8] undef }, { i8, [7 x i8] } { i8 1, [7 x i8] undef }, { i8, [7 x i8] } { i8 -44, [7 x i8] undef }, { i8, [7 x i8] } { i8 4, [7 x i8] undef }, { i8, [7 x i8] } { i8 47, [7 x i8] undef }, { i8, [7 x i8] } { i8 9, [7 x i8] undef }, { i8, [7 x i8] } { i8 1, [7 x i8] undef }, { i8, [7 x i8] } { i8 -2, [7 x i8] undef }, { i8, [7 x i8] } { i8 1, [7 x i8] undef }], [9 x { i8, [7 x i8] }] [{ i8, [7 x i8] } { i8 -11, [7 x i8] undef }, { i8, [7 x i8] } { i8 -111, [7 x i8] undef }, { i8, [7 x i8] } { i8 6, [7 x i8] undef }, { i8, [7 x i8] } { i8 -44, [7 x i8] undef }, { i8, [7 x i8] } { i8 -1, [7 x i8] undef }, { i8, [7 x i8] } { i8 -11, [7 x i8] undef }, { i8, [7 x i8] } { i8 -1, [7 x i8] undef }, { i8, [7 x i8] } { i8 -11, [7 x i8] undef }, { i8, [7 x i8] } { i8 -1, [7 x i8] undef }], [9 x { i8, [7 x i8] }] [{ i8, [7 x i8] } { i8 -11, [7 x i8] undef }, { i8, [7 x i8] } { i8 26, [7 x i8] undef }, { i8, [7 x i8] } { i8 26, [7 x i8] undef }, { i8, [7 x i8] } { i8 -11, [7 x i8] undef }, { i8, [7 x i8] } { i8 -4, [7 x i8] undef }, { i8, [7 x i8] } { i8 88, [7 x i8] undef }, { i8, [7 x i8] } { i8 -2, [7 x i8] undef }, { i8, [7 x i8] } { i8 -1, [7 x i8] undef }, { i8, [7 x i8] } { i8 -1, [7 x i8] undef }], [9 x { i8, [7 x i8] }] [{ i8, [7 x i8] } { i8 0, [7 x i8] undef }, { i8, [7 x i8] } { i8 -2, [7 x i8] undef }, { i8, [7 x i8] } { i8 4, [7 x i8] undef }, { i8, [7 x i8] } { i8 -1, [7 x i8] undef }, { i8, [7 x i8] } { i8 4, [7 x i8] undef }, { i8, [7 x i8] } { i8 0, [7 x i8] undef }, { i8, [7 x i8] } { i8 47, [7 x i8] undef }, { i8, [7 x i8] } { i8 -117, [7 x i8] undef }, { i8, [7 x i8] } { i8 -2, [7 x i8] undef }]], align 16, !dbg !488
@_ZL5g_648 = internal global { i8, [7 x i8] } { i8 64, [7 x i8] undef }, align 8, !dbg !497
@_ZL6g_1223 = internal constant { i8, [3 x i8] } { i8 9, [3 x i8] undef }, align 4, !dbg !596
@.str.135 = private unnamed_addr constant [15 x i8] c"checksum = %X\0A\00", align 1, !dbg !706

; Function Attrs: mustprogress noinline norecurse nounwind optnone sspstrong uwtable
define dso_local noundef i32 @main(i32 noundef %0, ptr noundef %1) #0 !dbg !1080 {
  %3 = alloca i32, align 4
  %4 = alloca i32, align 4
  %5 = alloca ptr, align 8
  %6 = alloca i32, align 4
  %7 = alloca i32, align 4
  %8 = alloca i32, align 4
  %9 = alloca i32, align 4
  store i32 0, ptr %3, align 4
  store i32 %0, ptr %4, align 4
  call void @llvm.dbg.declare(metadata ptr %4, metadata !1086, metadata !DIExpression()), !dbg !1087
  store ptr %1, ptr %5, align 8
  call void @llvm.dbg.declare(metadata ptr %5, metadata !1088, metadata !DIExpression()), !dbg !1089
  call void @llvm.dbg.declare(metadata ptr %6, metadata !1090, metadata !DIExpression()), !dbg !1091
  call void @llvm.dbg.declare(metadata ptr %7, metadata !1092, metadata !DIExpression()), !dbg !1093
  call void @llvm.dbg.declare(metadata ptr %8, metadata !1094, metadata !DIExpression()), !dbg !1095
  call void @llvm.dbg.declare(metadata ptr %9, metadata !1096, metadata !DIExpression()), !dbg !1097
  store i32 0, ptr %9, align 4, !dbg !1097
  %10 = load i32, ptr %4, align 4, !dbg !1098
  %11 = icmp eq i32 %10, 2, !dbg !1100
  br i1 %11, label %12, label %19, !dbg !1101

12:                                               ; preds = %2
  %13 = load ptr, ptr %5, align 8, !dbg !1102
  %14 = getelementptr inbounds ptr, ptr %13, i64 1, !dbg !1102
  %15 = load ptr, ptr %14, align 8, !dbg !1102
  %16 = call i32 @strcmp(ptr noundef %15, ptr noundef @.str) #7, !dbg !1103
  %17 = icmp eq i32 %16, 0, !dbg !1104
  br i1 %17, label %18, label %19, !dbg !1105

18:                                               ; preds = %12
  store i32 1, ptr %9, align 4, !dbg !1106
  br label %19, !dbg !1107

19:                                               ; preds = %18, %12, %2
  call void @_ZL19platform_main_beginv(), !dbg !1108
  call void @_ZL12crc32_gentabv(), !dbg !1109
  %20 = call noundef signext i16 @_ZL6func_1v(), !dbg !1110
  store i32 0, ptr %6, align 4, !dbg !1111
  br label %21, !dbg !1113

21:                                               ; preds = %49, %19
  %22 = load i32, ptr %6, align 4, !dbg !1114
  %23 = icmp slt i32 %22, 7, !dbg !1116
  br i1 %23, label %24, label %52, !dbg !1117

24:                                               ; preds = %21
  store i32 0, ptr %7, align 4, !dbg !1118
  br label %25, !dbg !1121

25:                                               ; preds = %45, %24
  %26 = load i32, ptr %7, align 4, !dbg !1122
  %27 = icmp slt i32 %26, 4, !dbg !1124
  br i1 %27, label %28, label %48, !dbg !1125

28:                                               ; preds = %25
  %29 = load i32, ptr %6, align 4, !dbg !1126
  %30 = sext i32 %29 to i64, !dbg !1128
  %31 = getelementptr inbounds [7 x [4 x i32]], ptr @_ZL3g_2, i64 0, i64 %30, !dbg !1128
  %32 = load i32, ptr %7, align 4, !dbg !1129
  %33 = sext i32 %32 to i64, !dbg !1128
  %34 = getelementptr inbounds [4 x i32], ptr %31, i64 0, i64 %33, !dbg !1128
  %35 = load volatile i32, ptr %34, align 4, !dbg !1128
  %36 = sext i32 %35 to i64, !dbg !1128
  %37 = load i32, ptr %9, align 4, !dbg !1130
  call void @_ZL15transparent_crcmPci(i64 noundef %36, ptr noundef @.str.1, i32 noundef %37), !dbg !1131
  %38 = load i32, ptr %9, align 4, !dbg !1132
  %39 = icmp ne i32 %38, 0, !dbg !1132
  br i1 %39, label %40, label %44, !dbg !1134

40:                                               ; preds = %28
  %41 = load i32, ptr %6, align 4, !dbg !1135
  %42 = load i32, ptr %7, align 4, !dbg !1136
  %43 = call i32 (ptr, ...) @printf(ptr noundef @.str.2, i32 noundef %41, i32 noundef %42), !dbg !1137
  br label %44, !dbg !1137

44:                                               ; preds = %40, %28
  br label %45, !dbg !1138

45:                                               ; preds = %44
  %46 = load i32, ptr %7, align 4, !dbg !1139
  %47 = add nsw i32 %46, 1, !dbg !1139
  store i32 %47, ptr %7, align 4, !dbg !1139
  br label %25, !dbg !1140, !llvm.loop !1141

48:                                               ; preds = %25
  br label %49, !dbg !1144

49:                                               ; preds = %48
  %50 = load i32, ptr %6, align 4, !dbg !1145
  %51 = add nsw i32 %50, 1, !dbg !1145
  store i32 %51, ptr %6, align 4, !dbg !1145
  br label %21, !dbg !1146, !llvm.loop !1147

52:                                               ; preds = %21
  %53 = load i32, ptr @_ZL3g_3, align 4, !dbg !1149
  %54 = sext i32 %53 to i64, !dbg !1149
  %55 = load i32, ptr %9, align 4, !dbg !1150
  call void @_ZL15transparent_crcmPci(i64 noundef %54, ptr noundef @.str.3, i32 noundef %55), !dbg !1151
  %56 = load i32, ptr @_ZL3g_6, align 4, !dbg !1152
  %57 = sext i32 %56 to i64, !dbg !1152
  %58 = load i32, ptr %9, align 4, !dbg !1153
  call void @_ZL15transparent_crcmPci(i64 noundef %57, ptr noundef @.str.4, i32 noundef %58), !dbg !1154
  %59 = load i32, ptr @_ZL3g_9, align 4, !dbg !1155
  %60 = sext i32 %59 to i64, !dbg !1155
  %61 = load i32, ptr %9, align 4, !dbg !1156
  call void @_ZL15transparent_crcmPci(i64 noundef %60, ptr noundef @.str.5, i32 noundef %61), !dbg !1157
  %62 = load i32, ptr @_ZL4g_31, align 4, !dbg !1158
  %63 = zext i32 %62 to i64, !dbg !1159
  %64 = load i32, ptr %9, align 4, !dbg !1160
  call void @_ZL15transparent_crcmPci(i64 noundef %63, ptr noundef @.str.6, i32 noundef %64), !dbg !1161
  store i32 0, ptr %6, align 4, !dbg !1162
  br label %65, !dbg !1164

65:                                               ; preds = %81, %52
  %66 = load i32, ptr %6, align 4, !dbg !1165
  %67 = icmp slt i32 %66, 2, !dbg !1167
  br i1 %67, label %68, label %84, !dbg !1168

68:                                               ; preds = %65
  %69 = load i32, ptr %6, align 4, !dbg !1169
  %70 = sext i32 %69 to i64, !dbg !1171
  %71 = getelementptr inbounds [2 x %union.U1], ptr @_ZL4g_49, i64 0, i64 %70, !dbg !1171
  %72 = load i8, ptr %71, align 8, !dbg !1172
  %73 = sext i8 %72 to i64, !dbg !1171
  %74 = load i32, ptr %9, align 4, !dbg !1173
  call void @_ZL15transparent_crcmPci(i64 noundef %73, ptr noundef @.str.7, i32 noundef %74), !dbg !1174
  %75 = load i32, ptr %9, align 4, !dbg !1175
  %76 = icmp ne i32 %75, 0, !dbg !1175
  br i1 %76, label %77, label %80, !dbg !1177

77:                                               ; preds = %68
  %78 = load i32, ptr %6, align 4, !dbg !1178
  %79 = call i32 (ptr, ...) @printf(ptr noundef @.str.8, i32 noundef %78), !dbg !1179
  br label %80, !dbg !1179

80:                                               ; preds = %77, %68
  br label %81, !dbg !1180

81:                                               ; preds = %80
  %82 = load i32, ptr %6, align 4, !dbg !1181
  %83 = add nsw i32 %82, 1, !dbg !1181
  store i32 %83, ptr %6, align 4, !dbg !1181
  br label %65, !dbg !1182, !llvm.loop !1183

84:                                               ; preds = %65
  %85 = load i32, ptr @_ZL4g_73, align 4, !dbg !1185
  %86 = sext i32 %85 to i64, !dbg !1185
  %87 = load i32, ptr %9, align 4, !dbg !1186
  call void @_ZL15transparent_crcmPci(i64 noundef %86, ptr noundef @.str.9, i32 noundef %87), !dbg !1187
  %88 = load i32, ptr @_ZL4g_87, align 4, !dbg !1188
  %89 = sext i32 %88 to i64, !dbg !1188
  %90 = load i32, ptr %9, align 4, !dbg !1189
  call void @_ZL15transparent_crcmPci(i64 noundef %89, ptr noundef @.str.10, i32 noundef %90), !dbg !1190
  %91 = load i64, ptr @_ZL5g_101, align 8, !dbg !1191
  %92 = load i32, ptr %9, align 4, !dbg !1192
  call void @_ZL15transparent_crcmPci(i64 noundef %91, ptr noundef @.str.11, i32 noundef %92), !dbg !1193
  %93 = load i64, ptr @_ZL5g_110, align 8, !dbg !1194
  %94 = load i32, ptr %9, align 4, !dbg !1195
  call void @_ZL15transparent_crcmPci(i64 noundef %93, ptr noundef @.str.12, i32 noundef %94), !dbg !1196
  %95 = load i8, ptr @_ZL5g_119, align 4, !dbg !1197
  %96 = sext i8 %95 to i64, !dbg !1198
  %97 = load i32, ptr %9, align 4, !dbg !1199
  call void @_ZL15transparent_crcmPci(i64 noundef %96, ptr noundef @.str.13, i32 noundef %97), !dbg !1200
  %98 = load i16, ptr @_ZL5g_132, align 2, !dbg !1201
  %99 = zext i16 %98 to i64, !dbg !1201
  %100 = load i32, ptr %9, align 4, !dbg !1202
  call void @_ZL15transparent_crcmPci(i64 noundef %99, ptr noundef @.str.14, i32 noundef %100), !dbg !1203
  %101 = load i16, ptr @_ZL5g_136, align 2, !dbg !1204
  %102 = sext i16 %101 to i64, !dbg !1204
  %103 = load i32, ptr %9, align 4, !dbg !1205
  call void @_ZL15transparent_crcmPci(i64 noundef %102, ptr noundef @.str.15, i32 noundef %103), !dbg !1206
  %104 = load i16, ptr @_ZL5g_145, align 2, !dbg !1207
  %105 = zext i16 %104 to i64, !dbg !1207
  %106 = load i32, ptr %9, align 4, !dbg !1208
  call void @_ZL15transparent_crcmPci(i64 noundef %105, ptr noundef @.str.16, i32 noundef %106), !dbg !1209
  store i32 0, ptr %6, align 4, !dbg !1210
  br label %107, !dbg !1212

107:                                              ; preds = %123, %84
  %108 = load i32, ptr %6, align 4, !dbg !1213
  %109 = icmp slt i32 %108, 8, !dbg !1215
  br i1 %109, label %110, label %126, !dbg !1216

110:                                              ; preds = %107
  %111 = load i32, ptr %6, align 4, !dbg !1217
  %112 = sext i32 %111 to i64, !dbg !1219
  %113 = getelementptr inbounds [8 x i16], ptr @_ZL5g_172, i64 0, i64 %112, !dbg !1219
  %114 = load i16, ptr %113, align 2, !dbg !1219
  %115 = sext i16 %114 to i64, !dbg !1219
  %116 = load i32, ptr %9, align 4, !dbg !1220
  call void @_ZL15transparent_crcmPci(i64 noundef %115, ptr noundef @.str.17, i32 noundef %116), !dbg !1221
  %117 = load i32, ptr %9, align 4, !dbg !1222
  %118 = icmp ne i32 %117, 0, !dbg !1222
  br i1 %118, label %119, label %122, !dbg !1224

119:                                              ; preds = %110
  %120 = load i32, ptr %6, align 4, !dbg !1225
  %121 = call i32 (ptr, ...) @printf(ptr noundef @.str.8, i32 noundef %120), !dbg !1226
  br label %122, !dbg !1226

122:                                              ; preds = %119, %110
  br label %123, !dbg !1227

123:                                              ; preds = %122
  %124 = load i32, ptr %6, align 4, !dbg !1228
  %125 = add nsw i32 %124, 1, !dbg !1228
  store i32 %125, ptr %6, align 4, !dbg !1228
  br label %107, !dbg !1229, !llvm.loop !1230

126:                                              ; preds = %107
  %127 = load volatile i64, ptr @_ZL5g_198, align 8, !dbg !1232
  %128 = load i32, ptr %9, align 4, !dbg !1233
  call void @_ZL15transparent_crcmPci(i64 noundef %127, ptr noundef @.str.18, i32 noundef %128), !dbg !1234
  %129 = load i64, ptr @_ZL5g_221, align 8, !dbg !1235
  %130 = load i32, ptr %9, align 4, !dbg !1236
  call void @_ZL15transparent_crcmPci(i64 noundef %129, ptr noundef @.str.19, i32 noundef %130), !dbg !1237
  %131 = load i8, ptr @_ZL5g_228, align 4, !dbg !1238
  %132 = sext i8 %131 to i64, !dbg !1239
  %133 = load i32, ptr %9, align 4, !dbg !1240
  call void @_ZL15transparent_crcmPci(i64 noundef %132, ptr noundef @.str.20, i32 noundef %133), !dbg !1241
  store i32 0, ptr %6, align 4, !dbg !1242
  br label %134, !dbg !1244

134:                                              ; preds = %174, %126
  %135 = load i32, ptr %6, align 4, !dbg !1245
  %136 = icmp slt i32 %135, 7, !dbg !1247
  br i1 %136, label %137, label %177, !dbg !1248

137:                                              ; preds = %134
  store i32 0, ptr %7, align 4, !dbg !1249
  br label %138, !dbg !1252

138:                                              ; preds = %170, %137
  %139 = load i32, ptr %7, align 4, !dbg !1253
  %140 = icmp slt i32 %139, 4, !dbg !1255
  br i1 %140, label %141, label %173, !dbg !1256

141:                                              ; preds = %138
  store i32 0, ptr %8, align 4, !dbg !1257
  br label %142, !dbg !1260

142:                                              ; preds = %166, %141
  %143 = load i32, ptr %8, align 4, !dbg !1261
  %144 = icmp slt i32 %143, 8, !dbg !1263
  br i1 %144, label %145, label %169, !dbg !1264

145:                                              ; preds = %142
  %146 = load i32, ptr %6, align 4, !dbg !1265
  %147 = sext i32 %146 to i64, !dbg !1267
  %148 = getelementptr inbounds [7 x [4 x [8 x i8]]], ptr @_ZL5g_230, i64 0, i64 %147, !dbg !1267
  %149 = load i32, ptr %7, align 4, !dbg !1268
  %150 = sext i32 %149 to i64, !dbg !1267
  %151 = getelementptr inbounds [4 x [8 x i8]], ptr %148, i64 0, i64 %150, !dbg !1267
  %152 = load i32, ptr %8, align 4, !dbg !1269
  %153 = sext i32 %152 to i64, !dbg !1267
  %154 = getelementptr inbounds [8 x i8], ptr %151, i64 0, i64 %153, !dbg !1267
  %155 = load i8, ptr %154, align 1, !dbg !1267
  %156 = sext i8 %155 to i64, !dbg !1267
  %157 = load i32, ptr %9, align 4, !dbg !1270
  call void @_ZL15transparent_crcmPci(i64 noundef %156, ptr noundef @.str.21, i32 noundef %157), !dbg !1271
  %158 = load i32, ptr %9, align 4, !dbg !1272
  %159 = icmp ne i32 %158, 0, !dbg !1272
  br i1 %159, label %160, label %165, !dbg !1274

160:                                              ; preds = %145
  %161 = load i32, ptr %6, align 4, !dbg !1275
  %162 = load i32, ptr %7, align 4, !dbg !1276
  %163 = load i32, ptr %8, align 4, !dbg !1277
  %164 = call i32 (ptr, ...) @printf(ptr noundef @.str.22, i32 noundef %161, i32 noundef %162, i32 noundef %163), !dbg !1278
  br label %165, !dbg !1278

165:                                              ; preds = %160, %145
  br label %166, !dbg !1279

166:                                              ; preds = %165
  %167 = load i32, ptr %8, align 4, !dbg !1280
  %168 = add nsw i32 %167, 1, !dbg !1280
  store i32 %168, ptr %8, align 4, !dbg !1280
  br label %142, !dbg !1281, !llvm.loop !1282

169:                                              ; preds = %142
  br label %170, !dbg !1284

170:                                              ; preds = %169
  %171 = load i32, ptr %7, align 4, !dbg !1285
  %172 = add nsw i32 %171, 1, !dbg !1285
  store i32 %172, ptr %7, align 4, !dbg !1285
  br label %138, !dbg !1286, !llvm.loop !1287

173:                                              ; preds = %138
  br label %174, !dbg !1289

174:                                              ; preds = %173
  %175 = load i32, ptr %6, align 4, !dbg !1290
  %176 = add nsw i32 %175, 1, !dbg !1290
  store i32 %176, ptr %6, align 4, !dbg !1290
  br label %134, !dbg !1291, !llvm.loop !1292

177:                                              ; preds = %134
  %178 = load i32, ptr %9, align 4, !dbg !1294
  call void @_ZL15transparent_crcmPci(i64 noundef 1267367629, ptr noundef @.str.23, i32 noundef %178), !dbg !1295
  %179 = load i32, ptr @_ZL5g_321, align 4, !dbg !1296
  %180 = sext i32 %179 to i64, !dbg !1296
  %181 = load i32, ptr %9, align 4, !dbg !1297
  call void @_ZL15transparent_crcmPci(i64 noundef %180, ptr noundef @.str.24, i32 noundef %181), !dbg !1298
  %182 = load volatile i32, ptr @_ZL5g_329, align 4, !dbg !1299
  %183 = sext i32 %182 to i64, !dbg !1299
  %184 = load i32, ptr %9, align 4, !dbg !1300
  call void @_ZL15transparent_crcmPci(i64 noundef %183, ptr noundef @.str.25, i32 noundef %184), !dbg !1301
  store i32 0, ptr %6, align 4, !dbg !1302
  br label %185, !dbg !1304

185:                                              ; preds = %225, %177
  %186 = load i32, ptr %6, align 4, !dbg !1305
  %187 = icmp slt i32 %186, 4, !dbg !1307
  br i1 %187, label %188, label %228, !dbg !1308

188:                                              ; preds = %185
  store i32 0, ptr %7, align 4, !dbg !1309
  br label %189, !dbg !1312

189:                                              ; preds = %221, %188
  %190 = load i32, ptr %7, align 4, !dbg !1313
  %191 = icmp slt i32 %190, 9, !dbg !1315
  br i1 %191, label %192, label %224, !dbg !1316

192:                                              ; preds = %189
  store i32 0, ptr %8, align 4, !dbg !1317
  br label %193, !dbg !1320

193:                                              ; preds = %217, %192
  %194 = load i32, ptr %8, align 4, !dbg !1321
  %195 = icmp slt i32 %194, 2, !dbg !1323
  br i1 %195, label %196, label %220, !dbg !1324

196:                                              ; preds = %193
  %197 = load i32, ptr %6, align 4, !dbg !1325
  %198 = sext i32 %197 to i64, !dbg !1327
  %199 = getelementptr inbounds [4 x [9 x [2 x i8]]], ptr @_ZL5g_348, i64 0, i64 %198, !dbg !1327
  %200 = load i32, ptr %7, align 4, !dbg !1328
  %201 = sext i32 %200 to i64, !dbg !1327
  %202 = getelementptr inbounds [9 x [2 x i8]], ptr %199, i64 0, i64 %201, !dbg !1327
  %203 = load i32, ptr %8, align 4, !dbg !1329
  %204 = sext i32 %203 to i64, !dbg !1327
  %205 = getelementptr inbounds [2 x i8], ptr %202, i64 0, i64 %204, !dbg !1327
  %206 = load i8, ptr %205, align 1, !dbg !1327
  %207 = zext i8 %206 to i64, !dbg !1327
  %208 = load i32, ptr %9, align 4, !dbg !1330
  call void @_ZL15transparent_crcmPci(i64 noundef %207, ptr noundef @.str.26, i32 noundef %208), !dbg !1331
  %209 = load i32, ptr %9, align 4, !dbg !1332
  %210 = icmp ne i32 %209, 0, !dbg !1332
  br i1 %210, label %211, label %216, !dbg !1334

211:                                              ; preds = %196
  %212 = load i32, ptr %6, align 4, !dbg !1335
  %213 = load i32, ptr %7, align 4, !dbg !1336
  %214 = load i32, ptr %8, align 4, !dbg !1337
  %215 = call i32 (ptr, ...) @printf(ptr noundef @.str.22, i32 noundef %212, i32 noundef %213, i32 noundef %214), !dbg !1338
  br label %216, !dbg !1338

216:                                              ; preds = %211, %196
  br label %217, !dbg !1339

217:                                              ; preds = %216
  %218 = load i32, ptr %8, align 4, !dbg !1340
  %219 = add nsw i32 %218, 1, !dbg !1340
  store i32 %219, ptr %8, align 4, !dbg !1340
  br label %193, !dbg !1341, !llvm.loop !1342

220:                                              ; preds = %193
  br label %221, !dbg !1344

221:                                              ; preds = %220
  %222 = load i32, ptr %7, align 4, !dbg !1345
  %223 = add nsw i32 %222, 1, !dbg !1345
  store i32 %223, ptr %7, align 4, !dbg !1345
  br label %189, !dbg !1346, !llvm.loop !1347

224:                                              ; preds = %189
  br label %225, !dbg !1349

225:                                              ; preds = %224
  %226 = load i32, ptr %6, align 4, !dbg !1350
  %227 = add nsw i32 %226, 1, !dbg !1350
  store i32 %227, ptr %6, align 4, !dbg !1350
  br label %185, !dbg !1351, !llvm.loop !1352

228:                                              ; preds = %185
  %229 = load i32, ptr %9, align 4, !dbg !1354
  call void @_ZL15transparent_crcmPci(i64 noundef -3, ptr noundef @.str.27, i32 noundef %229), !dbg !1355
  %230 = load i32, ptr %9, align 4, !dbg !1356
  call void @_ZL15transparent_crcmPci(i64 noundef 6, ptr noundef @.str.28, i32 noundef %230), !dbg !1357
  %231 = load i16, ptr @_ZL5g_496, align 2, !dbg !1358
  %232 = zext i16 %231 to i64, !dbg !1358
  %233 = load i32, ptr %9, align 4, !dbg !1359
  call void @_ZL15transparent_crcmPci(i64 noundef %232, ptr noundef @.str.29, i32 noundef %233), !dbg !1360
  store i32 0, ptr %6, align 4, !dbg !1361
  br label %234, !dbg !1363

234:                                              ; preds = %261, %228
  %235 = load i32, ptr %6, align 4, !dbg !1364
  %236 = icmp slt i32 %235, 10, !dbg !1366
  br i1 %236, label %237, label %264, !dbg !1367

237:                                              ; preds = %234
  store i32 0, ptr %7, align 4, !dbg !1368
  br label %238, !dbg !1371

238:                                              ; preds = %257, %237
  %239 = load i32, ptr %7, align 4, !dbg !1372
  %240 = icmp slt i32 %239, 5, !dbg !1374
  br i1 %240, label %241, label %260, !dbg !1375

241:                                              ; preds = %238
  %242 = load i32, ptr %6, align 4, !dbg !1376
  %243 = sext i32 %242 to i64, !dbg !1378
  %244 = getelementptr inbounds [10 x [5 x i64]], ptr @_ZL5g_505, i64 0, i64 %243, !dbg !1378
  %245 = load i32, ptr %7, align 4, !dbg !1379
  %246 = sext i32 %245 to i64, !dbg !1378
  %247 = getelementptr inbounds [5 x i64], ptr %244, i64 0, i64 %246, !dbg !1378
  %248 = load i64, ptr %247, align 8, !dbg !1378
  %249 = load i32, ptr %9, align 4, !dbg !1380
  call void @_ZL15transparent_crcmPci(i64 noundef %248, ptr noundef @.str.30, i32 noundef %249), !dbg !1381
  %250 = load i32, ptr %9, align 4, !dbg !1382
  %251 = icmp ne i32 %250, 0, !dbg !1382
  br i1 %251, label %252, label %256, !dbg !1384

252:                                              ; preds = %241
  %253 = load i32, ptr %6, align 4, !dbg !1385
  %254 = load i32, ptr %7, align 4, !dbg !1386
  %255 = call i32 (ptr, ...) @printf(ptr noundef @.str.2, i32 noundef %253, i32 noundef %254), !dbg !1387
  br label %256, !dbg !1387

256:                                              ; preds = %252, %241
  br label %257, !dbg !1388

257:                                              ; preds = %256
  %258 = load i32, ptr %7, align 4, !dbg !1389
  %259 = add nsw i32 %258, 1, !dbg !1389
  store i32 %259, ptr %7, align 4, !dbg !1389
  br label %238, !dbg !1390, !llvm.loop !1391

260:                                              ; preds = %238
  br label %261, !dbg !1393

261:                                              ; preds = %260
  %262 = load i32, ptr %6, align 4, !dbg !1394
  %263 = add nsw i32 %262, 1, !dbg !1394
  store i32 %263, ptr %6, align 4, !dbg !1394
  br label %234, !dbg !1395, !llvm.loop !1396

264:                                              ; preds = %234
  %265 = load i32, ptr %9, align 4, !dbg !1398
  call void @_ZL15transparent_crcmPci(i64 noundef 8297812175028322530, ptr noundef @.str.31, i32 noundef %265), !dbg !1399
  %266 = load i32, ptr %9, align 4, !dbg !1400
  call void @_ZL15transparent_crcmPci(i64 noundef 13, ptr noundef @.str.32, i32 noundef %266), !dbg !1401
  %267 = load i32, ptr %9, align 4, !dbg !1402
  call void @_ZL15transparent_crcmPci(i64 noundef 162, ptr noundef @.str.33, i32 noundef %267), !dbg !1403
  store i32 0, ptr %6, align 4, !dbg !1404
  br label %268, !dbg !1406

268:                                              ; preds = %296, %264
  %269 = load i32, ptr %6, align 4, !dbg !1407
  %270 = icmp slt i32 %269, 10, !dbg !1409
  br i1 %270, label %271, label %299, !dbg !1410

271:                                              ; preds = %268
  store i32 0, ptr %7, align 4, !dbg !1411
  br label %272, !dbg !1414

272:                                              ; preds = %292, %271
  %273 = load i32, ptr %7, align 4, !dbg !1415
  %274 = icmp slt i32 %273, 9, !dbg !1417
  br i1 %274, label %275, label %295, !dbg !1418

275:                                              ; preds = %272
  %276 = load i32, ptr %6, align 4, !dbg !1419
  %277 = sext i32 %276 to i64, !dbg !1421
  %278 = getelementptr inbounds [10 x [9 x %union.U1]], ptr @_ZL5g_628, i64 0, i64 %277, !dbg !1421
  %279 = load i32, ptr %7, align 4, !dbg !1422
  %280 = sext i32 %279 to i64, !dbg !1421
  %281 = getelementptr inbounds [9 x %union.U1], ptr %278, i64 0, i64 %280, !dbg !1421
  %282 = load i8, ptr %281, align 8, !dbg !1423
  %283 = sext i8 %282 to i64, !dbg !1421
  %284 = load i32, ptr %9, align 4, !dbg !1424
  call void @_ZL15transparent_crcmPci(i64 noundef %283, ptr noundef @.str.34, i32 noundef %284), !dbg !1425
  %285 = load i32, ptr %9, align 4, !dbg !1426
  %286 = icmp ne i32 %285, 0, !dbg !1426
  br i1 %286, label %287, label %291, !dbg !1428

287:                                              ; preds = %275
  %288 = load i32, ptr %6, align 4, !dbg !1429
  %289 = load i32, ptr %7, align 4, !dbg !1430
  %290 = call i32 (ptr, ...) @printf(ptr noundef @.str.2, i32 noundef %288, i32 noundef %289), !dbg !1431
  br label %291, !dbg !1431

291:                                              ; preds = %287, %275
  br label %292, !dbg !1432

292:                                              ; preds = %291
  %293 = load i32, ptr %7, align 4, !dbg !1433
  %294 = add nsw i32 %293, 1, !dbg !1433
  store i32 %294, ptr %7, align 4, !dbg !1433
  br label %272, !dbg !1434, !llvm.loop !1435

295:                                              ; preds = %272
  br label %296, !dbg !1437

296:                                              ; preds = %295
  %297 = load i32, ptr %6, align 4, !dbg !1438
  %298 = add nsw i32 %297, 1, !dbg !1438
  store i32 %298, ptr %6, align 4, !dbg !1438
  br label %268, !dbg !1439, !llvm.loop !1440

299:                                              ; preds = %268
  store i32 0, ptr %6, align 4, !dbg !1442
  br label %300, !dbg !1444

300:                                              ; preds = %316, %299
  %301 = load i32, ptr %6, align 4, !dbg !1445
  %302 = icmp slt i32 %301, 1, !dbg !1447
  br i1 %302, label %303, label %319, !dbg !1448

303:                                              ; preds = %300
  %304 = load i32, ptr %6, align 4, !dbg !1449
  %305 = sext i32 %304 to i64, !dbg !1451
  %306 = getelementptr inbounds [1 x i8], ptr @_ZL5g_632, i64 0, i64 %305, !dbg !1451
  %307 = load i8, ptr %306, align 1, !dbg !1451
  %308 = zext i8 %307 to i64, !dbg !1451
  %309 = load i32, ptr %9, align 4, !dbg !1452
  call void @_ZL15transparent_crcmPci(i64 noundef %308, ptr noundef @.str.35, i32 noundef %309), !dbg !1453
  %310 = load i32, ptr %9, align 4, !dbg !1454
  %311 = icmp ne i32 %310, 0, !dbg !1454
  br i1 %311, label %312, label %315, !dbg !1456

312:                                              ; preds = %303
  %313 = load i32, ptr %6, align 4, !dbg !1457
  %314 = call i32 (ptr, ...) @printf(ptr noundef @.str.8, i32 noundef %313), !dbg !1458
  br label %315, !dbg !1458

315:                                              ; preds = %312, %303
  br label %316, !dbg !1459

316:                                              ; preds = %315
  %317 = load i32, ptr %6, align 4, !dbg !1460
  %318 = add nsw i32 %317, 1, !dbg !1460
  store i32 %318, ptr %6, align 4, !dbg !1460
  br label %300, !dbg !1461, !llvm.loop !1462

319:                                              ; preds = %300
  %320 = load i8, ptr @_ZL5g_648, align 8, !dbg !1464
  %321 = sext i8 %320 to i64, !dbg !1465
  %322 = load i32, ptr %9, align 4, !dbg !1466
  call void @_ZL15transparent_crcmPci(i64 noundef %321, ptr noundef @.str.36, i32 noundef %322), !dbg !1467
  %323 = load volatile i16, ptr @_ZL5g_745, align 2, !dbg !1468
  %324 = sext i16 %323 to i64, !dbg !1468
  %325 = load i32, ptr %9, align 4, !dbg !1469
  call void @_ZL15transparent_crcmPci(i64 noundef %324, ptr noundef @.str.37, i32 noundef %325), !dbg !1470
  %326 = load volatile i16, ptr @_ZL5g_845, align 2, !dbg !1471
  %327 = sext i16 %326 to i64, !dbg !1471
  %328 = load i32, ptr %9, align 4, !dbg !1472
  call void @_ZL15transparent_crcmPci(i64 noundef %327, ptr noundef @.str.38, i32 noundef %328), !dbg !1473
  %329 = load volatile i8, ptr @_ZL5g_889, align 1, !dbg !1474
  %330 = sext i8 %329 to i64, !dbg !1474
  %331 = load i32, ptr %9, align 4, !dbg !1475
  call void @_ZL15transparent_crcmPci(i64 noundef %330, ptr noundef @.str.39, i32 noundef %331), !dbg !1476
  %332 = load i32, ptr @_ZL5g_891, align 4, !dbg !1477
  %333 = zext i32 %332 to i64, !dbg !1477
  %334 = load i32, ptr %9, align 4, !dbg !1478
  call void @_ZL15transparent_crcmPci(i64 noundef %333, ptr noundef @.str.40, i32 noundef %334), !dbg !1479
  %335 = load i32, ptr @_ZL5g_895, align 4, !dbg !1480
  %336 = sext i32 %335 to i64, !dbg !1480
  %337 = load i32, ptr %9, align 4, !dbg !1481
  call void @_ZL15transparent_crcmPci(i64 noundef %336, ptr noundef @.str.41, i32 noundef %337), !dbg !1482
  store i32 0, ptr %6, align 4, !dbg !1483
  br label %338, !dbg !1485

338:                                              ; preds = %366, %319
  %339 = load i32, ptr %6, align 4, !dbg !1486
  %340 = icmp slt i32 %339, 1, !dbg !1488
  br i1 %340, label %341, label %369, !dbg !1489

341:                                              ; preds = %338
  store i32 0, ptr %7, align 4, !dbg !1490
  br label %342, !dbg !1493

342:                                              ; preds = %362, %341
  %343 = load i32, ptr %7, align 4, !dbg !1494
  %344 = icmp slt i32 %343, 4, !dbg !1496
  br i1 %344, label %345, label %365, !dbg !1497

345:                                              ; preds = %342
  %346 = load i32, ptr %6, align 4, !dbg !1498
  %347 = sext i32 %346 to i64, !dbg !1500
  %348 = getelementptr inbounds [1 x [4 x i32]], ptr @_ZL5g_896, i64 0, i64 %347, !dbg !1500
  %349 = load i32, ptr %7, align 4, !dbg !1501
  %350 = sext i32 %349 to i64, !dbg !1500
  %351 = getelementptr inbounds [4 x i32], ptr %348, i64 0, i64 %350, !dbg !1500
  %352 = load i32, ptr %351, align 4, !dbg !1500
  %353 = sext i32 %352 to i64, !dbg !1500
  %354 = load i32, ptr %9, align 4, !dbg !1502
  call void @_ZL15transparent_crcmPci(i64 noundef %353, ptr noundef @.str.42, i32 noundef %354), !dbg !1503
  %355 = load i32, ptr %9, align 4, !dbg !1504
  %356 = icmp ne i32 %355, 0, !dbg !1504
  br i1 %356, label %357, label %361, !dbg !1506

357:                                              ; preds = %345
  %358 = load i32, ptr %6, align 4, !dbg !1507
  %359 = load i32, ptr %7, align 4, !dbg !1508
  %360 = call i32 (ptr, ...) @printf(ptr noundef @.str.2, i32 noundef %358, i32 noundef %359), !dbg !1509
  br label %361, !dbg !1509

361:                                              ; preds = %357, %345
  br label %362, !dbg !1510

362:                                              ; preds = %361
  %363 = load i32, ptr %7, align 4, !dbg !1511
  %364 = add nsw i32 %363, 1, !dbg !1511
  store i32 %364, ptr %7, align 4, !dbg !1511
  br label %342, !dbg !1512, !llvm.loop !1513

365:                                              ; preds = %342
  br label %366, !dbg !1515

366:                                              ; preds = %365
  %367 = load i32, ptr %6, align 4, !dbg !1516
  %368 = add nsw i32 %367, 1, !dbg !1516
  store i32 %368, ptr %6, align 4, !dbg !1516
  br label %338, !dbg !1517, !llvm.loop !1518

369:                                              ; preds = %338
  %370 = load i32, ptr @_ZL5g_897, align 4, !dbg !1520
  %371 = sext i32 %370 to i64, !dbg !1520
  %372 = load i32, ptr %9, align 4, !dbg !1521
  call void @_ZL15transparent_crcmPci(i64 noundef %371, ptr noundef @.str.43, i32 noundef %372), !dbg !1522
  %373 = load i32, ptr @_ZL5g_898, align 4, !dbg !1523
  %374 = sext i32 %373 to i64, !dbg !1523
  %375 = load i32, ptr %9, align 4, !dbg !1524
  call void @_ZL15transparent_crcmPci(i64 noundef %374, ptr noundef @.str.44, i32 noundef %375), !dbg !1525
  %376 = load i32, ptr @_ZL5g_899, align 4, !dbg !1526
  %377 = sext i32 %376 to i64, !dbg !1526
  %378 = load i32, ptr %9, align 4, !dbg !1527
  call void @_ZL15transparent_crcmPci(i64 noundef %377, ptr noundef @.str.45, i32 noundef %378), !dbg !1528
  %379 = load i32, ptr @_ZL5g_900, align 4, !dbg !1529
  %380 = sext i32 %379 to i64, !dbg !1529
  %381 = load i32, ptr %9, align 4, !dbg !1530
  call void @_ZL15transparent_crcmPci(i64 noundef %380, ptr noundef @.str.46, i32 noundef %381), !dbg !1531
  %382 = load i32, ptr @_ZL5g_901, align 4, !dbg !1532
  %383 = sext i32 %382 to i64, !dbg !1532
  %384 = load i32, ptr %9, align 4, !dbg !1533
  call void @_ZL15transparent_crcmPci(i64 noundef %383, ptr noundef @.str.47, i32 noundef %384), !dbg !1534
  store i32 0, ptr %6, align 4, !dbg !1535
  br label %385, !dbg !1537

385:                                              ; preds = %413, %369
  %386 = load i32, ptr %6, align 4, !dbg !1538
  %387 = icmp slt i32 %386, 6, !dbg !1540
  br i1 %387, label %388, label %416, !dbg !1541

388:                                              ; preds = %385
  store i32 0, ptr %7, align 4, !dbg !1542
  br label %389, !dbg !1545

389:                                              ; preds = %409, %388
  %390 = load i32, ptr %7, align 4, !dbg !1546
  %391 = icmp slt i32 %390, 9, !dbg !1548
  br i1 %391, label %392, label %412, !dbg !1549

392:                                              ; preds = %389
  %393 = load i32, ptr %6, align 4, !dbg !1550
  %394 = sext i32 %393 to i64, !dbg !1552
  %395 = getelementptr inbounds [6 x [9 x i32]], ptr @_ZL5g_902, i64 0, i64 %394, !dbg !1552
  %396 = load i32, ptr %7, align 4, !dbg !1553
  %397 = sext i32 %396 to i64, !dbg !1552
  %398 = getelementptr inbounds [9 x i32], ptr %395, i64 0, i64 %397, !dbg !1552
  %399 = load i32, ptr %398, align 4, !dbg !1552
  %400 = sext i32 %399 to i64, !dbg !1552
  %401 = load i32, ptr %9, align 4, !dbg !1554
  call void @_ZL15transparent_crcmPci(i64 noundef %400, ptr noundef @.str.48, i32 noundef %401), !dbg !1555
  %402 = load i32, ptr %9, align 4, !dbg !1556
  %403 = icmp ne i32 %402, 0, !dbg !1556
  br i1 %403, label %404, label %408, !dbg !1558

404:                                              ; preds = %392
  %405 = load i32, ptr %6, align 4, !dbg !1559
  %406 = load i32, ptr %7, align 4, !dbg !1560
  %407 = call i32 (ptr, ...) @printf(ptr noundef @.str.2, i32 noundef %405, i32 noundef %406), !dbg !1561
  br label %408, !dbg !1561

408:                                              ; preds = %404, %392
  br label %409, !dbg !1562

409:                                              ; preds = %408
  %410 = load i32, ptr %7, align 4, !dbg !1563
  %411 = add nsw i32 %410, 1, !dbg !1563
  store i32 %411, ptr %7, align 4, !dbg !1563
  br label %389, !dbg !1564, !llvm.loop !1565

412:                                              ; preds = %389
  br label %413, !dbg !1567

413:                                              ; preds = %412
  %414 = load i32, ptr %6, align 4, !dbg !1568
  %415 = add nsw i32 %414, 1, !dbg !1568
  store i32 %415, ptr %6, align 4, !dbg !1568
  br label %385, !dbg !1569, !llvm.loop !1570

416:                                              ; preds = %385
  %417 = load i32, ptr @_ZL5g_903, align 4, !dbg !1572
  %418 = sext i32 %417 to i64, !dbg !1572
  %419 = load i32, ptr %9, align 4, !dbg !1573
  call void @_ZL15transparent_crcmPci(i64 noundef %418, ptr noundef @.str.49, i32 noundef %419), !dbg !1574
  %420 = load i32, ptr @_ZL5g_904, align 4, !dbg !1575
  %421 = sext i32 %420 to i64, !dbg !1575
  %422 = load i32, ptr %9, align 4, !dbg !1576
  call void @_ZL15transparent_crcmPci(i64 noundef %421, ptr noundef @.str.50, i32 noundef %422), !dbg !1577
  %423 = load i32, ptr @_ZL5g_905, align 4, !dbg !1578
  %424 = sext i32 %423 to i64, !dbg !1578
  %425 = load i32, ptr %9, align 4, !dbg !1579
  call void @_ZL15transparent_crcmPci(i64 noundef %424, ptr noundef @.str.51, i32 noundef %425), !dbg !1580
  store i32 0, ptr %6, align 4, !dbg !1581
  br label %426, !dbg !1583

426:                                              ; preds = %466, %416
  %427 = load i32, ptr %6, align 4, !dbg !1584
  %428 = icmp slt i32 %427, 10, !dbg !1586
  br i1 %428, label %429, label %469, !dbg !1587

429:                                              ; preds = %426
  store i32 0, ptr %7, align 4, !dbg !1588
  br label %430, !dbg !1591

430:                                              ; preds = %462, %429
  %431 = load i32, ptr %7, align 4, !dbg !1592
  %432 = icmp slt i32 %431, 9, !dbg !1594
  br i1 %432, label %433, label %465, !dbg !1595

433:                                              ; preds = %430
  store i32 0, ptr %8, align 4, !dbg !1596
  br label %434, !dbg !1599

434:                                              ; preds = %458, %433
  %435 = load i32, ptr %8, align 4, !dbg !1600
  %436 = icmp slt i32 %435, 2, !dbg !1602
  br i1 %436, label %437, label %461, !dbg !1603

437:                                              ; preds = %434
  %438 = load i32, ptr %6, align 4, !dbg !1604
  %439 = sext i32 %438 to i64, !dbg !1606
  %440 = getelementptr inbounds [10 x [9 x [2 x i32]]], ptr @_ZL5g_906, i64 0, i64 %439, !dbg !1606
  %441 = load i32, ptr %7, align 4, !dbg !1607
  %442 = sext i32 %441 to i64, !dbg !1606
  %443 = getelementptr inbounds [9 x [2 x i32]], ptr %440, i64 0, i64 %442, !dbg !1606
  %444 = load i32, ptr %8, align 4, !dbg !1608
  %445 = sext i32 %444 to i64, !dbg !1606
  %446 = getelementptr inbounds [2 x i32], ptr %443, i64 0, i64 %445, !dbg !1606
  %447 = load i32, ptr %446, align 4, !dbg !1606
  %448 = sext i32 %447 to i64, !dbg !1606
  %449 = load i32, ptr %9, align 4, !dbg !1609
  call void @_ZL15transparent_crcmPci(i64 noundef %448, ptr noundef @.str.52, i32 noundef %449), !dbg !1610
  %450 = load i32, ptr %9, align 4, !dbg !1611
  %451 = icmp ne i32 %450, 0, !dbg !1611
  br i1 %451, label %452, label %457, !dbg !1613

452:                                              ; preds = %437
  %453 = load i32, ptr %6, align 4, !dbg !1614
  %454 = load i32, ptr %7, align 4, !dbg !1615
  %455 = load i32, ptr %8, align 4, !dbg !1616
  %456 = call i32 (ptr, ...) @printf(ptr noundef @.str.22, i32 noundef %453, i32 noundef %454, i32 noundef %455), !dbg !1617
  br label %457, !dbg !1617

457:                                              ; preds = %452, %437
  br label %458, !dbg !1618

458:                                              ; preds = %457
  %459 = load i32, ptr %8, align 4, !dbg !1619
  %460 = add nsw i32 %459, 1, !dbg !1619
  store i32 %460, ptr %8, align 4, !dbg !1619
  br label %434, !dbg !1620, !llvm.loop !1621

461:                                              ; preds = %434
  br label %462, !dbg !1623

462:                                              ; preds = %461
  %463 = load i32, ptr %7, align 4, !dbg !1624
  %464 = add nsw i32 %463, 1, !dbg !1624
  store i32 %464, ptr %7, align 4, !dbg !1624
  br label %430, !dbg !1625, !llvm.loop !1626

465:                                              ; preds = %430
  br label %466, !dbg !1628

466:                                              ; preds = %465
  %467 = load i32, ptr %6, align 4, !dbg !1629
  %468 = add nsw i32 %467, 1, !dbg !1629
  store i32 %468, ptr %6, align 4, !dbg !1629
  br label %426, !dbg !1630, !llvm.loop !1631

469:                                              ; preds = %426
  %470 = load i32, ptr @_ZL5g_907, align 4, !dbg !1633
  %471 = sext i32 %470 to i64, !dbg !1633
  %472 = load i32, ptr %9, align 4, !dbg !1634
  call void @_ZL15transparent_crcmPci(i64 noundef %471, ptr noundef @.str.53, i32 noundef %472), !dbg !1635
  %473 = load i32, ptr @_ZL5g_908, align 4, !dbg !1636
  %474 = sext i32 %473 to i64, !dbg !1636
  %475 = load i32, ptr %9, align 4, !dbg !1637
  call void @_ZL15transparent_crcmPci(i64 noundef %474, ptr noundef @.str.54, i32 noundef %475), !dbg !1638
  %476 = load i32, ptr @_ZL5g_909, align 4, !dbg !1639
  %477 = sext i32 %476 to i64, !dbg !1639
  %478 = load i32, ptr %9, align 4, !dbg !1640
  call void @_ZL15transparent_crcmPci(i64 noundef %477, ptr noundef @.str.55, i32 noundef %478), !dbg !1641
  %479 = load i32, ptr @_ZL5g_910, align 4, !dbg !1642
  %480 = sext i32 %479 to i64, !dbg !1642
  %481 = load i32, ptr %9, align 4, !dbg !1643
  call void @_ZL15transparent_crcmPci(i64 noundef %480, ptr noundef @.str.56, i32 noundef %481), !dbg !1644
  %482 = load i32, ptr @_ZL5g_911, align 4, !dbg !1645
  %483 = sext i32 %482 to i64, !dbg !1645
  %484 = load i32, ptr %9, align 4, !dbg !1646
  call void @_ZL15transparent_crcmPci(i64 noundef %483, ptr noundef @.str.57, i32 noundef %484), !dbg !1647
  %485 = load i32, ptr @_ZL5g_912, align 4, !dbg !1648
  %486 = sext i32 %485 to i64, !dbg !1648
  %487 = load i32, ptr %9, align 4, !dbg !1649
  call void @_ZL15transparent_crcmPci(i64 noundef %486, ptr noundef @.str.58, i32 noundef %487), !dbg !1650
  %488 = load i32, ptr @_ZL5g_913, align 4, !dbg !1651
  %489 = sext i32 %488 to i64, !dbg !1651
  %490 = load i32, ptr %9, align 4, !dbg !1652
  call void @_ZL15transparent_crcmPci(i64 noundef %489, ptr noundef @.str.59, i32 noundef %490), !dbg !1653
  %491 = load i32, ptr @_ZL5g_917, align 4, !dbg !1654
  %492 = zext i32 %491 to i64, !dbg !1655
  %493 = load i32, ptr %9, align 4, !dbg !1656
  call void @_ZL15transparent_crcmPci(i64 noundef %492, ptr noundef @.str.60, i32 noundef %493), !dbg !1657
  %494 = load i64, ptr @_ZL5g_966, align 8, !dbg !1658
  %495 = load i32, ptr %9, align 4, !dbg !1659
  call void @_ZL15transparent_crcmPci(i64 noundef %494, ptr noundef @.str.61, i32 noundef %495), !dbg !1660
  %496 = load i64, ptr @_ZL5g_981, align 8, !dbg !1661
  %497 = load i32, ptr %9, align 4, !dbg !1662
  call void @_ZL15transparent_crcmPci(i64 noundef %496, ptr noundef @.str.62, i32 noundef %497), !dbg !1663
  %498 = load i32, ptr %9, align 4, !dbg !1664
  call void @_ZL15transparent_crcmPci(i64 noundef 6610021086835380521, ptr noundef @.str.63, i32 noundef %498), !dbg !1665
  %499 = load i8, ptr @_ZL6g_1114, align 1, !dbg !1666
  %500 = zext i8 %499 to i64, !dbg !1666
  %501 = load i32, ptr %9, align 4, !dbg !1667
  call void @_ZL15transparent_crcmPci(i64 noundef %500, ptr noundef @.str.64, i32 noundef %501), !dbg !1668
  %502 = load i8, ptr @_ZL6g_1115, align 1, !dbg !1669
  %503 = zext i8 %502 to i64, !dbg !1669
  %504 = load i32, ptr %9, align 4, !dbg !1670
  call void @_ZL15transparent_crcmPci(i64 noundef %503, ptr noundef @.str.65, i32 noundef %504), !dbg !1671
  store i32 0, ptr %6, align 4, !dbg !1672
  br label %505, !dbg !1674

505:                                              ; preds = %521, %469
  %506 = load i32, ptr %6, align 4, !dbg !1675
  %507 = icmp slt i32 %506, 10, !dbg !1677
  br i1 %507, label %508, label %524, !dbg !1678

508:                                              ; preds = %505
  %509 = load i32, ptr %6, align 4, !dbg !1679
  %510 = sext i32 %509 to i64, !dbg !1681
  %511 = getelementptr inbounds [10 x i8], ptr @_ZL6g_1116, i64 0, i64 %510, !dbg !1681
  %512 = load i8, ptr %511, align 1, !dbg !1681
  %513 = zext i8 %512 to i64, !dbg !1681
  %514 = load i32, ptr %9, align 4, !dbg !1682
  call void @_ZL15transparent_crcmPci(i64 noundef %513, ptr noundef @.str.66, i32 noundef %514), !dbg !1683
  %515 = load i32, ptr %9, align 4, !dbg !1684
  %516 = icmp ne i32 %515, 0, !dbg !1684
  br i1 %516, label %517, label %520, !dbg !1686

517:                                              ; preds = %508
  %518 = load i32, ptr %6, align 4, !dbg !1687
  %519 = call i32 (ptr, ...) @printf(ptr noundef @.str.8, i32 noundef %518), !dbg !1688
  br label %520, !dbg !1688

520:                                              ; preds = %517, %508
  br label %521, !dbg !1689

521:                                              ; preds = %520
  %522 = load i32, ptr %6, align 4, !dbg !1690
  %523 = add nsw i32 %522, 1, !dbg !1690
  store i32 %523, ptr %6, align 4, !dbg !1690
  br label %505, !dbg !1691, !llvm.loop !1692

524:                                              ; preds = %505
  %525 = load i8, ptr @_ZL6g_1117, align 1, !dbg !1694
  %526 = zext i8 %525 to i64, !dbg !1694
  %527 = load i32, ptr %9, align 4, !dbg !1695
  call void @_ZL15transparent_crcmPci(i64 noundef %526, ptr noundef @.str.67, i32 noundef %527), !dbg !1696
  %528 = load i8, ptr @_ZL6g_1118, align 1, !dbg !1697
  %529 = zext i8 %528 to i64, !dbg !1697
  %530 = load i32, ptr %9, align 4, !dbg !1698
  call void @_ZL15transparent_crcmPci(i64 noundef %529, ptr noundef @.str.68, i32 noundef %530), !dbg !1699
  store i32 0, ptr %6, align 4, !dbg !1700
  br label %531, !dbg !1702

531:                                              ; preds = %559, %524
  %532 = load i32, ptr %6, align 4, !dbg !1703
  %533 = icmp slt i32 %532, 10, !dbg !1705
  br i1 %533, label %534, label %562, !dbg !1706

534:                                              ; preds = %531
  store i32 0, ptr %7, align 4, !dbg !1707
  br label %535, !dbg !1710

535:                                              ; preds = %555, %534
  %536 = load i32, ptr %7, align 4, !dbg !1711
  %537 = icmp slt i32 %536, 10, !dbg !1713
  br i1 %537, label %538, label %558, !dbg !1714

538:                                              ; preds = %535
  %539 = load i32, ptr %6, align 4, !dbg !1715
  %540 = sext i32 %539 to i64, !dbg !1717
  %541 = getelementptr inbounds [10 x [10 x i8]], ptr @_ZL6g_1119, i64 0, i64 %540, !dbg !1717
  %542 = load i32, ptr %7, align 4, !dbg !1718
  %543 = sext i32 %542 to i64, !dbg !1717
  %544 = getelementptr inbounds [10 x i8], ptr %541, i64 0, i64 %543, !dbg !1717
  %545 = load i8, ptr %544, align 1, !dbg !1717
  %546 = zext i8 %545 to i64, !dbg !1717
  %547 = load i32, ptr %9, align 4, !dbg !1719
  call void @_ZL15transparent_crcmPci(i64 noundef %546, ptr noundef @.str.69, i32 noundef %547), !dbg !1720
  %548 = load i32, ptr %9, align 4, !dbg !1721
  %549 = icmp ne i32 %548, 0, !dbg !1721
  br i1 %549, label %550, label %554, !dbg !1723

550:                                              ; preds = %538
  %551 = load i32, ptr %6, align 4, !dbg !1724
  %552 = load i32, ptr %7, align 4, !dbg !1725
  %553 = call i32 (ptr, ...) @printf(ptr noundef @.str.2, i32 noundef %551, i32 noundef %552), !dbg !1726
  br label %554, !dbg !1726

554:                                              ; preds = %550, %538
  br label %555, !dbg !1727

555:                                              ; preds = %554
  %556 = load i32, ptr %7, align 4, !dbg !1728
  %557 = add nsw i32 %556, 1, !dbg !1728
  store i32 %557, ptr %7, align 4, !dbg !1728
  br label %535, !dbg !1729, !llvm.loop !1730

558:                                              ; preds = %535
  br label %559, !dbg !1732

559:                                              ; preds = %558
  %560 = load i32, ptr %6, align 4, !dbg !1733
  %561 = add nsw i32 %560, 1, !dbg !1733
  store i32 %561, ptr %6, align 4, !dbg !1733
  br label %531, !dbg !1734, !llvm.loop !1735

562:                                              ; preds = %531
  %563 = load i8, ptr @_ZL6g_1120, align 1, !dbg !1737
  %564 = zext i8 %563 to i64, !dbg !1737
  %565 = load i32, ptr %9, align 4, !dbg !1738
  call void @_ZL15transparent_crcmPci(i64 noundef %564, ptr noundef @.str.70, i32 noundef %565), !dbg !1739
  %566 = load i8, ptr @_ZL6g_1121, align 1, !dbg !1740
  %567 = zext i8 %566 to i64, !dbg !1740
  %568 = load i32, ptr %9, align 4, !dbg !1741
  call void @_ZL15transparent_crcmPci(i64 noundef %567, ptr noundef @.str.71, i32 noundef %568), !dbg !1742
  %569 = load i8, ptr @_ZL6g_1122, align 1, !dbg !1743
  %570 = zext i8 %569 to i64, !dbg !1743
  %571 = load i32, ptr %9, align 4, !dbg !1744
  call void @_ZL15transparent_crcmPci(i64 noundef %570, ptr noundef @.str.72, i32 noundef %571), !dbg !1745
  %572 = load i8, ptr @_ZL6g_1123, align 1, !dbg !1746
  %573 = zext i8 %572 to i64, !dbg !1746
  %574 = load i32, ptr %9, align 4, !dbg !1747
  call void @_ZL15transparent_crcmPci(i64 noundef %573, ptr noundef @.str.73, i32 noundef %574), !dbg !1748
  %575 = load i8, ptr @_ZL6g_1124, align 1, !dbg !1749
  %576 = zext i8 %575 to i64, !dbg !1749
  %577 = load i32, ptr %9, align 4, !dbg !1750
  call void @_ZL15transparent_crcmPci(i64 noundef %576, ptr noundef @.str.74, i32 noundef %577), !dbg !1751
  %578 = load i8, ptr @_ZL6g_1125, align 1, !dbg !1752
  %579 = zext i8 %578 to i64, !dbg !1752
  %580 = load i32, ptr %9, align 4, !dbg !1753
  call void @_ZL15transparent_crcmPci(i64 noundef %579, ptr noundef @.str.75, i32 noundef %580), !dbg !1754
  %581 = load i8, ptr @_ZL6g_1126, align 1, !dbg !1755
  %582 = zext i8 %581 to i64, !dbg !1755
  %583 = load i32, ptr %9, align 4, !dbg !1756
  call void @_ZL15transparent_crcmPci(i64 noundef %582, ptr noundef @.str.76, i32 noundef %583), !dbg !1757
  %584 = load i8, ptr @_ZL6g_1127, align 1, !dbg !1758
  %585 = zext i8 %584 to i64, !dbg !1758
  %586 = load i32, ptr %9, align 4, !dbg !1759
  call void @_ZL15transparent_crcmPci(i64 noundef %585, ptr noundef @.str.77, i32 noundef %586), !dbg !1760
  %587 = load i8, ptr @_ZL6g_1128, align 1, !dbg !1761
  %588 = zext i8 %587 to i64, !dbg !1761
  %589 = load i32, ptr %9, align 4, !dbg !1762
  call void @_ZL15transparent_crcmPci(i64 noundef %588, ptr noundef @.str.78, i32 noundef %589), !dbg !1763
  store i32 0, ptr %6, align 4, !dbg !1764
  br label %590, !dbg !1766

590:                                              ; preds = %617, %562
  %591 = load i32, ptr %6, align 4, !dbg !1767
  %592 = icmp slt i32 %591, 6, !dbg !1769
  br i1 %592, label %593, label %620, !dbg !1770

593:                                              ; preds = %590
  store i32 0, ptr %7, align 4, !dbg !1771
  br label %594, !dbg !1774

594:                                              ; preds = %613, %593
  %595 = load i32, ptr %7, align 4, !dbg !1775
  %596 = icmp slt i32 %595, 1, !dbg !1777
  br i1 %596, label %597, label %616, !dbg !1778

597:                                              ; preds = %594
  %598 = load i32, ptr %6, align 4, !dbg !1779
  %599 = sext i32 %598 to i64, !dbg !1781
  %600 = getelementptr inbounds [6 x [1 x i64]], ptr @_ZL6g_1162, i64 0, i64 %599, !dbg !1781
  %601 = load i32, ptr %7, align 4, !dbg !1782
  %602 = sext i32 %601 to i64, !dbg !1781
  %603 = getelementptr inbounds [1 x i64], ptr %600, i64 0, i64 %602, !dbg !1781
  %604 = load i64, ptr %603, align 8, !dbg !1781
  %605 = load i32, ptr %9, align 4, !dbg !1783
  call void @_ZL15transparent_crcmPci(i64 noundef %604, ptr noundef @.str.79, i32 noundef %605), !dbg !1784
  %606 = load i32, ptr %9, align 4, !dbg !1785
  %607 = icmp ne i32 %606, 0, !dbg !1785
  br i1 %607, label %608, label %612, !dbg !1787

608:                                              ; preds = %597
  %609 = load i32, ptr %6, align 4, !dbg !1788
  %610 = load i32, ptr %7, align 4, !dbg !1789
  %611 = call i32 (ptr, ...) @printf(ptr noundef @.str.2, i32 noundef %609, i32 noundef %610), !dbg !1790
  br label %612, !dbg !1790

612:                                              ; preds = %608, %597
  br label %613, !dbg !1791

613:                                              ; preds = %612
  %614 = load i32, ptr %7, align 4, !dbg !1792
  %615 = add nsw i32 %614, 1, !dbg !1792
  store i32 %615, ptr %7, align 4, !dbg !1792
  br label %594, !dbg !1793, !llvm.loop !1794

616:                                              ; preds = %594
  br label %617, !dbg !1796

617:                                              ; preds = %616
  %618 = load i32, ptr %6, align 4, !dbg !1797
  %619 = add nsw i32 %618, 1, !dbg !1797
  store i32 %619, ptr %6, align 4, !dbg !1797
  br label %590, !dbg !1798, !llvm.loop !1799

620:                                              ; preds = %590
  %621 = load i32, ptr %9, align 4, !dbg !1801
  call void @_ZL15transparent_crcmPci(i64 noundef 9, ptr noundef @.str.80, i32 noundef %621), !dbg !1802
  store i32 0, ptr %6, align 4, !dbg !1803
  br label %622, !dbg !1805

622:                                              ; preds = %637, %620
  %623 = load i32, ptr %6, align 4, !dbg !1806
  %624 = icmp slt i32 %623, 4, !dbg !1808
  br i1 %624, label %625, label %640, !dbg !1809

625:                                              ; preds = %622
  %626 = load i32, ptr %6, align 4, !dbg !1810
  %627 = sext i32 %626 to i64, !dbg !1812
  %628 = getelementptr inbounds [4 x %union.U2], ptr @_ZL6g_1254, i64 0, i64 %627, !dbg !1812
  %629 = load i64, ptr %628, align 8, !dbg !1813
  %630 = load i32, ptr %9, align 4, !dbg !1814
  call void @_ZL15transparent_crcmPci(i64 noundef %629, ptr noundef @.str.81, i32 noundef %630), !dbg !1815
  %631 = load i32, ptr %9, align 4, !dbg !1816
  %632 = icmp ne i32 %631, 0, !dbg !1816
  br i1 %632, label %633, label %636, !dbg !1818

633:                                              ; preds = %625
  %634 = load i32, ptr %6, align 4, !dbg !1819
  %635 = call i32 (ptr, ...) @printf(ptr noundef @.str.8, i32 noundef %634), !dbg !1820
  br label %636, !dbg !1820

636:                                              ; preds = %633, %625
  br label %637, !dbg !1821

637:                                              ; preds = %636
  %638 = load i32, ptr %6, align 4, !dbg !1822
  %639 = add nsw i32 %638, 1, !dbg !1822
  store i32 %639, ptr %6, align 4, !dbg !1822
  br label %622, !dbg !1823, !llvm.loop !1824

640:                                              ; preds = %622
  %641 = load i32, ptr @_ZL6g_1263, align 4, !dbg !1826
  %642 = zext i32 %641 to i64, !dbg !1826
  %643 = load i32, ptr %9, align 4, !dbg !1827
  call void @_ZL15transparent_crcmPci(i64 noundef %642, ptr noundef @.str.82, i32 noundef %643), !dbg !1828
  store i32 0, ptr %6, align 4, !dbg !1829
  br label %644, !dbg !1831

644:                                              ; preds = %659, %640
  %645 = load i32, ptr %6, align 4, !dbg !1832
  %646 = icmp slt i32 %645, 4, !dbg !1834
  br i1 %646, label %647, label %662, !dbg !1835

647:                                              ; preds = %644
  %648 = load i32, ptr %6, align 4, !dbg !1836
  %649 = sext i32 %648 to i64, !dbg !1838
  %650 = getelementptr inbounds [4 x %union.U2], ptr @_ZL6g_1393, i64 0, i64 %649, !dbg !1838
  %651 = load i64, ptr %650, align 8, !dbg !1839
  %652 = load i32, ptr %9, align 4, !dbg !1840
  call void @_ZL15transparent_crcmPci(i64 noundef %651, ptr noundef @.str.83, i32 noundef %652), !dbg !1841
  %653 = load i32, ptr %9, align 4, !dbg !1842
  %654 = icmp ne i32 %653, 0, !dbg !1842
  br i1 %654, label %655, label %658, !dbg !1844

655:                                              ; preds = %647
  %656 = load i32, ptr %6, align 4, !dbg !1845
  %657 = call i32 (ptr, ...) @printf(ptr noundef @.str.8, i32 noundef %656), !dbg !1846
  br label %658, !dbg !1846

658:                                              ; preds = %655, %647
  br label %659, !dbg !1847

659:                                              ; preds = %658
  %660 = load i32, ptr %6, align 4, !dbg !1848
  %661 = add nsw i32 %660, 1, !dbg !1848
  store i32 %661, ptr %6, align 4, !dbg !1848
  br label %644, !dbg !1849, !llvm.loop !1850

662:                                              ; preds = %644
  %663 = load i64, ptr @_ZL6g_1395, align 8, !dbg !1852
  %664 = load i32, ptr %9, align 4, !dbg !1853
  call void @_ZL15transparent_crcmPci(i64 noundef %663, ptr noundef @.str.84, i32 noundef %664), !dbg !1854
  %665 = load i16, ptr @_ZL6g_1425, align 2, !dbg !1855
  %666 = sext i16 %665 to i64, !dbg !1855
  %667 = load i32, ptr %9, align 4, !dbg !1856
  call void @_ZL15transparent_crcmPci(i64 noundef %666, ptr noundef @.str.85, i32 noundef %667), !dbg !1857
  %668 = load volatile i32, ptr @_ZL6g_1455, align 4, !dbg !1858
  %669 = zext i32 %668 to i64, !dbg !1858
  %670 = load i32, ptr %9, align 4, !dbg !1859
  call void @_ZL15transparent_crcmPci(i64 noundef %669, ptr noundef @.str.86, i32 noundef %670), !dbg !1860
  store i32 0, ptr %6, align 4, !dbg !1861
  br label %671, !dbg !1863

671:                                              ; preds = %687, %662
  %672 = load i32, ptr %6, align 4, !dbg !1864
  %673 = icmp slt i32 %672, 7, !dbg !1866
  br i1 %673, label %674, label %690, !dbg !1867

674:                                              ; preds = %671
  %675 = load i32, ptr %6, align 4, !dbg !1868
  %676 = sext i32 %675 to i64, !dbg !1870
  %677 = getelementptr inbounds [7 x %union.U4], ptr @_ZL6g_1483, i64 0, i64 %676, !dbg !1870
  %678 = load i32, ptr %677, align 4, !dbg !1871
  %679 = zext i32 %678 to i64, !dbg !1870
  %680 = load i32, ptr %9, align 4, !dbg !1872
  call void @_ZL15transparent_crcmPci(i64 noundef %679, ptr noundef @.str.87, i32 noundef %680), !dbg !1873
  %681 = load i32, ptr %9, align 4, !dbg !1874
  %682 = icmp ne i32 %681, 0, !dbg !1874
  br i1 %682, label %683, label %686, !dbg !1876

683:                                              ; preds = %674
  %684 = load i32, ptr %6, align 4, !dbg !1877
  %685 = call i32 (ptr, ...) @printf(ptr noundef @.str.8, i32 noundef %684), !dbg !1878
  br label %686, !dbg !1878

686:                                              ; preds = %683, %674
  br label %687, !dbg !1879

687:                                              ; preds = %686
  %688 = load i32, ptr %6, align 4, !dbg !1880
  %689 = add nsw i32 %688, 1, !dbg !1880
  store i32 %689, ptr %6, align 4, !dbg !1880
  br label %671, !dbg !1881, !llvm.loop !1882

690:                                              ; preds = %671
  %691 = load i32, ptr @_ZL6g_1485, align 4, !dbg !1884
  %692 = zext i32 %691 to i64, !dbg !1885
  %693 = load i32, ptr %9, align 4, !dbg !1886
  call void @_ZL15transparent_crcmPci(i64 noundef %692, ptr noundef @.str.88, i32 noundef %693), !dbg !1887
  store i32 0, ptr %6, align 4, !dbg !1888
  br label %694, !dbg !1890

694:                                              ; preds = %734, %690
  %695 = load i32, ptr %6, align 4, !dbg !1891
  %696 = icmp slt i32 %695, 8, !dbg !1893
  br i1 %696, label %697, label %737, !dbg !1894

697:                                              ; preds = %694
  store i32 0, ptr %7, align 4, !dbg !1895
  br label %698, !dbg !1898

698:                                              ; preds = %730, %697
  %699 = load i32, ptr %7, align 4, !dbg !1899
  %700 = icmp slt i32 %699, 5, !dbg !1901
  br i1 %700, label %701, label %733, !dbg !1902

701:                                              ; preds = %698
  store i32 0, ptr %8, align 4, !dbg !1903
  br label %702, !dbg !1906

702:                                              ; preds = %726, %701
  %703 = load i32, ptr %8, align 4, !dbg !1907
  %704 = icmp slt i32 %703, 6, !dbg !1909
  br i1 %704, label %705, label %729, !dbg !1910

705:                                              ; preds = %702
  %706 = load i32, ptr %6, align 4, !dbg !1911
  %707 = sext i32 %706 to i64, !dbg !1913
  %708 = getelementptr inbounds [8 x [5 x [6 x %union.U4]]], ptr @_ZL6g_1486, i64 0, i64 %707, !dbg !1913
  %709 = load i32, ptr %7, align 4, !dbg !1914
  %710 = sext i32 %709 to i64, !dbg !1913
  %711 = getelementptr inbounds [5 x [6 x %union.U4]], ptr %708, i64 0, i64 %710, !dbg !1913
  %712 = load i32, ptr %8, align 4, !dbg !1915
  %713 = sext i32 %712 to i64, !dbg !1913
  %714 = getelementptr inbounds [6 x %union.U4], ptr %711, i64 0, i64 %713, !dbg !1913
  %715 = load i32, ptr %714, align 4, !dbg !1916
  %716 = zext i32 %715 to i64, !dbg !1913
  %717 = load i32, ptr %9, align 4, !dbg !1917
  call void @_ZL15transparent_crcmPci(i64 noundef %716, ptr noundef @.str.89, i32 noundef %717), !dbg !1918
  %718 = load i32, ptr %9, align 4, !dbg !1919
  %719 = icmp ne i32 %718, 0, !dbg !1919
  br i1 %719, label %720, label %725, !dbg !1921

720:                                              ; preds = %705
  %721 = load i32, ptr %6, align 4, !dbg !1922
  %722 = load i32, ptr %7, align 4, !dbg !1923
  %723 = load i32, ptr %8, align 4, !dbg !1924
  %724 = call i32 (ptr, ...) @printf(ptr noundef @.str.22, i32 noundef %721, i32 noundef %722, i32 noundef %723), !dbg !1925
  br label %725, !dbg !1925

725:                                              ; preds = %720, %705
  br label %726, !dbg !1926

726:                                              ; preds = %725
  %727 = load i32, ptr %8, align 4, !dbg !1927
  %728 = add nsw i32 %727, 1, !dbg !1927
  store i32 %728, ptr %8, align 4, !dbg !1927
  br label %702, !dbg !1928, !llvm.loop !1929

729:                                              ; preds = %702
  br label %730, !dbg !1931

730:                                              ; preds = %729
  %731 = load i32, ptr %7, align 4, !dbg !1932
  %732 = add nsw i32 %731, 1, !dbg !1932
  store i32 %732, ptr %7, align 4, !dbg !1932
  br label %698, !dbg !1933, !llvm.loop !1934

733:                                              ; preds = %698
  br label %734, !dbg !1936

734:                                              ; preds = %733
  %735 = load i32, ptr %6, align 4, !dbg !1937
  %736 = add nsw i32 %735, 1, !dbg !1937
  store i32 %736, ptr %6, align 4, !dbg !1937
  br label %694, !dbg !1938, !llvm.loop !1939

737:                                              ; preds = %694
  store i32 0, ptr %6, align 4, !dbg !1941
  br label %738, !dbg !1943

738:                                              ; preds = %766, %737
  %739 = load i32, ptr %6, align 4, !dbg !1944
  %740 = icmp slt i32 %739, 7, !dbg !1946
  br i1 %740, label %741, label %769, !dbg !1947

741:                                              ; preds = %738
  store i32 0, ptr %7, align 4, !dbg !1948
  br label %742, !dbg !1951

742:                                              ; preds = %762, %741
  %743 = load i32, ptr %7, align 4, !dbg !1952
  %744 = icmp slt i32 %743, 3, !dbg !1954
  br i1 %744, label %745, label %765, !dbg !1955

745:                                              ; preds = %742
  %746 = load i32, ptr %6, align 4, !dbg !1956
  %747 = sext i32 %746 to i64, !dbg !1958
  %748 = getelementptr inbounds [7 x [3 x %union.U4]], ptr @_ZL6g_1487, i64 0, i64 %747, !dbg !1958
  %749 = load i32, ptr %7, align 4, !dbg !1959
  %750 = sext i32 %749 to i64, !dbg !1958
  %751 = getelementptr inbounds [3 x %union.U4], ptr %748, i64 0, i64 %750, !dbg !1958
  %752 = load i32, ptr %751, align 4, !dbg !1960
  %753 = zext i32 %752 to i64, !dbg !1958
  %754 = load i32, ptr %9, align 4, !dbg !1961
  call void @_ZL15transparent_crcmPci(i64 noundef %753, ptr noundef @.str.90, i32 noundef %754), !dbg !1962
  %755 = load i32, ptr %9, align 4, !dbg !1963
  %756 = icmp ne i32 %755, 0, !dbg !1963
  br i1 %756, label %757, label %761, !dbg !1965

757:                                              ; preds = %745
  %758 = load i32, ptr %6, align 4, !dbg !1966
  %759 = load i32, ptr %7, align 4, !dbg !1967
  %760 = call i32 (ptr, ...) @printf(ptr noundef @.str.2, i32 noundef %758, i32 noundef %759), !dbg !1968
  br label %761, !dbg !1968

761:                                              ; preds = %757, %745
  br label %762, !dbg !1969

762:                                              ; preds = %761
  %763 = load i32, ptr %7, align 4, !dbg !1970
  %764 = add nsw i32 %763, 1, !dbg !1970
  store i32 %764, ptr %7, align 4, !dbg !1970
  br label %742, !dbg !1971, !llvm.loop !1972

765:                                              ; preds = %742
  br label %766, !dbg !1974

766:                                              ; preds = %765
  %767 = load i32, ptr %6, align 4, !dbg !1975
  %768 = add nsw i32 %767, 1, !dbg !1975
  store i32 %768, ptr %6, align 4, !dbg !1975
  br label %738, !dbg !1976, !llvm.loop !1977

769:                                              ; preds = %738
  %770 = load i32, ptr @_ZL6g_1488, align 4, !dbg !1979
  %771 = zext i32 %770 to i64, !dbg !1980
  %772 = load i32, ptr %9, align 4, !dbg !1981
  call void @_ZL15transparent_crcmPci(i64 noundef %771, ptr noundef @.str.91, i32 noundef %772), !dbg !1982
  %773 = load i32, ptr @_ZL6g_1489, align 4, !dbg !1983
  %774 = zext i32 %773 to i64, !dbg !1984
  %775 = load i32, ptr %9, align 4, !dbg !1985
  call void @_ZL15transparent_crcmPci(i64 noundef %774, ptr noundef @.str.92, i32 noundef %775), !dbg !1986
  %776 = load i32, ptr @_ZL6g_1490, align 4, !dbg !1987
  %777 = zext i32 %776 to i64, !dbg !1988
  %778 = load i32, ptr %9, align 4, !dbg !1989
  call void @_ZL15transparent_crcmPci(i64 noundef %777, ptr noundef @.str.93, i32 noundef %778), !dbg !1990
  %779 = load i32, ptr @_ZL6g_1491, align 4, !dbg !1991
  %780 = zext i32 %779 to i64, !dbg !1992
  %781 = load i32, ptr %9, align 4, !dbg !1993
  call void @_ZL15transparent_crcmPci(i64 noundef %780, ptr noundef @.str.94, i32 noundef %781), !dbg !1994
  %782 = load i32, ptr @_ZL6g_1492, align 4, !dbg !1995
  %783 = zext i32 %782 to i64, !dbg !1996
  %784 = load i32, ptr %9, align 4, !dbg !1997
  call void @_ZL15transparent_crcmPci(i64 noundef %783, ptr noundef @.str.95, i32 noundef %784), !dbg !1998
  %785 = load i32, ptr @_ZL6g_1493, align 4, !dbg !1999
  %786 = zext i32 %785 to i64, !dbg !2000
  %787 = load i32, ptr %9, align 4, !dbg !2001
  call void @_ZL15transparent_crcmPci(i64 noundef %786, ptr noundef @.str.96, i32 noundef %787), !dbg !2002
  %788 = load i32, ptr @_ZL6g_1494, align 4, !dbg !2003
  %789 = zext i32 %788 to i64, !dbg !2004
  %790 = load i32, ptr %9, align 4, !dbg !2005
  call void @_ZL15transparent_crcmPci(i64 noundef %789, ptr noundef @.str.97, i32 noundef %790), !dbg !2006
  store i32 0, ptr %6, align 4, !dbg !2007
  br label %791, !dbg !2009

791:                                              ; preds = %819, %769
  %792 = load i32, ptr %6, align 4, !dbg !2010
  %793 = icmp slt i32 %792, 8, !dbg !2012
  br i1 %793, label %794, label %822, !dbg !2013

794:                                              ; preds = %791
  store i32 0, ptr %7, align 4, !dbg !2014
  br label %795, !dbg !2017

795:                                              ; preds = %815, %794
  %796 = load i32, ptr %7, align 4, !dbg !2018
  %797 = icmp slt i32 %796, 9, !dbg !2020
  br i1 %797, label %798, label %818, !dbg !2021

798:                                              ; preds = %795
  %799 = load i32, ptr %6, align 4, !dbg !2022
  %800 = sext i32 %799 to i64, !dbg !2024
  %801 = getelementptr inbounds [8 x [9 x %union.U4]], ptr @_ZL6g_1495, i64 0, i64 %800, !dbg !2024
  %802 = load i32, ptr %7, align 4, !dbg !2025
  %803 = sext i32 %802 to i64, !dbg !2024
  %804 = getelementptr inbounds [9 x %union.U4], ptr %801, i64 0, i64 %803, !dbg !2024
  %805 = load i32, ptr %804, align 4, !dbg !2026
  %806 = zext i32 %805 to i64, !dbg !2024
  %807 = load i32, ptr %9, align 4, !dbg !2027
  call void @_ZL15transparent_crcmPci(i64 noundef %806, ptr noundef @.str.98, i32 noundef %807), !dbg !2028
  %808 = load i32, ptr %9, align 4, !dbg !2029
  %809 = icmp ne i32 %808, 0, !dbg !2029
  br i1 %809, label %810, label %814, !dbg !2031

810:                                              ; preds = %798
  %811 = load i32, ptr %6, align 4, !dbg !2032
  %812 = load i32, ptr %7, align 4, !dbg !2033
  %813 = call i32 (ptr, ...) @printf(ptr noundef @.str.2, i32 noundef %811, i32 noundef %812), !dbg !2034
  br label %814, !dbg !2034

814:                                              ; preds = %810, %798
  br label %815, !dbg !2035

815:                                              ; preds = %814
  %816 = load i32, ptr %7, align 4, !dbg !2036
  %817 = add nsw i32 %816, 1, !dbg !2036
  store i32 %817, ptr %7, align 4, !dbg !2036
  br label %795, !dbg !2037, !llvm.loop !2038

818:                                              ; preds = %795
  br label %819, !dbg !2040

819:                                              ; preds = %818
  %820 = load i32, ptr %6, align 4, !dbg !2041
  %821 = add nsw i32 %820, 1, !dbg !2041
  store i32 %821, ptr %6, align 4, !dbg !2041
  br label %791, !dbg !2042, !llvm.loop !2043

822:                                              ; preds = %791
  %823 = load i32, ptr @_ZL6g_1496, align 4, !dbg !2045
  %824 = zext i32 %823 to i64, !dbg !2046
  %825 = load i32, ptr %9, align 4, !dbg !2047
  call void @_ZL15transparent_crcmPci(i64 noundef %824, ptr noundef @.str.99, i32 noundef %825), !dbg !2048
  %826 = load i32, ptr @_ZL6g_1497, align 4, !dbg !2049
  %827 = zext i32 %826 to i64, !dbg !2050
  %828 = load i32, ptr %9, align 4, !dbg !2051
  call void @_ZL15transparent_crcmPci(i64 noundef %827, ptr noundef @.str.100, i32 noundef %828), !dbg !2052
  store i32 0, ptr %6, align 4, !dbg !2053
  br label %829, !dbg !2055

829:                                              ; preds = %857, %822
  %830 = load i32, ptr %6, align 4, !dbg !2056
  %831 = icmp slt i32 %830, 7, !dbg !2058
  br i1 %831, label %832, label %860, !dbg !2059

832:                                              ; preds = %829
  store i32 0, ptr %7, align 4, !dbg !2060
  br label %833, !dbg !2063

833:                                              ; preds = %853, %832
  %834 = load i32, ptr %7, align 4, !dbg !2064
  %835 = icmp slt i32 %834, 8, !dbg !2066
  br i1 %835, label %836, label %856, !dbg !2067

836:                                              ; preds = %833
  %837 = load i32, ptr %6, align 4, !dbg !2068
  %838 = sext i32 %837 to i64, !dbg !2070
  %839 = getelementptr inbounds [7 x [8 x %union.U4]], ptr @_ZL6g_1498, i64 0, i64 %838, !dbg !2070
  %840 = load i32, ptr %7, align 4, !dbg !2071
  %841 = sext i32 %840 to i64, !dbg !2070
  %842 = getelementptr inbounds [8 x %union.U4], ptr %839, i64 0, i64 %841, !dbg !2070
  %843 = load i32, ptr %842, align 4, !dbg !2072
  %844 = zext i32 %843 to i64, !dbg !2070
  %845 = load i32, ptr %9, align 4, !dbg !2073
  call void @_ZL15transparent_crcmPci(i64 noundef %844, ptr noundef @.str.101, i32 noundef %845), !dbg !2074
  %846 = load i32, ptr %9, align 4, !dbg !2075
  %847 = icmp ne i32 %846, 0, !dbg !2075
  br i1 %847, label %848, label %852, !dbg !2077

848:                                              ; preds = %836
  %849 = load i32, ptr %6, align 4, !dbg !2078
  %850 = load i32, ptr %7, align 4, !dbg !2079
  %851 = call i32 (ptr, ...) @printf(ptr noundef @.str.2, i32 noundef %849, i32 noundef %850), !dbg !2080
  br label %852, !dbg !2080

852:                                              ; preds = %848, %836
  br label %853, !dbg !2081

853:                                              ; preds = %852
  %854 = load i32, ptr %7, align 4, !dbg !2082
  %855 = add nsw i32 %854, 1, !dbg !2082
  store i32 %855, ptr %7, align 4, !dbg !2082
  br label %833, !dbg !2083, !llvm.loop !2084

856:                                              ; preds = %833
  br label %857, !dbg !2086

857:                                              ; preds = %856
  %858 = load i32, ptr %6, align 4, !dbg !2087
  %859 = add nsw i32 %858, 1, !dbg !2087
  store i32 %859, ptr %6, align 4, !dbg !2087
  br label %829, !dbg !2088, !llvm.loop !2089

860:                                              ; preds = %829
  store i32 0, ptr %6, align 4, !dbg !2091
  br label %861, !dbg !2093

861:                                              ; preds = %877, %860
  %862 = load i32, ptr %6, align 4, !dbg !2094
  %863 = icmp slt i32 %862, 1, !dbg !2096
  br i1 %863, label %864, label %880, !dbg !2097

864:                                              ; preds = %861
  %865 = load i32, ptr %6, align 4, !dbg !2098
  %866 = sext i32 %865 to i64, !dbg !2100
  %867 = getelementptr inbounds [1 x %union.U4], ptr @_ZL6g_1499, i64 0, i64 %866, !dbg !2100
  %868 = load i32, ptr %867, align 4, !dbg !2101
  %869 = zext i32 %868 to i64, !dbg !2100
  %870 = load i32, ptr %9, align 4, !dbg !2102
  call void @_ZL15transparent_crcmPci(i64 noundef %869, ptr noundef @.str.102, i32 noundef %870), !dbg !2103
  %871 = load i32, ptr %9, align 4, !dbg !2104
  %872 = icmp ne i32 %871, 0, !dbg !2104
  br i1 %872, label %873, label %876, !dbg !2106

873:                                              ; preds = %864
  %874 = load i32, ptr %6, align 4, !dbg !2107
  %875 = call i32 (ptr, ...) @printf(ptr noundef @.str.8, i32 noundef %874), !dbg !2108
  br label %876, !dbg !2108

876:                                              ; preds = %873, %864
  br label %877, !dbg !2109

877:                                              ; preds = %876
  %878 = load i32, ptr %6, align 4, !dbg !2110
  %879 = add nsw i32 %878, 1, !dbg !2110
  store i32 %879, ptr %6, align 4, !dbg !2110
  br label %861, !dbg !2111, !llvm.loop !2112

880:                                              ; preds = %861
  %881 = load i32, ptr @_ZL6g_1500, align 4, !dbg !2114
  %882 = zext i32 %881 to i64, !dbg !2115
  %883 = load i32, ptr %9, align 4, !dbg !2116
  call void @_ZL15transparent_crcmPci(i64 noundef %882, ptr noundef @.str.103, i32 noundef %883), !dbg !2117
  %884 = load i32, ptr @_ZL6g_1501, align 4, !dbg !2118
  %885 = zext i32 %884 to i64, !dbg !2119
  %886 = load i32, ptr %9, align 4, !dbg !2120
  call void @_ZL15transparent_crcmPci(i64 noundef %885, ptr noundef @.str.104, i32 noundef %886), !dbg !2121
  %887 = load i32, ptr @_ZL6g_1502, align 4, !dbg !2122
  %888 = zext i32 %887 to i64, !dbg !2123
  %889 = load i32, ptr %9, align 4, !dbg !2124
  call void @_ZL15transparent_crcmPci(i64 noundef %888, ptr noundef @.str.105, i32 noundef %889), !dbg !2125
  %890 = load i32, ptr @_ZL6g_1503, align 4, !dbg !2126
  %891 = zext i32 %890 to i64, !dbg !2127
  %892 = load i32, ptr %9, align 4, !dbg !2128
  call void @_ZL15transparent_crcmPci(i64 noundef %891, ptr noundef @.str.106, i32 noundef %892), !dbg !2129
  %893 = load i32, ptr @_ZL6g_1504, align 4, !dbg !2130
  %894 = zext i32 %893 to i64, !dbg !2131
  %895 = load i32, ptr %9, align 4, !dbg !2132
  call void @_ZL15transparent_crcmPci(i64 noundef %894, ptr noundef @.str.107, i32 noundef %895), !dbg !2133
  %896 = load i32, ptr @_ZL6g_1505, align 4, !dbg !2134
  %897 = zext i32 %896 to i64, !dbg !2135
  %898 = load i32, ptr %9, align 4, !dbg !2136
  call void @_ZL15transparent_crcmPci(i64 noundef %897, ptr noundef @.str.108, i32 noundef %898), !dbg !2137
  %899 = load i32, ptr @_ZL6g_1506, align 4, !dbg !2138
  %900 = zext i32 %899 to i64, !dbg !2139
  %901 = load i32, ptr %9, align 4, !dbg !2140
  call void @_ZL15transparent_crcmPci(i64 noundef %900, ptr noundef @.str.109, i32 noundef %901), !dbg !2141
  %902 = load i32, ptr @_ZL6g_1507, align 4, !dbg !2142
  %903 = zext i32 %902 to i64, !dbg !2143
  %904 = load i32, ptr %9, align 4, !dbg !2144
  call void @_ZL15transparent_crcmPci(i64 noundef %903, ptr noundef @.str.110, i32 noundef %904), !dbg !2145
  %905 = load i32, ptr @_ZL6g_1508, align 4, !dbg !2146
  %906 = zext i32 %905 to i64, !dbg !2147
  %907 = load i32, ptr %9, align 4, !dbg !2148
  call void @_ZL15transparent_crcmPci(i64 noundef %906, ptr noundef @.str.111, i32 noundef %907), !dbg !2149
  %908 = load i32, ptr @_ZL6g_1509, align 4, !dbg !2150
  %909 = zext i32 %908 to i64, !dbg !2151
  %910 = load i32, ptr %9, align 4, !dbg !2152
  call void @_ZL15transparent_crcmPci(i64 noundef %909, ptr noundef @.str.112, i32 noundef %910), !dbg !2153
  %911 = load i32, ptr @_ZL6g_1510, align 4, !dbg !2154
  %912 = zext i32 %911 to i64, !dbg !2155
  %913 = load i32, ptr %9, align 4, !dbg !2156
  call void @_ZL15transparent_crcmPci(i64 noundef %912, ptr noundef @.str.113, i32 noundef %913), !dbg !2157
  %914 = load i32, ptr @_ZL6g_1511, align 4, !dbg !2158
  %915 = zext i32 %914 to i64, !dbg !2159
  %916 = load i32, ptr %9, align 4, !dbg !2160
  call void @_ZL15transparent_crcmPci(i64 noundef %915, ptr noundef @.str.114, i32 noundef %916), !dbg !2161
  %917 = load i32, ptr @_ZL6g_1512, align 4, !dbg !2162
  %918 = zext i32 %917 to i64, !dbg !2163
  %919 = load i32, ptr %9, align 4, !dbg !2164
  call void @_ZL15transparent_crcmPci(i64 noundef %918, ptr noundef @.str.115, i32 noundef %919), !dbg !2165
  %920 = load i32, ptr @_ZL6g_1513, align 4, !dbg !2166
  %921 = zext i32 %920 to i64, !dbg !2167
  %922 = load i32, ptr %9, align 4, !dbg !2168
  call void @_ZL15transparent_crcmPci(i64 noundef %921, ptr noundef @.str.116, i32 noundef %922), !dbg !2169
  %923 = load i32, ptr @_ZL6g_1514, align 4, !dbg !2170
  %924 = zext i32 %923 to i64, !dbg !2171
  %925 = load i32, ptr %9, align 4, !dbg !2172
  call void @_ZL15transparent_crcmPci(i64 noundef %924, ptr noundef @.str.117, i32 noundef %925), !dbg !2173
  %926 = load i32, ptr @_ZL6g_1515, align 4, !dbg !2174
  %927 = zext i32 %926 to i64, !dbg !2175
  %928 = load i32, ptr %9, align 4, !dbg !2176
  call void @_ZL15transparent_crcmPci(i64 noundef %927, ptr noundef @.str.118, i32 noundef %928), !dbg !2177
  store i32 0, ptr %6, align 4, !dbg !2178
  br label %929, !dbg !2180

929:                                              ; preds = %945, %880
  %930 = load i32, ptr %6, align 4, !dbg !2181
  %931 = icmp slt i32 %930, 1, !dbg !2183
  br i1 %931, label %932, label %948, !dbg !2184

932:                                              ; preds = %929
  %933 = load i32, ptr %6, align 4, !dbg !2185
  %934 = sext i32 %933 to i64, !dbg !2187
  %935 = getelementptr inbounds [1 x %union.U4], ptr @_ZL6g_1516, i64 0, i64 %934, !dbg !2187
  %936 = load i32, ptr %935, align 4, !dbg !2188
  %937 = zext i32 %936 to i64, !dbg !2187
  %938 = load i32, ptr %9, align 4, !dbg !2189
  call void @_ZL15transparent_crcmPci(i64 noundef %937, ptr noundef @.str.119, i32 noundef %938), !dbg !2190
  %939 = load i32, ptr %9, align 4, !dbg !2191
  %940 = icmp ne i32 %939, 0, !dbg !2191
  br i1 %940, label %941, label %944, !dbg !2193

941:                                              ; preds = %932
  %942 = load i32, ptr %6, align 4, !dbg !2194
  %943 = call i32 (ptr, ...) @printf(ptr noundef @.str.8, i32 noundef %942), !dbg !2195
  br label %944, !dbg !2195

944:                                              ; preds = %941, %932
  br label %945, !dbg !2196

945:                                              ; preds = %944
  %946 = load i32, ptr %6, align 4, !dbg !2197
  %947 = add nsw i32 %946, 1, !dbg !2197
  store i32 %947, ptr %6, align 4, !dbg !2197
  br label %929, !dbg !2198, !llvm.loop !2199

948:                                              ; preds = %929
  %949 = load i32, ptr @_ZL6g_1517, align 4, !dbg !2201
  %950 = zext i32 %949 to i64, !dbg !2202
  %951 = load i32, ptr %9, align 4, !dbg !2203
  call void @_ZL15transparent_crcmPci(i64 noundef %950, ptr noundef @.str.120, i32 noundef %951), !dbg !2204
  store i32 0, ptr %6, align 4, !dbg !2205
  br label %952, !dbg !2207

952:                                              ; preds = %968, %948
  %953 = load i32, ptr %6, align 4, !dbg !2208
  %954 = icmp slt i32 %953, 6, !dbg !2210
  br i1 %954, label %955, label %971, !dbg !2211

955:                                              ; preds = %952
  %956 = load i32, ptr %6, align 4, !dbg !2212
  %957 = sext i32 %956 to i64, !dbg !2214
  %958 = getelementptr inbounds [6 x %union.U4], ptr @_ZL6g_1518, i64 0, i64 %957, !dbg !2214
  %959 = load i32, ptr %958, align 4, !dbg !2215
  %960 = zext i32 %959 to i64, !dbg !2214
  %961 = load i32, ptr %9, align 4, !dbg !2216
  call void @_ZL15transparent_crcmPci(i64 noundef %960, ptr noundef @.str.121, i32 noundef %961), !dbg !2217
  %962 = load i32, ptr %9, align 4, !dbg !2218
  %963 = icmp ne i32 %962, 0, !dbg !2218
  br i1 %963, label %964, label %967, !dbg !2220

964:                                              ; preds = %955
  %965 = load i32, ptr %6, align 4, !dbg !2221
  %966 = call i32 (ptr, ...) @printf(ptr noundef @.str.8, i32 noundef %965), !dbg !2222
  br label %967, !dbg !2222

967:                                              ; preds = %964, %955
  br label %968, !dbg !2223

968:                                              ; preds = %967
  %969 = load i32, ptr %6, align 4, !dbg !2224
  %970 = add nsw i32 %969, 1, !dbg !2224
  store i32 %970, ptr %6, align 4, !dbg !2224
  br label %952, !dbg !2225, !llvm.loop !2226

971:                                              ; preds = %952
  %972 = load i32, ptr @_ZL6g_1519, align 4, !dbg !2228
  %973 = zext i32 %972 to i64, !dbg !2229
  %974 = load i32, ptr %9, align 4, !dbg !2230
  call void @_ZL15transparent_crcmPci(i64 noundef %973, ptr noundef @.str.122, i32 noundef %974), !dbg !2231
  %975 = load i32, ptr @_ZL6g_1520, align 4, !dbg !2232
  %976 = zext i32 %975 to i64, !dbg !2233
  %977 = load i32, ptr %9, align 4, !dbg !2234
  call void @_ZL15transparent_crcmPci(i64 noundef %976, ptr noundef @.str.123, i32 noundef %977), !dbg !2235
  %978 = load i32, ptr @_ZL6g_1521, align 4, !dbg !2236
  %979 = zext i32 %978 to i64, !dbg !2237
  %980 = load i32, ptr %9, align 4, !dbg !2238
  call void @_ZL15transparent_crcmPci(i64 noundef %979, ptr noundef @.str.124, i32 noundef %980), !dbg !2239
  %981 = load i32, ptr @_ZL6g_1522, align 4, !dbg !2240
  %982 = zext i32 %981 to i64, !dbg !2241
  %983 = load i32, ptr %9, align 4, !dbg !2242
  call void @_ZL15transparent_crcmPci(i64 noundef %982, ptr noundef @.str.125, i32 noundef %983), !dbg !2243
  %984 = load volatile i16, ptr @_ZL6g_1534, align 2, !dbg !2244
  %985 = sext i16 %984 to i64, !dbg !2244
  %986 = load i32, ptr %9, align 4, !dbg !2245
  call void @_ZL15transparent_crcmPci(i64 noundef %985, ptr noundef @.str.126, i32 noundef %986), !dbg !2246
  %987 = load i32, ptr @_ZL6g_1597, align 4, !dbg !2247
  %988 = zext i32 %987 to i64, !dbg !2248
  %989 = load i32, ptr %9, align 4, !dbg !2249
  call void @_ZL15transparent_crcmPci(i64 noundef %988, ptr noundef @.str.127, i32 noundef %989), !dbg !2250
  %990 = load i32, ptr @_ZL13crc32_context, align 4, !dbg !2251
  %991 = zext i32 %990 to i64, !dbg !2251
  %992 = xor i64 %991, 4294967295, !dbg !2252
  %993 = trunc i64 %992 to i32, !dbg !2251
  %994 = load i32, ptr %9, align 4, !dbg !2253
  call void @_ZL17platform_main_endji(i32 noundef %993, i32 noundef %994), !dbg !2254
  ret i32 0, !dbg !2255
}

; Function Attrs: nocallback nofree nosync nounwind speculatable willreturn memory(none)
declare void @llvm.dbg.declare(metadata, metadata, metadata) #1

; Function Attrs: nounwind willreturn memory(read)
declare i32 @strcmp(ptr noundef, ptr noundef) #2

; Function Attrs: mustprogress noinline nounwind optnone sspstrong uwtable
define internal void @_ZL19platform_main_beginv() #3 !dbg !2256 {
  ret void, !dbg !2259
}

; Function Attrs: mustprogress noinline nounwind optnone sspstrong uwtable
define internal void @_ZL12crc32_gentabv() #3 !dbg !2260 {
  %1 = alloca i32, align 4
  %2 = alloca i32, align 4
  %3 = alloca i32, align 4
  %4 = alloca i32, align 4
  call void @llvm.dbg.declare(metadata ptr %1, metadata !2261, metadata !DIExpression()), !dbg !2262
  call void @llvm.dbg.declare(metadata ptr %2, metadata !2263, metadata !DIExpression()), !dbg !2265
  store i32 -306674912, ptr %2, align 4, !dbg !2265
  call void @llvm.dbg.declare(metadata ptr %3, metadata !2266, metadata !DIExpression()), !dbg !2267
  call void @llvm.dbg.declare(metadata ptr %4, metadata !2268, metadata !DIExpression()), !dbg !2269
  store i32 0, ptr %3, align 4, !dbg !2270
  br label %5, !dbg !2272

5:                                                ; preds = %33, %0
  %6 = load i32, ptr %3, align 4, !dbg !2273
  %7 = icmp slt i32 %6, 256, !dbg !2275
  br i1 %7, label %8, label %36, !dbg !2276

8:                                                ; preds = %5
  %9 = load i32, ptr %3, align 4, !dbg !2277
  store i32 %9, ptr %1, align 4, !dbg !2279
  store i32 8, ptr %4, align 4, !dbg !2280
  br label %10, !dbg !2282

10:                                               ; preds = %25, %8
  %11 = load i32, ptr %4, align 4, !dbg !2283
  %12 = icmp sgt i32 %11, 0, !dbg !2285
  br i1 %12, label %13, label %28, !dbg !2286

13:                                               ; preds = %10
  %14 = load i32, ptr %1, align 4, !dbg !2287
  %15 = and i32 %14, 1, !dbg !2290
  %16 = icmp ne i32 %15, 0, !dbg !2287
  br i1 %16, label %17, label %21, !dbg !2291

17:                                               ; preds = %13
  %18 = load i32, ptr %1, align 4, !dbg !2292
  %19 = lshr i32 %18, 1, !dbg !2294
  %20 = xor i32 %19, -306674912, !dbg !2295
  store i32 %20, ptr %1, align 4, !dbg !2296
  br label %24, !dbg !2297

21:                                               ; preds = %13
  %22 = load i32, ptr %1, align 4, !dbg !2298
  %23 = lshr i32 %22, 1, !dbg !2298
  store i32 %23, ptr %1, align 4, !dbg !2298
  br label %24

24:                                               ; preds = %21, %17
  br label %25, !dbg !2300

25:                                               ; preds = %24
  %26 = load i32, ptr %4, align 4, !dbg !2301
  %27 = add nsw i32 %26, -1, !dbg !2301
  store i32 %27, ptr %4, align 4, !dbg !2301
  br label %10, !dbg !2302, !llvm.loop !2303

28:                                               ; preds = %10
  %29 = load i32, ptr %1, align 4, !dbg !2305
  %30 = load i32, ptr %3, align 4, !dbg !2306
  %31 = sext i32 %30 to i64, !dbg !2307
  %32 = getelementptr inbounds [256 x i32], ptr @_ZL9crc32_tab, i64 0, i64 %31, !dbg !2307
  store i32 %29, ptr %32, align 4, !dbg !2308
  br label %33, !dbg !2309

33:                                               ; preds = %28
  %34 = load i32, ptr %3, align 4, !dbg !2310
  %35 = add nsw i32 %34, 1, !dbg !2310
  store i32 %35, ptr %3, align 4, !dbg !2310
  br label %5, !dbg !2311, !llvm.loop !2312

36:                                               ; preds = %5
  ret void, !dbg !2314
}

; Function Attrs: mustprogress noinline nounwind optnone sspstrong uwtable
define internal noundef signext i16 @_ZL6func_1v() #3 !dbg !2315 {
  %1 = alloca i16, align 2
  %2 = alloca ptr, align 8
  %3 = alloca i32, align 4
  %4 = alloca [7 x [5 x [1 x i8]]], align 16
  %5 = alloca i32, align 4
  %6 = alloca i32, align 4
  %7 = alloca i32, align 4
  %8 = alloca i32, align 4
  %9 = alloca i32, align 4
  %10 = alloca ptr, align 8
  %11 = alloca [5 x %union.U0], align 16
  %12 = alloca %union.U3, align 4
  %13 = alloca ptr, align 8
  %14 = alloca ptr, align 8
  %15 = alloca ptr, align 8
  %16 = alloca i32, align 4
  %17 = alloca i32, align 4
  %18 = alloca i32, align 4
  %19 = alloca i32, align 4
  %20 = alloca [9 x ptr], align 16
  %21 = alloca [7 x [8 x [4 x ptr]]], align 16
  %22 = alloca ptr, align 8
  %23 = alloca [6 x [8 x [5 x ptr]]], align 16
  %24 = alloca i32, align 4
  %25 = alloca i32, align 4
  %26 = alloca i32, align 4
  call void @llvm.dbg.declare(metadata ptr %2, metadata !2318, metadata !DIExpression()), !dbg !2319
  store ptr @_ZL4g_31, ptr %2, align 8, !dbg !2319
  call void @llvm.dbg.declare(metadata ptr %3, metadata !2320, metadata !DIExpression()), !dbg !2321
  store i32 404368874, ptr %3, align 4, !dbg !2321
  call void @llvm.dbg.declare(metadata ptr %4, metadata !2322, metadata !DIExpression()), !dbg !2325
  call void @llvm.memcpy.p0.p0.i64(ptr align 16 %4, ptr align 16 @__const._ZL6func_1v.l_1586, i64 35, i1 false), !dbg !2325
  call void @llvm.dbg.declare(metadata ptr %5, metadata !2326, metadata !DIExpression()), !dbg !2327
  call void @llvm.dbg.declare(metadata ptr %6, metadata !2328, metadata !DIExpression()), !dbg !2329
  call void @llvm.dbg.declare(metadata ptr %7, metadata !2330, metadata !DIExpression()), !dbg !2331
  store i32 -11, ptr @_ZL3g_3, align 4, !dbg !2332
  br label %27, !dbg !2334

27:                                               ; preds = %75, %0
  %28 = load i32, ptr @_ZL3g_3, align 4, !dbg !2335
  %29 = icmp sle i32 %28, -3, !dbg !2337
  br i1 %29, label %30, label %78, !dbg !2338

30:                                               ; preds = %27
  call void @llvm.dbg.declare(metadata ptr %8, metadata !2339, metadata !DIExpression()), !dbg !2341
  store i32 0, ptr %8, align 4, !dbg !2341
  call void @llvm.dbg.declare(metadata ptr %9, metadata !2342, metadata !DIExpression()), !dbg !2343
  store i32 -808189224, ptr %9, align 4, !dbg !2343
  call void @llvm.dbg.declare(metadata ptr %10, metadata !2344, metadata !DIExpression()), !dbg !2345
  store ptr null, ptr %10, align 8, !dbg !2345
  store i32 24, ptr @_ZL3g_6, align 4, !dbg !2346
  br label %31, !dbg !2348

31:                                               ; preds = %71, %30
  %32 = load i32, ptr @_ZL3g_6, align 4, !dbg !2349
  %33 = icmp ne i32 %32, -26, !dbg !2351
  br i1 %33, label %34, label %74, !dbg !2352

34:                                               ; preds = %31
  call void @llvm.dbg.declare(metadata ptr %11, metadata !2353, metadata !DIExpression()), !dbg !2356
  call void @llvm.memset.p0.i64(ptr align 16 %11, i8 0, i64 40, i1 false), !dbg !2356
  %35 = getelementptr inbounds [5 x %union.U0], ptr %11, i32 0, i32 0, !dbg !2356
  %36 = getelementptr inbounds %union.U0, ptr %35, i32 0, i32 0, !dbg !2356
  store i64 1, ptr %36, align 16, !dbg !2356
  %37 = getelementptr inbounds [5 x %union.U0], ptr %11, i32 0, i32 1, !dbg !2356
  %38 = getelementptr inbounds %union.U0, ptr %37, i32 0, i32 0, !dbg !2356
  store i64 1, ptr %38, align 8, !dbg !2356
  %39 = getelementptr inbounds [5 x %union.U0], ptr %11, i32 0, i32 2, !dbg !2356
  %40 = getelementptr inbounds %union.U0, ptr %39, i32 0, i32 0, !dbg !2356
  store i64 1, ptr %40, align 16, !dbg !2356
  %41 = getelementptr inbounds [5 x %union.U0], ptr %11, i32 0, i32 3, !dbg !2356
  %42 = getelementptr inbounds %union.U0, ptr %41, i32 0, i32 0, !dbg !2356
  store i64 1, ptr %42, align 8, !dbg !2356
  %43 = getelementptr inbounds [5 x %union.U0], ptr %11, i32 0, i32 4, !dbg !2356
  %44 = getelementptr inbounds %union.U0, ptr %43, i32 0, i32 0, !dbg !2356
  store i64 1, ptr %44, align 16, !dbg !2356
  call void @llvm.dbg.declare(metadata ptr %12, metadata !2357, metadata !DIExpression()), !dbg !2358
  store i8 14, ptr %12, align 4, !dbg !2359
  call void @llvm.dbg.declare(metadata ptr %13, metadata !2360, metadata !DIExpression()), !dbg !2361
  store ptr null, ptr %13, align 8, !dbg !2361
  call void @llvm.dbg.declare(metadata ptr %14, metadata !2362, metadata !DIExpression()), !dbg !2364
  store ptr getelementptr inbounds ([3 x ptr], ptr @_ZL4g_93, i64 0, i64 1), ptr %14, align 8, !dbg !2364
  call void @llvm.dbg.declare(metadata ptr %15, metadata !2365, metadata !DIExpression()), !dbg !2367
  store ptr getelementptr inbounds ([4 x [9 x [2 x i8]]], ptr @_ZL5g_348, i64 0, i64 1, i64 6), ptr %15, align 8, !dbg !2367
  call void @llvm.dbg.declare(metadata ptr %16, metadata !2368, metadata !DIExpression()), !dbg !2369
  store i32 -283095129, ptr %16, align 4, !dbg !2369
  call void @llvm.dbg.declare(metadata ptr %17, metadata !2370, metadata !DIExpression()), !dbg !2371
  store i32 -5, ptr @_ZL3g_9, align 4, !dbg !2372
  br label %45, !dbg !2374

45:                                               ; preds = %49, %34
  %46 = load i32, ptr @_ZL3g_9, align 4, !dbg !2375
  %47 = icmp sle i32 %46, 26, !dbg !2377
  br i1 %47, label %48, label %54, !dbg !2378

48:                                               ; preds = %45
  call void @llvm.dbg.declare(metadata ptr %18, metadata !2379, metadata !DIExpression()), !dbg !2381
  store i32 -7, ptr %18, align 4, !dbg !2381
  call void @llvm.dbg.declare(metadata ptr %19, metadata !2382, metadata !DIExpression()), !dbg !2383
  store i32 1, ptr %19, align 4, !dbg !2383
  call void @llvm.dbg.declare(metadata ptr %20, metadata !2384, metadata !DIExpression()), !dbg !2387
  call void @llvm.memcpy.p0.p0.i64(ptr align 16 %20, ptr align 16 @__const._ZL6func_1v.l_1479, i64 72, i1 false), !dbg !2387
  call void @llvm.dbg.declare(metadata ptr %21, metadata !2388, metadata !DIExpression()), !dbg !2392
  call void @llvm.memcpy.p0.p0.i64(ptr align 16 %21, ptr align 16 @__const._ZL6func_1v.l_1484, i64 1792, i1 false), !dbg !2392
  call void @llvm.dbg.declare(metadata ptr %22, metadata !2393, metadata !DIExpression()), !dbg !2395
  store ptr getelementptr inbounds ([10 x ptr], ptr @_ZL6g_1482, i64 0, i64 2), ptr %22, align 8, !dbg !2395
  call void @llvm.dbg.declare(metadata ptr %23, metadata !2396, metadata !DIExpression()), !dbg !2400
  call void @llvm.memcpy.p0.p0.i64(ptr align 16 %23, ptr align 16 @__const._ZL6func_1v.l_1598, i64 1920, i1 false), !dbg !2400
  call void @llvm.dbg.declare(metadata ptr %24, metadata !2401, metadata !DIExpression()), !dbg !2402
  call void @llvm.dbg.declare(metadata ptr %25, metadata !2403, metadata !DIExpression()), !dbg !2404
  call void @llvm.dbg.declare(metadata ptr %26, metadata !2405, metadata !DIExpression()), !dbg !2406
  br label %49, !dbg !2407

49:                                               ; preds = %48
  %50 = load i32, ptr @_ZL3g_9, align 4, !dbg !2408
  %51 = trunc i32 %50 to i8, !dbg !2408
  %52 = call noundef zeroext i8 @_ZL25safe_add_func_uint8_t_u_uhh(i8 noundef zeroext %51, i8 noundef zeroext 2), !dbg !2409
  %53 = zext i8 %52 to i32, !dbg !2409
  store i32 %53, ptr @_ZL3g_9, align 4, !dbg !2410
  br label %45, !dbg !2411, !llvm.loop !2412

54:                                               ; preds = %45
  %55 = load ptr, ptr %14, align 8, !dbg !2414
  store ptr getelementptr inbounds ([10 x [9 x [2 x i32]]], ptr @_ZL5g_906, i64 0, i64 2, i64 5), ptr %55, align 8, !dbg !2415
  %56 = load ptr, ptr %15, align 8, !dbg !2416
  %57 = load i8, ptr %56, align 1, !dbg !2417
  %58 = add i8 %57, -1, !dbg !2417
  store i8 %58, ptr %56, align 1, !dbg !2417
  %59 = zext i8 %57 to i32, !dbg !2418
  %60 = load ptr, ptr %14, align 8, !dbg !2419
  %61 = load ptr, ptr %60, align 8, !dbg !2420
  %62 = load i32, ptr %61, align 4, !dbg !2421
  %63 = and i32 %59, %62, !dbg !2422
  %64 = sext i32 %63 to i64, !dbg !2423
  %65 = icmp sgt i64 102, %64, !dbg !2424
  %66 = zext i1 %65 to i32, !dbg !2425
  %67 = load i32, ptr %16, align 4, !dbg !2426
  %68 = and i32 %67, %66, !dbg !2426
  store i32 %68, ptr %16, align 4, !dbg !2426
  %69 = load i32, ptr @_ZL6g_1496, align 4, !dbg !2427
  %70 = trunc i32 %69 to i16, !dbg !2428
  store i16 %70, ptr %1, align 2, !dbg !2429
  br label %80, !dbg !2429

71:                                               ; No predecessors!
  %72 = load i32, ptr @_ZL3g_6, align 4, !dbg !2430
  %73 = add nsw i32 %72, -1, !dbg !2430
  store i32 %73, ptr @_ZL3g_6, align 4, !dbg !2430
  br label %31, !dbg !2431, !llvm.loop !2432

74:                                               ; preds = %31
  br label %75, !dbg !2434

75:                                               ; preds = %74
  %76 = load i32, ptr @_ZL3g_3, align 4, !dbg !2435
  %77 = add nsw i32 %76, 1, !dbg !2435
  store i32 %77, ptr @_ZL3g_3, align 4, !dbg !2435
  br label %27, !dbg !2436, !llvm.loop !2437

78:                                               ; preds = %27
  %79 = load i16, ptr @_ZL5g_496, align 2, !dbg !2439
  store i16 %79, ptr %1, align 2, !dbg !2440
  br label %80, !dbg !2440

80:                                               ; preds = %78, %54
  %81 = load i16, ptr %1, align 2, !dbg !2441
  ret i16 %81, !dbg !2441
}

; Function Attrs: mustprogress noinline nounwind optnone sspstrong uwtable
define internal void @_ZL15transparent_crcmPci(i64 noundef %0, ptr noundef %1, i32 noundef %2) #3 !dbg !2442 {
  %4 = alloca i64, align 8
  %5 = alloca ptr, align 8
  %6 = alloca i32, align 4
  store i64 %0, ptr %4, align 8
  call void @llvm.dbg.declare(metadata ptr %4, metadata !2445, metadata !DIExpression()), !dbg !2446
  store ptr %1, ptr %5, align 8
  call void @llvm.dbg.declare(metadata ptr %5, metadata !2447, metadata !DIExpression()), !dbg !2448
  store i32 %2, ptr %6, align 4
  call void @llvm.dbg.declare(metadata ptr %6, metadata !2449, metadata !DIExpression()), !dbg !2450
  %7 = load i64, ptr %4, align 8, !dbg !2451
  call void @_ZL12crc32_8bytesm(i64 noundef %7), !dbg !2452
  %8 = load i32, ptr %6, align 4, !dbg !2453
  %9 = icmp ne i32 %8, 0, !dbg !2453
  br i1 %9, label %10, label %16, !dbg !2455

10:                                               ; preds = %3
  %11 = load ptr, ptr %5, align 8, !dbg !2456
  %12 = load i32, ptr @_ZL13crc32_context, align 4, !dbg !2458
  %13 = zext i32 %12 to i64, !dbg !2458
  %14 = xor i64 %13, 4294967295, !dbg !2459
  %15 = call i32 (ptr, ...) @printf(ptr noundef @.str.128, ptr noundef %11, i64 noundef %14), !dbg !2460
  br label %16, !dbg !2461

16:                                               ; preds = %10, %3
  ret void, !dbg !2462
}

declare i32 @printf(ptr noundef, ...) #4

; Function Attrs: mustprogress noinline nounwind optnone sspstrong uwtable
define internal void @_ZL17platform_main_endji(i32 noundef %0, i32 noundef %1) #3 !dbg !2463 {
  %3 = alloca i32, align 4
  %4 = alloca i32, align 4
  store i32 %0, ptr %3, align 4
  call void @llvm.dbg.declare(metadata ptr %3, metadata !2466, metadata !DIExpression()), !dbg !2467
  store i32 %1, ptr %4, align 4
  call void @llvm.dbg.declare(metadata ptr %4, metadata !2468, metadata !DIExpression()), !dbg !2469
  %5 = load i32, ptr %3, align 4, !dbg !2470
  %6 = call i32 (ptr, ...) @printf(ptr noundef @.str.135, i32 noundef %5), !dbg !2471
  ret void, !dbg !2472
}

; Function Attrs: nocallback nofree nounwind willreturn memory(argmem: readwrite)
declare void @llvm.memcpy.p0.p0.i64(ptr noalias nocapture writeonly, ptr noalias nocapture readonly, i64, i1 immarg) #5

; Function Attrs: nocallback nofree nounwind willreturn memory(argmem: write)
declare void @llvm.memset.p0.i64(ptr nocapture writeonly, i8, i64, i1 immarg) #6

; Function Attrs: mustprogress noinline nounwind optnone sspstrong uwtable
define internal noundef zeroext i8 @_ZL25safe_add_func_uint8_t_u_uhh(i8 noundef zeroext %0, i8 noundef zeroext %1) #3 !dbg !2473 {
  %3 = alloca i8, align 1
  %4 = alloca i8, align 1
  store i8 %0, ptr %3, align 1
  call void @llvm.dbg.declare(metadata ptr %3, metadata !2477, metadata !DIExpression()), !dbg !2478
  store i8 %1, ptr %4, align 1
  call void @llvm.dbg.declare(metadata ptr %4, metadata !2479, metadata !DIExpression()), !dbg !2480
  %5 = load i8, ptr %3, align 1, !dbg !2481
  %6 = zext i8 %5 to i32, !dbg !2481
  %7 = load i8, ptr %4, align 1, !dbg !2482
  %8 = zext i8 %7 to i32, !dbg !2482
  %9 = add nsw i32 %6, %8, !dbg !2483
  %10 = trunc i32 %9 to i8, !dbg !2481
  ret i8 %10, !dbg !2484
}

; Function Attrs: mustprogress noinline nounwind optnone sspstrong uwtable
define internal void @_ZL12crc32_8bytesm(i64 noundef %0) #3 !dbg !2485 {
  %2 = alloca i64, align 8
  store i64 %0, ptr %2, align 8
  call void @llvm.dbg.declare(metadata ptr %2, metadata !2488, metadata !DIExpression()), !dbg !2489
  %3 = load i64, ptr %2, align 8, !dbg !2490
  %4 = lshr i64 %3, 0, !dbg !2491
  %5 = and i64 %4, 255, !dbg !2492
  %6 = trunc i64 %5 to i8, !dbg !2493
  call void @_ZL10crc32_byteh(i8 noundef zeroext %6), !dbg !2494
  %7 = load i64, ptr %2, align 8, !dbg !2495
  %8 = lshr i64 %7, 8, !dbg !2496
  %9 = and i64 %8, 255, !dbg !2497
  %10 = trunc i64 %9 to i8, !dbg !2498
  call void @_ZL10crc32_byteh(i8 noundef zeroext %10), !dbg !2499
  %11 = load i64, ptr %2, align 8, !dbg !2500
  %12 = lshr i64 %11, 16, !dbg !2501
  %13 = and i64 %12, 255, !dbg !2502
  %14 = trunc i64 %13 to i8, !dbg !2503
  call void @_ZL10crc32_byteh(i8 noundef zeroext %14), !dbg !2504
  %15 = load i64, ptr %2, align 8, !dbg !2505
  %16 = lshr i64 %15, 24, !dbg !2506
  %17 = and i64 %16, 255, !dbg !2507
  %18 = trunc i64 %17 to i8, !dbg !2508
  call void @_ZL10crc32_byteh(i8 noundef zeroext %18), !dbg !2509
  %19 = load i64, ptr %2, align 8, !dbg !2510
  %20 = lshr i64 %19, 32, !dbg !2511
  %21 = and i64 %20, 255, !dbg !2512
  %22 = trunc i64 %21 to i8, !dbg !2513
  call void @_ZL10crc32_byteh(i8 noundef zeroext %22), !dbg !2514
  %23 = load i64, ptr %2, align 8, !dbg !2515
  %24 = lshr i64 %23, 40, !dbg !2516
  %25 = and i64 %24, 255, !dbg !2517
  %26 = trunc i64 %25 to i8, !dbg !2518
  call void @_ZL10crc32_byteh(i8 noundef zeroext %26), !dbg !2519
  %27 = load i64, ptr %2, align 8, !dbg !2520
  %28 = lshr i64 %27, 48, !dbg !2521
  %29 = and i64 %28, 255, !dbg !2522
  %30 = trunc i64 %29 to i8, !dbg !2523
  call void @_ZL10crc32_byteh(i8 noundef zeroext %30), !dbg !2524
  %31 = load i64, ptr %2, align 8, !dbg !2525
  %32 = lshr i64 %31, 56, !dbg !2526
  %33 = and i64 %32, 255, !dbg !2527
  %34 = trunc i64 %33 to i8, !dbg !2528
  call void @_ZL10crc32_byteh(i8 noundef zeroext %34), !dbg !2529
  ret void, !dbg !2530
}

; Function Attrs: mustprogress noinline nounwind optnone sspstrong uwtable
define internal void @_ZL10crc32_byteh(i8 noundef zeroext %0) #3 !dbg !2531 {
  %2 = alloca i8, align 1
  store i8 %0, ptr %2, align 1
  call void @llvm.dbg.declare(metadata ptr %2, metadata !2534, metadata !DIExpression()), !dbg !2535
  %3 = load i32, ptr @_ZL13crc32_context, align 4, !dbg !2536
  %4 = lshr i32 %3, 8, !dbg !2537
  %5 = and i32 %4, 16777215, !dbg !2538
  %6 = load i32, ptr @_ZL13crc32_context, align 4, !dbg !2539
  %7 = load i8, ptr %2, align 1, !dbg !2540
  %8 = zext i8 %7 to i32, !dbg !2540
  %9 = xor i32 %6, %8, !dbg !2541
  %10 = and i32 %9, 255, !dbg !2542
  %11 = zext i32 %10 to i64, !dbg !2543
  %12 = getelementptr inbounds [256 x i32], ptr @_ZL9crc32_tab, i64 0, i64 %11, !dbg !2543
  %13 = load i32, ptr %12, align 4, !dbg !2543
  %14 = xor i32 %5, %13, !dbg !2544
  store i32 %14, ptr @_ZL13crc32_context, align 4, !dbg !2545
  ret void, !dbg !2546
}

attributes #0 = { mustprogress noinline norecurse nounwind optnone sspstrong uwtable "frame-pointer"="all" "min-legal-vector-width"="0" "no-trapping-math"="true" "stack-protector-buffer-size"="8" "target-cpu"="x86-64" "target-features"="+cx8,+fxsr,+mmx,+sse,+sse2,+x87" "tune-cpu"="generic" }
attributes #1 = { nocallback nofree nosync nounwind speculatable willreturn memory(none) }
attributes #2 = { nounwind willreturn memory(read) "frame-pointer"="all" "no-trapping-math"="true" "stack-protector-buffer-size"="8" "target-cpu"="x86-64" "target-features"="+cx8,+fxsr,+mmx,+sse,+sse2,+x87" "tune-cpu"="generic" }
attributes #3 = { mustprogress noinline nounwind optnone sspstrong uwtable "frame-pointer"="all" "min-legal-vector-width"="0" "no-trapping-math"="true" "stack-protector-buffer-size"="8" "target-cpu"="x86-64" "target-features"="+cx8,+fxsr,+mmx,+sse,+sse2,+x87" "tune-cpu"="generic" }
attributes #4 = { "frame-pointer"="all" "no-trapping-math"="true" "stack-protector-buffer-size"="8" "target-cpu"="x86-64" "target-features"="+cx8,+fxsr,+mmx,+sse,+sse2,+x87" "tune-cpu"="generic" }
attributes #5 = { nocallback nofree nounwind willreturn memory(argmem: readwrite) }
attributes #6 = { nocallback nofree nounwind willreturn memory(argmem: write) }
attributes #7 = { nounwind willreturn memory(read) }

!llvm.dbg.cu = !{!10}
!llvm.module.flags = !{!1072, !1073, !1074, !1075, !1076, !1077, !1078}
!llvm.ident = !{!1079}

!0 = !DIGlobalVariableExpression(var: !1, expr: !DIExpression())
!1 = distinct !DIGlobalVariable(scope: null, file: !2, line: 1605, type: !3, isLocal: true, isDefinition: true)
!2 = !DIFile(filename: "cpp/csmith3.cpp", directory: "/home/kai/src/ll2x", checksumkind: CSK_MD5, checksum: "a995cfb98509b9f45bc86ca253daad59")
!3 = !DICompositeType(tag: DW_TAG_array_type, baseType: !4, size: 16, elements: !6)
!4 = !DIDerivedType(tag: DW_TAG_const_type, baseType: !5)
!5 = !DIBasicType(name: "char", size: 8, encoding: DW_ATE_signed_char)
!6 = !{!7}
!7 = !DISubrange(count: 2)
!8 = !DIGlobalVariableExpression(var: !9, expr: !DIExpression())
!9 = distinct !DIGlobalVariable(name: "g_2", linkageName: "_ZL3g_2", scope: !10, file: !2, line: 70, type: !1070, isLocal: true, isDefinition: true)
!10 = distinct !DICompileUnit(language: DW_LANG_C_plus_plus_14, file: !2, producer: "clang version 16.0.6", isOptimized: false, runtimeVersion: 0, emissionKind: FullDebug, globals: !11, imports: !711, splitDebugInlining: false, nameTableKind: None)
!11 = !{!0, !12, !17, !22, !27, !29, !31, !36, !41, !46, !51, !53, !58, !60, !65, !67, !69, !71, !73, !75, !77, !79, !84, !89, !97, !99, !101, !103, !105, !107, !109, !111, !116, !118, !125, !127, !129, !131, !133, !135, !137, !139, !141, !143, !145, !147, !149, !151, !153, !155, !157, !159, !161, !163, !165, !167, !169, !171, !173, !175, !177, !179, !181, !183, !185, !187, !189, !195, !200, !202, !204, !206, !208, !210, !215, !217, !219, !221, !223, !225, !227, !229, !231, !233, !235, !237, !239, !241, !243, !245, !247, !249, !251, !253, !258, !263, !265, !267, !269, !271, !273, !275, !277, !279, !281, !283, !285, !287, !289, !291, !293, !295, !297, !299, !301, !303, !305, !307, !309, !311, !313, !315, !317, !319, !321, !323, !325, !327, !329, !331, !333, !335, !337, !346, !352, !365, !8, !370, !372, !374, !376, !378, !407, !409, !411, !413, !415, !436, !441, !443, !445, !448, !451, !453, !455, !459, !461, !464, !468, !474, !480, !482, !486, !488, !492, !497, !499, !502, !504, !507, !509, !511, !515, !517, !519, !521, !523, !525, !529, !531, !533, !535, !539, !541, !543, !545, !547, !549, !551, !553, !555, !557, !559, !561, !563, !566, !568, !570, !574, !576, !578, !580, !582, !584, !586, !588, !590, !592, !596, !598, !601, !603, !606, !608, !610, !613, !616, !618, !622, !626, !628, !630, !632, !634, !636, !638, !640, !644, !646, !648, !652, !655, !657, !659, !661, !663, !665, !667, !669, !671, !673, !675, !677, !679, !681, !683, !685, !687, !689, !691, !694, !696, !698, !700, !702, !704, !706, !709}
!12 = !DIGlobalVariableExpression(var: !13, expr: !DIExpression())
!13 = distinct !DIGlobalVariable(scope: null, file: !2, line: 1613, type: !14, isLocal: true, isDefinition: true)
!14 = !DICompositeType(tag: DW_TAG_array_type, baseType: !4, size: 80, elements: !15)
!15 = !{!16}
!16 = !DISubrange(count: 10)
!17 = !DIGlobalVariableExpression(var: !18, expr: !DIExpression())
!18 = distinct !DIGlobalVariable(scope: null, file: !2, line: 1614, type: !19, isLocal: true, isDefinition: true)
!19 = !DICompositeType(tag: DW_TAG_array_type, baseType: !4, size: 144, elements: !20)
!20 = !{!21}
!21 = !DISubrange(count: 18)
!22 = !DIGlobalVariableExpression(var: !23, expr: !DIExpression())
!23 = distinct !DIGlobalVariable(scope: null, file: !2, line: 1618, type: !24, isLocal: true, isDefinition: true)
!24 = !DICompositeType(tag: DW_TAG_array_type, baseType: !4, size: 32, elements: !25)
!25 = !{!26}
!26 = !DISubrange(count: 4)
!27 = !DIGlobalVariableExpression(var: !28, expr: !DIExpression())
!28 = distinct !DIGlobalVariable(scope: null, file: !2, line: 1619, type: !24, isLocal: true, isDefinition: true)
!29 = !DIGlobalVariableExpression(var: !30, expr: !DIExpression())
!30 = distinct !DIGlobalVariable(scope: null, file: !2, line: 1620, type: !24, isLocal: true, isDefinition: true)
!31 = !DIGlobalVariableExpression(var: !32, expr: !DIExpression())
!32 = distinct !DIGlobalVariable(scope: null, file: !2, line: 1621, type: !33, isLocal: true, isDefinition: true)
!33 = !DICompositeType(tag: DW_TAG_array_type, baseType: !4, size: 64, elements: !34)
!34 = !{!35}
!35 = !DISubrange(count: 8)
!36 = !DIGlobalVariableExpression(var: !37, expr: !DIExpression())
!37 = distinct !DIGlobalVariable(scope: null, file: !2, line: 1624, type: !38, isLocal: true, isDefinition: true)
!38 = !DICompositeType(tag: DW_TAG_array_type, baseType: !4, size: 88, elements: !39)
!39 = !{!40}
!40 = !DISubrange(count: 11)
!41 = !DIGlobalVariableExpression(var: !42, expr: !DIExpression())
!42 = distinct !DIGlobalVariable(scope: null, file: !2, line: 1625, type: !43, isLocal: true, isDefinition: true)
!43 = !DICompositeType(tag: DW_TAG_array_type, baseType: !4, size: 112, elements: !44)
!44 = !{!45}
!45 = !DISubrange(count: 14)
!46 = !DIGlobalVariableExpression(var: !47, expr: !DIExpression())
!47 = distinct !DIGlobalVariable(scope: null, file: !2, line: 1628, type: !48, isLocal: true, isDefinition: true)
!48 = !DICompositeType(tag: DW_TAG_array_type, baseType: !4, size: 40, elements: !49)
!49 = !{!50}
!50 = !DISubrange(count: 5)
!51 = !DIGlobalVariableExpression(var: !52, expr: !DIExpression())
!52 = distinct !DIGlobalVariable(scope: null, file: !2, line: 1629, type: !48, isLocal: true, isDefinition: true)
!53 = !DIGlobalVariableExpression(var: !54, expr: !DIExpression())
!54 = distinct !DIGlobalVariable(scope: null, file: !2, line: 1630, type: !55, isLocal: true, isDefinition: true)
!55 = !DICompositeType(tag: DW_TAG_array_type, baseType: !4, size: 48, elements: !56)
!56 = !{!57}
!57 = !DISubrange(count: 6)
!58 = !DIGlobalVariableExpression(var: !59, expr: !DIExpression())
!59 = distinct !DIGlobalVariable(scope: null, file: !2, line: 1631, type: !55, isLocal: true, isDefinition: true)
!60 = !DIGlobalVariableExpression(var: !61, expr: !DIExpression())
!61 = distinct !DIGlobalVariable(scope: null, file: !2, line: 1632, type: !62, isLocal: true, isDefinition: true)
!62 = !DICompositeType(tag: DW_TAG_array_type, baseType: !4, size: 72, elements: !63)
!63 = !{!64}
!64 = !DISubrange(count: 9)
!65 = !DIGlobalVariableExpression(var: !66, expr: !DIExpression())
!66 = distinct !DIGlobalVariable(scope: null, file: !2, line: 1633, type: !55, isLocal: true, isDefinition: true)
!67 = !DIGlobalVariableExpression(var: !68, expr: !DIExpression())
!68 = distinct !DIGlobalVariable(scope: null, file: !2, line: 1634, type: !55, isLocal: true, isDefinition: true)
!69 = !DIGlobalVariableExpression(var: !70, expr: !DIExpression())
!70 = distinct !DIGlobalVariable(scope: null, file: !2, line: 1635, type: !55, isLocal: true, isDefinition: true)
!71 = !DIGlobalVariableExpression(var: !72, expr: !DIExpression())
!72 = distinct !DIGlobalVariable(scope: null, file: !2, line: 1638, type: !62, isLocal: true, isDefinition: true)
!73 = !DIGlobalVariableExpression(var: !74, expr: !DIExpression())
!74 = distinct !DIGlobalVariable(scope: null, file: !2, line: 1642, type: !55, isLocal: true, isDefinition: true)
!75 = !DIGlobalVariableExpression(var: !76, expr: !DIExpression())
!76 = distinct !DIGlobalVariable(scope: null, file: !2, line: 1643, type: !55, isLocal: true, isDefinition: true)
!77 = !DIGlobalVariableExpression(var: !78, expr: !DIExpression())
!78 = distinct !DIGlobalVariable(scope: null, file: !2, line: 1644, type: !62, isLocal: true, isDefinition: true)
!79 = !DIGlobalVariableExpression(var: !80, expr: !DIExpression())
!80 = distinct !DIGlobalVariable(scope: null, file: !2, line: 1651, type: !81, isLocal: true, isDefinition: true)
!81 = !DICompositeType(tag: DW_TAG_array_type, baseType: !4, size: 120, elements: !82)
!82 = !{!83}
!83 = !DISubrange(count: 15)
!84 = !DIGlobalVariableExpression(var: !85, expr: !DIExpression())
!85 = distinct !DIGlobalVariable(scope: null, file: !2, line: 1652, type: !86, isLocal: true, isDefinition: true)
!86 = !DICompositeType(tag: DW_TAG_array_type, baseType: !4, size: 176, elements: !87)
!87 = !{!88}
!88 = !DISubrange(count: 22)
!89 = !DIGlobalVariableExpression(var: !90, expr: !DIExpression(DW_OP_constu, 1267367629, DW_OP_stack_value))
!90 = distinct !DIGlobalVariable(name: "g_234", scope: !10, file: !2, line: 94, type: !91, isLocal: true, isDefinition: true)
!91 = !DIDerivedType(tag: DW_TAG_const_type, baseType: !92)
!92 = !DIDerivedType(tag: DW_TAG_typedef, name: "int32_t", file: !93, line: 26, baseType: !94)
!93 = !DIFile(filename: "/usr/include/bits/stdint-intn.h", directory: "", checksumkind: CSK_MD5, checksum: "85f68316edee664d7bd685b977adf677")
!94 = !DIDerivedType(tag: DW_TAG_typedef, name: "__int32_t", file: !95, line: 41, baseType: !96)
!95 = !DIFile(filename: "/usr/include/bits/types.h", directory: "", checksumkind: CSK_MD5, checksum: "4a64d909bcfa62a0a7682c3ac78c6965")
!96 = !DIBasicType(name: "int", size: 32, encoding: DW_ATE_signed)
!97 = !DIGlobalVariableExpression(var: !98, expr: !DIExpression())
!98 = distinct !DIGlobalVariable(scope: null, file: !2, line: 1657, type: !55, isLocal: true, isDefinition: true)
!99 = !DIGlobalVariableExpression(var: !100, expr: !DIExpression())
!100 = distinct !DIGlobalVariable(scope: null, file: !2, line: 1658, type: !55, isLocal: true, isDefinition: true)
!101 = !DIGlobalVariableExpression(var: !102, expr: !DIExpression())
!102 = distinct !DIGlobalVariable(scope: null, file: !2, line: 1659, type: !55, isLocal: true, isDefinition: true)
!103 = !DIGlobalVariableExpression(var: !104, expr: !DIExpression())
!104 = distinct !DIGlobalVariable(scope: null, file: !2, line: 1666, type: !81, isLocal: true, isDefinition: true)
!105 = !DIGlobalVariableExpression(var: !106, expr: !DIExpression())
!106 = distinct !DIGlobalVariable(scope: null, file: !2, line: 1672, type: !62, isLocal: true, isDefinition: true)
!107 = !DIGlobalVariableExpression(var: !108, expr: !DIExpression())
!108 = distinct !DIGlobalVariable(scope: null, file: !2, line: 1673, type: !62, isLocal: true, isDefinition: true)
!109 = !DIGlobalVariableExpression(var: !110, expr: !DIExpression())
!110 = distinct !DIGlobalVariable(scope: null, file: !2, line: 1674, type: !55, isLocal: true, isDefinition: true)
!111 = !DIGlobalVariableExpression(var: !112, expr: !DIExpression())
!112 = distinct !DIGlobalVariable(scope: null, file: !2, line: 1679, type: !113, isLocal: true, isDefinition: true)
!113 = !DICompositeType(tag: DW_TAG_array_type, baseType: !4, size: 96, elements: !114)
!114 = !{!115}
!115 = !DISubrange(count: 12)
!116 = !DIGlobalVariableExpression(var: !117, expr: !DIExpression())
!117 = distinct !DIGlobalVariable(scope: null, file: !2, line: 1684, type: !62, isLocal: true, isDefinition: true)
!118 = !DIGlobalVariableExpression(var: !119, expr: !DIExpression(DW_OP_constu, 13, DW_OP_stack_value))
!119 = distinct !DIGlobalVariable(name: "g_605", scope: !10, file: !2, line: 106, type: !120, isLocal: true, isDefinition: true)
!120 = !DIDerivedType(tag: DW_TAG_const_type, baseType: !121)
!121 = !DIDerivedType(tag: DW_TAG_typedef, name: "uint8_t", file: !122, line: 24, baseType: !123)
!122 = !DIFile(filename: "/usr/include/bits/stdint-uintn.h", directory: "", checksumkind: CSK_MD5, checksum: "4ecee94d7257cd86659727d06a979b60")
!123 = !DIDerivedType(tag: DW_TAG_typedef, name: "__uint8_t", file: !95, line: 38, baseType: !124)
!124 = !DIBasicType(name: "unsigned char", size: 8, encoding: DW_ATE_unsigned_char)
!125 = !DIGlobalVariableExpression(var: !126, expr: !DIExpression())
!126 = distinct !DIGlobalVariable(scope: null, file: !2, line: 1685, type: !55, isLocal: true, isDefinition: true)
!127 = !DIGlobalVariableExpression(var: !128, expr: !DIExpression(DW_OP_constu, 162, DW_OP_stack_value))
!128 = distinct !DIGlobalVariable(name: "g_607", scope: !10, file: !2, line: 107, type: !120, isLocal: true, isDefinition: true)
!129 = !DIGlobalVariableExpression(var: !130, expr: !DIExpression())
!130 = distinct !DIGlobalVariable(scope: null, file: !2, line: 1686, type: !55, isLocal: true, isDefinition: true)
!131 = !DIGlobalVariableExpression(var: !132, expr: !DIExpression())
!132 = distinct !DIGlobalVariable(scope: null, file: !2, line: 1691, type: !81, isLocal: true, isDefinition: true)
!133 = !DIGlobalVariableExpression(var: !134, expr: !DIExpression())
!134 = distinct !DIGlobalVariable(scope: null, file: !2, line: 1698, type: !62, isLocal: true, isDefinition: true)
!135 = !DIGlobalVariableExpression(var: !136, expr: !DIExpression())
!136 = distinct !DIGlobalVariable(scope: null, file: !2, line: 1702, type: !62, isLocal: true, isDefinition: true)
!137 = !DIGlobalVariableExpression(var: !138, expr: !DIExpression())
!138 = distinct !DIGlobalVariable(scope: null, file: !2, line: 1703, type: !55, isLocal: true, isDefinition: true)
!139 = !DIGlobalVariableExpression(var: !140, expr: !DIExpression())
!140 = distinct !DIGlobalVariable(scope: null, file: !2, line: 1704, type: !55, isLocal: true, isDefinition: true)
!141 = !DIGlobalVariableExpression(var: !142, expr: !DIExpression())
!142 = distinct !DIGlobalVariable(scope: null, file: !2, line: 1705, type: !55, isLocal: true, isDefinition: true)
!143 = !DIGlobalVariableExpression(var: !144, expr: !DIExpression())
!144 = distinct !DIGlobalVariable(scope: null, file: !2, line: 1706, type: !55, isLocal: true, isDefinition: true)
!145 = !DIGlobalVariableExpression(var: !146, expr: !DIExpression())
!146 = distinct !DIGlobalVariable(scope: null, file: !2, line: 1707, type: !55, isLocal: true, isDefinition: true)
!147 = !DIGlobalVariableExpression(var: !148, expr: !DIExpression())
!148 = distinct !DIGlobalVariable(scope: null, file: !2, line: 1712, type: !113, isLocal: true, isDefinition: true)
!149 = !DIGlobalVariableExpression(var: !150, expr: !DIExpression())
!150 = distinct !DIGlobalVariable(scope: null, file: !2, line: 1717, type: !55, isLocal: true, isDefinition: true)
!151 = !DIGlobalVariableExpression(var: !152, expr: !DIExpression())
!152 = distinct !DIGlobalVariable(scope: null, file: !2, line: 1718, type: !55, isLocal: true, isDefinition: true)
!153 = !DIGlobalVariableExpression(var: !154, expr: !DIExpression())
!154 = distinct !DIGlobalVariable(scope: null, file: !2, line: 1719, type: !55, isLocal: true, isDefinition: true)
!155 = !DIGlobalVariableExpression(var: !156, expr: !DIExpression())
!156 = distinct !DIGlobalVariable(scope: null, file: !2, line: 1720, type: !55, isLocal: true, isDefinition: true)
!157 = !DIGlobalVariableExpression(var: !158, expr: !DIExpression())
!158 = distinct !DIGlobalVariable(scope: null, file: !2, line: 1721, type: !55, isLocal: true, isDefinition: true)
!159 = !DIGlobalVariableExpression(var: !160, expr: !DIExpression())
!160 = distinct !DIGlobalVariable(scope: null, file: !2, line: 1726, type: !113, isLocal: true, isDefinition: true)
!161 = !DIGlobalVariableExpression(var: !162, expr: !DIExpression())
!162 = distinct !DIGlobalVariable(scope: null, file: !2, line: 1731, type: !55, isLocal: true, isDefinition: true)
!163 = !DIGlobalVariableExpression(var: !164, expr: !DIExpression())
!164 = distinct !DIGlobalVariable(scope: null, file: !2, line: 1732, type: !55, isLocal: true, isDefinition: true)
!165 = !DIGlobalVariableExpression(var: !166, expr: !DIExpression())
!166 = distinct !DIGlobalVariable(scope: null, file: !2, line: 1733, type: !55, isLocal: true, isDefinition: true)
!167 = !DIGlobalVariableExpression(var: !168, expr: !DIExpression())
!168 = distinct !DIGlobalVariable(scope: null, file: !2, line: 1740, type: !81, isLocal: true, isDefinition: true)
!169 = !DIGlobalVariableExpression(var: !170, expr: !DIExpression())
!170 = distinct !DIGlobalVariable(scope: null, file: !2, line: 1746, type: !55, isLocal: true, isDefinition: true)
!171 = !DIGlobalVariableExpression(var: !172, expr: !DIExpression())
!172 = distinct !DIGlobalVariable(scope: null, file: !2, line: 1747, type: !55, isLocal: true, isDefinition: true)
!173 = !DIGlobalVariableExpression(var: !174, expr: !DIExpression())
!174 = distinct !DIGlobalVariable(scope: null, file: !2, line: 1748, type: !55, isLocal: true, isDefinition: true)
!175 = !DIGlobalVariableExpression(var: !176, expr: !DIExpression())
!176 = distinct !DIGlobalVariable(scope: null, file: !2, line: 1749, type: !55, isLocal: true, isDefinition: true)
!177 = !DIGlobalVariableExpression(var: !178, expr: !DIExpression())
!178 = distinct !DIGlobalVariable(scope: null, file: !2, line: 1750, type: !55, isLocal: true, isDefinition: true)
!179 = !DIGlobalVariableExpression(var: !180, expr: !DIExpression())
!180 = distinct !DIGlobalVariable(scope: null, file: !2, line: 1751, type: !55, isLocal: true, isDefinition: true)
!181 = !DIGlobalVariableExpression(var: !182, expr: !DIExpression())
!182 = distinct !DIGlobalVariable(scope: null, file: !2, line: 1752, type: !55, isLocal: true, isDefinition: true)
!183 = !DIGlobalVariableExpression(var: !184, expr: !DIExpression())
!184 = distinct !DIGlobalVariable(scope: null, file: !2, line: 1753, type: !62, isLocal: true, isDefinition: true)
!185 = !DIGlobalVariableExpression(var: !186, expr: !DIExpression())
!186 = distinct !DIGlobalVariable(scope: null, file: !2, line: 1754, type: !62, isLocal: true, isDefinition: true)
!187 = !DIGlobalVariableExpression(var: !188, expr: !DIExpression())
!188 = distinct !DIGlobalVariable(scope: null, file: !2, line: 1755, type: !62, isLocal: true, isDefinition: true)
!189 = !DIGlobalVariableExpression(var: !190, expr: !DIExpression(DW_OP_constu, 6610021086835380521, DW_OP_stack_value))
!190 = distinct !DIGlobalVariable(name: "g_1057", scope: !10, file: !2, line: 142, type: !191, isLocal: true, isDefinition: true)
!191 = !DIDerivedType(tag: DW_TAG_const_type, baseType: !192)
!192 = !DIDerivedType(tag: DW_TAG_typedef, name: "int64_t", file: !93, line: 27, baseType: !193)
!193 = !DIDerivedType(tag: DW_TAG_typedef, name: "__int64_t", file: !95, line: 44, baseType: !194)
!194 = !DIBasicType(name: "long", size: 64, encoding: DW_ATE_signed)
!195 = !DIGlobalVariableExpression(var: !196, expr: !DIExpression())
!196 = distinct !DIGlobalVariable(scope: null, file: !2, line: 1756, type: !197, isLocal: true, isDefinition: true)
!197 = !DICompositeType(tag: DW_TAG_array_type, baseType: !4, size: 56, elements: !198)
!198 = !{!199}
!199 = !DISubrange(count: 7)
!200 = !DIGlobalVariableExpression(var: !201, expr: !DIExpression())
!201 = distinct !DIGlobalVariable(scope: null, file: !2, line: 1757, type: !197, isLocal: true, isDefinition: true)
!202 = !DIGlobalVariableExpression(var: !203, expr: !DIExpression())
!203 = distinct !DIGlobalVariable(scope: null, file: !2, line: 1758, type: !197, isLocal: true, isDefinition: true)
!204 = !DIGlobalVariableExpression(var: !205, expr: !DIExpression())
!205 = distinct !DIGlobalVariable(scope: null, file: !2, line: 1761, type: !14, isLocal: true, isDefinition: true)
!206 = !DIGlobalVariableExpression(var: !207, expr: !DIExpression())
!207 = distinct !DIGlobalVariable(scope: null, file: !2, line: 1765, type: !197, isLocal: true, isDefinition: true)
!208 = !DIGlobalVariableExpression(var: !209, expr: !DIExpression())
!209 = distinct !DIGlobalVariable(scope: null, file: !2, line: 1766, type: !197, isLocal: true, isDefinition: true)
!210 = !DIGlobalVariableExpression(var: !211, expr: !DIExpression())
!211 = distinct !DIGlobalVariable(scope: null, file: !2, line: 1771, type: !212, isLocal: true, isDefinition: true)
!212 = !DICompositeType(tag: DW_TAG_array_type, baseType: !4, size: 104, elements: !213)
!213 = !{!214}
!214 = !DISubrange(count: 13)
!215 = !DIGlobalVariableExpression(var: !216, expr: !DIExpression())
!216 = distinct !DIGlobalVariable(scope: null, file: !2, line: 1776, type: !197, isLocal: true, isDefinition: true)
!217 = !DIGlobalVariableExpression(var: !218, expr: !DIExpression())
!218 = distinct !DIGlobalVariable(scope: null, file: !2, line: 1777, type: !197, isLocal: true, isDefinition: true)
!219 = !DIGlobalVariableExpression(var: !220, expr: !DIExpression())
!220 = distinct !DIGlobalVariable(scope: null, file: !2, line: 1778, type: !197, isLocal: true, isDefinition: true)
!221 = !DIGlobalVariableExpression(var: !222, expr: !DIExpression())
!222 = distinct !DIGlobalVariable(scope: null, file: !2, line: 1779, type: !197, isLocal: true, isDefinition: true)
!223 = !DIGlobalVariableExpression(var: !224, expr: !DIExpression())
!224 = distinct !DIGlobalVariable(scope: null, file: !2, line: 1780, type: !197, isLocal: true, isDefinition: true)
!225 = !DIGlobalVariableExpression(var: !226, expr: !DIExpression())
!226 = distinct !DIGlobalVariable(scope: null, file: !2, line: 1781, type: !197, isLocal: true, isDefinition: true)
!227 = !DIGlobalVariableExpression(var: !228, expr: !DIExpression())
!228 = distinct !DIGlobalVariable(scope: null, file: !2, line: 1782, type: !197, isLocal: true, isDefinition: true)
!229 = !DIGlobalVariableExpression(var: !230, expr: !DIExpression())
!230 = distinct !DIGlobalVariable(scope: null, file: !2, line: 1783, type: !197, isLocal: true, isDefinition: true)
!231 = !DIGlobalVariableExpression(var: !232, expr: !DIExpression())
!232 = distinct !DIGlobalVariable(scope: null, file: !2, line: 1784, type: !197, isLocal: true, isDefinition: true)
!233 = !DIGlobalVariableExpression(var: !234, expr: !DIExpression())
!234 = distinct !DIGlobalVariable(scope: null, file: !2, line: 1789, type: !212, isLocal: true, isDefinition: true)
!235 = !DIGlobalVariableExpression(var: !236, expr: !DIExpression())
!236 = distinct !DIGlobalVariable(scope: null, file: !2, line: 1794, type: !14, isLocal: true, isDefinition: true)
!237 = !DIGlobalVariableExpression(var: !238, expr: !DIExpression())
!238 = distinct !DIGlobalVariable(scope: null, file: !2, line: 1797, type: !212, isLocal: true, isDefinition: true)
!239 = !DIGlobalVariableExpression(var: !240, expr: !DIExpression())
!240 = distinct !DIGlobalVariable(scope: null, file: !2, line: 1801, type: !197, isLocal: true, isDefinition: true)
!241 = !DIGlobalVariableExpression(var: !242, expr: !DIExpression())
!242 = distinct !DIGlobalVariable(scope: null, file: !2, line: 1804, type: !212, isLocal: true, isDefinition: true)
!243 = !DIGlobalVariableExpression(var: !244, expr: !DIExpression())
!244 = distinct !DIGlobalVariable(scope: null, file: !2, line: 1808, type: !14, isLocal: true, isDefinition: true)
!245 = !DIGlobalVariableExpression(var: !246, expr: !DIExpression())
!246 = distinct !DIGlobalVariable(scope: null, file: !2, line: 1809, type: !197, isLocal: true, isDefinition: true)
!247 = !DIGlobalVariableExpression(var: !248, expr: !DIExpression())
!248 = distinct !DIGlobalVariable(scope: null, file: !2, line: 1810, type: !197, isLocal: true, isDefinition: true)
!249 = !DIGlobalVariableExpression(var: !250, expr: !DIExpression())
!250 = distinct !DIGlobalVariable(scope: null, file: !2, line: 1813, type: !212, isLocal: true, isDefinition: true)
!251 = !DIGlobalVariableExpression(var: !252, expr: !DIExpression())
!252 = distinct !DIGlobalVariable(scope: null, file: !2, line: 1817, type: !14, isLocal: true, isDefinition: true)
!253 = !DIGlobalVariableExpression(var: !254, expr: !DIExpression())
!254 = distinct !DIGlobalVariable(scope: null, file: !2, line: 1824, type: !255, isLocal: true, isDefinition: true)
!255 = !DICompositeType(tag: DW_TAG_array_type, baseType: !4, size: 152, elements: !256)
!256 = !{!257}
!257 = !DISubrange(count: 19)
!258 = !DIGlobalVariableExpression(var: !259, expr: !DIExpression())
!259 = distinct !DIGlobalVariable(scope: null, file: !2, line: 1834, type: !260, isLocal: true, isDefinition: true)
!260 = !DICompositeType(tag: DW_TAG_array_type, baseType: !4, size: 128, elements: !261)
!261 = !{!262}
!262 = !DISubrange(count: 16)
!263 = !DIGlobalVariableExpression(var: !264, expr: !DIExpression())
!264 = distinct !DIGlobalVariable(scope: null, file: !2, line: 1839, type: !14, isLocal: true, isDefinition: true)
!265 = !DIGlobalVariableExpression(var: !266, expr: !DIExpression())
!266 = distinct !DIGlobalVariable(scope: null, file: !2, line: 1840, type: !14, isLocal: true, isDefinition: true)
!267 = !DIGlobalVariableExpression(var: !268, expr: !DIExpression())
!268 = distinct !DIGlobalVariable(scope: null, file: !2, line: 1841, type: !14, isLocal: true, isDefinition: true)
!269 = !DIGlobalVariableExpression(var: !270, expr: !DIExpression())
!270 = distinct !DIGlobalVariable(scope: null, file: !2, line: 1842, type: !14, isLocal: true, isDefinition: true)
!271 = !DIGlobalVariableExpression(var: !272, expr: !DIExpression())
!272 = distinct !DIGlobalVariable(scope: null, file: !2, line: 1843, type: !14, isLocal: true, isDefinition: true)
!273 = !DIGlobalVariableExpression(var: !274, expr: !DIExpression())
!274 = distinct !DIGlobalVariable(scope: null, file: !2, line: 1844, type: !14, isLocal: true, isDefinition: true)
!275 = !DIGlobalVariableExpression(var: !276, expr: !DIExpression())
!276 = distinct !DIGlobalVariable(scope: null, file: !2, line: 1845, type: !14, isLocal: true, isDefinition: true)
!277 = !DIGlobalVariableExpression(var: !278, expr: !DIExpression())
!278 = distinct !DIGlobalVariable(scope: null, file: !2, line: 1850, type: !260, isLocal: true, isDefinition: true)
!279 = !DIGlobalVariableExpression(var: !280, expr: !DIExpression())
!280 = distinct !DIGlobalVariable(scope: null, file: !2, line: 1855, type: !14, isLocal: true, isDefinition: true)
!281 = !DIGlobalVariableExpression(var: !282, expr: !DIExpression())
!282 = distinct !DIGlobalVariable(scope: null, file: !2, line: 1856, type: !14, isLocal: true, isDefinition: true)
!283 = !DIGlobalVariableExpression(var: !284, expr: !DIExpression())
!284 = distinct !DIGlobalVariable(scope: null, file: !2, line: 1861, type: !260, isLocal: true, isDefinition: true)
!285 = !DIGlobalVariableExpression(var: !286, expr: !DIExpression())
!286 = distinct !DIGlobalVariable(scope: null, file: !2, line: 1868, type: !212, isLocal: true, isDefinition: true)
!287 = !DIGlobalVariableExpression(var: !288, expr: !DIExpression())
!288 = distinct !DIGlobalVariable(scope: null, file: !2, line: 1872, type: !14, isLocal: true, isDefinition: true)
!289 = !DIGlobalVariableExpression(var: !290, expr: !DIExpression())
!290 = distinct !DIGlobalVariable(scope: null, file: !2, line: 1873, type: !14, isLocal: true, isDefinition: true)
!291 = !DIGlobalVariableExpression(var: !292, expr: !DIExpression())
!292 = distinct !DIGlobalVariable(scope: null, file: !2, line: 1874, type: !14, isLocal: true, isDefinition: true)
!293 = !DIGlobalVariableExpression(var: !294, expr: !DIExpression())
!294 = distinct !DIGlobalVariable(scope: null, file: !2, line: 1875, type: !14, isLocal: true, isDefinition: true)
!295 = !DIGlobalVariableExpression(var: !296, expr: !DIExpression())
!296 = distinct !DIGlobalVariable(scope: null, file: !2, line: 1876, type: !14, isLocal: true, isDefinition: true)
!297 = !DIGlobalVariableExpression(var: !298, expr: !DIExpression())
!298 = distinct !DIGlobalVariable(scope: null, file: !2, line: 1877, type: !14, isLocal: true, isDefinition: true)
!299 = !DIGlobalVariableExpression(var: !300, expr: !DIExpression())
!300 = distinct !DIGlobalVariable(scope: null, file: !2, line: 1878, type: !14, isLocal: true, isDefinition: true)
!301 = !DIGlobalVariableExpression(var: !302, expr: !DIExpression())
!302 = distinct !DIGlobalVariable(scope: null, file: !2, line: 1879, type: !14, isLocal: true, isDefinition: true)
!303 = !DIGlobalVariableExpression(var: !304, expr: !DIExpression())
!304 = distinct !DIGlobalVariable(scope: null, file: !2, line: 1880, type: !14, isLocal: true, isDefinition: true)
!305 = !DIGlobalVariableExpression(var: !306, expr: !DIExpression())
!306 = distinct !DIGlobalVariable(scope: null, file: !2, line: 1881, type: !14, isLocal: true, isDefinition: true)
!307 = !DIGlobalVariableExpression(var: !308, expr: !DIExpression())
!308 = distinct !DIGlobalVariable(scope: null, file: !2, line: 1882, type: !14, isLocal: true, isDefinition: true)
!309 = !DIGlobalVariableExpression(var: !310, expr: !DIExpression())
!310 = distinct !DIGlobalVariable(scope: null, file: !2, line: 1883, type: !14, isLocal: true, isDefinition: true)
!311 = !DIGlobalVariableExpression(var: !312, expr: !DIExpression())
!312 = distinct !DIGlobalVariable(scope: null, file: !2, line: 1884, type: !14, isLocal: true, isDefinition: true)
!313 = !DIGlobalVariableExpression(var: !314, expr: !DIExpression())
!314 = distinct !DIGlobalVariable(scope: null, file: !2, line: 1885, type: !14, isLocal: true, isDefinition: true)
!315 = !DIGlobalVariableExpression(var: !316, expr: !DIExpression())
!316 = distinct !DIGlobalVariable(scope: null, file: !2, line: 1886, type: !14, isLocal: true, isDefinition: true)
!317 = !DIGlobalVariableExpression(var: !318, expr: !DIExpression())
!318 = distinct !DIGlobalVariable(scope: null, file: !2, line: 1887, type: !14, isLocal: true, isDefinition: true)
!319 = !DIGlobalVariableExpression(var: !320, expr: !DIExpression())
!320 = distinct !DIGlobalVariable(scope: null, file: !2, line: 1890, type: !212, isLocal: true, isDefinition: true)
!321 = !DIGlobalVariableExpression(var: !322, expr: !DIExpression())
!322 = distinct !DIGlobalVariable(scope: null, file: !2, line: 1894, type: !14, isLocal: true, isDefinition: true)
!323 = !DIGlobalVariableExpression(var: !324, expr: !DIExpression())
!324 = distinct !DIGlobalVariable(scope: null, file: !2, line: 1897, type: !212, isLocal: true, isDefinition: true)
!325 = !DIGlobalVariableExpression(var: !326, expr: !DIExpression())
!326 = distinct !DIGlobalVariable(scope: null, file: !2, line: 1901, type: !14, isLocal: true, isDefinition: true)
!327 = !DIGlobalVariableExpression(var: !328, expr: !DIExpression())
!328 = distinct !DIGlobalVariable(scope: null, file: !2, line: 1902, type: !14, isLocal: true, isDefinition: true)
!329 = !DIGlobalVariableExpression(var: !330, expr: !DIExpression())
!330 = distinct !DIGlobalVariable(scope: null, file: !2, line: 1903, type: !14, isLocal: true, isDefinition: true)
!331 = !DIGlobalVariableExpression(var: !332, expr: !DIExpression())
!332 = distinct !DIGlobalVariable(scope: null, file: !2, line: 1904, type: !14, isLocal: true, isDefinition: true)
!333 = !DIGlobalVariableExpression(var: !334, expr: !DIExpression())
!334 = distinct !DIGlobalVariable(scope: null, file: !2, line: 1905, type: !197, isLocal: true, isDefinition: true)
!335 = !DIGlobalVariableExpression(var: !336, expr: !DIExpression())
!336 = distinct !DIGlobalVariable(scope: null, file: !2, line: 1906, type: !14, isLocal: true, isDefinition: true)
!337 = !DIGlobalVariableExpression(var: !338, expr: !DIExpression())
!338 = distinct !DIGlobalVariable(name: "crc32_tab", linkageName: "_ZL9crc32_tab", scope: !10, file: !339, line: 47, type: !340, isLocal: true, isDefinition: true)
!339 = !DIFile(filename: "/usr/local/include/csmith.h", directory: "", checksumkind: CSK_MD5, checksum: "384f85511c9e0cdae8849f8ee261c941")
!340 = !DICompositeType(tag: DW_TAG_array_type, baseType: !341, size: 8192, elements: !344)
!341 = !DIDerivedType(tag: DW_TAG_typedef, name: "uint32_t", file: !122, line: 26, baseType: !342)
!342 = !DIDerivedType(tag: DW_TAG_typedef, name: "__uint32_t", file: !95, line: 42, baseType: !343)
!343 = !DIBasicType(name: "unsigned int", size: 32, encoding: DW_ATE_unsigned)
!344 = !{!345}
!345 = !DISubrange(count: 256)
!346 = !DIGlobalVariableExpression(var: !347, expr: !DIExpression())
!347 = distinct !DIGlobalVariable(name: "g_93", linkageName: "_ZL4g_93", scope: !10, file: !2, line: 79, type: !348, isLocal: true, isDefinition: true)
!348 = !DICompositeType(tag: DW_TAG_array_type, baseType: !349, size: 192, elements: !350)
!349 = !DIDerivedType(tag: DW_TAG_pointer_type, baseType: !92, size: 64)
!350 = !{!351}
!351 = !DISubrange(count: 3)
!352 = !DIGlobalVariableExpression(var: !353, expr: !DIExpression())
!353 = distinct !DIGlobalVariable(name: "g_1482", linkageName: "_ZL6g_1482", scope: !10, file: !2, line: 179, type: !354, isLocal: true, isDefinition: true)
!354 = !DICompositeType(tag: DW_TAG_array_type, baseType: !355, size: 5120, elements: !364)
!355 = !DIDerivedType(tag: DW_TAG_pointer_type, baseType: !356, size: 64)
!356 = distinct !DICompositeType(tag: DW_TAG_union_type, name: "U4", file: !2, line: 63, size: 32, flags: DIFlagTypePassByValue, elements: !357, identifier: "_ZTS2U4")
!357 = !{!358, !359, !360}
!358 = !DIDerivedType(tag: DW_TAG_member, name: "f0", scope: !356, file: !2, line: 64, baseType: !341, size: 32)
!359 = !DIDerivedType(tag: DW_TAG_member, name: "f1", scope: !356, file: !2, line: 65, baseType: !121, size: 8)
!360 = !DIDerivedType(tag: DW_TAG_member, name: "f2", scope: !356, file: !2, line: 66, baseType: !361, size: 16)
!361 = !DIDerivedType(tag: DW_TAG_typedef, name: "int16_t", file: !93, line: 25, baseType: !362)
!362 = !DIDerivedType(tag: DW_TAG_typedef, name: "__int16_t", file: !95, line: 39, baseType: !363)
!363 = !DIBasicType(name: "short", size: 16, encoding: DW_ATE_signed)
!364 = !{!35, !16}
!365 = !DIGlobalVariableExpression(var: !366, expr: !DIExpression())
!366 = distinct !DIGlobalVariable(scope: null, file: !339, line: 114, type: !367, isLocal: true, isDefinition: true)
!367 = !DICompositeType(tag: DW_TAG_array_type, baseType: !4, size: 288, elements: !368)
!368 = !{!369}
!369 = !DISubrange(count: 36)
!370 = !DIGlobalVariableExpression(var: !371, expr: !DIExpression())
!371 = distinct !DIGlobalVariable(name: "g_3", linkageName: "_ZL3g_3", scope: !10, file: !2, line: 71, type: !92, isLocal: true, isDefinition: true)
!372 = !DIGlobalVariableExpression(var: !373, expr: !DIExpression())
!373 = distinct !DIGlobalVariable(name: "g_6", linkageName: "_ZL3g_6", scope: !10, file: !2, line: 72, type: !92, isLocal: true, isDefinition: true)
!374 = !DIGlobalVariableExpression(var: !375, expr: !DIExpression())
!375 = distinct !DIGlobalVariable(name: "g_9", linkageName: "_ZL3g_9", scope: !10, file: !2, line: 73, type: !92, isLocal: true, isDefinition: true)
!376 = !DIGlobalVariableExpression(var: !377, expr: !DIExpression())
!377 = distinct !DIGlobalVariable(name: "g_31", linkageName: "_ZL4g_31", scope: !10, file: !2, line: 74, type: !356, isLocal: true, isDefinition: true)
!378 = !DIGlobalVariableExpression(var: !379, expr: !DIExpression())
!379 = distinct !DIGlobalVariable(name: "g_49", linkageName: "_ZL4g_49", scope: !10, file: !2, line: 76, type: !380, isLocal: true, isDefinition: true)
!380 = !DICompositeType(tag: DW_TAG_array_type, baseType: !381, size: 128, elements: !6)
!381 = distinct !DICompositeType(tag: DW_TAG_union_type, name: "U1", file: !2, line: 20, size: 64, flags: DIFlagTypePassByValue | DIFlagNonTrivial, elements: !382, identifier: "_ZTS2U1")
!382 = !{!383, !387, !391, !392, !399}
!383 = !DIDerivedType(tag: DW_TAG_member, name: "f0", scope: !381, file: !2, line: 21, baseType: !384, size: 8)
!384 = !DIDerivedType(tag: DW_TAG_typedef, name: "int8_t", file: !93, line: 24, baseType: !385)
!385 = !DIDerivedType(tag: DW_TAG_typedef, name: "__int8_t", file: !95, line: 37, baseType: !386)
!386 = !DIBasicType(name: "signed char", size: 8, encoding: DW_ATE_signed_char)
!387 = !DIDerivedType(tag: DW_TAG_member, name: "f1", scope: !381, file: !2, line: 22, baseType: !388, size: 64)
!388 = !DIDerivedType(tag: DW_TAG_typedef, name: "uint64_t", file: !122, line: 27, baseType: !389)
!389 = !DIDerivedType(tag: DW_TAG_typedef, name: "__uint64_t", file: !95, line: 45, baseType: !390)
!390 = !DIBasicType(name: "unsigned long", size: 64, encoding: DW_ATE_unsigned)
!391 = !DIDerivedType(tag: DW_TAG_member, name: "f2", scope: !381, file: !2, line: 23, baseType: !341, size: 32)
!392 = !DISubprogram(name: "operator=", linkageName: "_ZN2U1aSERKS_", scope: !381, file: !2, line: 24, type: !393, scopeLine: 24, flags: DIFlagPrototyped, spFlags: 0)
!393 = !DISubroutineType(types: !394)
!394 = !{!395, !396, !397}
!395 = !DIDerivedType(tag: DW_TAG_reference_type, baseType: !381, size: 64)
!396 = !DIDerivedType(tag: DW_TAG_pointer_type, baseType: !381, size: 64, flags: DIFlagArtificial | DIFlagObjectPointer)
!397 = !DIDerivedType(tag: DW_TAG_reference_type, baseType: !398, size: 64)
!398 = !DIDerivedType(tag: DW_TAG_const_type, baseType: !381)
!399 = !DISubprogram(name: "operator=", linkageName: "_ZNV2U1aSERVKS_", scope: !381, file: !2, line: 31, type: !400, scopeLine: 31, flags: DIFlagPrototyped, spFlags: 0)
!400 = !DISubroutineType(types: !401)
!401 = !{!402, !404, !405}
!402 = !DIDerivedType(tag: DW_TAG_reference_type, baseType: !403, size: 64)
!403 = !DIDerivedType(tag: DW_TAG_volatile_type, baseType: !381)
!404 = !DIDerivedType(tag: DW_TAG_pointer_type, baseType: !403, size: 64, flags: DIFlagArtificial | DIFlagObjectPointer)
!405 = !DIDerivedType(tag: DW_TAG_reference_type, baseType: !406, size: 64)
!406 = !DIDerivedType(tag: DW_TAG_const_type, baseType: !403)
!407 = !DIGlobalVariableExpression(var: !408, expr: !DIExpression())
!408 = distinct !DIGlobalVariable(name: "g_73", linkageName: "_ZL4g_73", scope: !10, file: !2, line: 77, type: !92, isLocal: true, isDefinition: true)
!409 = !DIGlobalVariableExpression(var: !410, expr: !DIExpression())
!410 = distinct !DIGlobalVariable(name: "g_87", linkageName: "_ZL4g_87", scope: !10, file: !2, line: 78, type: !92, isLocal: true, isDefinition: true)
!411 = !DIGlobalVariableExpression(var: !412, expr: !DIExpression())
!412 = distinct !DIGlobalVariable(name: "g_101", linkageName: "_ZL5g_101", scope: !10, file: !2, line: 80, type: !192, isLocal: true, isDefinition: true)
!413 = !DIGlobalVariableExpression(var: !414, expr: !DIExpression())
!414 = distinct !DIGlobalVariable(name: "g_110", linkageName: "_ZL5g_110", scope: !10, file: !2, line: 81, type: !192, isLocal: true, isDefinition: true)
!415 = !DIGlobalVariableExpression(var: !416, expr: !DIExpression())
!416 = distinct !DIGlobalVariable(name: "g_119", linkageName: "_ZL5g_119", scope: !10, file: !2, line: 82, type: !417, isLocal: true, isDefinition: true)
!417 = distinct !DICompositeType(tag: DW_TAG_union_type, name: "U3", file: !2, line: 44, size: 32, flags: DIFlagTypePassByValue | DIFlagNonTrivial, elements: !418, identifier: "_ZTS2U3")
!418 = !{!419, !420, !421, !428}
!419 = !DIDerivedType(tag: DW_TAG_member, name: "f0", scope: !417, file: !2, line: 45, baseType: !384, size: 8)
!420 = !DIDerivedType(tag: DW_TAG_member, name: "f1", scope: !417, file: !2, line: 46, baseType: !343, size: 25, flags: DIFlagBitField, extraData: i64 0)
!421 = !DISubprogram(name: "operator=", linkageName: "_ZN2U3aSERKS_", scope: !417, file: !2, line: 47, type: !422, scopeLine: 47, flags: DIFlagPrototyped, spFlags: 0)
!422 = !DISubroutineType(types: !423)
!423 = !{!424, !425, !426}
!424 = !DIDerivedType(tag: DW_TAG_reference_type, baseType: !417, size: 64)
!425 = !DIDerivedType(tag: DW_TAG_pointer_type, baseType: !417, size: 64, flags: DIFlagArtificial | DIFlagObjectPointer)
!426 = !DIDerivedType(tag: DW_TAG_reference_type, baseType: !427, size: 64)
!427 = !DIDerivedType(tag: DW_TAG_const_type, baseType: !417)
!428 = !DISubprogram(name: "operator=", linkageName: "_ZNV2U3aSERVKS_", scope: !417, file: !2, line: 54, type: !429, scopeLine: 54, flags: DIFlagPrototyped, spFlags: 0)
!429 = !DISubroutineType(types: !430)
!430 = !{!431, !433, !434}
!431 = !DIDerivedType(tag: DW_TAG_reference_type, baseType: !432, size: 64)
!432 = !DIDerivedType(tag: DW_TAG_volatile_type, baseType: !417)
!433 = !DIDerivedType(tag: DW_TAG_pointer_type, baseType: !432, size: 64, flags: DIFlagArtificial | DIFlagObjectPointer)
!434 = !DIDerivedType(tag: DW_TAG_reference_type, baseType: !435, size: 64)
!435 = !DIDerivedType(tag: DW_TAG_const_type, baseType: !432)
!436 = !DIGlobalVariableExpression(var: !437, expr: !DIExpression())
!437 = distinct !DIGlobalVariable(name: "g_132", linkageName: "_ZL5g_132", scope: !10, file: !2, line: 83, type: !438, isLocal: true, isDefinition: true)
!438 = !DIDerivedType(tag: DW_TAG_typedef, name: "uint16_t", file: !122, line: 25, baseType: !439)
!439 = !DIDerivedType(tag: DW_TAG_typedef, name: "__uint16_t", file: !95, line: 40, baseType: !440)
!440 = !DIBasicType(name: "unsigned short", size: 16, encoding: DW_ATE_unsigned)
!441 = !DIGlobalVariableExpression(var: !442, expr: !DIExpression())
!442 = distinct !DIGlobalVariable(name: "g_136", linkageName: "_ZL5g_136", scope: !10, file: !2, line: 84, type: !361, isLocal: true, isDefinition: true)
!443 = !DIGlobalVariableExpression(var: !444, expr: !DIExpression())
!444 = distinct !DIGlobalVariable(name: "g_145", linkageName: "_ZL5g_145", scope: !10, file: !2, line: 85, type: !438, isLocal: true, isDefinition: true)
!445 = !DIGlobalVariableExpression(var: !446, expr: !DIExpression())
!446 = distinct !DIGlobalVariable(name: "g_172", linkageName: "_ZL5g_172", scope: !10, file: !2, line: 86, type: !447, isLocal: true, isDefinition: true)
!447 = !DICompositeType(tag: DW_TAG_array_type, baseType: !361, size: 128, elements: !34)
!448 = !DIGlobalVariableExpression(var: !449, expr: !DIExpression())
!449 = distinct !DIGlobalVariable(name: "g_198", linkageName: "_ZL5g_198", scope: !10, file: !2, line: 88, type: !450, isLocal: true, isDefinition: true)
!450 = !DIDerivedType(tag: DW_TAG_volatile_type, baseType: !192)
!451 = !DIGlobalVariableExpression(var: !452, expr: !DIExpression())
!452 = distinct !DIGlobalVariable(name: "g_221", linkageName: "_ZL5g_221", scope: !10, file: !2, line: 90, type: !192, isLocal: true, isDefinition: true)
!453 = !DIGlobalVariableExpression(var: !454, expr: !DIExpression())
!454 = distinct !DIGlobalVariable(name: "g_228", linkageName: "_ZL5g_228", scope: !10, file: !2, line: 92, type: !417, isLocal: true, isDefinition: true)
!455 = !DIGlobalVariableExpression(var: !456, expr: !DIExpression())
!456 = distinct !DIGlobalVariable(name: "g_230", linkageName: "_ZL5g_230", scope: !10, file: !2, line: 93, type: !457, isLocal: true, isDefinition: true)
!457 = !DICompositeType(tag: DW_TAG_array_type, baseType: !384, size: 1792, elements: !458)
!458 = !{!199, !26, !35}
!459 = !DIGlobalVariableExpression(var: !460, expr: !DIExpression())
!460 = distinct !DIGlobalVariable(name: "g_321", linkageName: "_ZL5g_321", scope: !10, file: !2, line: 96, type: !92, isLocal: true, isDefinition: true)
!461 = !DIGlobalVariableExpression(var: !462, expr: !DIExpression())
!462 = distinct !DIGlobalVariable(name: "g_329", linkageName: "_ZL5g_329", scope: !10, file: !2, line: 97, type: !463, isLocal: true, isDefinition: true)
!463 = !DIDerivedType(tag: DW_TAG_volatile_type, baseType: !92)
!464 = !DIGlobalVariableExpression(var: !465, expr: !DIExpression())
!465 = distinct !DIGlobalVariable(name: "g_348", linkageName: "_ZL5g_348", scope: !10, file: !2, line: 98, type: !466, isLocal: true, isDefinition: true)
!466 = !DICompositeType(tag: DW_TAG_array_type, baseType: !121, size: 576, elements: !467)
!467 = !{!26, !64, !7}
!468 = !DIGlobalVariableExpression(var: !469, expr: !DIExpression())
!469 = distinct !DIGlobalVariable(name: "g_368", linkageName: "_ZL5g_368", scope: !10, file: !2, line: 99, type: !470, isLocal: true, isDefinition: true)
!470 = !DIDerivedType(tag: DW_TAG_const_type, baseType: !471)
!471 = distinct !DICompositeType(tag: DW_TAG_union_type, name: "U2", file: !2, line: 40, size: 64, flags: DIFlagTypePassByValue, elements: !472, identifier: "_ZTS2U2")
!472 = !{!473}
!473 = !DIDerivedType(tag: DW_TAG_member, name: "f0", scope: !471, file: !2, line: 41, baseType: !388, size: 64)
!474 = !DIGlobalVariableExpression(var: !475, expr: !DIExpression())
!475 = distinct !DIGlobalVariable(name: "g_439", linkageName: "_ZL5g_439", scope: !10, file: !2, line: 101, type: !476, isLocal: true, isDefinition: true)
!476 = !DIDerivedType(tag: DW_TAG_const_type, baseType: !477)
!477 = distinct !DICompositeType(tag: DW_TAG_union_type, name: "U0", file: !2, line: 16, size: 64, flags: DIFlagTypePassByValue, elements: !478, identifier: "_ZTS2U0")
!478 = !{!479}
!479 = !DIDerivedType(tag: DW_TAG_member, name: "f0", scope: !477, file: !2, line: 17, baseType: !388, size: 64)
!480 = !DIGlobalVariableExpression(var: !481, expr: !DIExpression())
!481 = distinct !DIGlobalVariable(name: "g_496", linkageName: "_ZL5g_496", scope: !10, file: !2, line: 103, type: !438, isLocal: true, isDefinition: true)
!482 = !DIGlobalVariableExpression(var: !483, expr: !DIExpression())
!483 = distinct !DIGlobalVariable(name: "g_505", linkageName: "_ZL5g_505", scope: !10, file: !2, line: 104, type: !484, isLocal: true, isDefinition: true)
!484 = !DICompositeType(tag: DW_TAG_array_type, baseType: !388, size: 3200, elements: !485)
!485 = !{!16, !50}
!486 = !DIGlobalVariableExpression(var: !487, expr: !DIExpression())
!487 = distinct !DIGlobalVariable(name: "g_592", linkageName: "_ZL5g_592", scope: !10, file: !2, line: 105, type: !470, isLocal: true, isDefinition: true)
!488 = !DIGlobalVariableExpression(var: !489, expr: !DIExpression())
!489 = distinct !DIGlobalVariable(name: "g_628", linkageName: "_ZL5g_628", scope: !10, file: !2, line: 108, type: !490, isLocal: true, isDefinition: true)
!490 = !DICompositeType(tag: DW_TAG_array_type, baseType: !398, size: 5760, elements: !491)
!491 = !{!16, !64}
!492 = !DIGlobalVariableExpression(var: !493, expr: !DIExpression())
!493 = distinct !DIGlobalVariable(name: "g_632", linkageName: "_ZL5g_632", scope: !10, file: !2, line: 109, type: !494, isLocal: true, isDefinition: true)
!494 = !DICompositeType(tag: DW_TAG_array_type, baseType: !121, size: 8, elements: !495)
!495 = !{!496}
!496 = !DISubrange(count: 1)
!497 = !DIGlobalVariableExpression(var: !498, expr: !DIExpression())
!498 = distinct !DIGlobalVariable(name: "g_648", linkageName: "_ZL5g_648", scope: !10, file: !2, line: 111, type: !381, isLocal: true, isDefinition: true)
!499 = !DIGlobalVariableExpression(var: !500, expr: !DIExpression())
!500 = distinct !DIGlobalVariable(name: "g_745", linkageName: "_ZL5g_745", scope: !10, file: !2, line: 115, type: !501, isLocal: true, isDefinition: true)
!501 = !DIDerivedType(tag: DW_TAG_volatile_type, baseType: !361)
!502 = !DIGlobalVariableExpression(var: !503, expr: !DIExpression())
!503 = distinct !DIGlobalVariable(name: "g_845", linkageName: "_ZL5g_845", scope: !10, file: !2, line: 116, type: !501, isLocal: true, isDefinition: true)
!504 = !DIGlobalVariableExpression(var: !505, expr: !DIExpression())
!505 = distinct !DIGlobalVariable(name: "g_889", linkageName: "_ZL5g_889", scope: !10, file: !2, line: 117, type: !506, isLocal: true, isDefinition: true)
!506 = !DIDerivedType(tag: DW_TAG_volatile_type, baseType: !384)
!507 = !DIGlobalVariableExpression(var: !508, expr: !DIExpression())
!508 = distinct !DIGlobalVariable(name: "g_891", linkageName: "_ZL5g_891", scope: !10, file: !2, line: 118, type: !341, isLocal: true, isDefinition: true)
!509 = !DIGlobalVariableExpression(var: !510, expr: !DIExpression())
!510 = distinct !DIGlobalVariable(name: "g_895", linkageName: "_ZL5g_895", scope: !10, file: !2, line: 119, type: !92, isLocal: true, isDefinition: true)
!511 = !DIGlobalVariableExpression(var: !512, expr: !DIExpression())
!512 = distinct !DIGlobalVariable(name: "g_896", linkageName: "_ZL5g_896", scope: !10, file: !2, line: 120, type: !513, isLocal: true, isDefinition: true)
!513 = !DICompositeType(tag: DW_TAG_array_type, baseType: !92, size: 128, elements: !514)
!514 = !{!496, !26}
!515 = !DIGlobalVariableExpression(var: !516, expr: !DIExpression())
!516 = distinct !DIGlobalVariable(name: "g_897", linkageName: "_ZL5g_897", scope: !10, file: !2, line: 121, type: !92, isLocal: true, isDefinition: true)
!517 = !DIGlobalVariableExpression(var: !518, expr: !DIExpression())
!518 = distinct !DIGlobalVariable(name: "g_898", linkageName: "_ZL5g_898", scope: !10, file: !2, line: 122, type: !92, isLocal: true, isDefinition: true)
!519 = !DIGlobalVariableExpression(var: !520, expr: !DIExpression())
!520 = distinct !DIGlobalVariable(name: "g_899", linkageName: "_ZL5g_899", scope: !10, file: !2, line: 123, type: !92, isLocal: true, isDefinition: true)
!521 = !DIGlobalVariableExpression(var: !522, expr: !DIExpression())
!522 = distinct !DIGlobalVariable(name: "g_900", linkageName: "_ZL5g_900", scope: !10, file: !2, line: 124, type: !92, isLocal: true, isDefinition: true)
!523 = !DIGlobalVariableExpression(var: !524, expr: !DIExpression())
!524 = distinct !DIGlobalVariable(name: "g_901", linkageName: "_ZL5g_901", scope: !10, file: !2, line: 125, type: !92, isLocal: true, isDefinition: true)
!525 = !DIGlobalVariableExpression(var: !526, expr: !DIExpression())
!526 = distinct !DIGlobalVariable(name: "g_902", linkageName: "_ZL5g_902", scope: !10, file: !2, line: 126, type: !527, isLocal: true, isDefinition: true)
!527 = !DICompositeType(tag: DW_TAG_array_type, baseType: !92, size: 1728, elements: !528)
!528 = !{!57, !64}
!529 = !DIGlobalVariableExpression(var: !530, expr: !DIExpression())
!530 = distinct !DIGlobalVariable(name: "g_903", linkageName: "_ZL5g_903", scope: !10, file: !2, line: 127, type: !92, isLocal: true, isDefinition: true)
!531 = !DIGlobalVariableExpression(var: !532, expr: !DIExpression())
!532 = distinct !DIGlobalVariable(name: "g_904", linkageName: "_ZL5g_904", scope: !10, file: !2, line: 128, type: !92, isLocal: true, isDefinition: true)
!533 = !DIGlobalVariableExpression(var: !534, expr: !DIExpression())
!534 = distinct !DIGlobalVariable(name: "g_905", linkageName: "_ZL5g_905", scope: !10, file: !2, line: 129, type: !92, isLocal: true, isDefinition: true)
!535 = !DIGlobalVariableExpression(var: !536, expr: !DIExpression())
!536 = distinct !DIGlobalVariable(name: "g_906", linkageName: "_ZL5g_906", scope: !10, file: !2, line: 130, type: !537, isLocal: true, isDefinition: true)
!537 = !DICompositeType(tag: DW_TAG_array_type, baseType: !92, size: 5760, elements: !538)
!538 = !{!16, !64, !7}
!539 = !DIGlobalVariableExpression(var: !540, expr: !DIExpression())
!540 = distinct !DIGlobalVariable(name: "g_907", linkageName: "_ZL5g_907", scope: !10, file: !2, line: 131, type: !92, isLocal: true, isDefinition: true)
!541 = !DIGlobalVariableExpression(var: !542, expr: !DIExpression())
!542 = distinct !DIGlobalVariable(name: "g_908", linkageName: "_ZL5g_908", scope: !10, file: !2, line: 132, type: !92, isLocal: true, isDefinition: true)
!543 = !DIGlobalVariableExpression(var: !544, expr: !DIExpression())
!544 = distinct !DIGlobalVariable(name: "g_909", linkageName: "_ZL5g_909", scope: !10, file: !2, line: 133, type: !92, isLocal: true, isDefinition: true)
!545 = !DIGlobalVariableExpression(var: !546, expr: !DIExpression())
!546 = distinct !DIGlobalVariable(name: "g_910", linkageName: "_ZL5g_910", scope: !10, file: !2, line: 134, type: !92, isLocal: true, isDefinition: true)
!547 = !DIGlobalVariableExpression(var: !548, expr: !DIExpression())
!548 = distinct !DIGlobalVariable(name: "g_911", linkageName: "_ZL5g_911", scope: !10, file: !2, line: 135, type: !92, isLocal: true, isDefinition: true)
!549 = !DIGlobalVariableExpression(var: !550, expr: !DIExpression())
!550 = distinct !DIGlobalVariable(name: "g_912", linkageName: "_ZL5g_912", scope: !10, file: !2, line: 136, type: !92, isLocal: true, isDefinition: true)
!551 = !DIGlobalVariableExpression(var: !552, expr: !DIExpression())
!552 = distinct !DIGlobalVariable(name: "g_913", linkageName: "_ZL5g_913", scope: !10, file: !2, line: 137, type: !92, isLocal: true, isDefinition: true)
!553 = !DIGlobalVariableExpression(var: !554, expr: !DIExpression())
!554 = distinct !DIGlobalVariable(name: "g_917", linkageName: "_ZL5g_917", scope: !10, file: !2, line: 138, type: !356, isLocal: true, isDefinition: true)
!555 = !DIGlobalVariableExpression(var: !556, expr: !DIExpression())
!556 = distinct !DIGlobalVariable(name: "g_966", linkageName: "_ZL5g_966", scope: !10, file: !2, line: 139, type: !477, isLocal: true, isDefinition: true)
!557 = !DIGlobalVariableExpression(var: !558, expr: !DIExpression())
!558 = distinct !DIGlobalVariable(name: "g_981", linkageName: "_ZL5g_981", scope: !10, file: !2, line: 141, type: !471, isLocal: true, isDefinition: true)
!559 = !DIGlobalVariableExpression(var: !560, expr: !DIExpression())
!560 = distinct !DIGlobalVariable(name: "g_1114", linkageName: "_ZL6g_1114", scope: !10, file: !2, line: 145, type: !121, isLocal: true, isDefinition: true)
!561 = !DIGlobalVariableExpression(var: !562, expr: !DIExpression())
!562 = distinct !DIGlobalVariable(name: "g_1115", linkageName: "_ZL6g_1115", scope: !10, file: !2, line: 146, type: !121, isLocal: true, isDefinition: true)
!563 = !DIGlobalVariableExpression(var: !564, expr: !DIExpression())
!564 = distinct !DIGlobalVariable(name: "g_1116", linkageName: "_ZL6g_1116", scope: !10, file: !2, line: 147, type: !565, isLocal: true, isDefinition: true)
!565 = !DICompositeType(tag: DW_TAG_array_type, baseType: !121, size: 80, elements: !15)
!566 = !DIGlobalVariableExpression(var: !567, expr: !DIExpression())
!567 = distinct !DIGlobalVariable(name: "g_1117", linkageName: "_ZL6g_1117", scope: !10, file: !2, line: 148, type: !121, isLocal: true, isDefinition: true)
!568 = !DIGlobalVariableExpression(var: !569, expr: !DIExpression())
!569 = distinct !DIGlobalVariable(name: "g_1118", linkageName: "_ZL6g_1118", scope: !10, file: !2, line: 149, type: !121, isLocal: true, isDefinition: true)
!570 = !DIGlobalVariableExpression(var: !571, expr: !DIExpression())
!571 = distinct !DIGlobalVariable(name: "g_1119", linkageName: "_ZL6g_1119", scope: !10, file: !2, line: 150, type: !572, isLocal: true, isDefinition: true)
!572 = !DICompositeType(tag: DW_TAG_array_type, baseType: !121, size: 800, elements: !573)
!573 = !{!16, !16}
!574 = !DIGlobalVariableExpression(var: !575, expr: !DIExpression())
!575 = distinct !DIGlobalVariable(name: "g_1120", linkageName: "_ZL6g_1120", scope: !10, file: !2, line: 151, type: !121, isLocal: true, isDefinition: true)
!576 = !DIGlobalVariableExpression(var: !577, expr: !DIExpression())
!577 = distinct !DIGlobalVariable(name: "g_1121", linkageName: "_ZL6g_1121", scope: !10, file: !2, line: 152, type: !121, isLocal: true, isDefinition: true)
!578 = !DIGlobalVariableExpression(var: !579, expr: !DIExpression())
!579 = distinct !DIGlobalVariable(name: "g_1122", linkageName: "_ZL6g_1122", scope: !10, file: !2, line: 153, type: !121, isLocal: true, isDefinition: true)
!580 = !DIGlobalVariableExpression(var: !581, expr: !DIExpression())
!581 = distinct !DIGlobalVariable(name: "g_1123", linkageName: "_ZL6g_1123", scope: !10, file: !2, line: 154, type: !121, isLocal: true, isDefinition: true)
!582 = !DIGlobalVariableExpression(var: !583, expr: !DIExpression())
!583 = distinct !DIGlobalVariable(name: "g_1124", linkageName: "_ZL6g_1124", scope: !10, file: !2, line: 155, type: !121, isLocal: true, isDefinition: true)
!584 = !DIGlobalVariableExpression(var: !585, expr: !DIExpression())
!585 = distinct !DIGlobalVariable(name: "g_1125", linkageName: "_ZL6g_1125", scope: !10, file: !2, line: 156, type: !121, isLocal: true, isDefinition: true)
!586 = !DIGlobalVariableExpression(var: !587, expr: !DIExpression())
!587 = distinct !DIGlobalVariable(name: "g_1126", linkageName: "_ZL6g_1126", scope: !10, file: !2, line: 157, type: !121, isLocal: true, isDefinition: true)
!588 = !DIGlobalVariableExpression(var: !589, expr: !DIExpression())
!589 = distinct !DIGlobalVariable(name: "g_1127", linkageName: "_ZL6g_1127", scope: !10, file: !2, line: 158, type: !121, isLocal: true, isDefinition: true)
!590 = !DIGlobalVariableExpression(var: !591, expr: !DIExpression())
!591 = distinct !DIGlobalVariable(name: "g_1128", linkageName: "_ZL6g_1128", scope: !10, file: !2, line: 159, type: !121, isLocal: true, isDefinition: true)
!592 = !DIGlobalVariableExpression(var: !593, expr: !DIExpression())
!593 = distinct !DIGlobalVariable(name: "g_1162", linkageName: "_ZL6g_1162", scope: !10, file: !2, line: 162, type: !594, isLocal: true, isDefinition: true)
!594 = !DICompositeType(tag: DW_TAG_array_type, baseType: !388, size: 384, elements: !595)
!595 = !{!57, !496}
!596 = !DIGlobalVariableExpression(var: !597, expr: !DIExpression())
!597 = distinct !DIGlobalVariable(name: "g_1223", linkageName: "_ZL6g_1223", scope: !10, file: !2, line: 166, type: !427, isLocal: true, isDefinition: true)
!598 = !DIGlobalVariableExpression(var: !599, expr: !DIExpression())
!599 = distinct !DIGlobalVariable(name: "g_1254", linkageName: "_ZL6g_1254", scope: !10, file: !2, line: 170, type: !600, isLocal: true, isDefinition: true)
!600 = !DICompositeType(tag: DW_TAG_array_type, baseType: !471, size: 256, elements: !25)
!601 = !DIGlobalVariableExpression(var: !602, expr: !DIExpression())
!602 = distinct !DIGlobalVariable(name: "g_1263", linkageName: "_ZL6g_1263", scope: !10, file: !2, line: 172, type: !341, isLocal: true, isDefinition: true)
!603 = !DIGlobalVariableExpression(var: !604, expr: !DIExpression())
!604 = distinct !DIGlobalVariable(name: "g_1393", linkageName: "_ZL6g_1393", scope: !10, file: !2, line: 174, type: !605, isLocal: true, isDefinition: true)
!605 = !DICompositeType(tag: DW_TAG_array_type, baseType: !470, size: 256, elements: !25)
!606 = !DIGlobalVariableExpression(var: !607, expr: !DIExpression())
!607 = distinct !DIGlobalVariable(name: "g_1395", linkageName: "_ZL6g_1395", scope: !10, file: !2, line: 175, type: !471, isLocal: true, isDefinition: true)
!608 = !DIGlobalVariableExpression(var: !609, expr: !DIExpression())
!609 = distinct !DIGlobalVariable(name: "g_1425", linkageName: "_ZL6g_1425", scope: !10, file: !2, line: 176, type: !361, isLocal: true, isDefinition: true)
!610 = !DIGlobalVariableExpression(var: !611, expr: !DIExpression())
!611 = distinct !DIGlobalVariable(name: "g_1455", linkageName: "_ZL6g_1455", scope: !10, file: !2, line: 177, type: !612, isLocal: true, isDefinition: true)
!612 = !DIDerivedType(tag: DW_TAG_volatile_type, baseType: !341)
!613 = !DIGlobalVariableExpression(var: !614, expr: !DIExpression())
!614 = distinct !DIGlobalVariable(name: "g_1483", linkageName: "_ZL6g_1483", scope: !10, file: !2, line: 178, type: !615, isLocal: true, isDefinition: true)
!615 = !DICompositeType(tag: DW_TAG_array_type, baseType: !356, size: 224, elements: !198)
!616 = !DIGlobalVariableExpression(var: !617, expr: !DIExpression())
!617 = distinct !DIGlobalVariable(name: "g_1485", linkageName: "_ZL6g_1485", scope: !10, file: !2, line: 180, type: !356, isLocal: true, isDefinition: true)
!618 = !DIGlobalVariableExpression(var: !619, expr: !DIExpression())
!619 = distinct !DIGlobalVariable(name: "g_1486", linkageName: "_ZL6g_1486", scope: !10, file: !2, line: 181, type: !620, isLocal: true, isDefinition: true)
!620 = !DICompositeType(tag: DW_TAG_array_type, baseType: !356, size: 7680, elements: !621)
!621 = !{!35, !50, !57}
!622 = !DIGlobalVariableExpression(var: !623, expr: !DIExpression())
!623 = distinct !DIGlobalVariable(name: "g_1487", linkageName: "_ZL6g_1487", scope: !10, file: !2, line: 182, type: !624, isLocal: true, isDefinition: true)
!624 = !DICompositeType(tag: DW_TAG_array_type, baseType: !356, size: 672, elements: !625)
!625 = !{!199, !351}
!626 = !DIGlobalVariableExpression(var: !627, expr: !DIExpression())
!627 = distinct !DIGlobalVariable(name: "g_1488", linkageName: "_ZL6g_1488", scope: !10, file: !2, line: 183, type: !356, isLocal: true, isDefinition: true)
!628 = !DIGlobalVariableExpression(var: !629, expr: !DIExpression())
!629 = distinct !DIGlobalVariable(name: "g_1489", linkageName: "_ZL6g_1489", scope: !10, file: !2, line: 184, type: !356, isLocal: true, isDefinition: true)
!630 = !DIGlobalVariableExpression(var: !631, expr: !DIExpression())
!631 = distinct !DIGlobalVariable(name: "g_1490", linkageName: "_ZL6g_1490", scope: !10, file: !2, line: 185, type: !356, isLocal: true, isDefinition: true)
!632 = !DIGlobalVariableExpression(var: !633, expr: !DIExpression())
!633 = distinct !DIGlobalVariable(name: "g_1491", linkageName: "_ZL6g_1491", scope: !10, file: !2, line: 186, type: !356, isLocal: true, isDefinition: true)
!634 = !DIGlobalVariableExpression(var: !635, expr: !DIExpression())
!635 = distinct !DIGlobalVariable(name: "g_1492", linkageName: "_ZL6g_1492", scope: !10, file: !2, line: 187, type: !356, isLocal: true, isDefinition: true)
!636 = !DIGlobalVariableExpression(var: !637, expr: !DIExpression())
!637 = distinct !DIGlobalVariable(name: "g_1493", linkageName: "_ZL6g_1493", scope: !10, file: !2, line: 188, type: !356, isLocal: true, isDefinition: true)
!638 = !DIGlobalVariableExpression(var: !639, expr: !DIExpression())
!639 = distinct !DIGlobalVariable(name: "g_1494", linkageName: "_ZL6g_1494", scope: !10, file: !2, line: 189, type: !356, isLocal: true, isDefinition: true)
!640 = !DIGlobalVariableExpression(var: !641, expr: !DIExpression())
!641 = distinct !DIGlobalVariable(name: "g_1495", linkageName: "_ZL6g_1495", scope: !10, file: !2, line: 190, type: !642, isLocal: true, isDefinition: true)
!642 = !DICompositeType(tag: DW_TAG_array_type, baseType: !356, size: 2304, elements: !643)
!643 = !{!35, !64}
!644 = !DIGlobalVariableExpression(var: !645, expr: !DIExpression())
!645 = distinct !DIGlobalVariable(name: "g_1496", linkageName: "_ZL6g_1496", scope: !10, file: !2, line: 191, type: !356, isLocal: true, isDefinition: true)
!646 = !DIGlobalVariableExpression(var: !647, expr: !DIExpression())
!647 = distinct !DIGlobalVariable(name: "g_1497", linkageName: "_ZL6g_1497", scope: !10, file: !2, line: 192, type: !356, isLocal: true, isDefinition: true)
!648 = !DIGlobalVariableExpression(var: !649, expr: !DIExpression())
!649 = distinct !DIGlobalVariable(name: "g_1498", linkageName: "_ZL6g_1498", scope: !10, file: !2, line: 193, type: !650, isLocal: true, isDefinition: true)
!650 = !DICompositeType(tag: DW_TAG_array_type, baseType: !356, size: 1792, elements: !651)
!651 = !{!199, !35}
!652 = !DIGlobalVariableExpression(var: !653, expr: !DIExpression())
!653 = distinct !DIGlobalVariable(name: "g_1499", linkageName: "_ZL6g_1499", scope: !10, file: !2, line: 194, type: !654, isLocal: true, isDefinition: true)
!654 = !DICompositeType(tag: DW_TAG_array_type, baseType: !356, size: 32, elements: !495)
!655 = !DIGlobalVariableExpression(var: !656, expr: !DIExpression())
!656 = distinct !DIGlobalVariable(name: "g_1500", linkageName: "_ZL6g_1500", scope: !10, file: !2, line: 195, type: !356, isLocal: true, isDefinition: true)
!657 = !DIGlobalVariableExpression(var: !658, expr: !DIExpression())
!658 = distinct !DIGlobalVariable(name: "g_1501", linkageName: "_ZL6g_1501", scope: !10, file: !2, line: 196, type: !356, isLocal: true, isDefinition: true)
!659 = !DIGlobalVariableExpression(var: !660, expr: !DIExpression())
!660 = distinct !DIGlobalVariable(name: "g_1502", linkageName: "_ZL6g_1502", scope: !10, file: !2, line: 197, type: !356, isLocal: true, isDefinition: true)
!661 = !DIGlobalVariableExpression(var: !662, expr: !DIExpression())
!662 = distinct !DIGlobalVariable(name: "g_1503", linkageName: "_ZL6g_1503", scope: !10, file: !2, line: 198, type: !356, isLocal: true, isDefinition: true)
!663 = !DIGlobalVariableExpression(var: !664, expr: !DIExpression())
!664 = distinct !DIGlobalVariable(name: "g_1504", linkageName: "_ZL6g_1504", scope: !10, file: !2, line: 199, type: !356, isLocal: true, isDefinition: true)
!665 = !DIGlobalVariableExpression(var: !666, expr: !DIExpression())
!666 = distinct !DIGlobalVariable(name: "g_1505", linkageName: "_ZL6g_1505", scope: !10, file: !2, line: 200, type: !356, isLocal: true, isDefinition: true)
!667 = !DIGlobalVariableExpression(var: !668, expr: !DIExpression())
!668 = distinct !DIGlobalVariable(name: "g_1506", linkageName: "_ZL6g_1506", scope: !10, file: !2, line: 201, type: !356, isLocal: true, isDefinition: true)
!669 = !DIGlobalVariableExpression(var: !670, expr: !DIExpression())
!670 = distinct !DIGlobalVariable(name: "g_1507", linkageName: "_ZL6g_1507", scope: !10, file: !2, line: 202, type: !356, isLocal: true, isDefinition: true)
!671 = !DIGlobalVariableExpression(var: !672, expr: !DIExpression())
!672 = distinct !DIGlobalVariable(name: "g_1508", linkageName: "_ZL6g_1508", scope: !10, file: !2, line: 203, type: !356, isLocal: true, isDefinition: true)
!673 = !DIGlobalVariableExpression(var: !674, expr: !DIExpression())
!674 = distinct !DIGlobalVariable(name: "g_1509", linkageName: "_ZL6g_1509", scope: !10, file: !2, line: 204, type: !356, isLocal: true, isDefinition: true)
!675 = !DIGlobalVariableExpression(var: !676, expr: !DIExpression())
!676 = distinct !DIGlobalVariable(name: "g_1510", linkageName: "_ZL6g_1510", scope: !10, file: !2, line: 205, type: !356, isLocal: true, isDefinition: true)
!677 = !DIGlobalVariableExpression(var: !678, expr: !DIExpression())
!678 = distinct !DIGlobalVariable(name: "g_1511", linkageName: "_ZL6g_1511", scope: !10, file: !2, line: 206, type: !356, isLocal: true, isDefinition: true)
!679 = !DIGlobalVariableExpression(var: !680, expr: !DIExpression())
!680 = distinct !DIGlobalVariable(name: "g_1512", linkageName: "_ZL6g_1512", scope: !10, file: !2, line: 207, type: !356, isLocal: true, isDefinition: true)
!681 = !DIGlobalVariableExpression(var: !682, expr: !DIExpression())
!682 = distinct !DIGlobalVariable(name: "g_1513", linkageName: "_ZL6g_1513", scope: !10, file: !2, line: 208, type: !356, isLocal: true, isDefinition: true)
!683 = !DIGlobalVariableExpression(var: !684, expr: !DIExpression())
!684 = distinct !DIGlobalVariable(name: "g_1514", linkageName: "_ZL6g_1514", scope: !10, file: !2, line: 209, type: !356, isLocal: true, isDefinition: true)
!685 = !DIGlobalVariableExpression(var: !686, expr: !DIExpression())
!686 = distinct !DIGlobalVariable(name: "g_1515", linkageName: "_ZL6g_1515", scope: !10, file: !2, line: 210, type: !356, isLocal: true, isDefinition: true)
!687 = !DIGlobalVariableExpression(var: !688, expr: !DIExpression())
!688 = distinct !DIGlobalVariable(name: "g_1516", linkageName: "_ZL6g_1516", scope: !10, file: !2, line: 211, type: !654, isLocal: true, isDefinition: true)
!689 = !DIGlobalVariableExpression(var: !690, expr: !DIExpression())
!690 = distinct !DIGlobalVariable(name: "g_1517", linkageName: "_ZL6g_1517", scope: !10, file: !2, line: 212, type: !356, isLocal: true, isDefinition: true)
!691 = !DIGlobalVariableExpression(var: !692, expr: !DIExpression())
!692 = distinct !DIGlobalVariable(name: "g_1518", linkageName: "_ZL6g_1518", scope: !10, file: !2, line: 213, type: !693, isLocal: true, isDefinition: true)
!693 = !DICompositeType(tag: DW_TAG_array_type, baseType: !356, size: 192, elements: !56)
!694 = !DIGlobalVariableExpression(var: !695, expr: !DIExpression())
!695 = distinct !DIGlobalVariable(name: "g_1519", linkageName: "_ZL6g_1519", scope: !10, file: !2, line: 214, type: !356, isLocal: true, isDefinition: true)
!696 = !DIGlobalVariableExpression(var: !697, expr: !DIExpression())
!697 = distinct !DIGlobalVariable(name: "g_1520", linkageName: "_ZL6g_1520", scope: !10, file: !2, line: 215, type: !356, isLocal: true, isDefinition: true)
!698 = !DIGlobalVariableExpression(var: !699, expr: !DIExpression())
!699 = distinct !DIGlobalVariable(name: "g_1521", linkageName: "_ZL6g_1521", scope: !10, file: !2, line: 216, type: !356, isLocal: true, isDefinition: true)
!700 = !DIGlobalVariableExpression(var: !701, expr: !DIExpression())
!701 = distinct !DIGlobalVariable(name: "g_1522", linkageName: "_ZL6g_1522", scope: !10, file: !2, line: 217, type: !356, isLocal: true, isDefinition: true)
!702 = !DIGlobalVariableExpression(var: !703, expr: !DIExpression())
!703 = distinct !DIGlobalVariable(name: "g_1534", linkageName: "_ZL6g_1534", scope: !10, file: !2, line: 218, type: !501, isLocal: true, isDefinition: true)
!704 = !DIGlobalVariableExpression(var: !705, expr: !DIExpression())
!705 = distinct !DIGlobalVariable(name: "g_1597", linkageName: "_ZL6g_1597", scope: !10, file: !2, line: 219, type: !356, isLocal: true, isDefinition: true)
!706 = !DIGlobalVariableExpression(var: !707, expr: !DIExpression())
!707 = distinct !DIGlobalVariable(scope: null, file: !708, line: 56, type: !81, isLocal: true, isDefinition: true)
!708 = !DIFile(filename: "/usr/local/include/platform_generic.h", directory: "", checksumkind: CSK_MD5, checksum: "c571b886faf4ffee717d846e38f48aec")
!709 = !DIGlobalVariableExpression(var: !710, expr: !DIExpression())
!710 = distinct !DIGlobalVariable(name: "crc32_context", linkageName: "_ZL13crc32_context", scope: !10, file: !339, line: 48, type: !341, isLocal: true, isDefinition: true)
!711 = !{!712, !719, !726, !728, !730, !734, !736, !738, !740, !742, !744, !746, !748, !753, !757, !759, !761, !766, !768, !770, !772, !774, !776, !778, !781, !784, !786, !790, !795, !797, !799, !801, !803, !805, !807, !809, !811, !813, !815, !819, !823, !825, !827, !829, !831, !833, !835, !837, !839, !841, !843, !845, !847, !849, !851, !853, !857, !861, !865, !867, !869, !871, !873, !875, !877, !879, !881, !883, !887, !891, !895, !897, !899, !901, !906, !910, !914, !916, !918, !920, !922, !924, !926, !928, !930, !932, !934, !936, !938, !942, !946, !950, !952, !954, !956, !961, !965, !969, !971, !973, !975, !977, !979, !981, !985, !989, !991, !993, !995, !997, !1001, !1005, !1009, !1011, !1013, !1015, !1017, !1019, !1021, !1025, !1029, !1033, !1035, !1039, !1043, !1045, !1047, !1049, !1051, !1053, !1055, !1059, !1065}
!712 = !DIImportedEntity(tag: DW_TAG_imported_declaration, scope: !713, entity: !714, file: !718, line: 52)
!713 = !DINamespace(name: "std", scope: null)
!714 = !DISubprogram(name: "abs", scope: !715, file: !715, line: 980, type: !716, flags: DIFlagPrototyped, spFlags: 0)
!715 = !DIFile(filename: "/usr/include/stdlib.h", directory: "", checksumkind: CSK_MD5, checksum: "761a239547e58b18c7327eb395f5cc1f")
!716 = !DISubroutineType(types: !717)
!717 = !{!96, !96}
!718 = !DIFile(filename: "/usr/bin/../lib64/gcc/x86_64-pc-linux-gnu/13.2.1/../../../../include/c++/13.2.1/bits/std_abs.h", directory: "")
!719 = !DIImportedEntity(tag: DW_TAG_imported_declaration, scope: !713, entity: !720, file: !725, line: 85)
!720 = !DISubprogram(name: "acos", scope: !721, file: !721, line: 53, type: !722, flags: DIFlagPrototyped, spFlags: 0)
!721 = !DIFile(filename: "/usr/include/bits/mathcalls.h", directory: "", checksumkind: CSK_MD5, checksum: "a03d6e5877646e3ad0a8a5735f9e6f62")
!722 = !DISubroutineType(types: !723)
!723 = !{!724, !724}
!724 = !DIBasicType(name: "double", size: 64, encoding: DW_ATE_float)
!725 = !DIFile(filename: "/usr/bin/../lib64/gcc/x86_64-pc-linux-gnu/13.2.1/../../../../include/c++/13.2.1/cmath", directory: "")
!726 = !DIImportedEntity(tag: DW_TAG_imported_declaration, scope: !713, entity: !727, file: !725, line: 104)
!727 = !DISubprogram(name: "asin", scope: !721, file: !721, line: 55, type: !722, flags: DIFlagPrototyped, spFlags: 0)
!728 = !DIImportedEntity(tag: DW_TAG_imported_declaration, scope: !713, entity: !729, file: !725, line: 123)
!729 = !DISubprogram(name: "atan", scope: !721, file: !721, line: 57, type: !722, flags: DIFlagPrototyped, spFlags: 0)
!730 = !DIImportedEntity(tag: DW_TAG_imported_declaration, scope: !713, entity: !731, file: !725, line: 142)
!731 = !DISubprogram(name: "atan2", scope: !721, file: !721, line: 59, type: !732, flags: DIFlagPrototyped, spFlags: 0)
!732 = !DISubroutineType(types: !733)
!733 = !{!724, !724, !724}
!734 = !DIImportedEntity(tag: DW_TAG_imported_declaration, scope: !713, entity: !735, file: !725, line: 154)
!735 = !DISubprogram(name: "ceil", scope: !721, file: !721, line: 159, type: !722, flags: DIFlagPrototyped, spFlags: 0)
!736 = !DIImportedEntity(tag: DW_TAG_imported_declaration, scope: !713, entity: !737, file: !725, line: 173)
!737 = !DISubprogram(name: "cos", scope: !721, file: !721, line: 62, type: !722, flags: DIFlagPrototyped, spFlags: 0)
!738 = !DIImportedEntity(tag: DW_TAG_imported_declaration, scope: !713, entity: !739, file: !725, line: 192)
!739 = !DISubprogram(name: "cosh", scope: !721, file: !721, line: 71, type: !722, flags: DIFlagPrototyped, spFlags: 0)
!740 = !DIImportedEntity(tag: DW_TAG_imported_declaration, scope: !713, entity: !741, file: !725, line: 211)
!741 = !DISubprogram(name: "exp", scope: !721, file: !721, line: 95, type: !722, flags: DIFlagPrototyped, spFlags: 0)
!742 = !DIImportedEntity(tag: DW_TAG_imported_declaration, scope: !713, entity: !743, file: !725, line: 230)
!743 = !DISubprogram(name: "fabs", scope: !721, file: !721, line: 162, type: !722, flags: DIFlagPrototyped, spFlags: 0)
!744 = !DIImportedEntity(tag: DW_TAG_imported_declaration, scope: !713, entity: !745, file: !725, line: 249)
!745 = !DISubprogram(name: "floor", scope: !721, file: !721, line: 165, type: !722, flags: DIFlagPrototyped, spFlags: 0)
!746 = !DIImportedEntity(tag: DW_TAG_imported_declaration, scope: !713, entity: !747, file: !725, line: 268)
!747 = !DISubprogram(name: "fmod", scope: !721, file: !721, line: 168, type: !732, flags: DIFlagPrototyped, spFlags: 0)
!748 = !DIImportedEntity(tag: DW_TAG_imported_declaration, scope: !713, entity: !749, file: !725, line: 280)
!749 = !DISubprogram(name: "frexp", scope: !721, file: !721, line: 98, type: !750, flags: DIFlagPrototyped, spFlags: 0)
!750 = !DISubroutineType(types: !751)
!751 = !{!724, !724, !752}
!752 = !DIDerivedType(tag: DW_TAG_pointer_type, baseType: !96, size: 64)
!753 = !DIImportedEntity(tag: DW_TAG_imported_declaration, scope: !713, entity: !754, file: !725, line: 299)
!754 = !DISubprogram(name: "ldexp", scope: !721, file: !721, line: 101, type: !755, flags: DIFlagPrototyped, spFlags: 0)
!755 = !DISubroutineType(types: !756)
!756 = !{!724, !724, !96}
!757 = !DIImportedEntity(tag: DW_TAG_imported_declaration, scope: !713, entity: !758, file: !725, line: 318)
!758 = !DISubprogram(name: "log", scope: !721, file: !721, line: 104, type: !722, flags: DIFlagPrototyped, spFlags: 0)
!759 = !DIImportedEntity(tag: DW_TAG_imported_declaration, scope: !713, entity: !760, file: !725, line: 337)
!760 = !DISubprogram(name: "log10", scope: !721, file: !721, line: 107, type: !722, flags: DIFlagPrototyped, spFlags: 0)
!761 = !DIImportedEntity(tag: DW_TAG_imported_declaration, scope: !713, entity: !762, file: !725, line: 356)
!762 = !DISubprogram(name: "modf", scope: !721, file: !721, line: 110, type: !763, flags: DIFlagPrototyped, spFlags: 0)
!763 = !DISubroutineType(types: !764)
!764 = !{!724, !724, !765}
!765 = !DIDerivedType(tag: DW_TAG_pointer_type, baseType: !724, size: 64)
!766 = !DIImportedEntity(tag: DW_TAG_imported_declaration, scope: !713, entity: !767, file: !725, line: 368)
!767 = !DISubprogram(name: "pow", scope: !721, file: !721, line: 140, type: !732, flags: DIFlagPrototyped, spFlags: 0)
!768 = !DIImportedEntity(tag: DW_TAG_imported_declaration, scope: !713, entity: !769, file: !725, line: 396)
!769 = !DISubprogram(name: "sin", scope: !721, file: !721, line: 64, type: !722, flags: DIFlagPrototyped, spFlags: 0)
!770 = !DIImportedEntity(tag: DW_TAG_imported_declaration, scope: !713, entity: !771, file: !725, line: 415)
!771 = !DISubprogram(name: "sinh", scope: !721, file: !721, line: 73, type: !722, flags: DIFlagPrototyped, spFlags: 0)
!772 = !DIImportedEntity(tag: DW_TAG_imported_declaration, scope: !713, entity: !773, file: !725, line: 434)
!773 = !DISubprogram(name: "sqrt", scope: !721, file: !721, line: 143, type: !722, flags: DIFlagPrototyped, spFlags: 0)
!774 = !DIImportedEntity(tag: DW_TAG_imported_declaration, scope: !713, entity: !775, file: !725, line: 453)
!775 = !DISubprogram(name: "tan", scope: !721, file: !721, line: 66, type: !722, flags: DIFlagPrototyped, spFlags: 0)
!776 = !DIImportedEntity(tag: DW_TAG_imported_declaration, scope: !713, entity: !777, file: !725, line: 472)
!777 = !DISubprogram(name: "tanh", scope: !721, file: !721, line: 75, type: !722, flags: DIFlagPrototyped, spFlags: 0)
!778 = !DIImportedEntity(tag: DW_TAG_imported_declaration, scope: !713, entity: !779, file: !725, line: 1881)
!779 = !DIDerivedType(tag: DW_TAG_typedef, name: "double_t", file: !780, line: 164, baseType: !724)
!780 = !DIFile(filename: "/usr/include/math.h", directory: "", checksumkind: CSK_MD5, checksum: "555a51fc91303a79e6e6a7bf2a303f79")
!781 = !DIImportedEntity(tag: DW_TAG_imported_declaration, scope: !713, entity: !782, file: !725, line: 1882)
!782 = !DIDerivedType(tag: DW_TAG_typedef, name: "float_t", file: !780, line: 163, baseType: !783)
!783 = !DIBasicType(name: "float", size: 32, encoding: DW_ATE_float)
!784 = !DIImportedEntity(tag: DW_TAG_imported_declaration, scope: !713, entity: !785, file: !725, line: 1885)
!785 = !DISubprogram(name: "acosh", scope: !721, file: !721, line: 85, type: !722, flags: DIFlagPrototyped, spFlags: 0)
!786 = !DIImportedEntity(tag: DW_TAG_imported_declaration, scope: !713, entity: !787, file: !725, line: 1886)
!787 = !DISubprogram(name: "acoshf", scope: !721, file: !721, line: 85, type: !788, flags: DIFlagPrototyped, spFlags: 0)
!788 = !DISubroutineType(types: !789)
!789 = !{!783, !783}
!790 = !DIImportedEntity(tag: DW_TAG_imported_declaration, scope: !713, entity: !791, file: !725, line: 1887)
!791 = !DISubprogram(name: "acoshl", scope: !721, file: !721, line: 85, type: !792, flags: DIFlagPrototyped, spFlags: 0)
!792 = !DISubroutineType(types: !793)
!793 = !{!794, !794}
!794 = !DIBasicType(name: "long double", size: 128, encoding: DW_ATE_float)
!795 = !DIImportedEntity(tag: DW_TAG_imported_declaration, scope: !713, entity: !796, file: !725, line: 1889)
!796 = !DISubprogram(name: "asinh", scope: !721, file: !721, line: 87, type: !722, flags: DIFlagPrototyped, spFlags: 0)
!797 = !DIImportedEntity(tag: DW_TAG_imported_declaration, scope: !713, entity: !798, file: !725, line: 1890)
!798 = !DISubprogram(name: "asinhf", scope: !721, file: !721, line: 87, type: !788, flags: DIFlagPrototyped, spFlags: 0)
!799 = !DIImportedEntity(tag: DW_TAG_imported_declaration, scope: !713, entity: !800, file: !725, line: 1891)
!800 = !DISubprogram(name: "asinhl", scope: !721, file: !721, line: 87, type: !792, flags: DIFlagPrototyped, spFlags: 0)
!801 = !DIImportedEntity(tag: DW_TAG_imported_declaration, scope: !713, entity: !802, file: !725, line: 1893)
!802 = !DISubprogram(name: "atanh", scope: !721, file: !721, line: 89, type: !722, flags: DIFlagPrototyped, spFlags: 0)
!803 = !DIImportedEntity(tag: DW_TAG_imported_declaration, scope: !713, entity: !804, file: !725, line: 1894)
!804 = !DISubprogram(name: "atanhf", scope: !721, file: !721, line: 89, type: !788, flags: DIFlagPrototyped, spFlags: 0)
!805 = !DIImportedEntity(tag: DW_TAG_imported_declaration, scope: !713, entity: !806, file: !725, line: 1895)
!806 = !DISubprogram(name: "atanhl", scope: !721, file: !721, line: 89, type: !792, flags: DIFlagPrototyped, spFlags: 0)
!807 = !DIImportedEntity(tag: DW_TAG_imported_declaration, scope: !713, entity: !808, file: !725, line: 1897)
!808 = !DISubprogram(name: "cbrt", scope: !721, file: !721, line: 152, type: !722, flags: DIFlagPrototyped, spFlags: 0)
!809 = !DIImportedEntity(tag: DW_TAG_imported_declaration, scope: !713, entity: !810, file: !725, line: 1898)
!810 = !DISubprogram(name: "cbrtf", scope: !721, file: !721, line: 152, type: !788, flags: DIFlagPrototyped, spFlags: 0)
!811 = !DIImportedEntity(tag: DW_TAG_imported_declaration, scope: !713, entity: !812, file: !725, line: 1899)
!812 = !DISubprogram(name: "cbrtl", scope: !721, file: !721, line: 152, type: !792, flags: DIFlagPrototyped, spFlags: 0)
!813 = !DIImportedEntity(tag: DW_TAG_imported_declaration, scope: !713, entity: !814, file: !725, line: 1901)
!814 = !DISubprogram(name: "copysign", scope: !721, file: !721, line: 198, type: !732, flags: DIFlagPrototyped, spFlags: 0)
!815 = !DIImportedEntity(tag: DW_TAG_imported_declaration, scope: !713, entity: !816, file: !725, line: 1902)
!816 = !DISubprogram(name: "copysignf", scope: !721, file: !721, line: 198, type: !817, flags: DIFlagPrototyped, spFlags: 0)
!817 = !DISubroutineType(types: !818)
!818 = !{!783, !783, !783}
!819 = !DIImportedEntity(tag: DW_TAG_imported_declaration, scope: !713, entity: !820, file: !725, line: 1903)
!820 = !DISubprogram(name: "copysignl", scope: !721, file: !721, line: 198, type: !821, flags: DIFlagPrototyped, spFlags: 0)
!821 = !DISubroutineType(types: !822)
!822 = !{!794, !794, !794}
!823 = !DIImportedEntity(tag: DW_TAG_imported_declaration, scope: !713, entity: !824, file: !725, line: 1905)
!824 = !DISubprogram(name: "erf", scope: !721, file: !721, line: 231, type: !722, flags: DIFlagPrototyped, spFlags: 0)
!825 = !DIImportedEntity(tag: DW_TAG_imported_declaration, scope: !713, entity: !826, file: !725, line: 1906)
!826 = !DISubprogram(name: "erff", scope: !721, file: !721, line: 231, type: !788, flags: DIFlagPrototyped, spFlags: 0)
!827 = !DIImportedEntity(tag: DW_TAG_imported_declaration, scope: !713, entity: !828, file: !725, line: 1907)
!828 = !DISubprogram(name: "erfl", scope: !721, file: !721, line: 231, type: !792, flags: DIFlagPrototyped, spFlags: 0)
!829 = !DIImportedEntity(tag: DW_TAG_imported_declaration, scope: !713, entity: !830, file: !725, line: 1909)
!830 = !DISubprogram(name: "erfc", scope: !721, file: !721, line: 232, type: !722, flags: DIFlagPrototyped, spFlags: 0)
!831 = !DIImportedEntity(tag: DW_TAG_imported_declaration, scope: !713, entity: !832, file: !725, line: 1910)
!832 = !DISubprogram(name: "erfcf", scope: !721, file: !721, line: 232, type: !788, flags: DIFlagPrototyped, spFlags: 0)
!833 = !DIImportedEntity(tag: DW_TAG_imported_declaration, scope: !713, entity: !834, file: !725, line: 1911)
!834 = !DISubprogram(name: "erfcl", scope: !721, file: !721, line: 232, type: !792, flags: DIFlagPrototyped, spFlags: 0)
!835 = !DIImportedEntity(tag: DW_TAG_imported_declaration, scope: !713, entity: !836, file: !725, line: 1913)
!836 = !DISubprogram(name: "exp2", scope: !721, file: !721, line: 130, type: !722, flags: DIFlagPrototyped, spFlags: 0)
!837 = !DIImportedEntity(tag: DW_TAG_imported_declaration, scope: !713, entity: !838, file: !725, line: 1914)
!838 = !DISubprogram(name: "exp2f", scope: !721, file: !721, line: 130, type: !788, flags: DIFlagPrototyped, spFlags: 0)
!839 = !DIImportedEntity(tag: DW_TAG_imported_declaration, scope: !713, entity: !840, file: !725, line: 1915)
!840 = !DISubprogram(name: "exp2l", scope: !721, file: !721, line: 130, type: !792, flags: DIFlagPrototyped, spFlags: 0)
!841 = !DIImportedEntity(tag: DW_TAG_imported_declaration, scope: !713, entity: !842, file: !725, line: 1917)
!842 = !DISubprogram(name: "expm1", scope: !721, file: !721, line: 119, type: !722, flags: DIFlagPrototyped, spFlags: 0)
!843 = !DIImportedEntity(tag: DW_TAG_imported_declaration, scope: !713, entity: !844, file: !725, line: 1918)
!844 = !DISubprogram(name: "expm1f", scope: !721, file: !721, line: 119, type: !788, flags: DIFlagPrototyped, spFlags: 0)
!845 = !DIImportedEntity(tag: DW_TAG_imported_declaration, scope: !713, entity: !846, file: !725, line: 1919)
!846 = !DISubprogram(name: "expm1l", scope: !721, file: !721, line: 119, type: !792, flags: DIFlagPrototyped, spFlags: 0)
!847 = !DIImportedEntity(tag: DW_TAG_imported_declaration, scope: !713, entity: !848, file: !725, line: 1921)
!848 = !DISubprogram(name: "fdim", scope: !721, file: !721, line: 329, type: !732, flags: DIFlagPrototyped, spFlags: 0)
!849 = !DIImportedEntity(tag: DW_TAG_imported_declaration, scope: !713, entity: !850, file: !725, line: 1922)
!850 = !DISubprogram(name: "fdimf", scope: !721, file: !721, line: 329, type: !817, flags: DIFlagPrototyped, spFlags: 0)
!851 = !DIImportedEntity(tag: DW_TAG_imported_declaration, scope: !713, entity: !852, file: !725, line: 1923)
!852 = !DISubprogram(name: "fdiml", scope: !721, file: !721, line: 329, type: !821, flags: DIFlagPrototyped, spFlags: 0)
!853 = !DIImportedEntity(tag: DW_TAG_imported_declaration, scope: !713, entity: !854, file: !725, line: 1925)
!854 = !DISubprogram(name: "fma", scope: !721, file: !721, line: 340, type: !855, flags: DIFlagPrototyped, spFlags: 0)
!855 = !DISubroutineType(types: !856)
!856 = !{!724, !724, !724, !724}
!857 = !DIImportedEntity(tag: DW_TAG_imported_declaration, scope: !713, entity: !858, file: !725, line: 1926)
!858 = !DISubprogram(name: "fmaf", scope: !721, file: !721, line: 340, type: !859, flags: DIFlagPrototyped, spFlags: 0)
!859 = !DISubroutineType(types: !860)
!860 = !{!783, !783, !783, !783}
!861 = !DIImportedEntity(tag: DW_TAG_imported_declaration, scope: !713, entity: !862, file: !725, line: 1927)
!862 = !DISubprogram(name: "fmal", scope: !721, file: !721, line: 340, type: !863, flags: DIFlagPrototyped, spFlags: 0)
!863 = !DISubroutineType(types: !864)
!864 = !{!794, !794, !794, !794}
!865 = !DIImportedEntity(tag: DW_TAG_imported_declaration, scope: !713, entity: !866, file: !725, line: 1929)
!866 = !DISubprogram(name: "fmax", scope: !721, file: !721, line: 333, type: !732, flags: DIFlagPrototyped, spFlags: 0)
!867 = !DIImportedEntity(tag: DW_TAG_imported_declaration, scope: !713, entity: !868, file: !725, line: 1930)
!868 = !DISubprogram(name: "fmaxf", scope: !721, file: !721, line: 333, type: !817, flags: DIFlagPrototyped, spFlags: 0)
!869 = !DIImportedEntity(tag: DW_TAG_imported_declaration, scope: !713, entity: !870, file: !725, line: 1931)
!870 = !DISubprogram(name: "fmaxl", scope: !721, file: !721, line: 333, type: !821, flags: DIFlagPrototyped, spFlags: 0)
!871 = !DIImportedEntity(tag: DW_TAG_imported_declaration, scope: !713, entity: !872, file: !725, line: 1933)
!872 = !DISubprogram(name: "fmin", scope: !721, file: !721, line: 336, type: !732, flags: DIFlagPrototyped, spFlags: 0)
!873 = !DIImportedEntity(tag: DW_TAG_imported_declaration, scope: !713, entity: !874, file: !725, line: 1934)
!874 = !DISubprogram(name: "fminf", scope: !721, file: !721, line: 336, type: !817, flags: DIFlagPrototyped, spFlags: 0)
!875 = !DIImportedEntity(tag: DW_TAG_imported_declaration, scope: !713, entity: !876, file: !725, line: 1935)
!876 = !DISubprogram(name: "fminl", scope: !721, file: !721, line: 336, type: !821, flags: DIFlagPrototyped, spFlags: 0)
!877 = !DIImportedEntity(tag: DW_TAG_imported_declaration, scope: !713, entity: !878, file: !725, line: 1937)
!878 = !DISubprogram(name: "hypot", scope: !721, file: !721, line: 147, type: !732, flags: DIFlagPrototyped, spFlags: 0)
!879 = !DIImportedEntity(tag: DW_TAG_imported_declaration, scope: !713, entity: !880, file: !725, line: 1938)
!880 = !DISubprogram(name: "hypotf", scope: !721, file: !721, line: 147, type: !817, flags: DIFlagPrototyped, spFlags: 0)
!881 = !DIImportedEntity(tag: DW_TAG_imported_declaration, scope: !713, entity: !882, file: !725, line: 1939)
!882 = !DISubprogram(name: "hypotl", scope: !721, file: !721, line: 147, type: !821, flags: DIFlagPrototyped, spFlags: 0)
!883 = !DIImportedEntity(tag: DW_TAG_imported_declaration, scope: !713, entity: !884, file: !725, line: 1941)
!884 = !DISubprogram(name: "ilogb", scope: !721, file: !721, line: 283, type: !885, flags: DIFlagPrototyped, spFlags: 0)
!885 = !DISubroutineType(types: !886)
!886 = !{!96, !724}
!887 = !DIImportedEntity(tag: DW_TAG_imported_declaration, scope: !713, entity: !888, file: !725, line: 1942)
!888 = !DISubprogram(name: "ilogbf", scope: !721, file: !721, line: 283, type: !889, flags: DIFlagPrototyped, spFlags: 0)
!889 = !DISubroutineType(types: !890)
!890 = !{!96, !783}
!891 = !DIImportedEntity(tag: DW_TAG_imported_declaration, scope: !713, entity: !892, file: !725, line: 1943)
!892 = !DISubprogram(name: "ilogbl", scope: !721, file: !721, line: 283, type: !893, flags: DIFlagPrototyped, spFlags: 0)
!893 = !DISubroutineType(types: !894)
!894 = !{!96, !794}
!895 = !DIImportedEntity(tag: DW_TAG_imported_declaration, scope: !713, entity: !896, file: !725, line: 1945)
!896 = !DISubprogram(name: "lgamma", scope: !721, file: !721, line: 233, type: !722, flags: DIFlagPrototyped, spFlags: 0)
!897 = !DIImportedEntity(tag: DW_TAG_imported_declaration, scope: !713, entity: !898, file: !725, line: 1946)
!898 = !DISubprogram(name: "lgammaf", scope: !721, file: !721, line: 233, type: !788, flags: DIFlagPrototyped, spFlags: 0)
!899 = !DIImportedEntity(tag: DW_TAG_imported_declaration, scope: !713, entity: !900, file: !725, line: 1947)
!900 = !DISubprogram(name: "lgammal", scope: !721, file: !721, line: 233, type: !792, flags: DIFlagPrototyped, spFlags: 0)
!901 = !DIImportedEntity(tag: DW_TAG_imported_declaration, scope: !713, entity: !902, file: !725, line: 1950)
!902 = !DISubprogram(name: "llrint", scope: !721, file: !721, line: 319, type: !903, flags: DIFlagPrototyped, spFlags: 0)
!903 = !DISubroutineType(types: !904)
!904 = !{!905, !724}
!905 = !DIBasicType(name: "long long", size: 64, encoding: DW_ATE_signed)
!906 = !DIImportedEntity(tag: DW_TAG_imported_declaration, scope: !713, entity: !907, file: !725, line: 1951)
!907 = !DISubprogram(name: "llrintf", scope: !721, file: !721, line: 319, type: !908, flags: DIFlagPrototyped, spFlags: 0)
!908 = !DISubroutineType(types: !909)
!909 = !{!905, !783}
!910 = !DIImportedEntity(tag: DW_TAG_imported_declaration, scope: !713, entity: !911, file: !725, line: 1952)
!911 = !DISubprogram(name: "llrintl", scope: !721, file: !721, line: 319, type: !912, flags: DIFlagPrototyped, spFlags: 0)
!912 = !DISubroutineType(types: !913)
!913 = !{!905, !794}
!914 = !DIImportedEntity(tag: DW_TAG_imported_declaration, scope: !713, entity: !915, file: !725, line: 1954)
!915 = !DISubprogram(name: "llround", scope: !721, file: !721, line: 325, type: !903, flags: DIFlagPrototyped, spFlags: 0)
!916 = !DIImportedEntity(tag: DW_TAG_imported_declaration, scope: !713, entity: !917, file: !725, line: 1955)
!917 = !DISubprogram(name: "llroundf", scope: !721, file: !721, line: 325, type: !908, flags: DIFlagPrototyped, spFlags: 0)
!918 = !DIImportedEntity(tag: DW_TAG_imported_declaration, scope: !713, entity: !919, file: !725, line: 1956)
!919 = !DISubprogram(name: "llroundl", scope: !721, file: !721, line: 325, type: !912, flags: DIFlagPrototyped, spFlags: 0)
!920 = !DIImportedEntity(tag: DW_TAG_imported_declaration, scope: !713, entity: !921, file: !725, line: 1959)
!921 = !DISubprogram(name: "log1p", scope: !721, file: !721, line: 122, type: !722, flags: DIFlagPrototyped, spFlags: 0)
!922 = !DIImportedEntity(tag: DW_TAG_imported_declaration, scope: !713, entity: !923, file: !725, line: 1960)
!923 = !DISubprogram(name: "log1pf", scope: !721, file: !721, line: 122, type: !788, flags: DIFlagPrototyped, spFlags: 0)
!924 = !DIImportedEntity(tag: DW_TAG_imported_declaration, scope: !713, entity: !925, file: !725, line: 1961)
!925 = !DISubprogram(name: "log1pl", scope: !721, file: !721, line: 122, type: !792, flags: DIFlagPrototyped, spFlags: 0)
!926 = !DIImportedEntity(tag: DW_TAG_imported_declaration, scope: !713, entity: !927, file: !725, line: 1963)
!927 = !DISubprogram(name: "log2", scope: !721, file: !721, line: 133, type: !722, flags: DIFlagPrototyped, spFlags: 0)
!928 = !DIImportedEntity(tag: DW_TAG_imported_declaration, scope: !713, entity: !929, file: !725, line: 1964)
!929 = !DISubprogram(name: "log2f", scope: !721, file: !721, line: 133, type: !788, flags: DIFlagPrototyped, spFlags: 0)
!930 = !DIImportedEntity(tag: DW_TAG_imported_declaration, scope: !713, entity: !931, file: !725, line: 1965)
!931 = !DISubprogram(name: "log2l", scope: !721, file: !721, line: 133, type: !792, flags: DIFlagPrototyped, spFlags: 0)
!932 = !DIImportedEntity(tag: DW_TAG_imported_declaration, scope: !713, entity: !933, file: !725, line: 1967)
!933 = !DISubprogram(name: "logb", scope: !721, file: !721, line: 125, type: !722, flags: DIFlagPrototyped, spFlags: 0)
!934 = !DIImportedEntity(tag: DW_TAG_imported_declaration, scope: !713, entity: !935, file: !725, line: 1968)
!935 = !DISubprogram(name: "logbf", scope: !721, file: !721, line: 125, type: !788, flags: DIFlagPrototyped, spFlags: 0)
!936 = !DIImportedEntity(tag: DW_TAG_imported_declaration, scope: !713, entity: !937, file: !725, line: 1969)
!937 = !DISubprogram(name: "logbl", scope: !721, file: !721, line: 125, type: !792, flags: DIFlagPrototyped, spFlags: 0)
!938 = !DIImportedEntity(tag: DW_TAG_imported_declaration, scope: !713, entity: !939, file: !725, line: 1971)
!939 = !DISubprogram(name: "lrint", scope: !721, file: !721, line: 317, type: !940, flags: DIFlagPrototyped, spFlags: 0)
!940 = !DISubroutineType(types: !941)
!941 = !{!194, !724}
!942 = !DIImportedEntity(tag: DW_TAG_imported_declaration, scope: !713, entity: !943, file: !725, line: 1972)
!943 = !DISubprogram(name: "lrintf", scope: !721, file: !721, line: 317, type: !944, flags: DIFlagPrototyped, spFlags: 0)
!944 = !DISubroutineType(types: !945)
!945 = !{!194, !783}
!946 = !DIImportedEntity(tag: DW_TAG_imported_declaration, scope: !713, entity: !947, file: !725, line: 1973)
!947 = !DISubprogram(name: "lrintl", scope: !721, file: !721, line: 317, type: !948, flags: DIFlagPrototyped, spFlags: 0)
!948 = !DISubroutineType(types: !949)
!949 = !{!194, !794}
!950 = !DIImportedEntity(tag: DW_TAG_imported_declaration, scope: !713, entity: !951, file: !725, line: 1975)
!951 = !DISubprogram(name: "lround", scope: !721, file: !721, line: 323, type: !940, flags: DIFlagPrototyped, spFlags: 0)
!952 = !DIImportedEntity(tag: DW_TAG_imported_declaration, scope: !713, entity: !953, file: !725, line: 1976)
!953 = !DISubprogram(name: "lroundf", scope: !721, file: !721, line: 323, type: !944, flags: DIFlagPrototyped, spFlags: 0)
!954 = !DIImportedEntity(tag: DW_TAG_imported_declaration, scope: !713, entity: !955, file: !725, line: 1977)
!955 = !DISubprogram(name: "lroundl", scope: !721, file: !721, line: 323, type: !948, flags: DIFlagPrototyped, spFlags: 0)
!956 = !DIImportedEntity(tag: DW_TAG_imported_declaration, scope: !713, entity: !957, file: !725, line: 1979)
