; ModuleID = 'cpp/csmith5.cpp'
source_filename = "cpp/csmith5.cpp"
target datalayout = "e-m:e-p270:32:32-p271:32:32-p272:64:64-i64:64-f80:128-n8:16:32:64-S128"
target triple = "x86_64-pc-linux-gnu"

%union.U0 = type { i32 }

@.str = private unnamed_addr constant [2 x i8] c"1\00", align 1, !dbg !0
@_ZL3g_6 = internal global i8 9, align 1, !dbg !8
@.str.1 = private unnamed_addr constant [4 x i8] c"g_6\00", align 1, !dbg !15
@_ZL3g_8 = internal global i32 0, align 4, !dbg !417
@.str.2 = private unnamed_addr constant [4 x i8] c"g_8\00", align 1, !dbg !20
@_ZL4g_10 = internal global i64 -4643152883536596629, align 8, !dbg !419
@.str.3 = private unnamed_addr constant [5 x i8] c"g_10\00", align 1, !dbg !22
@_ZL4g_11 = internal global i32 1, align 4, !dbg !422
@.str.4 = private unnamed_addr constant [5 x i8] c"g_11\00", align 1, !dbg !27
@_ZL4g_34 = internal global i32 -5, align 4, !dbg !424
@.str.5 = private unnamed_addr constant [5 x i8] c"g_34\00", align 1, !dbg !29
@_ZL4g_59 = internal global i32 8819650, align 4, !dbg !426
@.str.6 = private unnamed_addr constant [5 x i8] c"g_59\00", align 1, !dbg !31
@_ZL4g_72 = internal global i32 1, align 4, !dbg !428
@.str.7 = private unnamed_addr constant [5 x i8] c"g_72\00", align 1, !dbg !33
@_ZL4g_74 = internal global i16 0, align 2, !dbg !430
@.str.8 = private unnamed_addr constant [5 x i8] c"g_74\00", align 1, !dbg !35
@_ZL4g_81 = internal constant [1 x [5 x i32]] [[5 x i32] [i32 -1810739311, i32 -1810739311, i32 -1810739311, i32 -1810739311, i32 -1810739311]], align 16, !dbg !435
@.str.9 = private unnamed_addr constant [11 x i8] c"g_81[i][j]\00", align 1, !dbg !37
@.str.10 = private unnamed_addr constant [18 x i8] c"index = [%d][%d]\0A\00", align 1, !dbg !42
@_ZL4g_83 = internal global [9 x i32] [i32 369885294, i32 1546813352, i32 1546813352, i32 369885294, i32 1546813352, i32 1546813352, i32 369885294, i32 1546813352, i32 1546813352], align 16, !dbg !442
@.str.11 = private unnamed_addr constant [8 x i8] c"g_83[i]\00", align 1, !dbg !47
@.str.12 = private unnamed_addr constant [14 x i8] c"index = [%d]\0A\00", align 1, !dbg !52
@_ZL4g_88 = internal global i32 -1354371235, align 4, !dbg !445
@.str.13 = private unnamed_addr constant [5 x i8] c"g_88\00", align 1, !dbg !57
@_ZL5g_111 = internal global i16 1, align 2, !dbg !448
@.str.14 = private unnamed_addr constant [6 x i8] c"g_111\00", align 1, !dbg !59
@_ZL5g_122 = internal global i64 -1, align 8, !dbg !450
@.str.15 = private unnamed_addr constant [6 x i8] c"g_122\00", align 1, !dbg !64
@.str.16 = private unnamed_addr constant [6 x i8] c"g_141\00", align 1, !dbg !73
@_ZL5g_175 = internal global i8 -107, align 1, !dbg !455
@.str.17 = private unnamed_addr constant [6 x i8] c"g_175\00", align 1, !dbg !75
@_ZL5g_177 = internal global [4 x i8] c"\FA\FA\FA\FA", align 1, !dbg !457
@.str.18 = private unnamed_addr constant [9 x i8] c"g_177[i]\00", align 1, !dbg !77
@_ZL5g_181 = internal global i32 1, align 4, !dbg !460
@.str.19 = private unnamed_addr constant [6 x i8] c"g_181\00", align 1, !dbg !82
@_ZL5g_184 = internal global %union.U0 { i32 2011591231 }, align 4, !dbg !462
@.str.20 = private unnamed_addr constant [9 x i8] c"g_184.f0\00", align 1, !dbg !84
@_ZL5g_223 = internal global [9 x i64] [i64 -4, i64 6429713645449644829, i64 -4, i64 6429713645449644829, i64 -4, i64 6429713645449644829, i64 -4, i64 6429713645449644829, i64 -4], align 16, !dbg !464
@.str.21 = private unnamed_addr constant [9 x i8] c"g_223[i]\00", align 1, !dbg !86
@_ZL5g_225 = internal constant [2 x i64] [i64 4579286614519117892, i64 4579286614519117892], align 16, !dbg !467
@.str.22 = private unnamed_addr constant [9 x i8] c"g_225[i]\00", align 1, !dbg !88
@_ZL5g_227 = internal global i64 469699237020238643, align 8, !dbg !471
@.str.23 = private unnamed_addr constant [6 x i8] c"g_227\00", align 1, !dbg !90
@_ZL5g_304 = internal global [6 x i16] [i16 -8, i16 -8, i16 -8, i16 -8, i16 -8, i16 -8], align 2, !dbg !473
@.str.24 = private unnamed_addr constant [9 x i8] c"g_304[i]\00", align 1, !dbg !92
@_ZL5g_314 = internal global i16 1, align 2, !dbg !476
@.str.25 = private unnamed_addr constant [6 x i8] c"g_314\00", align 1, !dbg !94
@_ZL5g_324 = internal global i8 1, align 1, !dbg !479
@.str.26 = private unnamed_addr constant [6 x i8] c"g_324\00", align 1, !dbg !96
@_ZL5g_328 = internal global i8 -58, align 1, !dbg !485
@.str.27 = private unnamed_addr constant [6 x i8] c"g_328\00", align 1, !dbg !98
@_ZL5g_368 = internal global i32 0, align 4, !dbg !487
@.str.28 = private unnamed_addr constant [6 x i8] c"g_368\00", align 1, !dbg !100
@_ZL5g_411 = internal global i32 1889747260, align 4, !dbg !489
@.str.29 = private unnamed_addr constant [6 x i8] c"g_411\00", align 1, !dbg !102
@_ZL5g_432 = internal global i16 -6340, align 2, !dbg !491
@.str.30 = private unnamed_addr constant [6 x i8] c"g_432\00", align 1, !dbg !104
@_ZL5g_460 = internal global [10 x [8 x i8]] [[8 x i8] c"\F9\E4j\FF\FE\F9\01j", [8 x i8] c"\FE\F9\01j\FE\FEj\01", [8 x i8] c"\FE\FEj\01\F9\FE\FFj", [8 x i8] c"\FF\F9j\DDi\FFjj", [8 x i8] c"\F9i\01\01i\F9\F0\01", [8 x i8] c"\FFi\DDj\F9\FF\F0\DD", [8 x i8] c"\FE\F9\01j\FE\FEj\01", [8 x i8] c"\FE\FEj\01\F9\FE\FFj", [8 x i8] c"\FF\F9j\DDi\FFjj", [8 x i8] c"\F9i\01\01i\F9\F0\01"], align 16, !dbg !493
@.str.31 = private unnamed_addr constant [12 x i8] c"g_460[i][j]\00", align 1, !dbg !106
@_ZL5g_461 = internal global i16 1, align 2, !dbg !497
@.str.32 = private unnamed_addr constant [6 x i8] c"g_461\00", align 1, !dbg !111
@_ZL5g_485 = internal constant [7 x %union.U0] [%union.U0 { i32 5 }, %union.U0 { i32 5 }, %union.U0 { i32 5 }, %union.U0 { i32 5 }, %union.U0 { i32 5 }, %union.U0 { i32 5 }, %union.U0 { i32 5 }], align 16, !dbg !499
@.str.33 = private unnamed_addr constant [12 x i8] c"g_485[i].f0\00", align 1, !dbg !113
@_ZL5g_489 = internal global [2 x [3 x [3 x %union.U0]]] [[3 x [3 x %union.U0]] [[3 x %union.U0] [%union.U0 { i32 -10 }, %union.U0 { i32 9 }, %union.U0 { i32 9 }], [3 x %union.U0] [%union.U0 { i32 -10 }, %union.U0 { i32 9 }, %union.U0 { i32 9 }], [3 x %union.U0] [%union.U0 { i32 -10 }, %union.U0 { i32 9 }, %union.U0 { i32 9 }]], [3 x [3 x %union.U0]] [[3 x %union.U0] [%union.U0 { i32 -10 }, %union.U0 { i32 9 }, %union.U0 { i32 9 }], [3 x %union.U0] [%union.U0 { i32 -10 }, %union.U0 { i32 9 }, %union.U0 { i32 9 }], [3 x %union.U0] [%union.U0 { i32 -10 }, %union.U0 { i32 9 }, %union.U0 { i32 9 }]]], align 16, !dbg !503
@.str.34 = private unnamed_addr constant [18 x i8] c"g_489[i][j][k].f0\00", align 1, !dbg !115
@.str.35 = private unnamed_addr constant [22 x i8] c"index = [%d][%d][%d]\0A\00", align 1, !dbg !117
@_ZL5g_514 = internal global [2 x i16] [i16 9, i16 9], align 2, !dbg !508
@.str.36 = private unnamed_addr constant [9 x i8] c"g_514[i]\00", align 1, !dbg !122
@_ZL5g_515 = internal global [6 x [7 x [3 x i8]]] [[7 x [3 x i8]] [[3 x i8] c"$\16m", [3 x i8] c"\01\B4'", [3 x i8] c"\BD\01\03", [3 x i8] c"\02\02\08", [3 x i8] c"\01\01\BD", [3 x i8] c"\94'\EC", [3 x i8] c"9\BD\FF"], [7 x [3 x i8]] [[3 x i8] c"\01\94\EC", [3 x i8] c"\01\07\BD", [3 x i8] c"\0B)\08", [3 x i8] c"\F7\FD\03", [3 x i8] c"\EC\FF'", [3 x i8] c"\BAmm", [3 x i8] c"\12\DCm"], [7 x [3 x i8]] [[3 x i8] c"m\00\FF", [3 x i8] c"\B4\01\A4", [3 x i8] c"\86\B0\01", [3 x i8] c"\BD\01\00", [3 x i8] c"'\00\01", [3 x i8] c"\06\DC\01", [3 x i8] c"\16m\9B"], [7 x [3 x i8]] [[3 x i8] c"\04\FF\01", [3 x i8] c"\00\FD\00", [3 x i8] c"\00)\06", [3 x i8] c"\EC\07#", [3 x i8] c"\08\94\B4", [3 x i8] c"\00\BD\04", [3 x i8] c"\08'\1D"], [7 x [3 x i8]] [[3 x i8] c"\EC\01\B0", [3 x i8] c"\00\02\0B", [3 x i8] c"\00\01\B0", [3 x i8] c"\06\00)", [3 x i8] c"\F7\F7\BD", [3 x i8] c"\A4\94\06", [3 x i8] c"\AC\B0\B4"], [7 x [3 x i8]] [[3 x i8] c"\B4\06\01", [3 x i8] c"\03\AC\B4", [3 x i8] c"\00\01\06", [3 x i8] c"9\FF\BD", [3 x i8] c"6\01)", [3 x i8] c"\B4\FB\B0", [3 x i8] c"'\BD\BD"]], align 16, !dbg !511
@.str.37 = private unnamed_addr constant [15 x i8] c"g_515[i][j][k]\00", align 1, !dbg !124
@_ZL5g_518 = internal global i16 4739, align 2, !dbg !515
@.str.38 = private unnamed_addr constant [6 x i8] c"g_518\00", align 1, !dbg !129
@_ZL5g_535 = internal global i16 -6, align 2, !dbg !517
@.str.39 = private unnamed_addr constant [6 x i8] c"g_535\00", align 1, !dbg !131
@_ZL5g_586 = internal global [6 x i32] [i32 819535603, i32 819535603, i32 819535603, i32 819535603, i32 819535603, i32 819535603], align 16, !dbg !519
@.str.40 = private unnamed_addr constant [9 x i8] c"g_586[i]\00", align 1, !dbg !133
@.str.41 = private unnamed_addr constant [6 x i8] c"g_797\00", align 1, !dbg !141
@.str.42 = private unnamed_addr constant [6 x i8] c"g_879\00", align 1, !dbg !145
@_ZL5g_920 = internal global i64 0, align 8, !dbg !522
@.str.43 = private unnamed_addr constant [6 x i8] c"g_920\00", align 1, !dbg !147
@_ZL5g_935 = internal global i32 6, align 4, !dbg !524
@.str.44 = private unnamed_addr constant [6 x i8] c"g_935\00", align 1, !dbg !149
@_ZL5g_968 = internal global i64 -1, align 8, !dbg !526
@.str.45 = private unnamed_addr constant [6 x i8] c"g_968\00", align 1, !dbg !151
@.str.46 = private unnamed_addr constant [7 x i8] c"g_1085\00", align 1, !dbg !155
@_ZL6g_1180 = internal global i8 -40, align 1, !dbg !528
@.str.47 = private unnamed_addr constant [7 x i8] c"g_1180\00", align 1, !dbg !160
@_ZL6g_1206 = internal global i32 1, align 4, !dbg !530
@.str.48 = private unnamed_addr constant [7 x i8] c"g_1206\00", align 1, !dbg !162
@_ZL6g_1216 = internal global i8 90, align 1, !dbg !532
@.str.49 = private unnamed_addr constant [7 x i8] c"g_1216\00", align 1, !dbg !164
@_ZL6g_1217 = internal global i16 -28673, align 2, !dbg !534
@.str.50 = private unnamed_addr constant [7 x i8] c"g_1217\00", align 1, !dbg !166
@_ZL6g_1328 = internal global i32 -8, align 4, !dbg !536
@.str.51 = private unnamed_addr constant [7 x i8] c"g_1328\00", align 1, !dbg !168
@_ZL6g_1334 = internal global i32 1, align 4, !dbg !538
@.str.52 = private unnamed_addr constant [7 x i8] c"g_1334\00", align 1, !dbg !170
@.str.53 = private unnamed_addr constant [7 x i8] c"g_1363\00", align 1, !dbg !179
@.str.54 = private unnamed_addr constant [7 x i8] c"g_1368\00", align 1, !dbg !183
@_ZL6g_1406 = internal global [4 x i16] [i16 9935, i16 9935, i16 9935, i16 9935], align 2, !dbg !540
@.str.55 = private unnamed_addr constant [10 x i8] c"g_1406[i]\00", align 1, !dbg !185
@_ZL6g_1437 = internal global i8 98, align 1, !dbg !543
@.str.56 = private unnamed_addr constant [7 x i8] c"g_1437\00", align 1, !dbg !190
@_ZL6g_1618 = internal global [5 x [2 x i32]] [[2 x i32] [i32 -1, i32 -906684695], [2 x i32] [i32 -1, i32 -1], [2 x i32] [i32 -906684695, i32 -1], [2 x i32] [i32 -1, i32 -906684695], [2 x i32] [i32 -1, i32 -1]], align 16, !dbg !545
@.str.57 = private unnamed_addr constant [13 x i8] c"g_1618[i][j]\00", align 1, !dbg !192
@_ZL6g_1805 = internal global i16 -18707, align 2, !dbg !549
@.str.58 = private unnamed_addr constant [7 x i8] c"g_1805\00", align 1, !dbg !197
@_ZL6g_1870 = internal global i64 3739183817583573951, align 8, !dbg !551
@.str.59 = private unnamed_addr constant [7 x i8] c"g_1870\00", align 1, !dbg !199
@_ZL6g_1888 = internal global [4 x i64] [i64 7757517179246190518, i64 7757517179246190518, i64 7757517179246190518, i64 7757517179246190518], align 16, !dbg !553
@.str.60 = private unnamed_addr constant [10 x i8] c"g_1888[i]\00", align 1, !dbg !201
@_ZL6g_1958 = internal global %union.U0 { i32 -1 }, align 4, !dbg !556
@.str.61 = private unnamed_addr constant [10 x i8] c"g_1958.f0\00", align 1, !dbg !203
@_ZL6g_2110 = internal global i32 1, align 4, !dbg !558
@.str.62 = private unnamed_addr constant [7 x i8] c"g_2110\00", align 1, !dbg !205
@_ZL6g_2162 = internal global i32 9, align 4, !dbg !560
@.str.63 = private unnamed_addr constant [7 x i8] c"g_2162\00", align 1, !dbg !207
@_ZL6g_2237 = internal global i16 -6, align 2, !dbg !562
@.str.64 = private unnamed_addr constant [7 x i8] c"g_2237\00", align 1, !dbg !209
@_ZL6g_2368 = internal global i32 -103821722, align 4, !dbg !564
@.str.65 = private unnamed_addr constant [7 x i8] c"g_2368\00", align 1, !dbg !211
@_ZL6g_2371 = internal global i32 2052829993, align 4, !dbg !566
@.str.66 = private unnamed_addr constant [7 x i8] c"g_2371\00", align 1, !dbg !213
@_ZL6g_2374 = internal global i32 -3, align 4, !dbg !568
@.str.67 = private unnamed_addr constant [7 x i8] c"g_2374\00", align 1, !dbg !215
@_ZL6g_2379 = internal global %union.U0 { i32 3 }, align 4, !dbg !570
@.str.68 = private unnamed_addr constant [10 x i8] c"g_2379.f0\00", align 1, !dbg !217
@_ZL6g_2380 = internal global %union.U0 { i32 -1 }, align 4, !dbg !572
@.str.69 = private unnamed_addr constant [10 x i8] c"g_2380.f0\00", align 1, !dbg !219
@_ZL6g_2381 = internal global %union.U0 { i32 1 }, align 4, !dbg !574
@.str.70 = private unnamed_addr constant [10 x i8] c"g_2381.f0\00", align 1, !dbg !221
@_ZL6g_2382 = internal global %union.U0 { i32 1388179922 }, align 4, !dbg !576
@.str.71 = private unnamed_addr constant [10 x i8] c"g_2382.f0\00", align 1, !dbg !223
@_ZL6g_2383 = internal global %union.U0 { i32 -2138771820 }, align 4, !dbg !578
@.str.72 = private unnamed_addr constant [10 x i8] c"g_2383.f0\00", align 1, !dbg !225
@_ZL6g_2384 = internal global [9 x [3 x [3 x %union.U0]]] [[3 x [3 x %union.U0]] [[3 x %union.U0] [%union.U0 { i32 1 }, %union.U0 { i32 -10 }, %union.U0 { i32 -10 }], [3 x %union.U0] [%union.U0 { i32 -10 }, %union.U0 { i32 -1130629682 }, %union.U0 { i32 -2071099683 }], [3 x %union.U0] [%union.U0 { i32 1 }, %union.U0 { i32 -1130629682 }, %union.U0 { i32 1 }]], [3 x [3 x %union.U0]] [[3 x %union.U0] [%union.U0 { i32 1 }, %union.U0 { i32 -10 }, %union.U0 { i32 -2071099683 }], [3 x %union.U0] [%union.U0 { i32 1 }, %union.U0 { i32 1 }, %union.U0 { i32 -10 }], [3 x %union.U0] [%union.U0 { i32 1 }, %union.U0 { i32 -10 }, %union.U0 { i32 -10 }]], [3 x [3 x %union.U0]] [[3 x %union.U0] [%union.U0 { i32 -10 }, %union.U0 { i32 -1130629682 }, %union.U0 { i32 -2071099683 }], [3 x %union.U0] [%union.U0 { i32 1 }, %union.U0 { i32 -1130629682 }, %union.U0 { i32 1 }], [3 x %union.U0] [%union.U0 { i32 1 }, %union.U0 { i32 -10 }, %union.U0 { i32 -2071099683 }]], [3 x [3 x %union.U0]] [[3 x %union.U0] [%union.U0 { i32 1 }, %union.U0 { i32 1 }, %union.U0 { i32 -10 }], [3 x %union.U0] [%union.U0 { i32 1 }, %union.U0 { i32 -10 }, %union.U0 { i32 -10 }], [3 x %union.U0] [%union.U0 { i32 -10 }, %union.U0 { i32 -1130629682 }, %union.U0 { i32 -2071099683 }]], [3 x [3 x %union.U0]] [[3 x %union.U0] [%union.U0 { i32 1 }, %union.U0 { i32 -1130629682 }, %union.U0 { i32 1 }], [3 x %union.U0] [%union.U0 { i32 1 }, %union.U0 { i32 1 }, %union.U0 { i32 -1130629682 }], [3 x %union.U0] [%union.U0 { i32 -10 }, %union.U0 { i32 -10 }, %union.U0 { i32 1 }]], [3 x [3 x %union.U0]] [[3 x %union.U0] [%union.U0 { i32 -2071099683 }, %union.U0 { i32 1 }, %union.U0 { i32 1 }], [3 x %union.U0] [%union.U0 { i32 1 }, %union.U0 { i32 1 }, %union.U0 { i32 -1130629682 }], [3 x %union.U0] [%union.U0 { i32 -2071099683 }, %union.U0 { i32 1 }, %union.U0 { i32 -2071099683 }]], [3 x [3 x %union.U0]] [[3 x %union.U0] [%union.U0 { i32 -10 }, %union.U0 { i32 1 }, %union.U0 { i32 -1130629682 }], [3 x %union.U0] [%union.U0 { i32 -10 }, %union.U0 { i32 -10 }, %union.U0 { i32 1 }], [3 x %union.U0] [%union.U0 { i32 -2071099683 }, %union.U0 { i32 1 }, %union.U0 { i32 1 }]], [3 x [3 x %union.U0]] [[3 x %union.U0] [%union.U0 { i32 1 }, %union.U0 { i32 1 }, %union.U0 { i32 -1130629682 }], [3 x %union.U0] [%union.U0 { i32 -2071099683 }, %union.U0 { i32 1 }, %union.U0 { i32 -2071099683 }], [3 x %union.U0] [%union.U0 { i32 -10 }, %union.U0 { i32 1 }, %union.U0 { i32 -1130629682 }]], [3 x [3 x %union.U0]] [[3 x %union.U0] [%union.U0 { i32 -10 }, %union.U0 { i32 -10 }, %union.U0 { i32 1 }], [3 x %union.U0] [%union.U0 { i32 -2071099683 }, %union.U0 { i32 1 }, %union.U0 { i32 1 }], [3 x %union.U0] [%union.U0 { i32 1 }, %union.U0 { i32 1 }, %union.U0 { i32 -1130629682 }]]], align 16, !dbg !580
@.str.73 = private unnamed_addr constant [19 x i8] c"g_2384[i][j][k].f0\00", align 1, !dbg !227
@_ZL6g_2385 = internal global [2 x %union.U0] [%union.U0 { i32 6 }, %union.U0 { i32 6 }], align 4, !dbg !584
@.str.74 = private unnamed_addr constant [13 x i8] c"g_2385[i].f0\00", align 1, !dbg !232
@_ZL6g_2386 = internal global %union.U0 { i32 -2023501832 }, align 4, !dbg !587
@.str.75 = private unnamed_addr constant [10 x i8] c"g_2386.f0\00", align 1, !dbg !234
@_ZL6g_2387 = internal global [5 x %union.U0] [%union.U0 { i32 1201713463 }, %union.U0 { i32 1201713463 }, %union.U0 { i32 1201713463 }, %union.U0 { i32 1201713463 }, %union.U0 { i32 1201713463 }], align 16, !dbg !589
@.str.76 = private unnamed_addr constant [13 x i8] c"g_2387[i].f0\00", align 1, !dbg !236
@_ZL6g_2388 = internal global %union.U0 { i32 139663870 }, align 4, !dbg !592
@.str.77 = private unnamed_addr constant [10 x i8] c"g_2388.f0\00", align 1, !dbg !238
@_ZL6g_2389 = internal global %union.U0 { i32 1323762233 }, align 4, !dbg !594
@.str.78 = private unnamed_addr constant [10 x i8] c"g_2389.f0\00", align 1, !dbg !240
@_ZL6g_2390 = internal global %union.U0 { i32 -2 }, align 4, !dbg !596
@.str.79 = private unnamed_addr constant [10 x i8] c"g_2390.f0\00", align 1, !dbg !242
@_ZL6g_2391 = internal global %union.U0 { i32 -6 }, align 4, !dbg !598
@.str.80 = private unnamed_addr constant [10 x i8] c"g_2391.f0\00", align 1, !dbg !244
@_ZL6g_2392 = internal global %union.U0 { i32 -1166503014 }, align 4, !dbg !600
@.str.81 = private unnamed_addr constant [10 x i8] c"g_2392.f0\00", align 1, !dbg !246
@_ZL6g_2393 = internal global [7 x [4 x [9 x %union.U0]]] [[4 x [9 x %union.U0]] [[9 x %union.U0] [%union.U0 { i32 902789177 }, %union.U0 { i32 -2052860581 }, %union.U0 { i32 2096785981 }, %union.U0 { i32 1171743767 }, %union.U0 { i32 1400692283 }, %union.U0 { i32 1 }, %union.U0 { i32 9 }, %union.U0 zeroinitializer, %union.U0 { i32 76970481 }], [9 x %union.U0] [%union.U0 { i32 -572860837 }, %union.U0 { i32 4 }, %union.U0 { i32 -1991560014 }, %union.U0 { i32 -1500027173 }, %union.U0 { i32 1853665419 }, %union.U0 { i32 -724748243 }, %union.U0 { i32 -10 }, %union.U0 { i32 687397529 }, %union.U0 { i32 -91535557 }], [9 x %union.U0] [%union.U0 { i32 1400692283 }, %union.U0 { i32 -1 }, %union.U0 { i32 -8 }, %union.U0 { i32 9 }, %union.U0 { i32 938151115 }, %union.U0 zeroinitializer, %union.U0 { i32 1775649690 }, %union.U0 { i32 -1 }, %union.U0 { i32 3 }], [9 x %union.U0] [%union.U0 { i32 -936596471 }, %union.U0 { i32 -10 }, %union.U0 zeroinitializer, %union.U0 { i32 4 }, %union.U0 { i32 -10 }, %union.U0 { i32 -91535557 }, %union.U0 { i32 -6 }, %union.U0 { i32 -2039840239 }, %union.U0 { i32 -7 }]], [4 x [9 x %union.U0]] [[9 x %union.U0] [%union.U0 { i32 1828669731 }, %union.U0 zeroinitializer, %union.U0 { i32 -2 }, %union.U0 { i32 902789177 }, %union.U0 { i32 902789177 }, %union.U0 { i32 -2 }, %union.U0 zeroinitializer, %union.U0 { i32 1828669731 }, %union.U0 zeroinitializer], [9 x %union.U0] [%union.U0 { i32 1 }, %union.U0 { i32 2 }, %union.U0 { i32 -1830500301 }, %union.U0 { i32 -952733670 }, %union.U0 { i32 -1991560014 }, %union.U0 { i32 -572860837 }, %union.U0 { i32 -1500027173 }, %union.U0 { i32 1 }, %union.U0 { i32 -1870433229 }], [9 x %union.U0] [%union.U0 { i32 -1 }, %union.U0 { i32 1171743767 }, %union.U0 { i32 902789177 }, %union.U0 { i32 -5 }, %union.U0 { i32 -1630337950 }, %union.U0 { i32 -1 }, %union.U0 { i32 -10 }, %union.U0 { i32 1803727950 }, %union.U0 zeroinitializer], [9 x %union.U0] [%union.U0 { i32 -232799600 }, %union.U0 { i32 -91535557 }, %union.U0 { i32 -1841296340 }, %union.U0 { i32 -6 }, %union.U0 { i32 -1830500301 }, %union.U0 { i32 -303073948 }, %union.U0 { i32 -952733670 }, %union.U0 { i32 -1500027173 }, %union.U0 { i32 -7 }]], [4 x [9 x %union.U0]] [[9 x %union.U0] [%union.U0 { i32 1775649690 }, %union.U0 { i32 938151115 }, %union.U0 zeroinitializer, %union.U0 { i32 76970481 }, %union.U0 { i32 -357533407 }, %union.U0 zeroinitializer, %union.U0 { i32 1710642084 }, %union.U0 { i32 1424010904 }, %union.U0 { i32 3 }], [9 x %union.U0] [%union.U0 { i32 -1598154790 }, %union.U0 { i32 1213355058 }, %union.U0 { i32 -1 }, %union.U0 { i32 1 }, %union.U0 { i32 1 }, %union.U0 zeroinitializer, %union.U0 { i32 -936596471 }, %union.U0 { i32 -91535557 }, %union.U0 { i32 -91535557 }], [9 x %union.U0] [%union.U0 { i32 1 }, %union.U0 { i32 -1 }, %union.U0 { i32 -1348287755 }, %union.U0 zeroinitializer, %union.U0 { i32 -1348287755 }, %union.U0 { i32 -1 }, %union.U0 { i32 1 }, %union.U0 { i32 760044342 }, %union.U0 { i32 76970481 }], [9 x %union.U0] [%union.U0 { i32 1940923491 }, %union.U0 { i32 -410919192 }, %union.U0 zeroinitializer, %union.U0 { i32 -303073948 }, %union.U0 { i32 -1191759883 }, %union.U0 { i32 1 }, %union.U0 { i32 -1065445871 }, %union.U0 { i32 -1 }, %union.U0 { i32 -830001331 }]], [4 x [9 x %union.U0]] [[9 x %union.U0] [%union.U0 { i32 -2 }, %union.U0 { i32 -1 }, %union.U0 { i32 -1334756138 }, %union.U0 { i32 1803727950 }, %union.U0 zeroinitializer, %union.U0 { i32 -1630337950 }, %union.U0 zeroinitializer, %union.U0 { i32 760044342 }, %union.U0 { i32 1400692283 }], [9 x %union.U0] [%union.U0 { i32 4 }, %union.U0 { i32 -1991560014 }, %union.U0 { i32 -1500027173 }, %union.U0 { i32 1853665419 }, %union.U0 { i32 -724748243 }, %union.U0 { i32 -10 }, %union.U0 { i32 687397529 }, %union.U0 { i32 -91535557 }, %union.U0 { i32 -669842411 }], [9 x %union.U0] [%union.U0 { i32 -399432965 }, %union.U0 { i32 -10 }, %union.U0 zeroinitializer, %union.U0 { i32 -1630337950 }, %union.U0 { i32 -286337454 }, %union.U0 zeroinitializer, %union.U0 { i32 1 }, %union.U0 { i32 1424010904 }, %union.U0 { i32 -1 }], [9 x %union.U0] [%union.U0 { i32 1417117941 }, %union.U0 { i32 -2039840239 }, %union.U0 { i32 -1065445871 }, %union.U0 { i32 -1962848647 }, %union.U0 { i32 834906212 }, %union.U0 zeroinitializer, %union.U0 { i32 -724748243 }, %union.U0 { i32 -1500027173 }, %union.U0 { i32 1213355058 }]], [4 x [9 x %union.U0]] [[9 x %union.U0] [%union.U0 { i32 1828669731 }, %union.U0 { i32 -1 }, %union.U0 zeroinitializer, %union.U0 zeroinitializer, %union.U0 { i32 -1 }, %union.U0 { i32 1828669731 }, %union.U0 { i32 -286337454 }, %union.U0 { i32 3 }, %union.U0 { i32 -1 }], [9 x %union.U0] [%union.U0 { i32 -232799600 }, %union.U0 { i32 -410919192 }, %union.U0 { i32 -7 }, %union.U0 { i32 -91535557 }, %union.U0 { i32 -1 }, %union.U0 { i32 1 }, %union.U0 { i32 -1577222247 }, %union.U0 { i32 -1598154790 }, %union.U0 { i32 -1830500301 }], [9 x %union.U0] [%union.U0 { i32 -8 }, %union.U0 { i32 2096785981 }, %union.U0 { i32 895271482 }, %union.U0 { i32 1249748214 }, %union.U0 { i32 938151115 }, %union.U0 { i32 1803727950 }, %union.U0 { i32 -286337454 }, %union.U0 { i32 -833785204 }, %union.U0 { i32 -10 }], [9 x %union.U0] [%union.U0 { i32 1940923491 }, %union.U0 { i32 -1598154790 }, %union.U0 { i32 -1 }, %union.U0 { i32 -936596471 }, %union.U0 { i32 1106407121 }, %union.U0 { i32 -1500027173 }, %union.U0 { i32 1213355058 }, %union.U0 { i32 1 }, %union.U0 { i32 -1191759883 }]], [4 x [9 x %union.U0]] [[9 x %union.U0] [%union.U0 { i32 -1348287755 }, %union.U0 { i32 1710642084 }, %union.U0 { i32 -1 }, %union.U0 { i32 -8 }, %union.U0 { i32 1775649690 }, %union.U0 { i32 1424010904 }, %union.U0 { i32 2096785981 }, %union.U0 { i32 -1 }, %union.U0 { i32 -1 }], [9 x %union.U0] [%union.U0 { i32 -10 }, %union.U0 { i32 -1 }, %union.U0 { i32 834906212 }, %union.U0 { i32 -724748243 }, %union.U0 { i32 1 }, %union.U0 { i32 -91535557 }, %union.U0 { i32 -303073948 }, %union.U0 { i32 -303073948 }, %union.U0 { i32 -91535557 }], [9 x %union.U0] [%union.U0 { i32 2096785981 }, %union.U0 { i32 -357533407 }, %union.U0 zeroinitializer, %union.U0 { i32 -357533407 }, %union.U0 { i32 2096785981 }, %union.U0 { i32 760044342 }, %union.U0 { i32 -1 }, %union.U0 { i32 1 }, %union.U0 { i32 1400692283 }], [9 x %union.U0] [%union.U0 { i32 -91535557 }, %union.U0 zeroinitializer, %union.U0 { i32 1 }, %union.U0 { i32 1 }, %union.U0 { i32 -669842411 }, %union.U0 { i32 -1 }, %union.U0 zeroinitializer, %union.U0 { i32 1106407121 }, %union.U0 { i32 -303073948 }]], [4 x [9 x %union.U0]] [[9 x %union.U0] [%union.U0 { i32 895271482 }, %union.U0 { i32 -2 }, %union.U0 { i32 -10 }, %union.U0 { i32 76970481 }, %union.U0 zeroinitializer, %union.U0 { i32 760044342 }, %union.U0 { i32 -1 }, %union.U0 { i32 -1402704410 }, %union.U0 zeroinitializer], [9 x %union.U0] [%union.U0 { i32 687397529 }, %union.U0 zeroinitializer, %union.U0 { i32 4 }, %union.U0 { i32 -7 }, %union.U0 { i32 -10 }, %union.U0 { i32 -91535557 }, %union.U0 { i32 -1065445871 }, %union.U0 { i32 2 }, %union.U0 { i32 -936596471 }], [9 x %union.U0] [%union.U0 zeroinitializer, %union.U0 { i32 -796080472 }, %union.U0 { i32 2096785981 }, %union.U0 { i32 -1 }, %union.U0 { i32 1803727950 }, %union.U0 { i32 1424010904 }, %union.U0 { i32 938151115 }, %union.U0 { i32 -1 }, %union.U0 { i32 -2052860581 }], [9 x %union.U0] [%union.U0 { i32 -7 }, %union.U0 { i32 1940923491 }, %union.U0 { i32 1 }, %union.U0 { i32 2 }, %union.U0 { i32 1 }, %union.U0 { i32 -1500027173 }, %union.U0 { i32 -1191759883 }, %union.U0 { i32 -1500027173 }, %union.U0 { i32 1 }]]], align 16, !dbg !602
@.str.82 = private unnamed_addr constant [19 x i8] c"g_2393[i][j][k].f0\00", align 1, !dbg !248
@_ZL6g_2394 = internal global [6 x [5 x %union.U0]] [[5 x %union.U0] [%union.U0 { i32 665023985 }, %union.U0 { i32 -1 }, %union.U0 { i32 1794630019 }, %union.U0 { i32 665023985 }, %union.U0 { i32 1946588029 }], [5 x %union.U0] [%union.U0 { i32 -1 }, %union.U0 { i32 -1 }, %union.U0 zeroinitializer, %union.U0 { i32 -1 }, %union.U0 { i32 1946588029 }], [5 x %union.U0] [%union.U0 { i32 665023985 }, %union.U0 zeroinitializer, %union.U0 zeroinitializer, %union.U0 { i32 665023985 }, %union.U0 { i32 -757378630 }], [5 x %union.U0] [%union.U0 { i32 665023985 }, %union.U0 { i32 -1 }, %union.U0 { i32 1794630019 }, %union.U0 { i32 665023985 }, %union.U0 { i32 1946588029 }], [5 x %union.U0] [%union.U0 { i32 -1 }, %union.U0 { i32 -1 }, %union.U0 zeroinitializer, %union.U0 { i32 -1 }, %union.U0 { i32 1946588029 }], [5 x %union.U0] [%union.U0 { i32 665023985 }, %union.U0 zeroinitializer, %union.U0 zeroinitializer, %union.U0 { i32 665023985 }, %union.U0 { i32 -757378630 }]], align 16, !dbg !606
@.str.83 = private unnamed_addr constant [16 x i8] c"g_2394[i][j].f0\00", align 1, !dbg !250
@_ZL6g_2395 = internal global [1 x [10 x %union.U0]] [[10 x %union.U0] [%union.U0 { i32 402248557 }, %union.U0 { i32 402248557 }, %union.U0 { i32 4 }, %union.U0 { i32 402248557 }, %union.U0 { i32 402248557 }, %union.U0 { i32 4 }, %union.U0 { i32 402248557 }, %union.U0 { i32 402248557 }, %union.U0 { i32 4 }, %union.U0 { i32 402248557 }]], align 16, !dbg !610
@.str.84 = private unnamed_addr constant [16 x i8] c"g_2395[i][j].f0\00", align 1, !dbg !255
@_ZL6g_2396 = internal global %union.U0 { i32 1604111177 }, align 4, !dbg !614
@.str.85 = private unnamed_addr constant [10 x i8] c"g_2396.f0\00", align 1, !dbg !257
@_ZL6g_2397 = internal global %union.U0 zeroinitializer, align 4, !dbg !616
@.str.86 = private unnamed_addr constant [10 x i8] c"g_2397.f0\00", align 1, !dbg !259
@_ZL6g_2398 = internal global %union.U0 { i32 1013137505 }, align 4, !dbg !618
@.str.87 = private unnamed_addr constant [10 x i8] c"g_2398.f0\00", align 1, !dbg !261
@_ZL6g_2399 = internal global %union.U0 { i32 1644732253 }, align 4, !dbg !620
@.str.88 = private unnamed_addr constant [10 x i8] c"g_2399.f0\00", align 1, !dbg !263
@_ZL6g_2400 = internal global %union.U0 { i32 798586372 }, align 4, !dbg !622
@.str.89 = private unnamed_addr constant [10 x i8] c"g_2400.f0\00", align 1, !dbg !265
@_ZL6g_2401 = internal global %union.U0 { i32 1357826960 }, align 4, !dbg !624
@.str.90 = private unnamed_addr constant [10 x i8] c"g_2401.f0\00", align 1, !dbg !267
@_ZL6g_2402 = internal global %union.U0 { i32 -490703716 }, align 4, !dbg !626
@.str.91 = private unnamed_addr constant [10 x i8] c"g_2402.f0\00", align 1, !dbg !269
@_ZL6g_2403 = internal global %union.U0 { i32 1118347819 }, align 4, !dbg !628
@.str.92 = private unnamed_addr constant [10 x i8] c"g_2403.f0\00", align 1, !dbg !271
@_ZL6g_2404 = internal global [4 x %union.U0] [%union.U0 { i32 623552625 }, %union.U0 { i32 623552625 }, %union.U0 { i32 623552625 }, %union.U0 { i32 623552625 }], align 16, !dbg !630
@.str.93 = private unnamed_addr constant [13 x i8] c"g_2404[i].f0\00", align 1, !dbg !273
@_ZL6g_2405 = internal global %union.U0 { i32 1 }, align 4, !dbg !633
@.str.94 = private unnamed_addr constant [10 x i8] c"g_2405.f0\00", align 1, !dbg !275
@_ZL6g_2406 = internal global %union.U0 zeroinitializer, align 4, !dbg !635
@.str.95 = private unnamed_addr constant [10 x i8] c"g_2406.f0\00", align 1, !dbg !277
@_ZL6g_2407 = internal global %union.U0 { i32 1 }, align 4, !dbg !637
@.str.96 = private unnamed_addr constant [10 x i8] c"g_2407.f0\00", align 1, !dbg !279
@_ZL6g_2408 = internal global %union.U0 { i32 219955814 }, align 4, !dbg !639
@.str.97 = private unnamed_addr constant [10 x i8] c"g_2408.f0\00", align 1, !dbg !281
@_ZL6g_2409 = internal global %union.U0 { i32 1896030735 }, align 4, !dbg !641
@.str.98 = private unnamed_addr constant [10 x i8] c"g_2409.f0\00", align 1, !dbg !283
@_ZL6g_2410 = internal global [3 x %union.U0] [%union.U0 { i32 -1 }, %union.U0 { i32 -1 }, %union.U0 { i32 -1 }], align 4, !dbg !643
@.str.99 = private unnamed_addr constant [13 x i8] c"g_2410[i].f0\00", align 1, !dbg !285
@_ZL6g_2411 = internal global %union.U0 { i32 -745054648 }, align 4, !dbg !647
@.str.100 = private unnamed_addr constant [10 x i8] c"g_2411.f0\00", align 1, !dbg !287
@_ZL6g_2412 = internal global %union.U0 { i32 3 }, align 4, !dbg !649
@.str.101 = private unnamed_addr constant [10 x i8] c"g_2412.f0\00", align 1, !dbg !289
@_ZL6g_2413 = internal global %union.U0 zeroinitializer, align 4, !dbg !651
@.str.102 = private unnamed_addr constant [10 x i8] c"g_2413.f0\00", align 1, !dbg !291
@_ZL6g_2414 = internal global %union.U0 { i32 359106689 }, align 4, !dbg !653
@.str.103 = private unnamed_addr constant [10 x i8] c"g_2414.f0\00", align 1, !dbg !293
@_ZL6g_2415 = internal global [2 x %union.U0] zeroinitializer, align 4, !dbg !655
@.str.104 = private unnamed_addr constant [13 x i8] c"g_2415[i].f0\00", align 1, !dbg !295
@_ZL6g_2416 = internal global [7 x [7 x %union.U0]] [[7 x %union.U0] [%union.U0 { i32 -676520967 }, %union.U0 { i32 1876096415 }, %union.U0 { i32 2 }, %union.U0 { i32 1876096415 }, %union.U0 { i32 -676520967 }, %union.U0 { i32 -676520967 }, %union.U0 { i32 1876096415 }], [7 x %union.U0] [%union.U0 { i32 -1 }, %union.U0 { i32 1 }, %union.U0 { i32 -1 }, %union.U0 { i32 -830622986 }, %union.U0 { i32 1 }, %union.U0 { i32 204407631 }, %union.U0 { i32 8 }], [7 x %union.U0] [%union.U0 { i32 1876096415 }, %union.U0 { i32 -1483221483 }, %union.U0 { i32 2 }, %union.U0 { i32 2 }, %union.U0 { i32 -1483221483 }, %union.U0 { i32 1876096415 }, %union.U0 { i32 -1483221483 }], [7 x %union.U0] [%union.U0 { i32 -1 }, %union.U0 { i32 -830622986 }, %union.U0 { i32 1 }, %union.U0 { i32 204407631 }, %union.U0 { i32 8 }, %union.U0 { i32 204407631 }, %union.U0 { i32 1 }], [7 x %union.U0] [%union.U0 { i32 -676520967 }, %union.U0 { i32 -676520967 }, %union.U0 { i32 1876096415 }, %union.U0 { i32 2 }, %union.U0 { i32 1876096415 }, %union.U0 { i32 1876096415 }, %union.U0 { i32 1876096415 }], [7 x %union.U0] [%union.U0 { i32 1 }, %union.U0 { i32 204407631 }, %union.U0 { i32 8 }, %union.U0 { i32 204407631 }, %union.U0 { i32 1 }, %union.U0 { i32 -830622986 }, %union.U0 { i32 -1 }], [7 x %union.U0] [%union.U0 { i32 2 }, %union.U0 { i32 -676520967 }, %union.U0 { i32 2 }, %union.U0 { i32 -1 }, %union.U0 { i32 -1 }, %union.U0 { i32 2 }, %union.U0 { i32 -676520967 }]], align 16, !dbg !657
@.str.105 = private unnamed_addr constant [16 x i8] c"g_2416[i][j].f0\00", align 1, !dbg !297
@_ZL6g_2417 = internal global %union.U0 { i32 -1 }, align 4, !dbg !661
@.str.106 = private unnamed_addr constant [10 x i8] c"g_2417.f0\00", align 1, !dbg !299
@_ZL6g_2418 = internal global %union.U0 { i32 -243988537 }, align 4, !dbg !663
@.str.107 = private unnamed_addr constant [10 x i8] c"g_2418.f0\00", align 1, !dbg !301
@_ZL6g_2419 = internal global %union.U0 { i32 932525647 }, align 4, !dbg !665
@.str.108 = private unnamed_addr constant [10 x i8] c"g_2419.f0\00", align 1, !dbg !303
@_ZL6g_2420 = internal global %union.U0 { i32 -1675274118 }, align 4, !dbg !667
@.str.109 = private unnamed_addr constant [10 x i8] c"g_2420.f0\00", align 1, !dbg !305
@_ZL6g_2421 = internal global %union.U0 { i32 -1 }, align 4, !dbg !669
@.str.110 = private unnamed_addr constant [10 x i8] c"g_2421.f0\00", align 1, !dbg !307
@_ZL6g_2422 = internal global %union.U0 { i32 -835453147 }, align 4, !dbg !671
@.str.111 = private unnamed_addr constant [10 x i8] c"g_2422.f0\00", align 1, !dbg !309
@_ZL6g_2423 = internal global %union.U0 zeroinitializer, align 4, !dbg !673
@.str.112 = private unnamed_addr constant [10 x i8] c"g_2423.f0\00", align 1, !dbg !311
@_ZL6g_2424 = internal global %union.U0 { i32 2029129954 }, align 4, !dbg !675
@.str.113 = private unnamed_addr constant [10 x i8] c"g_2424.f0\00", align 1, !dbg !313
@_ZL6g_2425 = internal global %union.U0 { i32 903939221 }, align 4, !dbg !677
@.str.114 = private unnamed_addr constant [10 x i8] c"g_2425.f0\00", align 1, !dbg !315
@_ZL6g_2426 = internal global %union.U0 { i32 1 }, align 4, !dbg !679
@.str.115 = private unnamed_addr constant [10 x i8] c"g_2426.f0\00", align 1, !dbg !317
@_ZL6g_2427 = internal global %union.U0 { i32 -6 }, align 4, !dbg !681
@.str.116 = private unnamed_addr constant [10 x i8] c"g_2427.f0\00", align 1, !dbg !319
@_ZL6g_2428 = internal global %union.U0 { i32 -6 }, align 4, !dbg !683
@.str.117 = private unnamed_addr constant [10 x i8] c"g_2428.f0\00", align 1, !dbg !321
@_ZL6g_2429 = internal global %union.U0 { i32 1 }, align 4, !dbg !685
@.str.118 = private unnamed_addr constant [10 x i8] c"g_2429.f0\00", align 1, !dbg !323
@_ZL6g_2430 = internal global %union.U0 { i32 2 }, align 4, !dbg !687
@.str.119 = private unnamed_addr constant [10 x i8] c"g_2430.f0\00", align 1, !dbg !325
@_ZL6g_2712 = internal global i32 496705599, align 4, !dbg !689
@.str.120 = private unnamed_addr constant [7 x i8] c"g_2712\00", align 1, !dbg !327
@_ZL6g_2726 = internal global i64 -1518151347203250775, align 8, !dbg !691
@.str.121 = private unnamed_addr constant [7 x i8] c"g_2726\00", align 1, !dbg !329
@_ZL6g_2848 = internal global i8 35, align 1, !dbg !693
@.str.122 = private unnamed_addr constant [7 x i8] c"g_2848\00", align 1, !dbg !331
@_ZL6g_2849 = internal global i8 0, align 1, !dbg !695
@.str.123 = private unnamed_addr constant [7 x i8] c"g_2849\00", align 1, !dbg !333
@_ZL6g_2850 = internal global i8 -1, align 1, !dbg !697
@.str.124 = private unnamed_addr constant [7 x i8] c"g_2850\00", align 1, !dbg !335
@_ZL6g_2851 = internal global [1 x [1 x [7 x i8]]] zeroinitializer, align 1, !dbg !699
@.str.125 = private unnamed_addr constant [16 x i8] c"g_2851[i][j][k]\00", align 1, !dbg !337
@_ZL6g_2883 = internal constant [3 x i16] [i16 -1, i16 -1, i16 -1], align 2, !dbg !703
@.str.126 = private unnamed_addr constant [10 x i8] c"g_2883[i]\00", align 1, !dbg !339
@_ZL6g_2949 = internal global [8 x i8] c"\F8\F8\F8\F8\F8\F8\F8\F8", align 1, !dbg !707
@.str.127 = private unnamed_addr constant [10 x i8] c"g_2949[i]\00", align 1, !dbg !341
@_ZL6g_3007 = internal global i32 180232063, align 4, !dbg !710
@.str.128 = private unnamed_addr constant [7 x i8] c"g_3007\00", align 1, !dbg !343
@_ZL6g_3016 = internal global i32 8, align 4, !dbg !712
@.str.129 = private unnamed_addr constant [7 x i8] c"g_3016\00", align 1, !dbg !345
@_ZL6g_3017 = internal global i32 1, align 4, !dbg !714
@.str.130 = private unnamed_addr constant [7 x i8] c"g_3017\00", align 1, !dbg !347
@_ZL6g_3122 = internal global i64 1, align 8, !dbg !716
@.str.131 = private unnamed_addr constant [7 x i8] c"g_3122\00", align 1, !dbg !349
@_ZL6g_3240 = internal global i8 -112, align 1, !dbg !718
@.str.132 = private unnamed_addr constant [7 x i8] c"g_3240\00", align 1, !dbg !351
@_ZL13crc32_context = internal global i32 -1, align 4, !dbg !723
@_ZL9crc32_tab = internal global [256 x i32] zeroinitializer, align 16, !dbg !353
@__const._ZL6func_1v.l_5 = private unnamed_addr constant [6 x [1 x i8]] [[1 x i8] c"\01", [1 x i8] c"\FA", [1 x i8] c"\01", [1 x i8] c"\FA", [1 x i8] c"\01", [1 x i8] c"\FA"], align 1
@__const._ZL6func_1v.l_3029 = private unnamed_addr constant %union.U0 { i32 -1294210093 }, align 4
@_ZL6g_1016 = internal global ptr getelementptr (i8, ptr @_ZL4g_83, i64 20), align 8, !dbg !365
@__const._ZL6func_1v.l_3096 = private unnamed_addr constant [2 x [3 x i32]] [[3 x i32] [i32 -1, i32 1, i32 -1], [3 x i32] [i32 -1, i32 1, i32 -1]], align 16
@__const._ZL6func_1v.l_3173 = private unnamed_addr constant %union.U0 { i32 1 }, align 4
@_ZL5g_477 = internal global ptr @_ZL5g_184, align 8, !dbg !399
@_ZL6g_2366 = internal global ptr @_ZL6g_2367, align 8, !dbg !401
@_ZL6g_1842 = internal global ptr getelementptr (i8, ptr @_ZL5g_586, i64 12), align 8, !dbg !409
@_ZL5g_630 = internal global [2 x ptr] [ptr @_ZL5g_631, ptr @_ZL5g_631], align 16, !dbg !367
@_ZL6g_1032 = internal global ptr @_ZL6g_1033, align 8, !dbg !379
@_ZL5g_637 = internal global ptr null, align 8, !dbg !385
@__const._ZL6func_2sj.l_2743 = private unnamed_addr constant %union.U0 { i32 -2 }, align 4
@__const._ZL6func_2sj.l_2781 = private unnamed_addr constant [5 x i8] c"`````", align 1
@_ZL6g_1215 = internal global [2 x [5 x [2 x ptr]]] [[5 x [2 x ptr]] [[2 x ptr] [ptr @_ZL6g_1216, ptr @_ZL6g_1216], [2 x ptr] [ptr @_ZL6g_1216, ptr @_ZL6g_1216], [2 x ptr] [ptr @_ZL6g_1216, ptr @_ZL6g_1216], [2 x ptr] [ptr @_ZL6g_1216, ptr @_ZL6g_1216], [2 x ptr] [ptr @_ZL6g_1216, ptr @_ZL6g_1216]], [5 x [2 x ptr]] [[2 x ptr] [ptr @_ZL6g_1216, ptr @_ZL6g_1216], [2 x ptr] [ptr @_ZL6g_1216, ptr @_ZL6g_1216], [2 x ptr] [ptr @_ZL6g_1216, ptr @_ZL6g_1216], [2 x ptr] [ptr @_ZL6g_1216, ptr @_ZL6g_1216], [2 x ptr] [ptr @_ZL6g_1216, ptr @_ZL6g_1216]]], align 16, !dbg !388
@_ZL6g_1084 = internal global ptr @_ZL6g_1085, align 8, !dbg !396
@__const._ZL6func_2sj.l_3008 = private unnamed_addr constant [3 x [4 x [8 x i32]]] [[4 x [8 x i32]] [[8 x i32] [i32 -524806698, i32 -1, i32 4, i32 294021245, i32 294021245, i32 4, i32 -1, i32 -524806698], [8 x i32] [i32 38554303, i32 497671460, i32 4, i32 -7, i32 212348731, i32 -2, i32 212348731, i32 -7], [8 x i32] [i32 294021245, i32 -3, i32 294021245, i32 -1582852147, i32 -7, i32 -2, i32 4, i32 4], [8 x i32] [i32 4, i32 497671460, i32 38554303, i32 38554303, i32 497671460, i32 4, i32 -7, i32 212348731]], [4 x [8 x i32]] [[8 x i32] [i32 4, i32 -1, i32 -524806698, i32 497671460, i32 -7, i32 497671460, i32 -524806698, i32 -1], [8 x i32] [i32 294021245, i32 -524806698, i32 -2, i32 497671460, i32 212348731, i32 -1582852147, i32 -1582852147, i32 212348731], [8 x i32] [i32 38554303, i32 212348731, i32 212348731, i32 38554303, i32 294021245, i32 -1, i32 -1582852147, i32 4], [8 x i32] [i32 -524806698, i32 38554303, i32 -2, i32 -1582852147, i32 -2, i32 38554303, i32 -524806698, i32 -7]], [4 x [8 x i32]] [[8 x i32] [i32 -2, i32 38554303, i32 -524806698, i32 -7, i32 -1, i32 -1, i32 -7, i32 -524806698], [8 x i32] [i32 212348731, i32 212348731, i32 38554303, i32 294021245, i32 -1, i32 -1582852147, i32 4, i32 -1582852147], [8 x i32] [i32 -2, i32 -524806698, i32 294021245, i32 -524806698, i32 -2, i32 497671460, i32 212348731, i32 -1582852147], [8 x i32] [i32 -524806698, i32 -1, i32 4, i32 294021245, i32 294021245, i32 4, i32 -1, i32 -524806698]]], align 16
@_ZL5g_631 = internal global ptr null, align 8, !dbg !377
@_ZL6g_1033 = internal global ptr getelementptr (i8, ptr @_ZL5g_223, i64 64), align 8, !dbg !383
@_ZL6g_1085 = internal constant i32 0, align 4, !dbg !153
@_ZL6g_2367 = internal global [2 x ptr] [ptr @_ZL6g_2368, ptr @_ZL6g_2368], align 16, !dbg !406
@.str.133 = private unnamed_addr constant [36 x i8] c"...checksum after hashing %s : %lX\0A\00", align 1, !dbg !412
@.str.134 = private unnamed_addr constant [15 x i8] c"checksum = %X\0A\00", align 1, !dbg !720

; Function Attrs: mustprogress noinline norecurse nounwind optnone sspstrong uwtable
define dso_local noundef i32 @main(i32 noundef %0, ptr noundef %1) #0 !dbg !1093 {
  %3 = alloca i32, align 4
  %4 = alloca i32, align 4
  %5 = alloca ptr, align 8
  %6 = alloca i32, align 4
  %7 = alloca i32, align 4
  %8 = alloca i32, align 4
  %9 = alloca i32, align 4
  store i32 0, ptr %3, align 4
  store i32 %0, ptr %4, align 4
  call void @llvm.dbg.declare(metadata ptr %4, metadata !1099, metadata !DIExpression()), !dbg !1100
  store ptr %1, ptr %5, align 8
  call void @llvm.dbg.declare(metadata ptr %5, metadata !1101, metadata !DIExpression()), !dbg !1102
  call void @llvm.dbg.declare(metadata ptr %6, metadata !1103, metadata !DIExpression()), !dbg !1104
  call void @llvm.dbg.declare(metadata ptr %7, metadata !1105, metadata !DIExpression()), !dbg !1106
  call void @llvm.dbg.declare(metadata ptr %8, metadata !1107, metadata !DIExpression()), !dbg !1108
  call void @llvm.dbg.declare(metadata ptr %9, metadata !1109, metadata !DIExpression()), !dbg !1110
  store i32 0, ptr %9, align 4, !dbg !1110
  %10 = load i32, ptr %4, align 4, !dbg !1111
  %11 = icmp eq i32 %10, 2, !dbg !1113
  br i1 %11, label %12, label %19, !dbg !1114

12:                                               ; preds = %2
  %13 = load ptr, ptr %5, align 8, !dbg !1115
  %14 = getelementptr inbounds ptr, ptr %13, i64 1, !dbg !1115
  %15 = load ptr, ptr %14, align 8, !dbg !1115
  %16 = call i32 @strcmp(ptr noundef %15, ptr noundef @.str) #7, !dbg !1116
  %17 = icmp eq i32 %16, 0, !dbg !1117
  br i1 %17, label %18, label %19, !dbg !1118

18:                                               ; preds = %12
  store i32 1, ptr %9, align 4, !dbg !1119
  br label %19, !dbg !1120

19:                                               ; preds = %18, %12, %2
  call void @_ZL19platform_main_beginv(), !dbg !1121
  call void @_ZL12crc32_gentabv(), !dbg !1122
  %20 = call noundef i32 @_ZL6func_1v(), !dbg !1123
  %21 = load volatile i8, ptr @_ZL3g_6, align 1, !dbg !1124
  %22 = sext i8 %21 to i64, !dbg !1124
  %23 = load i32, ptr %9, align 4, !dbg !1125
  call void @_ZL15transparent_crcmPci(i64 noundef %22, ptr noundef @.str.1, i32 noundef %23), !dbg !1126
  %24 = load i32, ptr @_ZL3g_8, align 4, !dbg !1127
  %25 = sext i32 %24 to i64, !dbg !1127
  %26 = load i32, ptr %9, align 4, !dbg !1128
  call void @_ZL15transparent_crcmPci(i64 noundef %25, ptr noundef @.str.2, i32 noundef %26), !dbg !1129
  %27 = load volatile i64, ptr @_ZL4g_10, align 8, !dbg !1130
  %28 = load i32, ptr %9, align 4, !dbg !1131
  call void @_ZL15transparent_crcmPci(i64 noundef %27, ptr noundef @.str.3, i32 noundef %28), !dbg !1132
  %29 = load i32, ptr @_ZL4g_11, align 4, !dbg !1133
  %30 = zext i32 %29 to i64, !dbg !1133
  %31 = load i32, ptr %9, align 4, !dbg !1134
  call void @_ZL15transparent_crcmPci(i64 noundef %30, ptr noundef @.str.4, i32 noundef %31), !dbg !1135
  %32 = load i32, ptr @_ZL4g_34, align 4, !dbg !1136
  %33 = sext i32 %32 to i64, !dbg !1136
  %34 = load i32, ptr %9, align 4, !dbg !1137
  call void @_ZL15transparent_crcmPci(i64 noundef %33, ptr noundef @.str.5, i32 noundef %34), !dbg !1138
  %35 = load i32, ptr @_ZL4g_59, align 4, !dbg !1139
  %36 = zext i32 %35 to i64, !dbg !1139
  %37 = load i32, ptr %9, align 4, !dbg !1140
  call void @_ZL15transparent_crcmPci(i64 noundef %36, ptr noundef @.str.6, i32 noundef %37), !dbg !1141
  %38 = load i32, ptr @_ZL4g_72, align 4, !dbg !1142
  %39 = zext i32 %38 to i64, !dbg !1142
  %40 = load i32, ptr %9, align 4, !dbg !1143
  call void @_ZL15transparent_crcmPci(i64 noundef %39, ptr noundef @.str.7, i32 noundef %40), !dbg !1144
  %41 = load i16, ptr @_ZL4g_74, align 2, !dbg !1145
  %42 = sext i16 %41 to i64, !dbg !1145
  %43 = load i32, ptr %9, align 4, !dbg !1146
  call void @_ZL15transparent_crcmPci(i64 noundef %42, ptr noundef @.str.8, i32 noundef %43), !dbg !1147
  store i32 0, ptr %6, align 4, !dbg !1148
  br label %44, !dbg !1150

44:                                               ; preds = %72, %19
  %45 = load i32, ptr %6, align 4, !dbg !1151
  %46 = icmp slt i32 %45, 1, !dbg !1153
  br i1 %46, label %47, label %75, !dbg !1154

47:                                               ; preds = %44
  store i32 0, ptr %7, align 4, !dbg !1155
  br label %48, !dbg !1158

48:                                               ; preds = %68, %47
  %49 = load i32, ptr %7, align 4, !dbg !1159
  %50 = icmp slt i32 %49, 5, !dbg !1161
  br i1 %50, label %51, label %71, !dbg !1162

51:                                               ; preds = %48
  %52 = load i32, ptr %6, align 4, !dbg !1163
  %53 = sext i32 %52 to i64, !dbg !1165
  %54 = getelementptr inbounds [1 x [5 x i32]], ptr @_ZL4g_81, i64 0, i64 %53, !dbg !1165
  %55 = load i32, ptr %7, align 4, !dbg !1166
  %56 = sext i32 %55 to i64, !dbg !1165
  %57 = getelementptr inbounds [5 x i32], ptr %54, i64 0, i64 %56, !dbg !1165
  %58 = load volatile i32, ptr %57, align 4, !dbg !1165
  %59 = sext i32 %58 to i64, !dbg !1165
  %60 = load i32, ptr %9, align 4, !dbg !1167
  call void @_ZL15transparent_crcmPci(i64 noundef %59, ptr noundef @.str.9, i32 noundef %60), !dbg !1168
  %61 = load i32, ptr %9, align 4, !dbg !1169
  %62 = icmp ne i32 %61, 0, !dbg !1169
  br i1 %62, label %63, label %67, !dbg !1171

63:                                               ; preds = %51
  %64 = load i32, ptr %6, align 4, !dbg !1172
  %65 = load i32, ptr %7, align 4, !dbg !1173
  %66 = call i32 (ptr, ...) @printf(ptr noundef @.str.10, i32 noundef %64, i32 noundef %65), !dbg !1174
  br label %67, !dbg !1174

67:                                               ; preds = %63, %51
  br label %68, !dbg !1175

68:                                               ; preds = %67
  %69 = load i32, ptr %7, align 4, !dbg !1176
  %70 = add nsw i32 %69, 1, !dbg !1176
  store i32 %70, ptr %7, align 4, !dbg !1176
  br label %48, !dbg !1177, !llvm.loop !1178

71:                                               ; preds = %48
  br label %72, !dbg !1181

72:                                               ; preds = %71
  %73 = load i32, ptr %6, align 4, !dbg !1182
  %74 = add nsw i32 %73, 1, !dbg !1182
  store i32 %74, ptr %6, align 4, !dbg !1182
  br label %44, !dbg !1183, !llvm.loop !1184

75:                                               ; preds = %44
  store i32 0, ptr %6, align 4, !dbg !1186
  br label %76, !dbg !1188

76:                                               ; preds = %92, %75
  %77 = load i32, ptr %6, align 4, !dbg !1189
  %78 = icmp slt i32 %77, 9, !dbg !1191
  br i1 %78, label %79, label %95, !dbg !1192

79:                                               ; preds = %76
  %80 = load i32, ptr %6, align 4, !dbg !1193
  %81 = sext i32 %80 to i64, !dbg !1195
  %82 = getelementptr inbounds [9 x i32], ptr @_ZL4g_83, i64 0, i64 %81, !dbg !1195
  %83 = load i32, ptr %82, align 4, !dbg !1195
  %84 = sext i32 %83 to i64, !dbg !1195
  %85 = load i32, ptr %9, align 4, !dbg !1196
  call void @_ZL15transparent_crcmPci(i64 noundef %84, ptr noundef @.str.11, i32 noundef %85), !dbg !1197
  %86 = load i32, ptr %9, align 4, !dbg !1198
  %87 = icmp ne i32 %86, 0, !dbg !1198
  br i1 %87, label %88, label %91, !dbg !1200

88:                                               ; preds = %79
  %89 = load i32, ptr %6, align 4, !dbg !1201
  %90 = call i32 (ptr, ...) @printf(ptr noundef @.str.12, i32 noundef %89), !dbg !1202
  br label %91, !dbg !1202

91:                                               ; preds = %88, %79
  br label %92, !dbg !1203

92:                                               ; preds = %91
  %93 = load i32, ptr %6, align 4, !dbg !1204
  %94 = add nsw i32 %93, 1, !dbg !1204
  store i32 %94, ptr %6, align 4, !dbg !1204
  br label %76, !dbg !1205, !llvm.loop !1206

95:                                               ; preds = %76
  %96 = load volatile i32, ptr @_ZL4g_88, align 4, !dbg !1208
  %97 = zext i32 %96 to i64, !dbg !1208
  %98 = load i32, ptr %9, align 4, !dbg !1209
  call void @_ZL15transparent_crcmPci(i64 noundef %97, ptr noundef @.str.13, i32 noundef %98), !dbg !1210
  %99 = load i16, ptr @_ZL5g_111, align 2, !dbg !1211
  %100 = zext i16 %99 to i64, !dbg !1211
  %101 = load i32, ptr %9, align 4, !dbg !1212
  call void @_ZL15transparent_crcmPci(i64 noundef %100, ptr noundef @.str.14, i32 noundef %101), !dbg !1213
  %102 = load i64, ptr @_ZL5g_122, align 8, !dbg !1214
  %103 = load i32, ptr %9, align 4, !dbg !1215
  call void @_ZL15transparent_crcmPci(i64 noundef %102, ptr noundef @.str.15, i32 noundef %103), !dbg !1216
  %104 = load i32, ptr %9, align 4, !dbg !1217
  call void @_ZL15transparent_crcmPci(i64 noundef 240128632, ptr noundef @.str.16, i32 noundef %104), !dbg !1218
  %105 = load i8, ptr @_ZL5g_175, align 1, !dbg !1219
  %106 = sext i8 %105 to i64, !dbg !1219
  %107 = load i32, ptr %9, align 4, !dbg !1220
  call void @_ZL15transparent_crcmPci(i64 noundef %106, ptr noundef @.str.17, i32 noundef %107), !dbg !1221
  store i32 0, ptr %6, align 4, !dbg !1222
  br label %108, !dbg !1224

108:                                              ; preds = %124, %95
  %109 = load i32, ptr %6, align 4, !dbg !1225
  %110 = icmp slt i32 %109, 4, !dbg !1227
  br i1 %110, label %111, label %127, !dbg !1228

111:                                              ; preds = %108
  %112 = load i32, ptr %6, align 4, !dbg !1229
  %113 = sext i32 %112 to i64, !dbg !1231
  %114 = getelementptr inbounds [4 x i8], ptr @_ZL5g_177, i64 0, i64 %113, !dbg !1231
  %115 = load i8, ptr %114, align 1, !dbg !1231
  %116 = sext i8 %115 to i64, !dbg !1231
  %117 = load i32, ptr %9, align 4, !dbg !1232
  call void @_ZL15transparent_crcmPci(i64 noundef %116, ptr noundef @.str.18, i32 noundef %117), !dbg !1233
  %118 = load i32, ptr %9, align 4, !dbg !1234
  %119 = icmp ne i32 %118, 0, !dbg !1234
  br i1 %119, label %120, label %123, !dbg !1236

120:                                              ; preds = %111
  %121 = load i32, ptr %6, align 4, !dbg !1237
  %122 = call i32 (ptr, ...) @printf(ptr noundef @.str.12, i32 noundef %121), !dbg !1238
  br label %123, !dbg !1238

123:                                              ; preds = %120, %111
  br label %124, !dbg !1239

124:                                              ; preds = %123
  %125 = load i32, ptr %6, align 4, !dbg !1240
  %126 = add nsw i32 %125, 1, !dbg !1240
  store i32 %126, ptr %6, align 4, !dbg !1240
  br label %108, !dbg !1241, !llvm.loop !1242

127:                                              ; preds = %108
  %128 = load volatile i32, ptr @_ZL5g_181, align 4, !dbg !1244
  %129 = sext i32 %128 to i64, !dbg !1244
  %130 = load i32, ptr %9, align 4, !dbg !1245
  call void @_ZL15transparent_crcmPci(i64 noundef %129, ptr noundef @.str.19, i32 noundef %130), !dbg !1246
  %131 = load i32, ptr @_ZL5g_184, align 4, !dbg !1247
  %132 = zext i32 %131 to i64, !dbg !1248
  %133 = load i32, ptr %9, align 4, !dbg !1249
  call void @_ZL15transparent_crcmPci(i64 noundef %132, ptr noundef @.str.20, i32 noundef %133), !dbg !1250
  store i32 0, ptr %6, align 4, !dbg !1251
  br label %134, !dbg !1253

134:                                              ; preds = %149, %127
  %135 = load i32, ptr %6, align 4, !dbg !1254
  %136 = icmp slt i32 %135, 9, !dbg !1256
  br i1 %136, label %137, label %152, !dbg !1257

137:                                              ; preds = %134
  %138 = load i32, ptr %6, align 4, !dbg !1258
  %139 = sext i32 %138 to i64, !dbg !1260
  %140 = getelementptr inbounds [9 x i64], ptr @_ZL5g_223, i64 0, i64 %139, !dbg !1260
  %141 = load i64, ptr %140, align 8, !dbg !1260
  %142 = load i32, ptr %9, align 4, !dbg !1261
  call void @_ZL15transparent_crcmPci(i64 noundef %141, ptr noundef @.str.21, i32 noundef %142), !dbg !1262
  %143 = load i32, ptr %9, align 4, !dbg !1263
  %144 = icmp ne i32 %143, 0, !dbg !1263
  br i1 %144, label %145, label %148, !dbg !1265

145:                                              ; preds = %137
  %146 = load i32, ptr %6, align 4, !dbg !1266
  %147 = call i32 (ptr, ...) @printf(ptr noundef @.str.12, i32 noundef %146), !dbg !1267
  br label %148, !dbg !1267

148:                                              ; preds = %145, %137
  br label %149, !dbg !1268

149:                                              ; preds = %148
  %150 = load i32, ptr %6, align 4, !dbg !1269
  %151 = add nsw i32 %150, 1, !dbg !1269
  store i32 %151, ptr %6, align 4, !dbg !1269
  br label %134, !dbg !1270, !llvm.loop !1271

152:                                              ; preds = %134
  store i32 0, ptr %6, align 4, !dbg !1273
  br label %153, !dbg !1275

153:                                              ; preds = %168, %152
  %154 = load i32, ptr %6, align 4, !dbg !1276
  %155 = icmp slt i32 %154, 2, !dbg !1278
  br i1 %155, label %156, label %171, !dbg !1279

156:                                              ; preds = %153
  %157 = load i32, ptr %6, align 4, !dbg !1280
  %158 = sext i32 %157 to i64, !dbg !1282
  %159 = getelementptr inbounds [2 x i64], ptr @_ZL5g_225, i64 0, i64 %158, !dbg !1282
  %160 = load i64, ptr %159, align 8, !dbg !1282
  %161 = load i32, ptr %9, align 4, !dbg !1283
  call void @_ZL15transparent_crcmPci(i64 noundef %160, ptr noundef @.str.22, i32 noundef %161), !dbg !1284
  %162 = load i32, ptr %9, align 4, !dbg !1285
  %163 = icmp ne i32 %162, 0, !dbg !1285
  br i1 %163, label %164, label %167, !dbg !1287

164:                                              ; preds = %156
  %165 = load i32, ptr %6, align 4, !dbg !1288
  %166 = call i32 (ptr, ...) @printf(ptr noundef @.str.12, i32 noundef %165), !dbg !1289
  br label %167, !dbg !1289

167:                                              ; preds = %164, %156
  br label %168, !dbg !1290

168:                                              ; preds = %167
  %169 = load i32, ptr %6, align 4, !dbg !1291
  %170 = add nsw i32 %169, 1, !dbg !1291
  store i32 %170, ptr %6, align 4, !dbg !1291
  br label %153, !dbg !1292, !llvm.loop !1293

171:                                              ; preds = %153
  %172 = load i64, ptr @_ZL5g_227, align 8, !dbg !1295
  %173 = load i32, ptr %9, align 4, !dbg !1296
  call void @_ZL15transparent_crcmPci(i64 noundef %172, ptr noundef @.str.23, i32 noundef %173), !dbg !1297
  store i32 0, ptr %6, align 4, !dbg !1298
  br label %174, !dbg !1300

174:                                              ; preds = %190, %171
  %175 = load i32, ptr %6, align 4, !dbg !1301
  %176 = icmp slt i32 %175, 6, !dbg !1303
  br i1 %176, label %177, label %193, !dbg !1304

177:                                              ; preds = %174
  %178 = load i32, ptr %6, align 4, !dbg !1305
  %179 = sext i32 %178 to i64, !dbg !1307
  %180 = getelementptr inbounds [6 x i16], ptr @_ZL5g_304, i64 0, i64 %179, !dbg !1307
  %181 = load i16, ptr %180, align 2, !dbg !1307
  %182 = sext i16 %181 to i64, !dbg !1307
  %183 = load i32, ptr %9, align 4, !dbg !1308
  call void @_ZL15transparent_crcmPci(i64 noundef %182, ptr noundef @.str.24, i32 noundef %183), !dbg !1309
  %184 = load i32, ptr %9, align 4, !dbg !1310
  %185 = icmp ne i32 %184, 0, !dbg !1310
  br i1 %185, label %186, label %189, !dbg !1312

186:                                              ; preds = %177
  %187 = load i32, ptr %6, align 4, !dbg !1313
  %188 = call i32 (ptr, ...) @printf(ptr noundef @.str.12, i32 noundef %187), !dbg !1314
  br label %189, !dbg !1314

189:                                              ; preds = %186, %177
  br label %190, !dbg !1315

190:                                              ; preds = %189
  %191 = load i32, ptr %6, align 4, !dbg !1316
  %192 = add nsw i32 %191, 1, !dbg !1316
  store i32 %192, ptr %6, align 4, !dbg !1316
  br label %174, !dbg !1317, !llvm.loop !1318

193:                                              ; preds = %174
  %194 = load volatile i16, ptr @_ZL5g_314, align 2, !dbg !1320
  %195 = sext i16 %194 to i64, !dbg !1320
  %196 = load i32, ptr %9, align 4, !dbg !1321
  call void @_ZL15transparent_crcmPci(i64 noundef %195, ptr noundef @.str.25, i32 noundef %196), !dbg !1322
  %197 = load volatile i8, ptr @_ZL5g_324, align 1, !dbg !1323
  %198 = zext i8 %197 to i64, !dbg !1323
  %199 = load i32, ptr %9, align 4, !dbg !1324
  call void @_ZL15transparent_crcmPci(i64 noundef %198, ptr noundef @.str.26, i32 noundef %199), !dbg !1325
  %200 = load volatile i8, ptr @_ZL5g_328, align 1, !dbg !1326
  %201 = zext i8 %200 to i64, !dbg !1326
  %202 = load i32, ptr %9, align 4, !dbg !1327
  call void @_ZL15transparent_crcmPci(i64 noundef %201, ptr noundef @.str.27, i32 noundef %202), !dbg !1328
  %203 = load i32, ptr @_ZL5g_368, align 4, !dbg !1329
  %204 = sext i32 %203 to i64, !dbg !1329
  %205 = load i32, ptr %9, align 4, !dbg !1330
  call void @_ZL15transparent_crcmPci(i64 noundef %204, ptr noundef @.str.28, i32 noundef %205), !dbg !1331
  %206 = load volatile i32, ptr @_ZL5g_411, align 4, !dbg !1332
  %207 = sext i32 %206 to i64, !dbg !1332
  %208 = load i32, ptr %9, align 4, !dbg !1333
  call void @_ZL15transparent_crcmPci(i64 noundef %207, ptr noundef @.str.29, i32 noundef %208), !dbg !1334
  %209 = load i16, ptr @_ZL5g_432, align 2, !dbg !1335
  %210 = sext i16 %209 to i64, !dbg !1335
  %211 = load i32, ptr %9, align 4, !dbg !1336
  call void @_ZL15transparent_crcmPci(i64 noundef %210, ptr noundef @.str.30, i32 noundef %211), !dbg !1337
  store i32 0, ptr %6, align 4, !dbg !1338
  br label %212, !dbg !1340

212:                                              ; preds = %240, %193
  %213 = load i32, ptr %6, align 4, !dbg !1341
  %214 = icmp slt i32 %213, 10, !dbg !1343
  br i1 %214, label %215, label %243, !dbg !1344

215:                                              ; preds = %212
  store i32 0, ptr %7, align 4, !dbg !1345
  br label %216, !dbg !1348

216:                                              ; preds = %236, %215
  %217 = load i32, ptr %7, align 4, !dbg !1349
  %218 = icmp slt i32 %217, 8, !dbg !1351
  br i1 %218, label %219, label %239, !dbg !1352

219:                                              ; preds = %216
  %220 = load i32, ptr %6, align 4, !dbg !1353
  %221 = sext i32 %220 to i64, !dbg !1355
  %222 = getelementptr inbounds [10 x [8 x i8]], ptr @_ZL5g_460, i64 0, i64 %221, !dbg !1355
  %223 = load i32, ptr %7, align 4, !dbg !1356
  %224 = sext i32 %223 to i64, !dbg !1355
  %225 = getelementptr inbounds [8 x i8], ptr %222, i64 0, i64 %224, !dbg !1355
  %226 = load i8, ptr %225, align 1, !dbg !1355
  %227 = zext i8 %226 to i64, !dbg !1355
  %228 = load i32, ptr %9, align 4, !dbg !1357
  call void @_ZL15transparent_crcmPci(i64 noundef %227, ptr noundef @.str.31, i32 noundef %228), !dbg !1358
  %229 = load i32, ptr %9, align 4, !dbg !1359
  %230 = icmp ne i32 %229, 0, !dbg !1359
  br i1 %230, label %231, label %235, !dbg !1361

231:                                              ; preds = %219
  %232 = load i32, ptr %6, align 4, !dbg !1362
  %233 = load i32, ptr %7, align 4, !dbg !1363
  %234 = call i32 (ptr, ...) @printf(ptr noundef @.str.10, i32 noundef %232, i32 noundef %233), !dbg !1364
  br label %235, !dbg !1364

235:                                              ; preds = %231, %219
  br label %236, !dbg !1365

236:                                              ; preds = %235
  %237 = load i32, ptr %7, align 4, !dbg !1366
  %238 = add nsw i32 %237, 1, !dbg !1366
  store i32 %238, ptr %7, align 4, !dbg !1366
  br label %216, !dbg !1367, !llvm.loop !1368

239:                                              ; preds = %216
  br label %240, !dbg !1370

240:                                              ; preds = %239
  %241 = load i32, ptr %6, align 4, !dbg !1371
  %242 = add nsw i32 %241, 1, !dbg !1371
  store i32 %242, ptr %6, align 4, !dbg !1371
  br label %212, !dbg !1372, !llvm.loop !1373

243:                                              ; preds = %212
  %244 = load i16, ptr @_ZL5g_461, align 2, !dbg !1375
  %245 = sext i16 %244 to i64, !dbg !1375
  %246 = load i32, ptr %9, align 4, !dbg !1376
  call void @_ZL15transparent_crcmPci(i64 noundef %245, ptr noundef @.str.32, i32 noundef %246), !dbg !1377
  store i32 0, ptr %6, align 4, !dbg !1378
  br label %247, !dbg !1380

247:                                              ; preds = %263, %243
  %248 = load i32, ptr %6, align 4, !dbg !1381
  %249 = icmp slt i32 %248, 7, !dbg !1383
  br i1 %249, label %250, label %266, !dbg !1384

250:                                              ; preds = %247
  %251 = load i32, ptr %6, align 4, !dbg !1385
  %252 = sext i32 %251 to i64, !dbg !1387
  %253 = getelementptr inbounds [7 x %union.U0], ptr @_ZL5g_485, i64 0, i64 %252, !dbg !1387
  %254 = load i32, ptr %253, align 4, !dbg !1388
  %255 = zext i32 %254 to i64, !dbg !1387
  %256 = load i32, ptr %9, align 4, !dbg !1389
  call void @_ZL15transparent_crcmPci(i64 noundef %255, ptr noundef @.str.33, i32 noundef %256), !dbg !1390
  %257 = load i32, ptr %9, align 4, !dbg !1391
  %258 = icmp ne i32 %257, 0, !dbg !1391
  br i1 %258, label %259, label %262, !dbg !1393

259:                                              ; preds = %250
  %260 = load i32, ptr %6, align 4, !dbg !1394
  %261 = call i32 (ptr, ...) @printf(ptr noundef @.str.12, i32 noundef %260), !dbg !1395
  br label %262, !dbg !1395

262:                                              ; preds = %259, %250
  br label %263, !dbg !1396

263:                                              ; preds = %262
  %264 = load i32, ptr %6, align 4, !dbg !1397
  %265 = add nsw i32 %264, 1, !dbg !1397
  store i32 %265, ptr %6, align 4, !dbg !1397
  br label %247, !dbg !1398, !llvm.loop !1399

266:                                              ; preds = %247
  store i32 0, ptr %6, align 4, !dbg !1401
  br label %267, !dbg !1403

267:                                              ; preds = %307, %266
  %268 = load i32, ptr %6, align 4, !dbg !1404
  %269 = icmp slt i32 %268, 2, !dbg !1406
  br i1 %269, label %270, label %310, !dbg !1407

270:                                              ; preds = %267
  store i32 0, ptr %7, align 4, !dbg !1408
  br label %271, !dbg !1411

271:                                              ; preds = %303, %270
  %272 = load i32, ptr %7, align 4, !dbg !1412
  %273 = icmp slt i32 %272, 3, !dbg !1414
  br i1 %273, label %274, label %306, !dbg !1415

274:                                              ; preds = %271
  store i32 0, ptr %8, align 4, !dbg !1416
  br label %275, !dbg !1419

275:                                              ; preds = %299, %274
  %276 = load i32, ptr %8, align 4, !dbg !1420
  %277 = icmp slt i32 %276, 3, !dbg !1422
  br i1 %277, label %278, label %302, !dbg !1423

278:                                              ; preds = %275
  %279 = load i32, ptr %6, align 4, !dbg !1424
  %280 = sext i32 %279 to i64, !dbg !1426
  %281 = getelementptr inbounds [2 x [3 x [3 x %union.U0]]], ptr @_ZL5g_489, i64 0, i64 %280, !dbg !1426
  %282 = load i32, ptr %7, align 4, !dbg !1427
  %283 = sext i32 %282 to i64, !dbg !1426
  %284 = getelementptr inbounds [3 x [3 x %union.U0]], ptr %281, i64 0, i64 %283, !dbg !1426
  %285 = load i32, ptr %8, align 4, !dbg !1428
  %286 = sext i32 %285 to i64, !dbg !1426
  %287 = getelementptr inbounds [3 x %union.U0], ptr %284, i64 0, i64 %286, !dbg !1426
  %288 = load i32, ptr %287, align 4, !dbg !1429
  %289 = zext i32 %288 to i64, !dbg !1426
  %290 = load i32, ptr %9, align 4, !dbg !1430
  call void @_ZL15transparent_crcmPci(i64 noundef %289, ptr noundef @.str.34, i32 noundef %290), !dbg !1431
  %291 = load i32, ptr %9, align 4, !dbg !1432
  %292 = icmp ne i32 %291, 0, !dbg !1432
  br i1 %292, label %293, label %298, !dbg !1434

293:                                              ; preds = %278
  %294 = load i32, ptr %6, align 4, !dbg !1435
  %295 = load i32, ptr %7, align 4, !dbg !1436
  %296 = load i32, ptr %8, align 4, !dbg !1437
  %297 = call i32 (ptr, ...) @printf(ptr noundef @.str.35, i32 noundef %294, i32 noundef %295, i32 noundef %296), !dbg !1438
  br label %298, !dbg !1438

298:                                              ; preds = %293, %278
  br label %299, !dbg !1439

299:                                              ; preds = %298
  %300 = load i32, ptr %8, align 4, !dbg !1440
  %301 = add nsw i32 %300, 1, !dbg !1440
  store i32 %301, ptr %8, align 4, !dbg !1440
  br label %275, !dbg !1441, !llvm.loop !1442

302:                                              ; preds = %275
  br label %303, !dbg !1444

303:                                              ; preds = %302
  %304 = load i32, ptr %7, align 4, !dbg !1445
  %305 = add nsw i32 %304, 1, !dbg !1445
  store i32 %305, ptr %7, align 4, !dbg !1445
  br label %271, !dbg !1446, !llvm.loop !1447

306:                                              ; preds = %271
  br label %307, !dbg !1449

307:                                              ; preds = %306
  %308 = load i32, ptr %6, align 4, !dbg !1450
  %309 = add nsw i32 %308, 1, !dbg !1450
  store i32 %309, ptr %6, align 4, !dbg !1450
  br label %267, !dbg !1451, !llvm.loop !1452

310:                                              ; preds = %267
  store i32 0, ptr %6, align 4, !dbg !1454
  br label %311, !dbg !1456

311:                                              ; preds = %327, %310
  %312 = load i32, ptr %6, align 4, !dbg !1457
  %313 = icmp slt i32 %312, 2, !dbg !1459
  br i1 %313, label %314, label %330, !dbg !1460

314:                                              ; preds = %311
  %315 = load i32, ptr %6, align 4, !dbg !1461
  %316 = sext i32 %315 to i64, !dbg !1463
  %317 = getelementptr inbounds [2 x i16], ptr @_ZL5g_514, i64 0, i64 %316, !dbg !1463
  %318 = load i16, ptr %317, align 2, !dbg !1463
  %319 = zext i16 %318 to i64, !dbg !1463
  %320 = load i32, ptr %9, align 4, !dbg !1464
  call void @_ZL15transparent_crcmPci(i64 noundef %319, ptr noundef @.str.36, i32 noundef %320), !dbg !1465
  %321 = load i32, ptr %9, align 4, !dbg !1466
  %322 = icmp ne i32 %321, 0, !dbg !1466
  br i1 %322, label %323, label %326, !dbg !1468

323:                                              ; preds = %314
  %324 = load i32, ptr %6, align 4, !dbg !1469
  %325 = call i32 (ptr, ...) @printf(ptr noundef @.str.12, i32 noundef %324), !dbg !1470
  br label %326, !dbg !1470

326:                                              ; preds = %323, %314
  br label %327, !dbg !1471

327:                                              ; preds = %326
  %328 = load i32, ptr %6, align 4, !dbg !1472
  %329 = add nsw i32 %328, 1, !dbg !1472
  store i32 %329, ptr %6, align 4, !dbg !1472
  br label %311, !dbg !1473, !llvm.loop !1474

330:                                              ; preds = %311
  store i32 0, ptr %6, align 4, !dbg !1476
  br label %331, !dbg !1478

331:                                              ; preds = %371, %330
  %332 = load i32, ptr %6, align 4, !dbg !1479
  %333 = icmp slt i32 %332, 6, !dbg !1481
  br i1 %333, label %334, label %374, !dbg !1482

334:                                              ; preds = %331
  store i32 0, ptr %7, align 4, !dbg !1483
  br label %335, !dbg !1486

335:                                              ; preds = %367, %334
  %336 = load i32, ptr %7, align 4, !dbg !1487
  %337 = icmp slt i32 %336, 7, !dbg !1489
  br i1 %337, label %338, label %370, !dbg !1490

338:                                              ; preds = %335
  store i32 0, ptr %8, align 4, !dbg !1491
  br label %339, !dbg !1494

339:                                              ; preds = %363, %338
  %340 = load i32, ptr %8, align 4, !dbg !1495
  %341 = icmp slt i32 %340, 3, !dbg !1497
  br i1 %341, label %342, label %366, !dbg !1498

342:                                              ; preds = %339
  %343 = load i32, ptr %6, align 4, !dbg !1499
  %344 = sext i32 %343 to i64, !dbg !1501
  %345 = getelementptr inbounds [6 x [7 x [3 x i8]]], ptr @_ZL5g_515, i64 0, i64 %344, !dbg !1501
  %346 = load i32, ptr %7, align 4, !dbg !1502
  %347 = sext i32 %346 to i64, !dbg !1501
  %348 = getelementptr inbounds [7 x [3 x i8]], ptr %345, i64 0, i64 %347, !dbg !1501
  %349 = load i32, ptr %8, align 4, !dbg !1503
  %350 = sext i32 %349 to i64, !dbg !1501
  %351 = getelementptr inbounds [3 x i8], ptr %348, i64 0, i64 %350, !dbg !1501
  %352 = load i8, ptr %351, align 1, !dbg !1501
  %353 = sext i8 %352 to i64, !dbg !1501
  %354 = load i32, ptr %9, align 4, !dbg !1504
  call void @_ZL15transparent_crcmPci(i64 noundef %353, ptr noundef @.str.37, i32 noundef %354), !dbg !1505
  %355 = load i32, ptr %9, align 4, !dbg !1506
  %356 = icmp ne i32 %355, 0, !dbg !1506
  br i1 %356, label %357, label %362, !dbg !1508

357:                                              ; preds = %342
  %358 = load i32, ptr %6, align 4, !dbg !1509
  %359 = load i32, ptr %7, align 4, !dbg !1510
  %360 = load i32, ptr %8, align 4, !dbg !1511
  %361 = call i32 (ptr, ...) @printf(ptr noundef @.str.35, i32 noundef %358, i32 noundef %359, i32 noundef %360), !dbg !1512
  br label %362, !dbg !1512

362:                                              ; preds = %357, %342
  br label %363, !dbg !1513

363:                                              ; preds = %362
  %364 = load i32, ptr %8, align 4, !dbg !1514
  %365 = add nsw i32 %364, 1, !dbg !1514
  store i32 %365, ptr %8, align 4, !dbg !1514
  br label %339, !dbg !1515, !llvm.loop !1516

366:                                              ; preds = %339
  br label %367, !dbg !1518

367:                                              ; preds = %366
  %368 = load i32, ptr %7, align 4, !dbg !1519
  %369 = add nsw i32 %368, 1, !dbg !1519
  store i32 %369, ptr %7, align 4, !dbg !1519
  br label %335, !dbg !1520, !llvm.loop !1521

370:                                              ; preds = %335
  br label %371, !dbg !1523

371:                                              ; preds = %370
  %372 = load i32, ptr %6, align 4, !dbg !1524
  %373 = add nsw i32 %372, 1, !dbg !1524
  store i32 %373, ptr %6, align 4, !dbg !1524
  br label %331, !dbg !1525, !llvm.loop !1526

374:                                              ; preds = %331
  %375 = load i16, ptr @_ZL5g_518, align 2, !dbg !1528
  %376 = zext i16 %375 to i64, !dbg !1528
  %377 = load i32, ptr %9, align 4, !dbg !1529
  call void @_ZL15transparent_crcmPci(i64 noundef %376, ptr noundef @.str.38, i32 noundef %377), !dbg !1530
  %378 = load i16, ptr @_ZL5g_535, align 2, !dbg !1531
  %379 = zext i16 %378 to i64, !dbg !1531
  %380 = load i32, ptr %9, align 4, !dbg !1532
  call void @_ZL15transparent_crcmPci(i64 noundef %379, ptr noundef @.str.39, i32 noundef %380), !dbg !1533
  store i32 0, ptr %6, align 4, !dbg !1534
  br label %381, !dbg !1536

381:                                              ; preds = %397, %374
  %382 = load i32, ptr %6, align 4, !dbg !1537
  %383 = icmp slt i32 %382, 6, !dbg !1539
  br i1 %383, label %384, label %400, !dbg !1540

384:                                              ; preds = %381
  %385 = load i32, ptr %6, align 4, !dbg !1541
  %386 = sext i32 %385 to i64, !dbg !1543
  %387 = getelementptr inbounds [6 x i32], ptr @_ZL5g_586, i64 0, i64 %386, !dbg !1543
  %388 = load i32, ptr %387, align 4, !dbg !1543
  %389 = zext i32 %388 to i64, !dbg !1543
  %390 = load i32, ptr %9, align 4, !dbg !1544
  call void @_ZL15transparent_crcmPci(i64 noundef %389, ptr noundef @.str.40, i32 noundef %390), !dbg !1545
  %391 = load i32, ptr %9, align 4, !dbg !1546
  %392 = icmp ne i32 %391, 0, !dbg !1546
  br i1 %392, label %393, label %396, !dbg !1548

393:                                              ; preds = %384
  %394 = load i32, ptr %6, align 4, !dbg !1549
  %395 = call i32 (ptr, ...) @printf(ptr noundef @.str.12, i32 noundef %394), !dbg !1550
  br label %396, !dbg !1550

396:                                              ; preds = %393, %384
  br label %397, !dbg !1551

397:                                              ; preds = %396
  %398 = load i32, ptr %6, align 4, !dbg !1552
  %399 = add nsw i32 %398, 1, !dbg !1552
  store i32 %399, ptr %6, align 4, !dbg !1552
  br label %381, !dbg !1553, !llvm.loop !1554

400:                                              ; preds = %381
  %401 = load i32, ptr %9, align 4, !dbg !1556
  call void @_ZL15transparent_crcmPci(i64 noundef 0, ptr noundef @.str.41, i32 noundef %401), !dbg !1557
  %402 = load i32, ptr %9, align 4, !dbg !1558
  call void @_ZL15transparent_crcmPci(i64 noundef 1089575575, ptr noundef @.str.42, i32 noundef %402), !dbg !1559
  %403 = load i64, ptr @_ZL5g_920, align 8, !dbg !1560
  %404 = load i32, ptr %9, align 4, !dbg !1561
  call void @_ZL15transparent_crcmPci(i64 noundef %403, ptr noundef @.str.43, i32 noundef %404), !dbg !1562
  %405 = load i32, ptr @_ZL5g_935, align 4, !dbg !1563
  %406 = zext i32 %405 to i64, !dbg !1563
  %407 = load i32, ptr %9, align 4, !dbg !1564
  call void @_ZL15transparent_crcmPci(i64 noundef %406, ptr noundef @.str.44, i32 noundef %407), !dbg !1565
  %408 = load i64, ptr @_ZL5g_968, align 8, !dbg !1566
  %409 = load i32, ptr %9, align 4, !dbg !1567
  call void @_ZL15transparent_crcmPci(i64 noundef %408, ptr noundef @.str.45, i32 noundef %409), !dbg !1568
  %410 = load i32, ptr %9, align 4, !dbg !1569
  call void @_ZL15transparent_crcmPci(i64 noundef 0, ptr noundef @.str.46, i32 noundef %410), !dbg !1570
  %411 = load i8, ptr @_ZL6g_1180, align 1, !dbg !1571
  %412 = zext i8 %411 to i64, !dbg !1571
  %413 = load i32, ptr %9, align 4, !dbg !1572
  call void @_ZL15transparent_crcmPci(i64 noundef %412, ptr noundef @.str.47, i32 noundef %413), !dbg !1573
  %414 = load i32, ptr @_ZL6g_1206, align 4, !dbg !1574
  %415 = sext i32 %414 to i64, !dbg !1574
  %416 = load i32, ptr %9, align 4, !dbg !1575
  call void @_ZL15transparent_crcmPci(i64 noundef %415, ptr noundef @.str.48, i32 noundef %416), !dbg !1576
  %417 = load i8, ptr @_ZL6g_1216, align 1, !dbg !1577
  %418 = sext i8 %417 to i64, !dbg !1577
  %419 = load i32, ptr %9, align 4, !dbg !1578
  call void @_ZL15transparent_crcmPci(i64 noundef %418, ptr noundef @.str.49, i32 noundef %419), !dbg !1579
  %420 = load i16, ptr @_ZL6g_1217, align 2, !dbg !1580
  %421 = sext i16 %420 to i64, !dbg !1580
  %422 = load i32, ptr %9, align 4, !dbg !1581
  call void @_ZL15transparent_crcmPci(i64 noundef %421, ptr noundef @.str.50, i32 noundef %422), !dbg !1582
  %423 = load i32, ptr @_ZL6g_1328, align 4, !dbg !1583
  %424 = sext i32 %423 to i64, !dbg !1583
  %425 = load i32, ptr %9, align 4, !dbg !1584
  call void @_ZL15transparent_crcmPci(i64 noundef %424, ptr noundef @.str.51, i32 noundef %425), !dbg !1585
  %426 = load i32, ptr @_ZL6g_1334, align 4, !dbg !1586
  %427 = sext i32 %426 to i64, !dbg !1586
  %428 = load i32, ptr %9, align 4, !dbg !1587
  call void @_ZL15transparent_crcmPci(i64 noundef %427, ptr noundef @.str.52, i32 noundef %428), !dbg !1588
  %429 = load i32, ptr %9, align 4, !dbg !1589
  call void @_ZL15transparent_crcmPci(i64 noundef 1, ptr noundef @.str.53, i32 noundef %429), !dbg !1590
  %430 = load i32, ptr %9, align 4, !dbg !1591
  call void @_ZL15transparent_crcmPci(i64 noundef 35900, ptr noundef @.str.54, i32 noundef %430), !dbg !1592
  store i32 0, ptr %6, align 4, !dbg !1593
  br label %431, !dbg !1595

431:                                              ; preds = %447, %400
  %432 = load i32, ptr %6, align 4, !dbg !1596
  %433 = icmp slt i32 %432, 4, !dbg !1598
  br i1 %433, label %434, label %450, !dbg !1599

434:                                              ; preds = %431
  %435 = load i32, ptr %6, align 4, !dbg !1600
  %436 = sext i32 %435 to i64, !dbg !1602
  %437 = getelementptr inbounds [4 x i16], ptr @_ZL6g_1406, i64 0, i64 %436, !dbg !1602
  %438 = load i16, ptr %437, align 2, !dbg !1602
  %439 = zext i16 %438 to i64, !dbg !1602
  %440 = load i32, ptr %9, align 4, !dbg !1603
  call void @_ZL15transparent_crcmPci(i64 noundef %439, ptr noundef @.str.55, i32 noundef %440), !dbg !1604
  %441 = load i32, ptr %9, align 4, !dbg !1605
  %442 = icmp ne i32 %441, 0, !dbg !1605
  br i1 %442, label %443, label %446, !dbg !1607

443:                                              ; preds = %434
  %444 = load i32, ptr %6, align 4, !dbg !1608
  %445 = call i32 (ptr, ...) @printf(ptr noundef @.str.12, i32 noundef %444), !dbg !1609
  br label %446, !dbg !1609

446:                                              ; preds = %443, %434
  br label %447, !dbg !1610

447:                                              ; preds = %446
  %448 = load i32, ptr %6, align 4, !dbg !1611
  %449 = add nsw i32 %448, 1, !dbg !1611
  store i32 %449, ptr %6, align 4, !dbg !1611
  br label %431, !dbg !1612, !llvm.loop !1613

450:                                              ; preds = %431
  %451 = load i8, ptr @_ZL6g_1437, align 1, !dbg !1615
  %452 = sext i8 %451 to i64, !dbg !1615
  %453 = load i32, ptr %9, align 4, !dbg !1616
  call void @_ZL15transparent_crcmPci(i64 noundef %452, ptr noundef @.str.56, i32 noundef %453), !dbg !1617
  store i32 0, ptr %6, align 4, !dbg !1618
  br label %454, !dbg !1620

454:                                              ; preds = %482, %450
  %455 = load i32, ptr %6, align 4, !dbg !1621
  %456 = icmp slt i32 %455, 5, !dbg !1623
  br i1 %456, label %457, label %485, !dbg !1624

457:                                              ; preds = %454
  store i32 0, ptr %7, align 4, !dbg !1625
  br label %458, !dbg !1628

458:                                              ; preds = %478, %457
  %459 = load i32, ptr %7, align 4, !dbg !1629
  %460 = icmp slt i32 %459, 2, !dbg !1631
  br i1 %460, label %461, label %481, !dbg !1632

461:                                              ; preds = %458
  %462 = load i32, ptr %6, align 4, !dbg !1633
  %463 = sext i32 %462 to i64, !dbg !1635
  %464 = getelementptr inbounds [5 x [2 x i32]], ptr @_ZL6g_1618, i64 0, i64 %463, !dbg !1635
  %465 = load i32, ptr %7, align 4, !dbg !1636
  %466 = sext i32 %465 to i64, !dbg !1635
  %467 = getelementptr inbounds [2 x i32], ptr %464, i64 0, i64 %466, !dbg !1635
  %468 = load i32, ptr %467, align 4, !dbg !1635
  %469 = sext i32 %468 to i64, !dbg !1635
  %470 = load i32, ptr %9, align 4, !dbg !1637
  call void @_ZL15transparent_crcmPci(i64 noundef %469, ptr noundef @.str.57, i32 noundef %470), !dbg !1638
  %471 = load i32, ptr %9, align 4, !dbg !1639
  %472 = icmp ne i32 %471, 0, !dbg !1639
  br i1 %472, label %473, label %477, !dbg !1641

473:                                              ; preds = %461
  %474 = load i32, ptr %6, align 4, !dbg !1642
  %475 = load i32, ptr %7, align 4, !dbg !1643
  %476 = call i32 (ptr, ...) @printf(ptr noundef @.str.10, i32 noundef %474, i32 noundef %475), !dbg !1644
  br label %477, !dbg !1644

477:                                              ; preds = %473, %461
  br label %478, !dbg !1645

478:                                              ; preds = %477
  %479 = load i32, ptr %7, align 4, !dbg !1646
  %480 = add nsw i32 %479, 1, !dbg !1646
  store i32 %480, ptr %7, align 4, !dbg !1646
  br label %458, !dbg !1647, !llvm.loop !1648

481:                                              ; preds = %458
  br label %482, !dbg !1650

482:                                              ; preds = %481
  %483 = load i32, ptr %6, align 4, !dbg !1651
  %484 = add nsw i32 %483, 1, !dbg !1651
  store i32 %484, ptr %6, align 4, !dbg !1651
  br label %454, !dbg !1652, !llvm.loop !1653

485:                                              ; preds = %454
  %486 = load i16, ptr @_ZL6g_1805, align 2, !dbg !1655
  %487 = zext i16 %486 to i64, !dbg !1655
  %488 = load i32, ptr %9, align 4, !dbg !1656
  call void @_ZL15transparent_crcmPci(i64 noundef %487, ptr noundef @.str.58, i32 noundef %488), !dbg !1657
  %489 = load i64, ptr @_ZL6g_1870, align 8, !dbg !1658
  %490 = load i32, ptr %9, align 4, !dbg !1659
  call void @_ZL15transparent_crcmPci(i64 noundef %489, ptr noundef @.str.59, i32 noundef %490), !dbg !1660
  store i32 0, ptr %6, align 4, !dbg !1661
  br label %491, !dbg !1663

491:                                              ; preds = %506, %485
  %492 = load i32, ptr %6, align 4, !dbg !1664
  %493 = icmp slt i32 %492, 4, !dbg !1666
  br i1 %493, label %494, label %509, !dbg !1667

494:                                              ; preds = %491
  %495 = load i32, ptr %6, align 4, !dbg !1668
  %496 = sext i32 %495 to i64, !dbg !1670
  %497 = getelementptr inbounds [4 x i64], ptr @_ZL6g_1888, i64 0, i64 %496, !dbg !1670
  %498 = load i64, ptr %497, align 8, !dbg !1670
  %499 = load i32, ptr %9, align 4, !dbg !1671
  call void @_ZL15transparent_crcmPci(i64 noundef %498, ptr noundef @.str.60, i32 noundef %499), !dbg !1672
  %500 = load i32, ptr %9, align 4, !dbg !1673
  %501 = icmp ne i32 %500, 0, !dbg !1673
  br i1 %501, label %502, label %505, !dbg !1675

502:                                              ; preds = %494
  %503 = load i32, ptr %6, align 4, !dbg !1676
  %504 = call i32 (ptr, ...) @printf(ptr noundef @.str.12, i32 noundef %503), !dbg !1677
  br label %505, !dbg !1677

505:                                              ; preds = %502, %494
  br label %506, !dbg !1678

506:                                              ; preds = %505
  %507 = load i32, ptr %6, align 4, !dbg !1679
  %508 = add nsw i32 %507, 1, !dbg !1679
  store i32 %508, ptr %6, align 4, !dbg !1679
  br label %491, !dbg !1680, !llvm.loop !1681

509:                                              ; preds = %491
  %510 = load i32, ptr @_ZL6g_1958, align 4, !dbg !1683
  %511 = zext i32 %510 to i64, !dbg !1684
  %512 = load i32, ptr %9, align 4, !dbg !1685
  call void @_ZL15transparent_crcmPci(i64 noundef %511, ptr noundef @.str.61, i32 noundef %512), !dbg !1686
  %513 = load i32, ptr @_ZL6g_2110, align 4, !dbg !1687
  %514 = sext i32 %513 to i64, !dbg !1687
  %515 = load i32, ptr %9, align 4, !dbg !1688
  call void @_ZL15transparent_crcmPci(i64 noundef %514, ptr noundef @.str.62, i32 noundef %515), !dbg !1689
  %516 = load i32, ptr @_ZL6g_2162, align 4, !dbg !1690
  %517 = sext i32 %516 to i64, !dbg !1690
  %518 = load i32, ptr %9, align 4, !dbg !1691
  call void @_ZL15transparent_crcmPci(i64 noundef %517, ptr noundef @.str.63, i32 noundef %518), !dbg !1692
  %519 = load i16, ptr @_ZL6g_2237, align 2, !dbg !1693
  %520 = zext i16 %519 to i64, !dbg !1693
  %521 = load i32, ptr %9, align 4, !dbg !1694
  call void @_ZL15transparent_crcmPci(i64 noundef %520, ptr noundef @.str.64, i32 noundef %521), !dbg !1695
  %522 = load i32, ptr @_ZL6g_2368, align 4, !dbg !1696
  %523 = sext i32 %522 to i64, !dbg !1696
  %524 = load i32, ptr %9, align 4, !dbg !1697
  call void @_ZL15transparent_crcmPci(i64 noundef %523, ptr noundef @.str.65, i32 noundef %524), !dbg !1698
  %525 = load i32, ptr @_ZL6g_2371, align 4, !dbg !1699
  %526 = sext i32 %525 to i64, !dbg !1699
  %527 = load i32, ptr %9, align 4, !dbg !1700
  call void @_ZL15transparent_crcmPci(i64 noundef %526, ptr noundef @.str.66, i32 noundef %527), !dbg !1701
  %528 = load i32, ptr @_ZL6g_2374, align 4, !dbg !1702
  %529 = sext i32 %528 to i64, !dbg !1702
  %530 = load i32, ptr %9, align 4, !dbg !1703
  call void @_ZL15transparent_crcmPci(i64 noundef %529, ptr noundef @.str.67, i32 noundef %530), !dbg !1704
  %531 = load i32, ptr @_ZL6g_2379, align 4, !dbg !1705
  %532 = zext i32 %531 to i64, !dbg !1706
  %533 = load i32, ptr %9, align 4, !dbg !1707
  call void @_ZL15transparent_crcmPci(i64 noundef %532, ptr noundef @.str.68, i32 noundef %533), !dbg !1708
  %534 = load i32, ptr @_ZL6g_2380, align 4, !dbg !1709
  %535 = zext i32 %534 to i64, !dbg !1710
  %536 = load i32, ptr %9, align 4, !dbg !1711
  call void @_ZL15transparent_crcmPci(i64 noundef %535, ptr noundef @.str.69, i32 noundef %536), !dbg !1712
  %537 = load i32, ptr @_ZL6g_2381, align 4, !dbg !1713
  %538 = zext i32 %537 to i64, !dbg !1714
  %539 = load i32, ptr %9, align 4, !dbg !1715
  call void @_ZL15transparent_crcmPci(i64 noundef %538, ptr noundef @.str.70, i32 noundef %539), !dbg !1716
  %540 = load i32, ptr @_ZL6g_2382, align 4, !dbg !1717
  %541 = zext i32 %540 to i64, !dbg !1718
  %542 = load i32, ptr %9, align 4, !dbg !1719
  call void @_ZL15transparent_crcmPci(i64 noundef %541, ptr noundef @.str.71, i32 noundef %542), !dbg !1720
  %543 = load i32, ptr @_ZL6g_2383, align 4, !dbg !1721
  %544 = zext i32 %543 to i64, !dbg !1722
  %545 = load i32, ptr %9, align 4, !dbg !1723
  call void @_ZL15transparent_crcmPci(i64 noundef %544, ptr noundef @.str.72, i32 noundef %545), !dbg !1724
  store i32 0, ptr %6, align 4, !dbg !1725
  br label %546, !dbg !1727

546:                                              ; preds = %586, %509
  %547 = load i32, ptr %6, align 4, !dbg !1728
  %548 = icmp slt i32 %547, 9, !dbg !1730
  br i1 %548, label %549, label %589, !dbg !1731

549:                                              ; preds = %546
  store i32 0, ptr %7, align 4, !dbg !1732
  br label %550, !dbg !1735

550:                                              ; preds = %582, %549
  %551 = load i32, ptr %7, align 4, !dbg !1736
  %552 = icmp slt i32 %551, 3, !dbg !1738
  br i1 %552, label %553, label %585, !dbg !1739

553:                                              ; preds = %550
  store i32 0, ptr %8, align 4, !dbg !1740
  br label %554, !dbg !1743

554:                                              ; preds = %578, %553
  %555 = load i32, ptr %8, align 4, !dbg !1744
  %556 = icmp slt i32 %555, 3, !dbg !1746
  br i1 %556, label %557, label %581, !dbg !1747

557:                                              ; preds = %554
  %558 = load i32, ptr %6, align 4, !dbg !1748
  %559 = sext i32 %558 to i64, !dbg !1750
  %560 = getelementptr inbounds [9 x [3 x [3 x %union.U0]]], ptr @_ZL6g_2384, i64 0, i64 %559, !dbg !1750
  %561 = load i32, ptr %7, align 4, !dbg !1751
  %562 = sext i32 %561 to i64, !dbg !1750
  %563 = getelementptr inbounds [3 x [3 x %union.U0]], ptr %560, i64 0, i64 %562, !dbg !1750
  %564 = load i32, ptr %8, align 4, !dbg !1752
  %565 = sext i32 %564 to i64, !dbg !1750
  %566 = getelementptr inbounds [3 x %union.U0], ptr %563, i64 0, i64 %565, !dbg !1750
  %567 = load i32, ptr %566, align 4, !dbg !1753
  %568 = zext i32 %567 to i64, !dbg !1750
  %569 = load i32, ptr %9, align 4, !dbg !1754
  call void @_ZL15transparent_crcmPci(i64 noundef %568, ptr noundef @.str.73, i32 noundef %569), !dbg !1755
  %570 = load i32, ptr %9, align 4, !dbg !1756
  %571 = icmp ne i32 %570, 0, !dbg !1756
  br i1 %571, label %572, label %577, !dbg !1758

572:                                              ; preds = %557
  %573 = load i32, ptr %6, align 4, !dbg !1759
  %574 = load i32, ptr %7, align 4, !dbg !1760
  %575 = load i32, ptr %8, align 4, !dbg !1761
  %576 = call i32 (ptr, ...) @printf(ptr noundef @.str.35, i32 noundef %573, i32 noundef %574, i32 noundef %575), !dbg !1762
  br label %577, !dbg !1762

577:                                              ; preds = %572, %557
  br label %578, !dbg !1763

578:                                              ; preds = %577
  %579 = load i32, ptr %8, align 4, !dbg !1764
  %580 = add nsw i32 %579, 1, !dbg !1764
  store i32 %580, ptr %8, align 4, !dbg !1764
  br label %554, !dbg !1765, !llvm.loop !1766

581:                                              ; preds = %554
  br label %582, !dbg !1768

582:                                              ; preds = %581
  %583 = load i32, ptr %7, align 4, !dbg !1769
  %584 = add nsw i32 %583, 1, !dbg !1769
  store i32 %584, ptr %7, align 4, !dbg !1769
  br label %550, !dbg !1770, !llvm.loop !1771

585:                                              ; preds = %550
  br label %586, !dbg !1773

586:                                              ; preds = %585
  %587 = load i32, ptr %6, align 4, !dbg !1774
  %588 = add nsw i32 %587, 1, !dbg !1774
  store i32 %588, ptr %6, align 4, !dbg !1774
  br label %546, !dbg !1775, !llvm.loop !1776

589:                                              ; preds = %546
  store i32 0, ptr %6, align 4, !dbg !1778
  br label %590, !dbg !1780

590:                                              ; preds = %606, %589
  %591 = load i32, ptr %6, align 4, !dbg !1781
  %592 = icmp slt i32 %591, 2, !dbg !1783
  br i1 %592, label %593, label %609, !dbg !1784

593:                                              ; preds = %590
  %594 = load i32, ptr %6, align 4, !dbg !1785
  %595 = sext i32 %594 to i64, !dbg !1787
  %596 = getelementptr inbounds [2 x %union.U0], ptr @_ZL6g_2385, i64 0, i64 %595, !dbg !1787
  %597 = load i32, ptr %596, align 4, !dbg !1788
  %598 = zext i32 %597 to i64, !dbg !1787
  %599 = load i32, ptr %9, align 4, !dbg !1789
  call void @_ZL15transparent_crcmPci(i64 noundef %598, ptr noundef @.str.74, i32 noundef %599), !dbg !1790
  %600 = load i32, ptr %9, align 4, !dbg !1791
  %601 = icmp ne i32 %600, 0, !dbg !1791
  br i1 %601, label %602, label %605, !dbg !1793

602:                                              ; preds = %593
  %603 = load i32, ptr %6, align 4, !dbg !1794
  %604 = call i32 (ptr, ...) @printf(ptr noundef @.str.12, i32 noundef %603), !dbg !1795
  br label %605, !dbg !1795

605:                                              ; preds = %602, %593
  br label %606, !dbg !1796

606:                                              ; preds = %605
  %607 = load i32, ptr %6, align 4, !dbg !1797
  %608 = add nsw i32 %607, 1, !dbg !1797
  store i32 %608, ptr %6, align 4, !dbg !1797
  br label %590, !dbg !1798, !llvm.loop !1799

609:                                              ; preds = %590
  %610 = load i32, ptr @_ZL6g_2386, align 4, !dbg !1801
  %611 = zext i32 %610 to i64, !dbg !1802
  %612 = load i32, ptr %9, align 4, !dbg !1803
  call void @_ZL15transparent_crcmPci(i64 noundef %611, ptr noundef @.str.75, i32 noundef %612), !dbg !1804
  store i32 0, ptr %6, align 4, !dbg !1805
  br label %613, !dbg !1807

613:                                              ; preds = %629, %609
  %614 = load i32, ptr %6, align 4, !dbg !1808
  %615 = icmp slt i32 %614, 5, !dbg !1810
  br i1 %615, label %616, label %632, !dbg !1811

616:                                              ; preds = %613
  %617 = load i32, ptr %6, align 4, !dbg !1812
  %618 = sext i32 %617 to i64, !dbg !1814
  %619 = getelementptr inbounds [5 x %union.U0], ptr @_ZL6g_2387, i64 0, i64 %618, !dbg !1814
  %620 = load i32, ptr %619, align 4, !dbg !1815
  %621 = zext i32 %620 to i64, !dbg !1814
  %622 = load i32, ptr %9, align 4, !dbg !1816
  call void @_ZL15transparent_crcmPci(i64 noundef %621, ptr noundef @.str.76, i32 noundef %622), !dbg !1817
  %623 = load i32, ptr %9, align 4, !dbg !1818
  %624 = icmp ne i32 %623, 0, !dbg !1818
  br i1 %624, label %625, label %628, !dbg !1820

625:                                              ; preds = %616
  %626 = load i32, ptr %6, align 4, !dbg !1821
  %627 = call i32 (ptr, ...) @printf(ptr noundef @.str.12, i32 noundef %626), !dbg !1822
  br label %628, !dbg !1822

628:                                              ; preds = %625, %616
  br label %629, !dbg !1823

629:                                              ; preds = %628
  %630 = load i32, ptr %6, align 4, !dbg !1824
  %631 = add nsw i32 %630, 1, !dbg !1824
  store i32 %631, ptr %6, align 4, !dbg !1824
  br label %613, !dbg !1825, !llvm.loop !1826

632:                                              ; preds = %613
  %633 = load i32, ptr @_ZL6g_2388, align 4, !dbg !1828
  %634 = zext i32 %633 to i64, !dbg !1829
  %635 = load i32, ptr %9, align 4, !dbg !1830
  call void @_ZL15transparent_crcmPci(i64 noundef %634, ptr noundef @.str.77, i32 noundef %635), !dbg !1831
  %636 = load i32, ptr @_ZL6g_2389, align 4, !dbg !1832
  %637 = zext i32 %636 to i64, !dbg !1833
  %638 = load i32, ptr %9, align 4, !dbg !1834
  call void @_ZL15transparent_crcmPci(i64 noundef %637, ptr noundef @.str.78, i32 noundef %638), !dbg !1835
  %639 = load i32, ptr @_ZL6g_2390, align 4, !dbg !1836
  %640 = zext i32 %639 to i64, !dbg !1837
  %641 = load i32, ptr %9, align 4, !dbg !1838
  call void @_ZL15transparent_crcmPci(i64 noundef %640, ptr noundef @.str.79, i32 noundef %641), !dbg !1839
  %642 = load i32, ptr @_ZL6g_2391, align 4, !dbg !1840
  %643 = zext i32 %642 to i64, !dbg !1841
  %644 = load i32, ptr %9, align 4, !dbg !1842
  call void @_ZL15transparent_crcmPci(i64 noundef %643, ptr noundef @.str.80, i32 noundef %644), !dbg !1843
  %645 = load i32, ptr @_ZL6g_2392, align 4, !dbg !1844
  %646 = zext i32 %645 to i64, !dbg !1845
  %647 = load i32, ptr %9, align 4, !dbg !1846
  call void @_ZL15transparent_crcmPci(i64 noundef %646, ptr noundef @.str.81, i32 noundef %647), !dbg !1847
  store i32 0, ptr %6, align 4, !dbg !1848
  br label %648, !dbg !1850

648:                                              ; preds = %688, %632
  %649 = load i32, ptr %6, align 4, !dbg !1851
  %650 = icmp slt i32 %649, 7, !dbg !1853
  br i1 %650, label %651, label %691, !dbg !1854

651:                                              ; preds = %648
  store i32 0, ptr %7, align 4, !dbg !1855
  br label %652, !dbg !1858

652:                                              ; preds = %684, %651
  %653 = load i32, ptr %7, align 4, !dbg !1859
  %654 = icmp slt i32 %653, 4, !dbg !1861
  br i1 %654, label %655, label %687, !dbg !1862

655:                                              ; preds = %652
  store i32 0, ptr %8, align 4, !dbg !1863
  br label %656, !dbg !1866

656:                                              ; preds = %680, %655
  %657 = load i32, ptr %8, align 4, !dbg !1867
  %658 = icmp slt i32 %657, 9, !dbg !1869
  br i1 %658, label %659, label %683, !dbg !1870

659:                                              ; preds = %656
  %660 = load i32, ptr %6, align 4, !dbg !1871
  %661 = sext i32 %660 to i64, !dbg !1873
  %662 = getelementptr inbounds [7 x [4 x [9 x %union.U0]]], ptr @_ZL6g_2393, i64 0, i64 %661, !dbg !1873
  %663 = load i32, ptr %7, align 4, !dbg !1874
  %664 = sext i32 %663 to i64, !dbg !1873
  %665 = getelementptr inbounds [4 x [9 x %union.U0]], ptr %662, i64 0, i64 %664, !dbg !1873
  %666 = load i32, ptr %8, align 4, !dbg !1875
  %667 = sext i32 %666 to i64, !dbg !1873
  %668 = getelementptr inbounds [9 x %union.U0], ptr %665, i64 0, i64 %667, !dbg !1873
  %669 = load i32, ptr %668, align 4, !dbg !1876
  %670 = zext i32 %669 to i64, !dbg !1873
  %671 = load i32, ptr %9, align 4, !dbg !1877
  call void @_ZL15transparent_crcmPci(i64 noundef %670, ptr noundef @.str.82, i32 noundef %671), !dbg !1878
  %672 = load i32, ptr %9, align 4, !dbg !1879
  %673 = icmp ne i32 %672, 0, !dbg !1879
  br i1 %673, label %674, label %679, !dbg !1881

674:                                              ; preds = %659
  %675 = load i32, ptr %6, align 4, !dbg !1882
  %676 = load i32, ptr %7, align 4, !dbg !1883
  %677 = load i32, ptr %8, align 4, !dbg !1884
  %678 = call i32 (ptr, ...) @printf(ptr noundef @.str.35, i32 noundef %675, i32 noundef %676, i32 noundef %677), !dbg !1885
  br label %679, !dbg !1885

679:                                              ; preds = %674, %659
  br label %680, !dbg !1886

680:                                              ; preds = %679
  %681 = load i32, ptr %8, align 4, !dbg !1887
  %682 = add nsw i32 %681, 1, !dbg !1887
  store i32 %682, ptr %8, align 4, !dbg !1887
  br label %656, !dbg !1888, !llvm.loop !1889

683:                                              ; preds = %656
  br label %684, !dbg !1891

684:                                              ; preds = %683
  %685 = load i32, ptr %7, align 4, !dbg !1892
  %686 = add nsw i32 %685, 1, !dbg !1892
  store i32 %686, ptr %7, align 4, !dbg !1892
  br label %652, !dbg !1893, !llvm.loop !1894

687:                                              ; preds = %652
  br label %688, !dbg !1896

688:                                              ; preds = %687
  %689 = load i32, ptr %6, align 4, !dbg !1897
  %690 = add nsw i32 %689, 1, !dbg !1897
  store i32 %690, ptr %6, align 4, !dbg !1897
  br label %648, !dbg !1898, !llvm.loop !1899

691:                                              ; preds = %648
  store i32 0, ptr %6, align 4, !dbg !1901
  br label %692, !dbg !1903

692:                                              ; preds = %720, %691
  %693 = load i32, ptr %6, align 4, !dbg !1904
  %694 = icmp slt i32 %693, 6, !dbg !1906
  br i1 %694, label %695, label %723, !dbg !1907

695:                                              ; preds = %692
  store i32 0, ptr %7, align 4, !dbg !1908
  br label %696, !dbg !1911

696:                                              ; preds = %716, %695
  %697 = load i32, ptr %7, align 4, !dbg !1912
  %698 = icmp slt i32 %697, 5, !dbg !1914
  br i1 %698, label %699, label %719, !dbg !1915

699:                                              ; preds = %696
  %700 = load i32, ptr %6, align 4, !dbg !1916
  %701 = sext i32 %700 to i64, !dbg !1918
  %702 = getelementptr inbounds [6 x [5 x %union.U0]], ptr @_ZL6g_2394, i64 0, i64 %701, !dbg !1918
  %703 = load i32, ptr %7, align 4, !dbg !1919
  %704 = sext i32 %703 to i64, !dbg !1918
  %705 = getelementptr inbounds [5 x %union.U0], ptr %702, i64 0, i64 %704, !dbg !1918
  %706 = load i32, ptr %705, align 4, !dbg !1920
  %707 = zext i32 %706 to i64, !dbg !1918
  %708 = load i32, ptr %9, align 4, !dbg !1921
  call void @_ZL15transparent_crcmPci(i64 noundef %707, ptr noundef @.str.83, i32 noundef %708), !dbg !1922
  %709 = load i32, ptr %9, align 4, !dbg !1923
  %710 = icmp ne i32 %709, 0, !dbg !1923
  br i1 %710, label %711, label %715, !dbg !1925

711:                                              ; preds = %699
  %712 = load i32, ptr %6, align 4, !dbg !1926
  %713 = load i32, ptr %7, align 4, !dbg !1927
  %714 = call i32 (ptr, ...) @printf(ptr noundef @.str.10, i32 noundef %712, i32 noundef %713), !dbg !1928
  br label %715, !dbg !1928

715:                                              ; preds = %711, %699
  br label %716, !dbg !1929

716:                                              ; preds = %715
  %717 = load i32, ptr %7, align 4, !dbg !1930
  %718 = add nsw i32 %717, 1, !dbg !1930
  store i32 %718, ptr %7, align 4, !dbg !1930
  br label %696, !dbg !1931, !llvm.loop !1932

719:                                              ; preds = %696
  br label %720, !dbg !1934

720:                                              ; preds = %719
  %721 = load i32, ptr %6, align 4, !dbg !1935
  %722 = add nsw i32 %721, 1, !dbg !1935
  store i32 %722, ptr %6, align 4, !dbg !1935
  br label %692, !dbg !1936, !llvm.loop !1937

723:                                              ; preds = %692
  store i32 0, ptr %6, align 4, !dbg !1939
  br label %724, !dbg !1941

724:                                              ; preds = %752, %723
  %725 = load i32, ptr %6, align 4, !dbg !1942
  %726 = icmp slt i32 %725, 1, !dbg !1944
  br i1 %726, label %727, label %755, !dbg !1945

727:                                              ; preds = %724
  store i32 0, ptr %7, align 4, !dbg !1946
  br label %728, !dbg !1949

728:                                              ; preds = %748, %727
  %729 = load i32, ptr %7, align 4, !dbg !1950
  %730 = icmp slt i32 %729, 10, !dbg !1952
  br i1 %730, label %731, label %751, !dbg !1953

731:                                              ; preds = %728
  %732 = load i32, ptr %6, align 4, !dbg !1954
  %733 = sext i32 %732 to i64, !dbg !1956
  %734 = getelementptr inbounds [1 x [10 x %union.U0]], ptr @_ZL6g_2395, i64 0, i64 %733, !dbg !1956
  %735 = load i32, ptr %7, align 4, !dbg !1957
  %736 = sext i32 %735 to i64, !dbg !1956
  %737 = getelementptr inbounds [10 x %union.U0], ptr %734, i64 0, i64 %736, !dbg !1956
  %738 = load i32, ptr %737, align 4, !dbg !1958
  %739 = zext i32 %738 to i64, !dbg !1956
  %740 = load i32, ptr %9, align 4, !dbg !1959
  call void @_ZL15transparent_crcmPci(i64 noundef %739, ptr noundef @.str.84, i32 noundef %740), !dbg !1960
  %741 = load i32, ptr %9, align 4, !dbg !1961
  %742 = icmp ne i32 %741, 0, !dbg !1961
  br i1 %742, label %743, label %747, !dbg !1963

743:                                              ; preds = %731
  %744 = load i32, ptr %6, align 4, !dbg !1964
  %745 = load i32, ptr %7, align 4, !dbg !1965
  %746 = call i32 (ptr, ...) @printf(ptr noundef @.str.10, i32 noundef %744, i32 noundef %745), !dbg !1966
  br label %747, !dbg !1966

747:                                              ; preds = %743, %731
  br label %748, !dbg !1967

748:                                              ; preds = %747
  %749 = load i32, ptr %7, align 4, !dbg !1968
  %750 = add nsw i32 %749, 1, !dbg !1968
  store i32 %750, ptr %7, align 4, !dbg !1968
  br label %728, !dbg !1969, !llvm.loop !1970

751:                                              ; preds = %728
  br label %752, !dbg !1972

752:                                              ; preds = %751
  %753 = load i32, ptr %6, align 4, !dbg !1973
  %754 = add nsw i32 %753, 1, !dbg !1973
  store i32 %754, ptr %6, align 4, !dbg !1973
  br label %724, !dbg !1974, !llvm.loop !1975

755:                                              ; preds = %724
  %756 = load i32, ptr @_ZL6g_2396, align 4, !dbg !1977
  %757 = zext i32 %756 to i64, !dbg !1978
  %758 = load i32, ptr %9, align 4, !dbg !1979
  call void @_ZL15transparent_crcmPci(i64 noundef %757, ptr noundef @.str.85, i32 noundef %758), !dbg !1980
  %759 = load i32, ptr @_ZL6g_2397, align 4, !dbg !1981
  %760 = zext i32 %759 to i64, !dbg !1982
  %761 = load i32, ptr %9, align 4, !dbg !1983
  call void @_ZL15transparent_crcmPci(i64 noundef %760, ptr noundef @.str.86, i32 noundef %761), !dbg !1984
  %762 = load i32, ptr @_ZL6g_2398, align 4, !dbg !1985
  %763 = zext i32 %762 to i64, !dbg !1986
  %764 = load i32, ptr %9, align 4, !dbg !1987
  call void @_ZL15transparent_crcmPci(i64 noundef %763, ptr noundef @.str.87, i32 noundef %764), !dbg !1988
  %765 = load i32, ptr @_ZL6g_2399, align 4, !dbg !1989
  %766 = zext i32 %765 to i64, !dbg !1990
  %767 = load i32, ptr %9, align 4, !dbg !1991
  call void @_ZL15transparent_crcmPci(i64 noundef %766, ptr noundef @.str.88, i32 noundef %767), !dbg !1992
  %768 = load i32, ptr @_ZL6g_2400, align 4, !dbg !1993
  %769 = zext i32 %768 to i64, !dbg !1994
  %770 = load i32, ptr %9, align 4, !dbg !1995
  call void @_ZL15transparent_crcmPci(i64 noundef %769, ptr noundef @.str.89, i32 noundef %770), !dbg !1996
  %771 = load i32, ptr @_ZL6g_2401, align 4, !dbg !1997
  %772 = zext i32 %771 to i64, !dbg !1998
  %773 = load i32, ptr %9, align 4, !dbg !1999
  call void @_ZL15transparent_crcmPci(i64 noundef %772, ptr noundef @.str.90, i32 noundef %773), !dbg !2000
  %774 = load i32, ptr @_ZL6g_2402, align 4, !dbg !2001
  %775 = zext i32 %774 to i64, !dbg !2002
  %776 = load i32, ptr %9, align 4, !dbg !2003
  call void @_ZL15transparent_crcmPci(i64 noundef %775, ptr noundef @.str.91, i32 noundef %776), !dbg !2004
  %777 = load i32, ptr @_ZL6g_2403, align 4, !dbg !2005
  %778 = zext i32 %777 to i64, !dbg !2006
  %779 = load i32, ptr %9, align 4, !dbg !2007
  call void @_ZL15transparent_crcmPci(i64 noundef %778, ptr noundef @.str.92, i32 noundef %779), !dbg !2008
  store i32 0, ptr %6, align 4, !dbg !2009
  br label %780, !dbg !2011

780:                                              ; preds = %796, %755
  %781 = load i32, ptr %6, align 4, !dbg !2012
  %782 = icmp slt i32 %781, 4, !dbg !2014
  br i1 %782, label %783, label %799, !dbg !2015

783:                                              ; preds = %780
  %784 = load i32, ptr %6, align 4, !dbg !2016
  %785 = sext i32 %784 to i64, !dbg !2018
  %786 = getelementptr inbounds [4 x %union.U0], ptr @_ZL6g_2404, i64 0, i64 %785, !dbg !2018
  %787 = load i32, ptr %786, align 4, !dbg !2019
  %788 = zext i32 %787 to i64, !dbg !2018
  %789 = load i32, ptr %9, align 4, !dbg !2020
  call void @_ZL15transparent_crcmPci(i64 noundef %788, ptr noundef @.str.93, i32 noundef %789), !dbg !2021
  %790 = load i32, ptr %9, align 4, !dbg !2022
  %791 = icmp ne i32 %790, 0, !dbg !2022
  br i1 %791, label %792, label %795, !dbg !2024

792:                                              ; preds = %783
  %793 = load i32, ptr %6, align 4, !dbg !2025
  %794 = call i32 (ptr, ...) @printf(ptr noundef @.str.12, i32 noundef %793), !dbg !2026
  br label %795, !dbg !2026

795:                                              ; preds = %792, %783
  br label %796, !dbg !2027

796:                                              ; preds = %795
  %797 = load i32, ptr %6, align 4, !dbg !2028
  %798 = add nsw i32 %797, 1, !dbg !2028
  store i32 %798, ptr %6, align 4, !dbg !2028
  br label %780, !dbg !2029, !llvm.loop !2030

799:                                              ; preds = %780
  %800 = load i32, ptr @_ZL6g_2405, align 4, !dbg !2032
  %801 = zext i32 %800 to i64, !dbg !2033
  %802 = load i32, ptr %9, align 4, !dbg !2034
  call void @_ZL15transparent_crcmPci(i64 noundef %801, ptr noundef @.str.94, i32 noundef %802), !dbg !2035
  %803 = load i32, ptr @_ZL6g_2406, align 4, !dbg !2036
  %804 = zext i32 %803 to i64, !dbg !2037
  %805 = load i32, ptr %9, align 4, !dbg !2038
  call void @_ZL15transparent_crcmPci(i64 noundef %804, ptr noundef @.str.95, i32 noundef %805), !dbg !2039
  %806 = load i32, ptr @_ZL6g_2407, align 4, !dbg !2040
  %807 = zext i32 %806 to i64, !dbg !2041
  %808 = load i32, ptr %9, align 4, !dbg !2042
  call void @_ZL15transparent_crcmPci(i64 noundef %807, ptr noundef @.str.96, i32 noundef %808), !dbg !2043
  %809 = load i32, ptr @_ZL6g_2408, align 4, !dbg !2044
  %810 = zext i32 %809 to i64, !dbg !2045
  %811 = load i32, ptr %9, align 4, !dbg !2046
  call void @_ZL15transparent_crcmPci(i64 noundef %810, ptr noundef @.str.97, i32 noundef %811), !dbg !2047
  %812 = load i32, ptr @_ZL6g_2409, align 4, !dbg !2048
  %813 = zext i32 %812 to i64, !dbg !2049
  %814 = load i32, ptr %9, align 4, !dbg !2050
  call void @_ZL15transparent_crcmPci(i64 noundef %813, ptr noundef @.str.98, i32 noundef %814), !dbg !2051
  store i32 0, ptr %6, align 4, !dbg !2052
  br label %815, !dbg !2054

815:                                              ; preds = %831, %799
  %816 = load i32, ptr %6, align 4, !dbg !2055
  %817 = icmp slt i32 %816, 3, !dbg !2057
  br i1 %817, label %818, label %834, !dbg !2058

818:                                              ; preds = %815
  %819 = load i32, ptr %6, align 4, !dbg !2059
  %820 = sext i32 %819 to i64, !dbg !2061
  %821 = getelementptr inbounds [3 x %union.U0], ptr @_ZL6g_2410, i64 0, i64 %820, !dbg !2061
  %822 = load i32, ptr %821, align 4, !dbg !2062
  %823 = zext i32 %822 to i64, !dbg !2061
  %824 = load i32, ptr %9, align 4, !dbg !2063
  call void @_ZL15transparent_crcmPci(i64 noundef %823, ptr noundef @.str.99, i32 noundef %824), !dbg !2064
  %825 = load i32, ptr %9, align 4, !dbg !2065
  %826 = icmp ne i32 %825, 0, !dbg !2065
  br i1 %826, label %827, label %830, !dbg !2067

827:                                              ; preds = %818
  %828 = load i32, ptr %6, align 4, !dbg !2068
  %829 = call i32 (ptr, ...) @printf(ptr noundef @.str.12, i32 noundef %828), !dbg !2069
  br label %830, !dbg !2069

830:                                              ; preds = %827, %818
  br label %831, !dbg !2070

831:                                              ; preds = %830
  %832 = load i32, ptr %6, align 4, !dbg !2071
  %833 = add nsw i32 %832, 1, !dbg !2071
  store i32 %833, ptr %6, align 4, !dbg !2071
  br label %815, !dbg !2072, !llvm.loop !2073

834:                                              ; preds = %815
  %835 = load i32, ptr @_ZL6g_2411, align 4, !dbg !2075
  %836 = zext i32 %835 to i64, !dbg !2076
  %837 = load i32, ptr %9, align 4, !dbg !2077
  call void @_ZL15transparent_crcmPci(i64 noundef %836, ptr noundef @.str.100, i32 noundef %837), !dbg !2078
  %838 = load i32, ptr @_ZL6g_2412, align 4, !dbg !2079
  %839 = zext i32 %838 to i64, !dbg !2080
  %840 = load i32, ptr %9, align 4, !dbg !2081
  call void @_ZL15transparent_crcmPci(i64 noundef %839, ptr noundef @.str.101, i32 noundef %840), !dbg !2082
  %841 = load i32, ptr @_ZL6g_2413, align 4, !dbg !2083
  %842 = zext i32 %841 to i64, !dbg !2084
  %843 = load i32, ptr %9, align 4, !dbg !2085
  call void @_ZL15transparent_crcmPci(i64 noundef %842, ptr noundef @.str.102, i32 noundef %843), !dbg !2086
  %844 = load i32, ptr @_ZL6g_2414, align 4, !dbg !2087
  %845 = zext i32 %844 to i64, !dbg !2088
  %846 = load i32, ptr %9, align 4, !dbg !2089
  call void @_ZL15transparent_crcmPci(i64 noundef %845, ptr noundef @.str.103, i32 noundef %846), !dbg !2090
  store i32 0, ptr %6, align 4, !dbg !2091
  br label %847, !dbg !2093

847:                                              ; preds = %863, %834
  %848 = load i32, ptr %6, align 4, !dbg !2094
  %849 = icmp slt i32 %848, 2, !dbg !2096
  br i1 %849, label %850, label %866, !dbg !2097

850:                                              ; preds = %847
  %851 = load i32, ptr %6, align 4, !dbg !2098
  %852 = sext i32 %851 to i64, !dbg !2100
  %853 = getelementptr inbounds [2 x %union.U0], ptr @_ZL6g_2415, i64 0, i64 %852, !dbg !2100
  %854 = load i32, ptr %853, align 4, !dbg !2101
  %855 = zext i32 %854 to i64, !dbg !2100
  %856 = load i32, ptr %9, align 4, !dbg !2102
  call void @_ZL15transparent_crcmPci(i64 noundef %855, ptr noundef @.str.104, i32 noundef %856), !dbg !2103
  %857 = load i32, ptr %9, align 4, !dbg !2104
  %858 = icmp ne i32 %857, 0, !dbg !2104
  br i1 %858, label %859, label %862, !dbg !2106

859:                                              ; preds = %850
  %860 = load i32, ptr %6, align 4, !dbg !2107
  %861 = call i32 (ptr, ...) @printf(ptr noundef @.str.12, i32 noundef %860), !dbg !2108
  br label %862, !dbg !2108

862:                                              ; preds = %859, %850
  br label %863, !dbg !2109

863:                                              ; preds = %862
  %864 = load i32, ptr %6, align 4, !dbg !2110
  %865 = add nsw i32 %864, 1, !dbg !2110
  store i32 %865, ptr %6, align 4, !dbg !2110
  br label %847, !dbg !2111, !llvm.loop !2112

866:                                              ; preds = %847
  store i32 0, ptr %6, align 4, !dbg !2114
  br label %867, !dbg !2116

867:                                              ; preds = %895, %866
  %868 = load i32, ptr %6, align 4, !dbg !2117
  %869 = icmp slt i32 %868, 7, !dbg !2119
  br i1 %869, label %870, label %898, !dbg !2120

870:                                              ; preds = %867
  store i32 0, ptr %7, align 4, !dbg !2121
  br label %871, !dbg !2124

871:                                              ; preds = %891, %870
  %872 = load i32, ptr %7, align 4, !dbg !2125
  %873 = icmp slt i32 %872, 7, !dbg !2127
  br i1 %873, label %874, label %894, !dbg !2128

874:                                              ; preds = %871
  %875 = load i32, ptr %6, align 4, !dbg !2129
  %876 = sext i32 %875 to i64, !dbg !2131
  %877 = getelementptr inbounds [7 x [7 x %union.U0]], ptr @_ZL6g_2416, i64 0, i64 %876, !dbg !2131
  %878 = load i32, ptr %7, align 4, !dbg !2132
  %879 = sext i32 %878 to i64, !dbg !2131
  %880 = getelementptr inbounds [7 x %union.U0], ptr %877, i64 0, i64 %879, !dbg !2131
  %881 = load i32, ptr %880, align 4, !dbg !2133
  %882 = zext i32 %881 to i64, !dbg !2131
  %883 = load i32, ptr %9, align 4, !dbg !2134
  call void @_ZL15transparent_crcmPci(i64 noundef %882, ptr noundef @.str.105, i32 noundef %883), !dbg !2135
  %884 = load i32, ptr %9, align 4, !dbg !2136
  %885 = icmp ne i32 %884, 0, !dbg !2136
  br i1 %885, label %886, label %890, !dbg !2138

886:                                              ; preds = %874
  %887 = load i32, ptr %6, align 4, !dbg !2139
  %888 = load i32, ptr %7, align 4, !dbg !2140
  %889 = call i32 (ptr, ...) @printf(ptr noundef @.str.10, i32 noundef %887, i32 noundef %888), !dbg !2141
  br label %890, !dbg !2141

890:                                              ; preds = %886, %874
  br label %891, !dbg !2142

891:                                              ; preds = %890
  %892 = load i32, ptr %7, align 4, !dbg !2143
  %893 = add nsw i32 %892, 1, !dbg !2143
  store i32 %893, ptr %7, align 4, !dbg !2143
  br label %871, !dbg !2144, !llvm.loop !2145

894:                                              ; preds = %871
  br label %895, !dbg !2147

895:                                              ; preds = %894
  %896 = load i32, ptr %6, align 4, !dbg !2148
  %897 = add nsw i32 %896, 1, !dbg !2148
  store i32 %897, ptr %6, align 4, !dbg !2148
  br label %867, !dbg !2149, !llvm.loop !2150

898:                                              ; preds = %867
  %899 = load i32, ptr @_ZL6g_2417, align 4, !dbg !2152
  %900 = zext i32 %899 to i64, !dbg !2153
  %901 = load i32, ptr %9, align 4, !dbg !2154
  call void @_ZL15transparent_crcmPci(i64 noundef %900, ptr noundef @.str.106, i32 noundef %901), !dbg !2155
  %902 = load i32, ptr @_ZL6g_2418, align 4, !dbg !2156
  %903 = zext i32 %902 to i64, !dbg !2157
  %904 = load i32, ptr %9, align 4, !dbg !2158
  call void @_ZL15transparent_crcmPci(i64 noundef %903, ptr noundef @.str.107, i32 noundef %904), !dbg !2159
  %905 = load i32, ptr @_ZL6g_2419, align 4, !dbg !2160
  %906 = zext i32 %905 to i64, !dbg !2161
  %907 = load i32, ptr %9, align 4, !dbg !2162
  call void @_ZL15transparent_crcmPci(i64 noundef %906, ptr noundef @.str.108, i32 noundef %907), !dbg !2163
  %908 = load i32, ptr @_ZL6g_2420, align 4, !dbg !2164
  %909 = zext i32 %908 to i64, !dbg !2165
  %910 = load i32, ptr %9, align 4, !dbg !2166
  call void @_ZL15transparent_crcmPci(i64 noundef %909, ptr noundef @.str.109, i32 noundef %910), !dbg !2167
  %911 = load i32, ptr @_ZL6g_2421, align 4, !dbg !2168
  %912 = zext i32 %911 to i64, !dbg !2169
  %913 = load i32, ptr %9, align 4, !dbg !2170
  call void @_ZL15transparent_crcmPci(i64 noundef %912, ptr noundef @.str.110, i32 noundef %913), !dbg !2171
  %914 = load i32, ptr @_ZL6g_2422, align 4, !dbg !2172
  %915 = zext i32 %914 to i64, !dbg !2173
  %916 = load i32, ptr %9, align 4, !dbg !2174
  call void @_ZL15transparent_crcmPci(i64 noundef %915, ptr noundef @.str.111, i32 noundef %916), !dbg !2175
  %917 = load i32, ptr @_ZL6g_2423, align 4, !dbg !2176
  %918 = zext i32 %917 to i64, !dbg !2177
  %919 = load i32, ptr %9, align 4, !dbg !2178
  call void @_ZL15transparent_crcmPci(i64 noundef %918, ptr noundef @.str.112, i32 noundef %919), !dbg !2179
  %920 = load i32, ptr @_ZL6g_2424, align 4, !dbg !2180
  %921 = zext i32 %920 to i64, !dbg !2181
  %922 = load i32, ptr %9, align 4, !dbg !2182
  call void @_ZL15transparent_crcmPci(i64 noundef %921, ptr noundef @.str.113, i32 noundef %922), !dbg !2183
  %923 = load i32, ptr @_ZL6g_2425, align 4, !dbg !2184
  %924 = zext i32 %923 to i64, !dbg !2185
  %925 = load i32, ptr %9, align 4, !dbg !2186
  call void @_ZL15transparent_crcmPci(i64 noundef %924, ptr noundef @.str.114, i32 noundef %925), !dbg !2187
  %926 = load i32, ptr @_ZL6g_2426, align 4, !dbg !2188
  %927 = zext i32 %926 to i64, !dbg !2189
  %928 = load i32, ptr %9, align 4, !dbg !2190
  call void @_ZL15transparent_crcmPci(i64 noundef %927, ptr noundef @.str.115, i32 noundef %928), !dbg !2191
  %929 = load i32, ptr @_ZL6g_2427, align 4, !dbg !2192
  %930 = zext i32 %929 to i64, !dbg !2193
  %931 = load i32, ptr %9, align 4, !dbg !2194
  call void @_ZL15transparent_crcmPci(i64 noundef %930, ptr noundef @.str.116, i32 noundef %931), !dbg !2195
  %932 = load i32, ptr @_ZL6g_2428, align 4, !dbg !2196
  %933 = zext i32 %932 to i64, !dbg !2197
  %934 = load i32, ptr %9, align 4, !dbg !2198
  call void @_ZL15transparent_crcmPci(i64 noundef %933, ptr noundef @.str.117, i32 noundef %934), !dbg !2199
  %935 = load i32, ptr @_ZL6g_2429, align 4, !dbg !2200
  %936 = zext i32 %935 to i64, !dbg !2201
  %937 = load i32, ptr %9, align 4, !dbg !2202
  call void @_ZL15transparent_crcmPci(i64 noundef %936, ptr noundef @.str.118, i32 noundef %937), !dbg !2203
  %938 = load i32, ptr @_ZL6g_2430, align 4, !dbg !2204
  %939 = zext i32 %938 to i64, !dbg !2205
  %940 = load i32, ptr %9, align 4, !dbg !2206
  call void @_ZL15transparent_crcmPci(i64 noundef %939, ptr noundef @.str.119, i32 noundef %940), !dbg !2207
  %941 = load i32, ptr @_ZL6g_2712, align 4, !dbg !2208
  %942 = sext i32 %941 to i64, !dbg !2208
  %943 = load i32, ptr %9, align 4, !dbg !2209
  call void @_ZL15transparent_crcmPci(i64 noundef %942, ptr noundef @.str.120, i32 noundef %943), !dbg !2210
  %944 = load i64, ptr @_ZL6g_2726, align 8, !dbg !2211
  %945 = load i32, ptr %9, align 4, !dbg !2212
  call void @_ZL15transparent_crcmPci(i64 noundef %944, ptr noundef @.str.121, i32 noundef %945), !dbg !2213
  %946 = load i8, ptr @_ZL6g_2848, align 1, !dbg !2214
  %947 = sext i8 %946 to i64, !dbg !2214
  %948 = load i32, ptr %9, align 4, !dbg !2215
  call void @_ZL15transparent_crcmPci(i64 noundef %947, ptr noundef @.str.122, i32 noundef %948), !dbg !2216
  %949 = load i8, ptr @_ZL6g_2849, align 1, !dbg !2217
  %950 = sext i8 %949 to i64, !dbg !2217
  %951 = load i32, ptr %9, align 4, !dbg !2218
  call void @_ZL15transparent_crcmPci(i64 noundef %950, ptr noundef @.str.123, i32 noundef %951), !dbg !2219
  %952 = load i8, ptr @_ZL6g_2850, align 1, !dbg !2220
  %953 = sext i8 %952 to i64, !dbg !2220
  %954 = load i32, ptr %9, align 4, !dbg !2221
  call void @_ZL15transparent_crcmPci(i64 noundef %953, ptr noundef @.str.124, i32 noundef %954), !dbg !2222
  store i32 0, ptr %6, align 4, !dbg !2223
  br label %955, !dbg !2225

955:                                              ; preds = %995, %898
  %956 = load i32, ptr %6, align 4, !dbg !2226
  %957 = icmp slt i32 %956, 1, !dbg !2228
  br i1 %957, label %958, label %998, !dbg !2229

958:                                              ; preds = %955
  store i32 0, ptr %7, align 4, !dbg !2230
  br label %959, !dbg !2233

959:                                              ; preds = %991, %958
  %960 = load i32, ptr %7, align 4, !dbg !2234
  %961 = icmp slt i32 %960, 1, !dbg !2236
  br i1 %961, label %962, label %994, !dbg !2237

962:                                              ; preds = %959
  store i32 0, ptr %8, align 4, !dbg !2238
  br label %963, !dbg !2241

963:                                              ; preds = %987, %962
  %964 = load i32, ptr %8, align 4, !dbg !2242
  %965 = icmp slt i32 %964, 7, !dbg !2244
  br i1 %965, label %966, label %990, !dbg !2245

966:                                              ; preds = %963
  %967 = load i32, ptr %6, align 4, !dbg !2246
  %968 = sext i32 %967 to i64, !dbg !2248
  %969 = getelementptr inbounds [1 x [1 x [7 x i8]]], ptr @_ZL6g_2851, i64 0, i64 %968, !dbg !2248
  %970 = load i32, ptr %7, align 4, !dbg !2249
  %971 = sext i32 %970 to i64, !dbg !2248
  %972 = getelementptr inbounds [1 x [7 x i8]], ptr %969, i64 0, i64 %971, !dbg !2248
  %973 = load i32, ptr %8, align 4, !dbg !2250
  %974 = sext i32 %973 to i64, !dbg !2248
  %975 = getelementptr inbounds [7 x i8], ptr %972, i64 0, i64 %974, !dbg !2248
  %976 = load i8, ptr %975, align 1, !dbg !2248
  %977 = sext i8 %976 to i64, !dbg !2248
  %978 = load i32, ptr %9, align 4, !dbg !2251
  call void @_ZL15transparent_crcmPci(i64 noundef %977, ptr noundef @.str.125, i32 noundef %978), !dbg !2252
  %979 = load i32, ptr %9, align 4, !dbg !2253
  %980 = icmp ne i32 %979, 0, !dbg !2253
  br i1 %980, label %981, label %986, !dbg !2255

981:                                              ; preds = %966
  %982 = load i32, ptr %6, align 4, !dbg !2256
  %983 = load i32, ptr %7, align 4, !dbg !2257
  %984 = load i32, ptr %8, align 4, !dbg !2258
  %985 = call i32 (ptr, ...) @printf(ptr noundef @.str.35, i32 noundef %982, i32 noundef %983, i32 noundef %984), !dbg !2259
  br label %986, !dbg !2259

986:                                              ; preds = %981, %966
  br label %987, !dbg !2260

987:                                              ; preds = %986
  %988 = load i32, ptr %8, align 4, !dbg !2261
  %989 = add nsw i32 %988, 1, !dbg !2261
  store i32 %989, ptr %8, align 4, !dbg !2261
  br label %963, !dbg !2262, !llvm.loop !2263

990:                                              ; preds = %963
  br label %991, !dbg !2265

991:                                              ; preds = %990
  %992 = load i32, ptr %7, align 4, !dbg !2266
  %993 = add nsw i32 %992, 1, !dbg !2266
  store i32 %993, ptr %7, align 4, !dbg !2266
  br label %959, !dbg !2267, !llvm.loop !2268

994:                                              ; preds = %959
  br label %995, !dbg !2270

995:                                              ; preds = %994
  %996 = load i32, ptr %6, align 4, !dbg !2271
  %997 = add nsw i32 %996, 1, !dbg !2271
  store i32 %997, ptr %6, align 4, !dbg !2271
  br label %955, !dbg !2272, !llvm.loop !2273

998:                                              ; preds = %955
  store i32 0, ptr %6, align 4, !dbg !2275
  br label %999, !dbg !2277

999:                                              ; preds = %1015, %998
  %1000 = load i32, ptr %6, align 4, !dbg !2278
  %1001 = icmp slt i32 %1000, 3, !dbg !2280
  br i1 %1001, label %1002, label %1018, !dbg !2281

1002:                                             ; preds = %999
  %1003 = load i32, ptr %6, align 4, !dbg !2282
  %1004 = sext i32 %1003 to i64, !dbg !2284
  %1005 = getelementptr inbounds [3 x i16], ptr @_ZL6g_2883, i64 0, i64 %1004, !dbg !2284
  %1006 = load i16, ptr %1005, align 2, !dbg !2284
  %1007 = sext i16 %1006 to i64, !dbg !2284
  %1008 = load i32, ptr %9, align 4, !dbg !2285
  call void @_ZL15transparent_crcmPci(i64 noundef %1007, ptr noundef @.str.126, i32 noundef %1008), !dbg !2286
  %1009 = load i32, ptr %9, align 4, !dbg !2287
  %1010 = icmp ne i32 %1009, 0, !dbg !2287
  br i1 %1010, label %1011, label %1014, !dbg !2289

1011:                                             ; preds = %1002
  %1012 = load i32, ptr %6, align 4, !dbg !2290
  %1013 = call i32 (ptr, ...) @printf(ptr noundef @.str.12, i32 noundef %1012), !dbg !2291
  br label %1014, !dbg !2291

1014:                                             ; preds = %1011, %1002
  br label %1015, !dbg !2292

1015:                                             ; preds = %1014
  %1016 = load i32, ptr %6, align 4, !dbg !2293
  %1017 = add nsw i32 %1016, 1, !dbg !2293
  store i32 %1017, ptr %6, align 4, !dbg !2293
  br label %999, !dbg !2294, !llvm.loop !2295

1018:                                             ; preds = %999
  store i32 0, ptr %6, align 4, !dbg !2297
  br label %1019, !dbg !2299

1019:                                             ; preds = %1035, %1018
  %1020 = load i32, ptr %6, align 4, !dbg !2300
  %1021 = icmp slt i32 %1020, 8, !dbg !2302
  br i1 %1021, label %1022, label %1038, !dbg !2303

1022:                                             ; preds = %1019
  %1023 = load i32, ptr %6, align 4, !dbg !2304
  %1024 = sext i32 %1023 to i64, !dbg !2306
  %1025 = getelementptr inbounds [8 x i8], ptr @_ZL6g_2949, i64 0, i64 %1024, !dbg !2306
  %1026 = load i8, ptr %1025, align 1, !dbg !2306
  %1027 = sext i8 %1026 to i64, !dbg !2306
  %1028 = load i32, ptr %9, align 4, !dbg !2307
  call void @_ZL15transparent_crcmPci(i64 noundef %1027, ptr noundef @.str.127, i32 noundef %1028), !dbg !2308
  %1029 = load i32, ptr %9, align 4, !dbg !2309
  %1030 = icmp ne i32 %1029, 0, !dbg !2309
  br i1 %1030, label %1031, label %1034, !dbg !2311

1031:                                             ; preds = %1022
  %1032 = load i32, ptr %6, align 4, !dbg !2312
  %1033 = call i32 (ptr, ...) @printf(ptr noundef @.str.12, i32 noundef %1032), !dbg !2313
  br label %1034, !dbg !2313

1034:                                             ; preds = %1031, %1022
  br label %1035, !dbg !2314

1035:                                             ; preds = %1034
  %1036 = load i32, ptr %6, align 4, !dbg !2315
  %1037 = add nsw i32 %1036, 1, !dbg !2315
  store i32 %1037, ptr %6, align 4, !dbg !2315
  br label %1019, !dbg !2316, !llvm.loop !2317

1038:                                             ; preds = %1019
  %1039 = load i32, ptr @_ZL6g_3007, align 4, !dbg !2319
  %1040 = sext i32 %1039 to i64, !dbg !2319
  %1041 = load i32, ptr %9, align 4, !dbg !2320
  call void @_ZL15transparent_crcmPci(i64 noundef %1040, ptr noundef @.str.128, i32 noundef %1041), !dbg !2321
  %1042 = load volatile i32, ptr @_ZL6g_3016, align 4, !dbg !2322
  %1043 = sext i32 %1042 to i64, !dbg !2322
  %1044 = load i32, ptr %9, align 4, !dbg !2323
  call void @_ZL15transparent_crcmPci(i64 noundef %1043, ptr noundef @.str.129, i32 noundef %1044), !dbg !2324
  %1045 = load volatile i32, ptr @_ZL6g_3017, align 4, !dbg !2325
  %1046 = sext i32 %1045 to i64, !dbg !2325
  %1047 = load i32, ptr %9, align 4, !dbg !2326
  call void @_ZL15transparent_crcmPci(i64 noundef %1046, ptr noundef @.str.130, i32 noundef %1047), !dbg !2327
  %1048 = load i64, ptr @_ZL6g_3122, align 8, !dbg !2328
  %1049 = load i32, ptr %9, align 4, !dbg !2329
  call void @_ZL15transparent_crcmPci(i64 noundef %1048, ptr noundef @.str.131, i32 noundef %1049), !dbg !2330
  %1050 = load i8, ptr @_ZL6g_3240, align 1, !dbg !2331
  %1051 = sext i8 %1050 to i64, !dbg !2331
  %1052 = load i32, ptr %9, align 4, !dbg !2332
  call void @_ZL15transparent_crcmPci(i64 noundef %1051, ptr noundef @.str.132, i32 noundef %1052), !dbg !2333
  %1053 = load i32, ptr @_ZL13crc32_context, align 4, !dbg !2334
  %1054 = zext i32 %1053 to i64, !dbg !2334
  %1055 = xor i64 %1054, 4294967295, !dbg !2335
  %1056 = trunc i64 %1055 to i32, !dbg !2334
  %1057 = load i32, ptr %9, align 4, !dbg !2336
  call void @_ZL17platform_main_endji(i32 noundef %1056, i32 noundef %1057), !dbg !2337
  ret i32 0, !dbg !2338
}

; Function Attrs: nocallback nofree nosync nounwind speculatable willreturn memory(none)
declare void @llvm.dbg.declare(metadata, metadata, metadata) #1

; Function Attrs: nounwind willreturn memory(read)
declare i32 @strcmp(ptr noundef, ptr noundef) #2

; Function Attrs: mustprogress noinline nounwind optnone sspstrong uwtable
define internal void @_ZL19platform_main_beginv() #3 !dbg !2339 {
  ret void, !dbg !2342
}

; Function Attrs: mustprogress noinline nounwind optnone sspstrong uwtable
define internal void @_ZL12crc32_gentabv() #3 !dbg !2343 {
  %1 = alloca i32, align 4
  %2 = alloca i32, align 4
  %3 = alloca i32, align 4
  %4 = alloca i32, align 4
  call void @llvm.dbg.declare(metadata ptr %1, metadata !2344, metadata !DIExpression()), !dbg !2345
  call void @llvm.dbg.declare(metadata ptr %2, metadata !2346, metadata !DIExpression()), !dbg !2348
  store i32 -306674912, ptr %2, align 4, !dbg !2348
  call void @llvm.dbg.declare(metadata ptr %3, metadata !2349, metadata !DIExpression()), !dbg !2350
  call void @llvm.dbg.declare(metadata ptr %4, metadata !2351, metadata !DIExpression()), !dbg !2352
  store i32 0, ptr %3, align 4, !dbg !2353
  br label %5, !dbg !2355

5:                                                ; preds = %33, %0
  %6 = load i32, ptr %3, align 4, !dbg !2356
  %7 = icmp slt i32 %6, 256, !dbg !2358
  br i1 %7, label %8, label %36, !dbg !2359

8:                                                ; preds = %5
  %9 = load i32, ptr %3, align 4, !dbg !2360
  store i32 %9, ptr %1, align 4, !dbg !2362
  store i32 8, ptr %4, align 4, !dbg !2363
  br label %10, !dbg !2365

10:                                               ; preds = %25, %8
  %11 = load i32, ptr %4, align 4, !dbg !2366
  %12 = icmp sgt i32 %11, 0, !dbg !2368
  br i1 %12, label %13, label %28, !dbg !2369

13:                                               ; preds = %10
  %14 = load i32, ptr %1, align 4, !dbg !2370
  %15 = and i32 %14, 1, !dbg !2373
  %16 = icmp ne i32 %15, 0, !dbg !2370
  br i1 %16, label %17, label %21, !dbg !2374

17:                                               ; preds = %13
  %18 = load i32, ptr %1, align 4, !dbg !2375
  %19 = lshr i32 %18, 1, !dbg !2377
  %20 = xor i32 %19, -306674912, !dbg !2378
  store i32 %20, ptr %1, align 4, !dbg !2379
  br label %24, !dbg !2380

21:                                               ; preds = %13
  %22 = load i32, ptr %1, align 4, !dbg !2381
  %23 = lshr i32 %22, 1, !dbg !2381
  store i32 %23, ptr %1, align 4, !dbg !2381
  br label %24

24:                                               ; preds = %21, %17
  br label %25, !dbg !2383

25:                                               ; preds = %24
  %26 = load i32, ptr %4, align 4, !dbg !2384
  %27 = add nsw i32 %26, -1, !dbg !2384
  store i32 %27, ptr %4, align 4, !dbg !2384
  br label %10, !dbg !2385, !llvm.loop !2386

28:                                               ; preds = %10
  %29 = load i32, ptr %1, align 4, !dbg !2388
  %30 = load i32, ptr %3, align 4, !dbg !2389
  %31 = sext i32 %30 to i64, !dbg !2390
  %32 = getelementptr inbounds [256 x i32], ptr @_ZL9crc32_tab, i64 0, i64 %31, !dbg !2390
  store i32 %29, ptr %32, align 4, !dbg !2391
  br label %33, !dbg !2392

33:                                               ; preds = %28
  %34 = load i32, ptr %3, align 4, !dbg !2393
  %35 = add nsw i32 %34, 1, !dbg !2393
  store i32 %35, ptr %3, align 4, !dbg !2393
  br label %5, !dbg !2394, !llvm.loop !2395

36:                                               ; preds = %5
  ret void, !dbg !2397
}

; Function Attrs: mustprogress noinline nounwind optnone sspstrong uwtable
define internal noundef i32 @_ZL6func_1v() #3 !dbg !2398 {
  %1 = alloca [6 x [1 x i8]], align 1
  %2 = alloca %union.U0, align 4
  %3 = alloca i32, align 4
  %4 = alloca i64, align 8
  %5 = alloca ptr, align 8
  %6 = alloca ptr, align 8
  %7 = alloca ptr, align 8
  %8 = alloca i32, align 4
  %9 = alloca [2 x [3 x i32]], align 16
  %10 = alloca i8, align 1
  %11 = alloca i64, align 8
  %12 = alloca i64, align 8
  %13 = alloca ptr, align 8
  %14 = alloca ptr, align 8
  %15 = alloca i32, align 4
  %16 = alloca i32, align 4
  %17 = alloca i32, align 4
  %18 = alloca i32, align 4
  %19 = alloca i32, align 4
  %20 = alloca ptr, align 8
  %21 = alloca [5 x i32], align 16
  %22 = alloca ptr, align 8
  %23 = alloca i8, align 1
  %24 = alloca %union.U0, align 4
  %25 = alloca i16, align 2
  %26 = alloca ptr, align 8
  %27 = alloca i32, align 4
  call void @llvm.dbg.declare(metadata ptr %1, metadata !2401, metadata !DIExpression()), !dbg !2404
  call void @llvm.memcpy.p0.p0.i64(ptr align 1 %1, ptr align 1 @__const._ZL6func_1v.l_5, i64 6, i1 false), !dbg !2404
  call void @llvm.dbg.declare(metadata ptr %2, metadata !2405, metadata !DIExpression()), !dbg !2406
  call void @llvm.memcpy.p0.p0.i64(ptr align 4 %2, ptr align 4 @__const._ZL6func_1v.l_3029, i64 4, i1 false), !dbg !2406
  call void @llvm.dbg.declare(metadata ptr %3, metadata !2407, metadata !DIExpression()), !dbg !2408
  store i32 -1, ptr %3, align 4, !dbg !2408
  call void @llvm.dbg.declare(metadata ptr %4, metadata !2409, metadata !DIExpression()), !dbg !2410
  store i64 -3, ptr %4, align 8, !dbg !2410
  call void @llvm.dbg.declare(metadata ptr %5, metadata !2411, metadata !DIExpression()), !dbg !2413
  store ptr null, ptr %5, align 8, !dbg !2413
  call void @llvm.dbg.declare(metadata ptr %6, metadata !2414, metadata !DIExpression()), !dbg !2415
  store ptr @_ZL6g_1016, ptr %6, align 8, !dbg !2415
  call void @llvm.dbg.declare(metadata ptr %7, metadata !2416, metadata !DIExpression()), !dbg !2418
  store ptr %6, ptr %7, align 8, !dbg !2418
  call void @llvm.dbg.declare(metadata ptr %8, metadata !2419, metadata !DIExpression()), !dbg !2420
  store i32 -233382563, ptr %8, align 4, !dbg !2420
  call void @llvm.dbg.declare(metadata ptr %9, metadata !2421, metadata !DIExpression()), !dbg !2424
  call void @llvm.memcpy.p0.p0.i64(ptr align 16 %9, ptr align 16 @__const._ZL6func_1v.l_3096, i64 24, i1 false), !dbg !2424
  call void @llvm.dbg.declare(metadata ptr %10, metadata !2425, metadata !DIExpression()), !dbg !2426
  store i8 -17, ptr %10, align 1, !dbg !2426
  call void @llvm.dbg.declare(metadata ptr %11, metadata !2427, metadata !DIExpression()), !dbg !2428
  store i64 -5314407126303550404, ptr %11, align 8, !dbg !2428
  call void @llvm.dbg.declare(metadata ptr %12, metadata !2429, metadata !DIExpression()), !dbg !2430
  store i64 4, ptr %12, align 8, !dbg !2430
  call void @llvm.dbg.declare(metadata ptr %13, metadata !2431, metadata !DIExpression()), !dbg !2432
  store ptr null, ptr %13, align 8, !dbg !2432
  call void @llvm.dbg.declare(metadata ptr %14, metadata !2433, metadata !DIExpression()), !dbg !2437
  store ptr null, ptr %14, align 8, !dbg !2437
  call void @llvm.dbg.declare(metadata ptr %15, metadata !2438, metadata !DIExpression()), !dbg !2439
  store i32 0, ptr %15, align 4, !dbg !2439
  call void @llvm.dbg.declare(metadata ptr %16, metadata !2440, metadata !DIExpression()), !dbg !2441
  call void @llvm.dbg.declare(metadata ptr %17, metadata !2442, metadata !DIExpression()), !dbg !2443
  %28 = getelementptr inbounds [6 x [1 x i8]], ptr %1, i64 0, i64 2, !dbg !2444
  %29 = getelementptr inbounds [1 x i8], ptr %28, i64 0, i64 0, !dbg !2444
  %30 = load i8, ptr %29, align 1, !dbg !2444
  %31 = sext i8 %30 to i16, !dbg !2444
  %32 = load volatile i8, ptr @_ZL3g_6, align 1, !dbg !2445
  %33 = icmp ne i8 %32, 0, !dbg !2445
  br i1 %33, label %34, label %42, !dbg !2446

34:                                               ; preds = %0
  %35 = getelementptr inbounds [6 x [1 x i8]], ptr %1, i64 0, i64 2, !dbg !2447
  %36 = getelementptr inbounds [1 x i8], ptr %35, i64 0, i64 0, !dbg !2447
  %37 = getelementptr inbounds [6 x [1 x i8]], ptr %1, i64 0, i64 2, !dbg !2448
  %38 = getelementptr inbounds [1 x i8], ptr %37, i64 0, i64 0, !dbg !2448
  %39 = load i8, ptr %38, align 1, !dbg !2448
  %40 = sext i8 %39 to i64, !dbg !2448
  %41 = icmp ugt i64 253, %40, !dbg !2449
  br label %42

42:                                               ; preds = %34, %0
  %43 = phi i1 [ false, %0 ], [ %41, %34 ], !dbg !2450
  %44 = zext i1 %43 to i32, !dbg !2451
  %45 = call noundef i32 @_ZL6func_2sj(i16 noundef signext %31, i32 noundef %44), !dbg !2452
  store i32 %45, ptr @_ZL6g_1328, align 4, !dbg !2453
  store i8 -10, ptr @_ZL6g_1180, align 1, !dbg !2454
  br label %46, !dbg !2456

46:                                               ; preds = %134, %42
  %47 = load i8, ptr @_ZL6g_1180, align 1, !dbg !2457
  %48 = zext i8 %47 to i32, !dbg !2457
  %49 = icmp ne i32 %48, 5, !dbg !2459
  br i1 %49, label %50, label %137, !dbg !2460

50:                                               ; preds = %46
  call void @llvm.dbg.declare(metadata ptr %18, metadata !2461, metadata !DIExpression()), !dbg !2463
  store i32 1915129117, ptr %18, align 4, !dbg !2463
  call void @llvm.dbg.declare(metadata ptr %19, metadata !2464, metadata !DIExpression()), !dbg !2465
  store i32 -718285095, ptr %19, align 4, !dbg !2465
  call void @llvm.dbg.declare(metadata ptr %20, metadata !2466, metadata !DIExpression()), !dbg !2468
  store ptr @_ZL5g_111, ptr %20, align 8, !dbg !2468
  call void @llvm.dbg.declare(metadata ptr %21, metadata !2469, metadata !DIExpression()), !dbg !2471
  call void @llvm.dbg.declare(metadata ptr %22, metadata !2472, metadata !DIExpression()), !dbg !2474
  store ptr @_ZL5g_304, ptr %22, align 8, !dbg !2474
  call void @llvm.dbg.declare(metadata ptr %23, metadata !2475, metadata !DIExpression()), !dbg !2476
  store i8 0, ptr %23, align 1, !dbg !2476
  call void @llvm.dbg.declare(metadata ptr %24, metadata !2477, metadata !DIExpression()), !dbg !2478
  call void @llvm.memcpy.p0.p0.i64(ptr align 4 %24, ptr align 4 @__const._ZL6func_1v.l_3173, i64 4, i1 false), !dbg !2478
  call void @llvm.dbg.declare(metadata ptr %25, metadata !2479, metadata !DIExpression()), !dbg !2480
  store i16 -15416, ptr %25, align 2, !dbg !2480
  call void @llvm.dbg.declare(metadata ptr %26, metadata !2481, metadata !DIExpression()), !dbg !2482
  store ptr @_ZL5g_477, ptr %26, align 8, !dbg !2482
  call void @llvm.dbg.declare(metadata ptr %27, metadata !2483, metadata !DIExpression()), !dbg !2484
  store i32 0, ptr %27, align 4, !dbg !2485
  br label %51, !dbg !2487

51:                                               ; preds = %58, %50
  %52 = load i32, ptr %27, align 4, !dbg !2488
  %53 = icmp slt i32 %52, 5, !dbg !2490
  br i1 %53, label %54, label %61, !dbg !2491

54:                                               ; preds = %51
  %55 = load i32, ptr %27, align 4, !dbg !2492
  %56 = sext i32 %55 to i64, !dbg !2493
  %57 = getelementptr inbounds [5 x i32], ptr %21, i64 0, i64 %56, !dbg !2493
  store i32 -10, ptr %57, align 4, !dbg !2494
  br label %58, !dbg !2493

58:                                               ; preds = %54
  %59 = load i32, ptr %27, align 4, !dbg !2495
  %60 = add nsw i32 %59, 1, !dbg !2495
  store i32 %60, ptr %27, align 4, !dbg !2495
  br label %51, !dbg !2496, !llvm.loop !2497

61:                                               ; preds = %51
  %62 = load i32, ptr %18, align 4, !dbg !2499
  %63 = getelementptr inbounds [6 x [1 x i8]], ptr %1, i64 0, i64 1, !dbg !2500
  %64 = getelementptr inbounds [1 x i8], ptr %63, i64 0, i64 0, !dbg !2500
  %65 = load i8, ptr %64, align 1, !dbg !2500
  %66 = sext i8 %65 to i32, !dbg !2500
  %67 = getelementptr inbounds [6 x [1 x i8]], ptr %1, i64 0, i64 2, !dbg !2501
  %68 = getelementptr inbounds [1 x i8], ptr %67, i64 0, i64 0, !dbg !2501
  %69 = load i8, ptr %68, align 1, !dbg !2501
  %70 = sext i8 %69 to i32, !dbg !2501
  %71 = call noundef i32 @_ZL26safe_add_func_uint32_t_u_ujj(i32 noundef %66, i32 noundef %70), !dbg !2502
  %72 = load volatile ptr, ptr @_ZL6g_2366, align 8, !dbg !2503
  %73 = load volatile ptr, ptr %72, align 8, !dbg !2504
  store i32 1991834062, ptr %73, align 4, !dbg !2505
  %74 = getelementptr inbounds [6 x [1 x i8]], ptr %1, i64 0, i64 2, !dbg !2506
  %75 = getelementptr inbounds [1 x i8], ptr %74, i64 0, i64 0, !dbg !2506
  %76 = load i16, ptr @_ZL5g_535, align 2, !dbg !2507
  %77 = add i16 %76, -1, !dbg !2507
  store i16 %77, ptr @_ZL5g_535, align 2, !dbg !2507
  %78 = zext i16 %76 to i32, !dbg !2508
  %79 = load ptr, ptr %20, align 8, !dbg !2509
  %80 = load i16, ptr %79, align 2, !dbg !2510
  %81 = zext i16 %80 to i32, !dbg !2510
  %82 = or i32 %81, %78, !dbg !2510
  %83 = trunc i32 %82 to i16, !dbg !2510
  store i16 %83, ptr %79, align 2, !dbg !2510
  %84 = icmp ne i16 %83, 0, !dbg !2511
  br i1 %84, label %85, label %90, !dbg !2512

85:                                               ; preds = %61
  %86 = load i32, ptr %18, align 4, !dbg !2513
  %87 = trunc i32 %86 to i16, !dbg !2513
  %88 = call noundef signext i16 @_ZL25safe_sub_func_int16_t_s_sss(i16 noundef signext -9755, i16 noundef signext %87), !dbg !2514
  %89 = icmp ne i16 %88, 0, !dbg !2515
  br label %90

90:                                               ; preds = %85, %61
  %91 = phi i1 [ false, %61 ], [ %89, %85 ], !dbg !2516
  %92 = zext i1 %91 to i64, !dbg !2517
  %93 = and i64 %92, 60, !dbg !2518
  %94 = trunc i64 %93 to i32, !dbg !2519
  %95 = load ptr, ptr @_ZL6g_1842, align 8, !dbg !2520
  store i32 %94, ptr %95, align 4, !dbg !2521
  %96 = load i32, ptr %18, align 4, !dbg !2522
  %97 = icmp eq i32 %94, %96, !dbg !2523
  %98 = zext i1 %97 to i32, !dbg !2524
  %99 = load i32, ptr @_ZL6g_1328, align 4, !dbg !2525
  %100 = call noundef i32 @_ZL28safe_lshift_func_int32_t_s_sii(i32 noundef %98, i32 noundef %99), !dbg !2526
  %101 = load i32, ptr %3, align 4, !dbg !2527
  %102 = getelementptr inbounds [5 x i32], ptr %21, i64 0, i64 2, !dbg !2528
  store i32 %101, ptr %102, align 8, !dbg !2529
  %103 = sext i32 %101 to i64, !dbg !2530
  %104 = load i32, ptr @_ZL6g_2390, align 4, !dbg !2531
  %105 = zext i32 %104 to i64, !dbg !2532
  %106 = call noundef i64 @_ZL25safe_mod_func_int64_t_s_sll(i64 noundef %103, i64 noundef %105), !dbg !2533
  %107 = trunc i64 %106 to i8, !dbg !2534
  %108 = load i64, ptr @_ZL5g_225, align 16, !dbg !2535
  %109 = trunc i64 %108 to i8, !dbg !2535
  %110 = call noundef signext i8 @_ZL24safe_mul_func_int8_t_s_saa(i8 noundef signext %107, i8 noundef signext %109), !dbg !2536
  %111 = sext i8 %110 to i16, !dbg !2537
  %112 = call noundef zeroext i16 @_ZL26safe_mul_func_uint16_t_u_utt(i16 noundef zeroext %111, i16 noundef zeroext -21373), !dbg !2538
  %113 = trunc i16 %112 to i8, !dbg !2539
  %114 = load i32, ptr %19, align 4, !dbg !2540
  %115 = trunc i32 %114 to i8, !dbg !2540
  %116 = call noundef signext i8 @_ZL24safe_mul_func_int8_t_s_saa(i8 noundef signext %113, i8 noundef signext %115), !dbg !2541
  %117 = sext i8 %116 to i64, !dbg !2542
  %118 = load i64, ptr %4, align 8, !dbg !2543
  %119 = and i64 %117, %118, !dbg !2544
  %120 = and i64 1991834062, %119, !dbg !2545
  %121 = icmp eq i64 %120, 1, !dbg !2546
  %122 = zext i1 %121 to i32, !dbg !2547
  %123 = icmp eq i32 %71, %122, !dbg !2548
  %124 = getelementptr inbounds [6 x [1 x i8]], ptr %1, i64 0, i64 2, !dbg !2549
  %125 = getelementptr inbounds [1 x i8], ptr %124, i64 0, i64 0, !dbg !2549
  %126 = load i8, ptr %125, align 1, !dbg !2549
  %127 = sext i8 %126 to i32, !dbg !2550
  %128 = call noundef i32 @_ZL25safe_add_func_int32_t_s_sii(i32 noundef %127, i32 noundef 1), !dbg !2551
  %129 = getelementptr inbounds [5 x i32], ptr %21, i64 0, i64 2, !dbg !2552
  %130 = load i32, ptr %129, align 8, !dbg !2552
  %131 = icmp sgt i32 %62, %130, !dbg !2553
  %132 = zext i1 %131 to i32, !dbg !2554
  %133 = load ptr, ptr @_ZL6g_1016, align 8, !dbg !2555
  store i32 %132, ptr %133, align 4, !dbg !2556
  br label %134, !dbg !2557

134:                                              ; preds = %90
  %135 = load i8, ptr @_ZL6g_1180, align 1, !dbg !2558
  %136 = add i8 %135, 1, !dbg !2558
  store i8 %136, ptr @_ZL6g_1180, align 1, !dbg !2558
  br label %46, !dbg !2559, !llvm.loop !2560

137:                                              ; preds = %46
  %138 = load ptr, ptr %6, align 8, !dbg !2562
  %139 = load ptr, ptr %138, align 8, !dbg !2563
  %140 = load i32, ptr %139, align 4, !dbg !2564
  ret i32 %140, !dbg !2565
}

; Function Attrs: mustprogress noinline nounwind optnone sspstrong uwtable
define internal void @_ZL15transparent_crcmPci(i64 noundef %0, ptr noundef %1, i32 noundef %2) #3 !dbg !2566 {
  %4 = alloca i64, align 8
  %5 = alloca ptr, align 8
  %6 = alloca i32, align 4
  store i64 %0, ptr %4, align 8
  call void @llvm.dbg.declare(metadata ptr %4, metadata !2569, metadata !DIExpression()), !dbg !2570
  store ptr %1, ptr %5, align 8
  call void @llvm.dbg.declare(metadata ptr %5, metadata !2571, metadata !DIExpression()), !dbg !2572
  store i32 %2, ptr %6, align 4
  call void @llvm.dbg.declare(metadata ptr %6, metadata !2573, metadata !DIExpression()), !dbg !2574
  %7 = load i64, ptr %4, align 8, !dbg !2575
  call void @_ZL12crc32_8bytesm(i64 noundef %7), !dbg !2576
  %8 = load i32, ptr %6, align 4, !dbg !2577
  %9 = icmp ne i32 %8, 0, !dbg !2577
  br i1 %9, label %10, label %16, !dbg !2579

10:                                               ; preds = %3
  %11 = load ptr, ptr %5, align 8, !dbg !2580
  %12 = load i32, ptr @_ZL13crc32_context, align 4, !dbg !2582
  %13 = zext i32 %12 to i64, !dbg !2582
  %14 = xor i64 %13, 4294967295, !dbg !2583
  %15 = call i32 (ptr, ...) @printf(ptr noundef @.str.133, ptr noundef %11, i64 noundef %14), !dbg !2584
  br label %16, !dbg !2585

16:                                               ; preds = %10, %3
  ret void, !dbg !2586
}

declare i32 @printf(ptr noundef, ...) #4

; Function Attrs: mustprogress noinline nounwind optnone sspstrong uwtable
define internal void @_ZL17platform_main_endji(i32 noundef %0, i32 noundef %1) #3 !dbg !2587 {
  %3 = alloca i32, align 4
  %4 = alloca i32, align 4
  store i32 %0, ptr %3, align 4
  call void @llvm.dbg.declare(metadata ptr %3, metadata !2590, metadata !DIExpression()), !dbg !2591
  store i32 %1, ptr %4, align 4
  call void @llvm.dbg.declare(metadata ptr %4, metadata !2592, metadata !DIExpression()), !dbg !2593
  %5 = load i32, ptr %3, align 4, !dbg !2594
  %6 = call i32 (ptr, ...) @printf(ptr noundef @.str.134, i32 noundef %5), !dbg !2595
  ret void, !dbg !2596
}

; Function Attrs: nocallback nofree nounwind willreturn memory(argmem: readwrite)
declare void @llvm.memcpy.p0.p0.i64(ptr noalias nocapture writeonly, ptr noalias nocapture readonly, i64, i1 immarg) #5

; Function Attrs: mustprogress noinline nounwind optnone sspstrong uwtable
define internal noundef i32 @_ZL6func_2sj(i16 noundef signext %0, i32 noundef %1) #3 !dbg !2597 {
  %3 = alloca i16, align 2
  %4 = alloca i32, align 4
  %5 = alloca ptr, align 8
  %6 = alloca [1 x [3 x ptr]], align 16
  %7 = alloca i8, align 1
  %8 = alloca i64, align 8
  %9 = alloca ptr, align 8
  %10 = alloca ptr, align 8
  %11 = alloca ptr, align 8
  %12 = alloca [5 x [4 x [5 x ptr]]], align 16
  %13 = alloca ptr, align 8
  %14 = alloca ptr, align 8
  %15 = alloca ptr, align 8
  %16 = alloca [9 x [9 x [3 x ptr]]], align 16
  %17 = alloca ptr, align 8
  %18 = alloca ptr, align 8
  %19 = alloca ptr, align 8
  %20 = alloca i8, align 1
  %21 = alloca ptr, align 8
  %22 = alloca ptr, align 8
  %23 = alloca i16, align 2
  %24 = alloca ptr, align 8
  %25 = alloca %union.U0, align 4
  %26 = alloca i32, align 4
  %27 = alloca ptr, align 8
  %28 = alloca ptr, align 8
  %29 = alloca ptr, align 8
  %30 = alloca [5 x i8], align 1
  %31 = alloca ptr, align 8
  %32 = alloca ptr, align 8
  %33 = alloca [8 x ptr], align 16
  %34 = alloca i8, align 1
  %35 = alloca ptr, align 8
  %36 = alloca i8, align 1
  %37 = alloca i64, align 8
  %38 = alloca ptr, align 8
  %39 = alloca ptr, align 8
  %40 = alloca ptr, align 8
  %41 = alloca [3 x [4 x [8 x i32]]], align 16
  %42 = alloca i32, align 4
  %43 = alloca i32, align 4
  %44 = alloca i32, align 4
  store i16 %0, ptr %3, align 2
  call void @llvm.dbg.declare(metadata ptr %3, metadata !2600, metadata !DIExpression()), !dbg !2601
  store i32 %1, ptr %4, align 4
  call void @llvm.dbg.declare(metadata ptr %4, metadata !2602, metadata !DIExpression()), !dbg !2603
  call void @llvm.dbg.declare(metadata ptr %5, metadata !2604, metadata !DIExpression()), !dbg !2605
  store ptr @_ZL3g_8, ptr %5, align 8, !dbg !2605
  call void @llvm.dbg.declare(metadata ptr %6, metadata !2606, metadata !DIExpression()), !dbg !2609
  call void @llvm.dbg.declare(metadata ptr %7, metadata !2610, metadata !DIExpression()), !dbg !2611
  store i8 -3, ptr %7, align 1, !dbg !2611
  call void @llvm.dbg.declare(metadata ptr %8, metadata !2612, metadata !DIExpression()), !dbg !2613
  store i64 -76875001596277661, ptr %8, align 8, !dbg !2613
  call void @llvm.dbg.declare(metadata ptr %9, metadata !2614, metadata !DIExpression()), !dbg !2616
  store ptr @_ZL6g_2237, ptr %9, align 8, !dbg !2616
  call void @llvm.dbg.declare(metadata ptr %10, metadata !2617, metadata !DIExpression()), !dbg !2618
  store ptr @_ZL5g_111, ptr %10, align 8, !dbg !2618
  call void @llvm.dbg.declare(metadata ptr %11, metadata !2619, metadata !DIExpression()), !dbg !2621
  store ptr %10, ptr %11, align 8, !dbg !2621
  call void @llvm.dbg.declare(metadata ptr %12, metadata !2622, metadata !DIExpression()), !dbg !2626
  call void @llvm.memset.p0.i64(ptr align 16 %12, i8 0, i64 800, i1 false), !dbg !2626
  call void @llvm.dbg.declare(metadata ptr %13, metadata !2627, metadata !DIExpression()), !dbg !2629
  %45 = getelementptr inbounds [5 x [4 x [5 x ptr]]], ptr %12, i64 0, i64 3, !dbg !2630
  %46 = getelementptr inbounds [4 x [5 x ptr]], ptr %45, i64 0, i64 0, !dbg !2630
  %47 = getelementptr inbounds [5 x ptr], ptr %46, i64 0, i64 1, !dbg !2630
  store ptr %47, ptr %13, align 8, !dbg !2629
  call void @llvm.dbg.declare(metadata ptr %14, metadata !2631, metadata !DIExpression()), !dbg !2633
  store ptr @_ZL5g_630, ptr %14, align 8, !dbg !2633
  call void @llvm.dbg.declare(metadata ptr %15, metadata !2634, metadata !DIExpression()), !dbg !2636
  store ptr @_ZL6g_1032, ptr %15, align 8, !dbg !2636
  call void @llvm.dbg.declare(metadata ptr %16, metadata !2637, metadata !DIExpression()), !dbg !2641
  %48 = getelementptr inbounds [9 x [9 x [3 x ptr]]], ptr %16, i64 0, i64 0, !dbg !2642
  %49 = getelementptr inbounds [9 x [3 x ptr]], ptr %48, i64 0, i64 0, !dbg !2643
  %50 = getelementptr inbounds [3 x ptr], ptr %49, i64 0, i64 0, !dbg !2644
  store ptr %15, ptr %50, align 8, !dbg !2644
  %51 = getelementptr inbounds ptr, ptr %50, i64 1, !dbg !2644
  store ptr %15, ptr %51, align 8, !dbg !2644
  %52 = getelementptr inbounds ptr, ptr %51, i64 1, !dbg !2644
  store ptr %15, ptr %52, align 8, !dbg !2644
  %53 = getelementptr inbounds [3 x ptr], ptr %49, i64 1, !dbg !2643
  %54 = getelementptr inbounds [3 x ptr], ptr %53, i64 0, i64 0, !dbg !2645
  store ptr %15, ptr %54, align 8, !dbg !2645
  %55 = getelementptr inbounds ptr, ptr %54, i64 1, !dbg !2645
  store ptr %15, ptr %55, align 8, !dbg !2645
  %56 = getelementptr inbounds ptr, ptr %55, i64 1, !dbg !2645
  store ptr %15, ptr %56, align 8, !dbg !2645
  %57 = getelementptr inbounds [3 x ptr], ptr %53, i64 1, !dbg !2643
  %58 = getelementptr inbounds [3 x ptr], ptr %57, i64 0, i64 0, !dbg !2646
  store ptr %15, ptr %58, align 8, !dbg !2646
  %59 = getelementptr inbounds ptr, ptr %58, i64 1, !dbg !2646
  store ptr %15, ptr %59, align 8, !dbg !2646
  %60 = getelementptr inbounds ptr, ptr %59, i64 1, !dbg !2646
  store ptr %15, ptr %60, align 8, !dbg !2646
  %61 = getelementptr inbounds [3 x ptr], ptr %57, i64 1, !dbg !2643
  %62 = getelementptr inbounds [3 x ptr], ptr %61, i64 0, i64 0, !dbg !2647
  store ptr %15, ptr %62, align 8, !dbg !2647
  %63 = getelementptr inbounds ptr, ptr %62, i64 1, !dbg !2647
  store ptr %15, ptr %63, align 8, !dbg !2647
  %64 = getelementptr inbounds ptr, ptr %63, i64 1, !dbg !2647
  store ptr %15, ptr %64, align 8, !dbg !2647
  %65 = getelementptr inbounds [3 x ptr], ptr %61, i64 1, !dbg !2643
  %66 = getelementptr inbounds [3 x ptr], ptr %65, i64 0, i64 0, !dbg !2648
  store ptr %15, ptr %66, align 8, !dbg !2648
  %67 = getelementptr inbounds ptr, ptr %66, i64 1, !dbg !2648
  store ptr %15, ptr %67, align 8, !dbg !2648
  %68 = getelementptr inbounds ptr, ptr %67, i64 1, !dbg !2648
  store ptr %15, ptr %68, align 8, !dbg !2648
  %69 = getelementptr inbounds [3 x ptr], ptr %65, i64 1, !dbg !2643
  %70 = getelementptr inbounds [3 x ptr], ptr %69, i64 0, i64 0, !dbg !2649
  store ptr %15, ptr %70, align 8, !dbg !2649
  %71 = getelementptr inbounds ptr, ptr %70, i64 1, !dbg !2649
  store ptr %15, ptr %71, align 8, !dbg !2649
  %72 = getelementptr inbounds ptr, ptr %71, i64 1, !dbg !2649
  store ptr %15, ptr %72, align 8, !dbg !2649
  %73 = getelementptr inbounds [3 x ptr], ptr %69, i64 1, !dbg !2643
  %74 = getelementptr inbounds [3 x ptr], ptr %73, i64 0, i64 0, !dbg !2650
  store ptr %15, ptr %74, align 8, !dbg !2650
  %75 = getelementptr inbounds ptr, ptr %74, i64 1, !dbg !2650
  store ptr %15, ptr %75, align 8, !dbg !2650
  %76 = getelementptr inbounds ptr, ptr %75, i64 1, !dbg !2650
  store ptr %15, ptr %76, align 8, !dbg !2650
  %77 = getelementptr inbounds [3 x ptr], ptr %73, i64 1, !dbg !2643
  %78 = getelementptr inbounds [3 x ptr], ptr %77, i64 0, i64 0, !dbg !2651
  store ptr %15, ptr %78, align 8, !dbg !2651
  %79 = getelementptr inbounds ptr, ptr %78, i64 1, !dbg !2651
  store ptr %15, ptr %79, align 8, !dbg !2651
  %80 = getelementptr inbounds ptr, ptr %79, i64 1, !dbg !2651
  store ptr %15, ptr %80, align 8, !dbg !2651
  %81 = getelementptr inbounds [3 x ptr], ptr %77, i64 1, !dbg !2643
  %82 = getelementptr inbounds [3 x ptr], ptr %81, i64 0, i64 0, !dbg !2652
  store ptr %15, ptr %82, align 8, !dbg !2652
  %83 = getelementptr inbounds ptr, ptr %82, i64 1, !dbg !2652
  store ptr %15, ptr %83, align 8, !dbg !2652
  %84 = getelementptr inbounds ptr, ptr %83, i64 1, !dbg !2652
  store ptr %15, ptr %84, align 8, !dbg !2652
  %85 = getelementptr inbounds [9 x [3 x ptr]], ptr %48, i64 1, !dbg !2642
  %86 = getelementptr inbounds [9 x [3 x ptr]], ptr %85, i64 0, i64 0, !dbg !2653
  %87 = getelementptr inbounds [3 x ptr], ptr %86, i64 0, i64 0, !dbg !2654
  store ptr %15, ptr %87, align 8, !dbg !2654
  %88 = getelementptr inbounds ptr, ptr %87, i64 1, !dbg !2654
  store ptr %15, ptr %88, align 8, !dbg !2654
  %89 = getelementptr inbounds ptr, ptr %88, i64 1, !dbg !2654
  store ptr %15, ptr %89, align 8, !dbg !2654
  %90 = getelementptr inbounds [3 x ptr], ptr %86, i64 1, !dbg !2653
  %91 = getelementptr inbounds [3 x ptr], ptr %90, i64 0, i64 0, !dbg !2655
  store ptr %15, ptr %91, align 8, !dbg !2655
  %92 = getelementptr inbounds ptr, ptr %91, i64 1, !dbg !2655
  store ptr %15, ptr %92, align 8, !dbg !2655
  %93 = getelementptr inbounds ptr, ptr %92, i64 1, !dbg !2655
  store ptr %15, ptr %93, align 8, !dbg !2655
  %94 = getelementptr inbounds [3 x ptr], ptr %90, i64 1, !dbg !2653
  %95 = getelementptr inbounds [3 x ptr], ptr %94, i64 0, i64 0, !dbg !2656
  store ptr %15, ptr %95, align 8, !dbg !2656
  %96 = getelementptr inbounds ptr, ptr %95, i64 1, !dbg !2656
  store ptr %15, ptr %96, align 8, !dbg !2656
  %97 = getelementptr inbounds ptr, ptr %96, i64 1, !dbg !2656
  store ptr %15, ptr %97, align 8, !dbg !2656
  %98 = getelementptr inbounds [3 x ptr], ptr %94, i64 1, !dbg !2653
  %99 = getelementptr inbounds [3 x ptr], ptr %98, i64 0, i64 0, !dbg !2657
  store ptr %15, ptr %99, align 8, !dbg !2657
  %100 = getelementptr inbounds ptr, ptr %99, i64 1, !dbg !2657
  store ptr %15, ptr %100, align 8, !dbg !2657
  %101 = getelementptr inbounds ptr, ptr %100, i64 1, !dbg !2657
  store ptr %15, ptr %101, align 8, !dbg !2657
  %102 = getelementptr inbounds [3 x ptr], ptr %98, i64 1, !dbg !2653
  %103 = getelementptr inbounds [3 x ptr], ptr %102, i64 0, i64 0, !dbg !2658
  store ptr %15, ptr %103, align 8, !dbg !2658
  %104 = getelementptr inbounds ptr, ptr %103, i64 1, !dbg !2658
  store ptr %15, ptr %104, align 8, !dbg !2658
  %105 = getelementptr inbounds ptr, ptr %104, i64 1, !dbg !2658
  store ptr %15, ptr %105, align 8, !dbg !2658
  %106 = getelementptr inbounds [3 x ptr], ptr %102, i64 1, !dbg !2653
  %107 = getelementptr inbounds [3 x ptr], ptr %106, i64 0, i64 0, !dbg !2659
  store ptr %15, ptr %107, align 8, !dbg !2659
  %108 = getelementptr inbounds ptr, ptr %107, i64 1, !dbg !2659
  store ptr %15, ptr %108, align 8, !dbg !2659
  %109 = getelementptr inbounds ptr, ptr %108, i64 1, !dbg !2659
  store ptr %15, ptr %109, align 8, !dbg !2659
  %110 = getelementptr inbounds [3 x ptr], ptr %106, i64 1, !dbg !2653
  %111 = getelementptr inbounds [3 x ptr], ptr %110, i64 0, i64 0, !dbg !2660
  store ptr %15, ptr %111, align 8, !dbg !2660
  %112 = getelementptr inbounds ptr, ptr %111, i64 1, !dbg !2660
  store ptr %15, ptr %112, align 8, !dbg !2660
  %113 = getelementptr inbounds ptr, ptr %112, i64 1, !dbg !2660
  store ptr %15, ptr %113, align 8, !dbg !2660
  %114 = getelementptr inbounds [3 x ptr], ptr %110, i64 1, !dbg !2653
  %115 = getelementptr inbounds [3 x ptr], ptr %114, i64 0, i64 0, !dbg !2661
  store ptr %15, ptr %115, align 8, !dbg !2661
  %116 = getelementptr inbounds ptr, ptr %115, i64 1, !dbg !2661
  store ptr %15, ptr %116, align 8, !dbg !2661
  %117 = getelementptr inbounds ptr, ptr %116, i64 1, !dbg !2661
  store ptr %15, ptr %117, align 8, !dbg !2661
  %118 = getelementptr inbounds [3 x ptr], ptr %114, i64 1, !dbg !2653
  %119 = getelementptr inbounds [3 x ptr], ptr %118, i64 0, i64 0, !dbg !2662
  store ptr %15, ptr %119, align 8, !dbg !2662
  %120 = getelementptr inbounds ptr, ptr %119, i64 1, !dbg !2662
  store ptr %15, ptr %120, align 8, !dbg !2662
  %121 = getelementptr inbounds ptr, ptr %120, i64 1, !dbg !2662
  store ptr %15, ptr %121, align 8, !dbg !2662
  %122 = getelementptr inbounds [9 x [3 x ptr]], ptr %85, i64 1, !dbg !2642
  %123 = getelementptr inbounds [9 x [3 x ptr]], ptr %122, i64 0, i64 0, !dbg !2663
  %124 = getelementptr inbounds [3 x ptr], ptr %123, i64 0, i64 0, !dbg !2664
  store ptr %15, ptr %124, align 8, !dbg !2664
  %125 = getelementptr inbounds ptr, ptr %124, i64 1, !dbg !2664
  store ptr %15, ptr %125, align 8, !dbg !2664
  %126 = getelementptr inbounds ptr, ptr %125, i64 1, !dbg !2664
  store ptr %15, ptr %126, align 8, !dbg !2664
  %127 = getelementptr inbounds [3 x ptr], ptr %123, i64 1, !dbg !2663
  %128 = getelementptr inbounds [3 x ptr], ptr %127, i64 0, i64 0, !dbg !2665
  store ptr %15, ptr %128, align 8, !dbg !2665
  %129 = getelementptr inbounds ptr, ptr %128, i64 1, !dbg !2665
  store ptr %15, ptr %129, align 8, !dbg !2665
  %130 = getelementptr inbounds ptr, ptr %129, i64 1, !dbg !2665
  store ptr %15, ptr %130, align 8, !dbg !2665
  %131 = getelementptr inbounds [3 x ptr], ptr %127, i64 1, !dbg !2663
  %132 = getelementptr inbounds [3 x ptr], ptr %131, i64 0, i64 0, !dbg !2666
  store ptr %15, ptr %132, align 8, !dbg !2666
  %133 = getelementptr inbounds ptr, ptr %132, i64 1, !dbg !2666
  store ptr %15, ptr %133, align 8, !dbg !2666
  %134 = getelementptr inbounds ptr, ptr %133, i64 1, !dbg !2666
  store ptr %15, ptr %134, align 8, !dbg !2666
  %135 = getelementptr inbounds [3 x ptr], ptr %131, i64 1, !dbg !2663
  %136 = getelementptr inbounds [3 x ptr], ptr %135, i64 0, i64 0, !dbg !2667
  store ptr %15, ptr %136, align 8, !dbg !2667
  %137 = getelementptr inbounds ptr, ptr %136, i64 1, !dbg !2667
  store ptr %15, ptr %137, align 8, !dbg !2667
  %138 = getelementptr inbounds ptr, ptr %137, i64 1, !dbg !2667
  store ptr %15, ptr %138, align 8, !dbg !2667
  %139 = getelementptr inbounds [3 x ptr], ptr %135, i64 1, !dbg !2663
  %140 = getelementptr inbounds [3 x ptr], ptr %139, i64 0, i64 0, !dbg !2668
  store ptr %15, ptr %140, align 8, !dbg !2668
  %141 = getelementptr inbounds ptr, ptr %140, i64 1, !dbg !2668
  store ptr %15, ptr %141, align 8, !dbg !2668
  %142 = getelementptr inbounds ptr, ptr %141, i64 1, !dbg !2668
  store ptr %15, ptr %142, align 8, !dbg !2668
  %143 = getelementptr inbounds [3 x ptr], ptr %139, i64 1, !dbg !2663
  %144 = getelementptr inbounds [3 x ptr], ptr %143, i64 0, i64 0, !dbg !2669
  store ptr %15, ptr %144, align 8, !dbg !2669
  %145 = getelementptr inbounds ptr, ptr %144, i64 1, !dbg !2669
  store ptr %15, ptr %145, align 8, !dbg !2669
  %146 = getelementptr inbounds ptr, ptr %145, i64 1, !dbg !2669
  store ptr %15, ptr %146, align 8, !dbg !2669
  %147 = getelementptr inbounds [3 x ptr], ptr %143, i64 1, !dbg !2663
  %148 = getelementptr inbounds [3 x ptr], ptr %147, i64 0, i64 0, !dbg !2670
  store ptr %15, ptr %148, align 8, !dbg !2670
  %149 = getelementptr inbounds ptr, ptr %148, i64 1, !dbg !2670
  store ptr %15, ptr %149, align 8, !dbg !2670
  %150 = getelementptr inbounds ptr, ptr %149, i64 1, !dbg !2670
  store ptr %15, ptr %150, align 8, !dbg !2670
  %151 = getelementptr inbounds [3 x ptr], ptr %147, i64 1, !dbg !2663
  %152 = getelementptr inbounds [3 x ptr], ptr %151, i64 0, i64 0, !dbg !2671
  store ptr %15, ptr %152, align 8, !dbg !2671
  %153 = getelementptr inbounds ptr, ptr %152, i64 1, !dbg !2671
  store ptr %15, ptr %153, align 8, !dbg !2671
  %154 = getelementptr inbounds ptr, ptr %153, i64 1, !dbg !2671
  store ptr %15, ptr %154, align 8, !dbg !2671
  %155 = getelementptr inbounds [3 x ptr], ptr %151, i64 1, !dbg !2663
  %156 = getelementptr inbounds [3 x ptr], ptr %155, i64 0, i64 0, !dbg !2672
  store ptr %15, ptr %156, align 8, !dbg !2672
  %157 = getelementptr inbounds ptr, ptr %156, i64 1, !dbg !2672
  store ptr %15, ptr %157, align 8, !dbg !2672
  %158 = getelementptr inbounds ptr, ptr %157, i64 1, !dbg !2672
  store ptr %15, ptr %158, align 8, !dbg !2672
  %159 = getelementptr inbounds [9 x [3 x ptr]], ptr %122, i64 1, !dbg !2642
  %160 = getelementptr inbounds [9 x [3 x ptr]], ptr %159, i64 0, i64 0, !dbg !2673
  %161 = getelementptr inbounds [3 x ptr], ptr %160, i64 0, i64 0, !dbg !2674
  store ptr %15, ptr %161, align 8, !dbg !2674
  %162 = getelementptr inbounds ptr, ptr %161, i64 1, !dbg !2674
  store ptr %15, ptr %162, align 8, !dbg !2674
  %163 = getelementptr inbounds ptr, ptr %162, i64 1, !dbg !2674
  store ptr %15, ptr %163, align 8, !dbg !2674
  %164 = getelementptr inbounds [3 x ptr], ptr %160, i64 1, !dbg !2673
  %165 = getelementptr inbounds [3 x ptr], ptr %164, i64 0, i64 0, !dbg !2675
  store ptr %15, ptr %165, align 8, !dbg !2675
  %166 = getelementptr inbounds ptr, ptr %165, i64 1, !dbg !2675
  store ptr %15, ptr %166, align 8, !dbg !2675
  %167 = getelementptr inbounds ptr, ptr %166, i64 1, !dbg !2675
  store ptr %15, ptr %167, align 8, !dbg !2675
  %168 = getelementptr inbounds [3 x ptr], ptr %164, i64 1, !dbg !2673
  %169 = getelementptr inbounds [3 x ptr], ptr %168, i64 0, i64 0, !dbg !2676
  store ptr %15, ptr %169, align 8, !dbg !2676
  %170 = getelementptr inbounds ptr, ptr %169, i64 1, !dbg !2676
  store ptr %15, ptr %170, align 8, !dbg !2676
  %171 = getelementptr inbounds ptr, ptr %170, i64 1, !dbg !2676
  store ptr %15, ptr %171, align 8, !dbg !2676
  %172 = getelementptr inbounds [3 x ptr], ptr %168, i64 1, !dbg !2673
  %173 = getelementptr inbounds [3 x ptr], ptr %172, i64 0, i64 0, !dbg !2677
  store ptr %15, ptr %173, align 8, !dbg !2677
  %174 = getelementptr inbounds ptr, ptr %173, i64 1, !dbg !2677
  store ptr %15, ptr %174, align 8, !dbg !2677
  %175 = getelementptr inbounds ptr, ptr %174, i64 1, !dbg !2677
  store ptr %15, ptr %175, align 8, !dbg !2677
  %176 = getelementptr inbounds [3 x ptr], ptr %172, i64 1, !dbg !2673
  %177 = getelementptr inbounds [3 x ptr], ptr %176, i64 0, i64 0, !dbg !2678
  store ptr %15, ptr %177, align 8, !dbg !2678
  %178 = getelementptr inbounds ptr, ptr %177, i64 1, !dbg !2678
  store ptr %15, ptr %178, align 8, !dbg !2678
  %179 = getelementptr inbounds ptr, ptr %178, i64 1, !dbg !2678
  store ptr %15, ptr %179, align 8, !dbg !2678
  %180 = getelementptr inbounds [3 x ptr], ptr %176, i64 1, !dbg !2673
  %181 = getelementptr inbounds [3 x ptr], ptr %180, i64 0, i64 0, !dbg !2679
  store ptr %15, ptr %181, align 8, !dbg !2679
  %182 = getelementptr inbounds ptr, ptr %181, i64 1, !dbg !2679
  store ptr %15, ptr %182, align 8, !dbg !2679
  %183 = getelementptr inbounds ptr, ptr %182, i64 1, !dbg !2679
  store ptr %15, ptr %183, align 8, !dbg !2679
  %184 = getelementptr inbounds [3 x ptr], ptr %180, i64 1, !dbg !2673
  %185 = getelementptr inbounds [3 x ptr], ptr %184, i64 0, i64 0, !dbg !2680
  store ptr %15, ptr %185, align 8, !dbg !2680
  %186 = getelementptr inbounds ptr, ptr %185, i64 1, !dbg !2680
  store ptr %15, ptr %186, align 8, !dbg !2680
  %187 = getelementptr inbounds ptr, ptr %186, i64 1, !dbg !2680
  store ptr %15, ptr %187, align 8, !dbg !2680
  %188 = getelementptr inbounds [3 x ptr], ptr %184, i64 1, !dbg !2673
  %189 = getelementptr inbounds [3 x ptr], ptr %188, i64 0, i64 0, !dbg !2681
  store ptr %15, ptr %189, align 8, !dbg !2681
  %190 = getelementptr inbounds ptr, ptr %189, i64 1, !dbg !2681
  store ptr %15, ptr %190, align 8, !dbg !2681
  %191 = getelementptr inbounds ptr, ptr %190, i64 1, !dbg !2681
  store ptr %15, ptr %191, align 8, !dbg !2681
  %192 = getelementptr inbounds [3 x ptr], ptr %188, i64 1, !dbg !2673
  %193 = getelementptr inbounds [3 x ptr], ptr %192, i64 0, i64 0, !dbg !2682
  store ptr %15, ptr %193, align 8, !dbg !2682
  %194 = getelementptr inbounds ptr, ptr %193, i64 1, !dbg !2682
  store ptr %15, ptr %194, align 8, !dbg !2682
  %195 = getelementptr inbounds ptr, ptr %194, i64 1, !dbg !2682
  store ptr %15, ptr %195, align 8, !dbg !2682
  %196 = getelementptr inbounds [9 x [3 x ptr]], ptr %159, i64 1, !dbg !2642
  %197 = getelementptr inbounds [9 x [3 x ptr]], ptr %196, i64 0, i64 0, !dbg !2683
  %198 = getelementptr inbounds [3 x ptr], ptr %197, i64 0, i64 0, !dbg !2684
  store ptr %15, ptr %198, align 8, !dbg !2684
  %199 = getelementptr inbounds ptr, ptr %198, i64 1, !dbg !2684
  store ptr %15, ptr %199, align 8, !dbg !2684
  %200 = getelementptr inbounds ptr, ptr %199, i64 1, !dbg !2684
  store ptr %15, ptr %200, align 8, !dbg !2684
  %201 = getelementptr inbounds [3 x ptr], ptr %197, i64 1, !dbg !2683
  %202 = getelementptr inbounds [3 x ptr], ptr %201, i64 0, i64 0, !dbg !2685
  store ptr %15, ptr %202, align 8, !dbg !2685
  %203 = getelementptr inbounds ptr, ptr %202, i64 1, !dbg !2685
  store ptr %15, ptr %203, align 8, !dbg !2685
  %204 = getelementptr inbounds ptr, ptr %203, i64 1, !dbg !2685
  store ptr %15, ptr %204, align 8, !dbg !2685
  %205 = getelementptr inbounds [3 x ptr], ptr %201, i64 1, !dbg !2683
  %206 = getelementptr inbounds [3 x ptr], ptr %205, i64 0, i64 0, !dbg !2686
  store ptr %15, ptr %206, align 8, !dbg !2686
  %207 = getelementptr inbounds ptr, ptr %206, i64 1, !dbg !2686
  store ptr %15, ptr %207, align 8, !dbg !2686
  %208 = getelementptr inbounds ptr, ptr %207, i64 1, !dbg !2686
  store ptr %15, ptr %208, align 8, !dbg !2686
  %209 = getelementptr inbounds [3 x ptr], ptr %205, i64 1, !dbg !2683
  %210 = getelementptr inbounds [3 x ptr], ptr %209, i64 0, i64 0, !dbg !2687
  store ptr %15, ptr %210, align 8, !dbg !2687
  %211 = getelementptr inbounds ptr, ptr %210, i64 1, !dbg !2687
  store ptr %15, ptr %211, align 8, !dbg !2687
  %212 = getelementptr inbounds ptr, ptr %211, i64 1, !dbg !2687
  store ptr %15, ptr %212, align 8, !dbg !2687
  %213 = getelementptr inbounds [3 x ptr], ptr %209, i64 1, !dbg !2683
  %214 = getelementptr inbounds [3 x ptr], ptr %213, i64 0, i64 0, !dbg !2688
  store ptr %15, ptr %214, align 8, !dbg !2688
  %215 = getelementptr inbounds ptr, ptr %214, i64 1, !dbg !2688
  store ptr %15, ptr %215, align 8, !dbg !2688
  %216 = getelementptr inbounds ptr, ptr %215, i64 1, !dbg !2688
  store ptr %15, ptr %216, align 8, !dbg !2688
  %217 = getelementptr inbounds [3 x ptr], ptr %213, i64 1, !dbg !2683
  %218 = getelementptr inbounds [3 x ptr], ptr %217, i64 0, i64 0, !dbg !2689
  store ptr %15, ptr %218, align 8, !dbg !2689
  %219 = getelementptr inbounds ptr, ptr %218, i64 1, !dbg !2689
  store ptr %15, ptr %219, align 8, !dbg !2689
  %220 = getelementptr inbounds ptr, ptr %219, i64 1, !dbg !2689
  store ptr %15, ptr %220, align 8, !dbg !2689
  %221 = getelementptr inbounds [3 x ptr], ptr %217, i64 1, !dbg !2683
  %222 = getelementptr inbounds [3 x ptr], ptr %221, i64 0, i64 0, !dbg !2690
  store ptr %15, ptr %222, align 8, !dbg !2690
  %223 = getelementptr inbounds ptr, ptr %222, i64 1, !dbg !2690
  store ptr %15, ptr %223, align 8, !dbg !2690
  %224 = getelementptr inbounds ptr, ptr %223, i64 1, !dbg !2690
  store ptr %15, ptr %224, align 8, !dbg !2690
  %225 = getelementptr inbounds [3 x ptr], ptr %221, i64 1, !dbg !2683
  %226 = getelementptr inbounds [3 x ptr], ptr %225, i64 0, i64 0, !dbg !2691
  store ptr %15, ptr %226, align 8, !dbg !2691
  %227 = getelementptr inbounds ptr, ptr %226, i64 1, !dbg !2691
  store ptr %15, ptr %227, align 8, !dbg !2691
  %228 = getelementptr inbounds ptr, ptr %227, i64 1, !dbg !2691
  store ptr %15, ptr %228, align 8, !dbg !2691
  %229 = getelementptr inbounds [3 x ptr], ptr %225, i64 1, !dbg !2683
  %230 = getelementptr inbounds [3 x ptr], ptr %229, i64 0, i64 0, !dbg !2692
  store ptr %15, ptr %230, align 8, !dbg !2692
  %231 = getelementptr inbounds ptr, ptr %230, i64 1, !dbg !2692
  store ptr %15, ptr %231, align 8, !dbg !2692
  %232 = getelementptr inbounds ptr, ptr %231, i64 1, !dbg !2692
  store ptr %15, ptr %232, align 8, !dbg !2692
  %233 = getelementptr inbounds [9 x [3 x ptr]], ptr %196, i64 1, !dbg !2642
  %234 = getelementptr inbounds [9 x [3 x ptr]], ptr %233, i64 0, i64 0, !dbg !2693
  %235 = getelementptr inbounds [3 x ptr], ptr %234, i64 0, i64 0, !dbg !2694
  store ptr %15, ptr %235, align 8, !dbg !2694
  %236 = getelementptr inbounds ptr, ptr %235, i64 1, !dbg !2694
  store ptr %15, ptr %236, align 8, !dbg !2694
  %237 = getelementptr inbounds ptr, ptr %236, i64 1, !dbg !2694
  store ptr %15, ptr %237, align 8, !dbg !2694
  %238 = getelementptr inbounds [3 x ptr], ptr %234, i64 1, !dbg !2693
  %239 = getelementptr inbounds [3 x ptr], ptr %238, i64 0, i64 0, !dbg !2695
  store ptr %15, ptr %239, align 8, !dbg !2695
  %240 = getelementptr inbounds ptr, ptr %239, i64 1, !dbg !2695
  store ptr %15, ptr %240, align 8, !dbg !2695
  %241 = getelementptr inbounds ptr, ptr %240, i64 1, !dbg !2695
  store ptr %15, ptr %241, align 8, !dbg !2695
  %242 = getelementptr inbounds [3 x ptr], ptr %238, i64 1, !dbg !2693
  %243 = getelementptr inbounds [3 x ptr], ptr %242, i64 0, i64 0, !dbg !2696
  store ptr %15, ptr %243, align 8, !dbg !2696
  %244 = getelementptr inbounds ptr, ptr %243, i64 1, !dbg !2696
  store ptr %15, ptr %244, align 8, !dbg !2696
  %245 = getelementptr inbounds ptr, ptr %244, i64 1, !dbg !2696
  store ptr %15, ptr %245, align 8, !dbg !2696
  %246 = getelementptr inbounds [3 x ptr], ptr %242, i64 1, !dbg !2693
  %247 = getelementptr inbounds [3 x ptr], ptr %246, i64 0, i64 0, !dbg !2697
  store ptr %15, ptr %247, align 8, !dbg !2697
  %248 = getelementptr inbounds ptr, ptr %247, i64 1, !dbg !2697
  store ptr %15, ptr %248, align 8, !dbg !2697
  %249 = getelementptr inbounds ptr, ptr %248, i64 1, !dbg !2697
  store ptr %15, ptr %249, align 8, !dbg !2697
  %250 = getelementptr inbounds [3 x ptr], ptr %246, i64 1, !dbg !2693
  %251 = getelementptr inbounds [3 x ptr], ptr %250, i64 0, i64 0, !dbg !2698
  store ptr %15, ptr %251, align 8, !dbg !2698
  %252 = getelementptr inbounds ptr, ptr %251, i64 1, !dbg !2698
  store ptr %15, ptr %252, align 8, !dbg !2698
  %253 = getelementptr inbounds ptr, ptr %252, i64 1, !dbg !2698
  store ptr %15, ptr %253, align 8, !dbg !2698
  %254 = getelementptr inbounds [3 x ptr], ptr %250, i64 1, !dbg !2693
  %255 = getelementptr inbounds [3 x ptr], ptr %254, i64 0, i64 0, !dbg !2699
  store ptr %15, ptr %255, align 8, !dbg !2699
  %256 = getelementptr inbounds ptr, ptr %255, i64 1, !dbg !2699
  store ptr %15, ptr %256, align 8, !dbg !2699
  %257 = getelementptr inbounds ptr, ptr %256, i64 1, !dbg !2699
  store ptr %15, ptr %257, align 8, !dbg !2699
  %258 = getelementptr inbounds [3 x ptr], ptr %254, i64 1, !dbg !2693
  %259 = getelementptr inbounds [3 x ptr], ptr %258, i64 0, i64 0, !dbg !2700
  store ptr %15, ptr %259, align 8, !dbg !2700
  %260 = getelementptr inbounds ptr, ptr %259, i64 1, !dbg !2700
  store ptr %15, ptr %260, align 8, !dbg !2700
  %261 = getelementptr inbounds ptr, ptr %260, i64 1, !dbg !2700
  store ptr %15, ptr %261, align 8, !dbg !2700
  %262 = getelementptr inbounds [3 x ptr], ptr %258, i64 1, !dbg !2693
  %263 = getelementptr inbounds [3 x ptr], ptr %262, i64 0, i64 0, !dbg !2701
  store ptr %15, ptr %263, align 8, !dbg !2701
  %264 = getelementptr inbounds ptr, ptr %263, i64 1, !dbg !2701
  store ptr %15, ptr %264, align 8, !dbg !2701
  %265 = getelementptr inbounds ptr, ptr %264, i64 1, !dbg !2701
  store ptr %15, ptr %265, align 8, !dbg !2701
  %266 = getelementptr inbounds [3 x ptr], ptr %262, i64 1, !dbg !2693
  %267 = getelementptr inbounds [3 x ptr], ptr %266, i64 0, i64 0, !dbg !2702
  store ptr %15, ptr %267, align 8, !dbg !2702
  %268 = getelementptr inbounds ptr, ptr %267, i64 1, !dbg !2702
  store ptr %15, ptr %268, align 8, !dbg !2702
  %269 = getelementptr inbounds ptr, ptr %268, i64 1, !dbg !2702
  store ptr %15, ptr %269, align 8, !dbg !2702
  %270 = getelementptr inbounds [9 x [3 x ptr]], ptr %233, i64 1, !dbg !2642
  %271 = getelementptr inbounds [9 x [3 x ptr]], ptr %270, i64 0, i64 0, !dbg !2703
  %272 = getelementptr inbounds [3 x ptr], ptr %271, i64 0, i64 0, !dbg !2704
  store ptr %15, ptr %272, align 8, !dbg !2704
  %273 = getelementptr inbounds ptr, ptr %272, i64 1, !dbg !2704
  store ptr %15, ptr %273, align 8, !dbg !2704
  %274 = getelementptr inbounds ptr, ptr %273, i64 1, !dbg !2704
  store ptr %15, ptr %274, align 8, !dbg !2704
  %275 = getelementptr inbounds [3 x ptr], ptr %271, i64 1, !dbg !2703
  %276 = getelementptr inbounds [3 x ptr], ptr %275, i64 0, i64 0, !dbg !2705
  store ptr %15, ptr %276, align 8, !dbg !2705
  %277 = getelementptr inbounds ptr, ptr %276, i64 1, !dbg !2705
  store ptr %15, ptr %277, align 8, !dbg !2705
  %278 = getelementptr inbounds ptr, ptr %277, i64 1, !dbg !2705
  store ptr %15, ptr %278, align 8, !dbg !2705
  %279 = getelementptr inbounds [3 x ptr], ptr %275, i64 1, !dbg !2703
  %280 = getelementptr inbounds [3 x ptr], ptr %279, i64 0, i64 0, !dbg !2706
  store ptr %15, ptr %280, align 8, !dbg !2706
  %281 = getelementptr inbounds ptr, ptr %280, i64 1, !dbg !2706
  store ptr %15, ptr %281, align 8, !dbg !2706
  %282 = getelementptr inbounds ptr, ptr %281, i64 1, !dbg !2706
  store ptr %15, ptr %282, align 8, !dbg !2706
  %283 = getelementptr inbounds [3 x ptr], ptr %279, i64 1, !dbg !2703
  %284 = getelementptr inbounds [3 x ptr], ptr %283, i64 0, i64 0, !dbg !2707
  store ptr %15, ptr %284, align 8, !dbg !2707
  %285 = getelementptr inbounds ptr, ptr %284, i64 1, !dbg !2707
  store ptr %15, ptr %285, align 8, !dbg !2707
  %286 = getelementptr inbounds ptr, ptr %285, i64 1, !dbg !2707
  store ptr %15, ptr %286, align 8, !dbg !2707
  %287 = getelementptr inbounds [3 x ptr], ptr %283, i64 1, !dbg !2703
  %288 = getelementptr inbounds [3 x ptr], ptr %287, i64 0, i64 0, !dbg !2708
  store ptr %15, ptr %288, align 8, !dbg !2708
  %289 = getelementptr inbounds ptr, ptr %288, i64 1, !dbg !2708
  store ptr %15, ptr %289, align 8, !dbg !2708
  %290 = getelementptr inbounds ptr, ptr %289, i64 1, !dbg !2708
  store ptr %15, ptr %290, align 8, !dbg !2708
  %291 = getelementptr inbounds [3 x ptr], ptr %287, i64 1, !dbg !2703
  %292 = getelementptr inbounds [3 x ptr], ptr %291, i64 0, i64 0, !dbg !2709
  store ptr %15, ptr %292, align 8, !dbg !2709
  %293 = getelementptr inbounds ptr, ptr %292, i64 1, !dbg !2709
  store ptr %15, ptr %293, align 8, !dbg !2709
  %294 = getelementptr inbounds ptr, ptr %293, i64 1, !dbg !2709
  store ptr %15, ptr %294, align 8, !dbg !2709
  %295 = getelementptr inbounds [3 x ptr], ptr %291, i64 1, !dbg !2703
  %296 = getelementptr inbounds [3 x ptr], ptr %295, i64 0, i64 0, !dbg !2710
  store ptr %15, ptr %296, align 8, !dbg !2710
  %297 = getelementptr inbounds ptr, ptr %296, i64 1, !dbg !2710
  store ptr %15, ptr %297, align 8, !dbg !2710
  %298 = getelementptr inbounds ptr, ptr %297, i64 1, !dbg !2710
  store ptr %15, ptr %298, align 8, !dbg !2710
  %299 = getelementptr inbounds [3 x ptr], ptr %295, i64 1, !dbg !2703
  %300 = getelementptr inbounds [3 x ptr], ptr %299, i64 0, i64 0, !dbg !2711
  store ptr %15, ptr %300, align 8, !dbg !2711
  %301 = getelementptr inbounds ptr, ptr %300, i64 1, !dbg !2711
  store ptr %15, ptr %301, align 8, !dbg !2711
  %302 = getelementptr inbounds ptr, ptr %301, i64 1, !dbg !2711
  store ptr %15, ptr %302, align 8, !dbg !2711
  %303 = getelementptr inbounds [3 x ptr], ptr %299, i64 1, !dbg !2703
  %304 = getelementptr inbounds [3 x ptr], ptr %303, i64 0, i64 0, !dbg !2712
  store ptr %15, ptr %304, align 8, !dbg !2712
  %305 = getelementptr inbounds ptr, ptr %304, i64 1, !dbg !2712
  store ptr %15, ptr %305, align 8, !dbg !2712
  %306 = getelementptr inbounds ptr, ptr %305, i64 1, !dbg !2712
  store ptr %15, ptr %306, align 8, !dbg !2712
  %307 = getelementptr inbounds [9 x [3 x ptr]], ptr %270, i64 1, !dbg !2642
  %308 = getelementptr inbounds [9 x [3 x ptr]], ptr %307, i64 0, i64 0, !dbg !2713
  %309 = getelementptr inbounds [3 x ptr], ptr %308, i64 0, i64 0, !dbg !2714
  store ptr %15, ptr %309, align 8, !dbg !2714
  %310 = getelementptr inbounds ptr, ptr %309, i64 1, !dbg !2714
  store ptr %15, ptr %310, align 8, !dbg !2714
  %311 = getelementptr inbounds ptr, ptr %310, i64 1, !dbg !2714
  store ptr %15, ptr %311, align 8, !dbg !2714
  %312 = getelementptr inbounds [3 x ptr], ptr %308, i64 1, !dbg !2713
  %313 = getelementptr inbounds [3 x ptr], ptr %312, i64 0, i64 0, !dbg !2715
  store ptr %15, ptr %313, align 8, !dbg !2715
  %314 = getelementptr inbounds ptr, ptr %313, i64 1, !dbg !2715
  store ptr %15, ptr %314, align 8, !dbg !2715
  %315 = getelementptr inbounds ptr, ptr %314, i64 1, !dbg !2715
  store ptr %15, ptr %315, align 8, !dbg !2715
  %316 = getelementptr inbounds [3 x ptr], ptr %312, i64 1, !dbg !2713
  %317 = getelementptr inbounds [3 x ptr], ptr %316, i64 0, i64 0, !dbg !2716
  store ptr %15, ptr %317, align 8, !dbg !2716
  %318 = getelementptr inbounds ptr, ptr %317, i64 1, !dbg !2716
  store ptr %15, ptr %318, align 8, !dbg !2716
  %319 = getelementptr inbounds ptr, ptr %318, i64 1, !dbg !2716
  store ptr %15, ptr %319, align 8, !dbg !2716
  %320 = getelementptr inbounds [3 x ptr], ptr %316, i64 1, !dbg !2713
  %321 = getelementptr inbounds [3 x ptr], ptr %320, i64 0, i64 0, !dbg !2717
  store ptr %15, ptr %321, align 8, !dbg !2717
  %322 = getelementptr inbounds ptr, ptr %321, i64 1, !dbg !2717
  store ptr %15, ptr %322, align 8, !dbg !2717
  %323 = getelementptr inbounds ptr, ptr %322, i64 1, !dbg !2717
  store ptr %15, ptr %323, align 8, !dbg !2717
  %324 = getelementptr inbounds [3 x ptr], ptr %320, i64 1, !dbg !2713
  %325 = getelementptr inbounds [3 x ptr], ptr %324, i64 0, i64 0, !dbg !2718
  store ptr %15, ptr %325, align 8, !dbg !2718
  %326 = getelementptr inbounds ptr, ptr %325, i64 1, !dbg !2718
  store ptr %15, ptr %326, align 8, !dbg !2718
  %327 = getelementptr inbounds ptr, ptr %326, i64 1, !dbg !2718
  store ptr %15, ptr %327, align 8, !dbg !2718
  %328 = getelementptr inbounds [3 x ptr], ptr %324, i64 1, !dbg !2713
  %329 = getelementptr inbounds [3 x ptr], ptr %328, i64 0, i64 0, !dbg !2719
  store ptr %15, ptr %329, align 8, !dbg !2719
  %330 = getelementptr inbounds ptr, ptr %329, i64 1, !dbg !2719
  store ptr %15, ptr %330, align 8, !dbg !2719
  %331 = getelementptr inbounds ptr, ptr %330, i64 1, !dbg !2719
  store ptr %15, ptr %331, align 8, !dbg !2719
  %332 = getelementptr inbounds [3 x ptr], ptr %328, i64 1, !dbg !2713
  %333 = getelementptr inbounds [3 x ptr], ptr %332, i64 0, i64 0, !dbg !2720
  store ptr %15, ptr %333, align 8, !dbg !2720
  %334 = getelementptr inbounds ptr, ptr %333, i64 1, !dbg !2720
  store ptr %15, ptr %334, align 8, !dbg !2720
  %335 = getelementptr inbounds ptr, ptr %334, i64 1, !dbg !2720
  store ptr %15, ptr %335, align 8, !dbg !2720
  %336 = getelementptr inbounds [3 x ptr], ptr %332, i64 1, !dbg !2713
  %337 = getelementptr inbounds [3 x ptr], ptr %336, i64 0, i64 0, !dbg !2721
  store ptr %15, ptr %337, align 8, !dbg !2721
  %338 = getelementptr inbounds ptr, ptr %337, i64 1, !dbg !2721
  store ptr %15, ptr %338, align 8, !dbg !2721
  %339 = getelementptr inbounds ptr, ptr %338, i64 1, !dbg !2721
  store ptr %15, ptr %339, align 8, !dbg !2721
  %340 = getelementptr inbounds [3 x ptr], ptr %336, i64 1, !dbg !2713
  %341 = getelementptr inbounds [3 x ptr], ptr %340, i64 0, i64 0, !dbg !2722
  store ptr %15, ptr %341, align 8, !dbg !2722
  %342 = getelementptr inbounds ptr, ptr %341, i64 1, !dbg !2722
  store ptr %15, ptr %342, align 8, !dbg !2722
  %343 = getelementptr inbounds ptr, ptr %342, i64 1, !dbg !2722
  store ptr %15, ptr %343, align 8, !dbg !2722
  %344 = getelementptr inbounds [9 x [3 x ptr]], ptr %307, i64 1, !dbg !2642
  %345 = getelementptr inbounds [9 x [3 x ptr]], ptr %344, i64 0, i64 0, !dbg !2723
  %346 = getelementptr inbounds [3 x ptr], ptr %345, i64 0, i64 0, !dbg !2724
  store ptr %15, ptr %346, align 8, !dbg !2724
  %347 = getelementptr inbounds ptr, ptr %346, i64 1, !dbg !2724
  store ptr %15, ptr %347, align 8, !dbg !2724
  %348 = getelementptr inbounds ptr, ptr %347, i64 1, !dbg !2724
  store ptr %15, ptr %348, align 8, !dbg !2724
  %349 = getelementptr inbounds [3 x ptr], ptr %345, i64 1, !dbg !2723
  %350 = getelementptr inbounds [3 x ptr], ptr %349, i64 0, i64 0, !dbg !2725
  store ptr %15, ptr %350, align 8, !dbg !2725
  %351 = getelementptr inbounds ptr, ptr %350, i64 1, !dbg !2725
  store ptr %15, ptr %351, align 8, !dbg !2725
  %352 = getelementptr inbounds ptr, ptr %351, i64 1, !dbg !2725
  store ptr %15, ptr %352, align 8, !dbg !2725
  %353 = getelementptr inbounds [3 x ptr], ptr %349, i64 1, !dbg !2723
  %354 = getelementptr inbounds [3 x ptr], ptr %353, i64 0, i64 0, !dbg !2726
  store ptr %15, ptr %354, align 8, !dbg !2726
  %355 = getelementptr inbounds ptr, ptr %354, i64 1, !dbg !2726
  store ptr %15, ptr %355, align 8, !dbg !2726
  %356 = getelementptr inbounds ptr, ptr %355, i64 1, !dbg !2726
  store ptr %15, ptr %356, align 8, !dbg !2726
  %357 = getelementptr inbounds [3 x ptr], ptr %353, i64 1, !dbg !2723
  %358 = getelementptr inbounds [3 x ptr], ptr %357, i64 0, i64 0, !dbg !2727
  store ptr %15, ptr %358, align 8, !dbg !2727
  %359 = getelementptr inbounds ptr, ptr %358, i64 1, !dbg !2727
  store ptr %15, ptr %359, align 8, !dbg !2727
  %360 = getelementptr inbounds ptr, ptr %359, i64 1, !dbg !2727
  store ptr %15, ptr %360, align 8, !dbg !2727
  %361 = getelementptr inbounds [3 x ptr], ptr %357, i64 1, !dbg !2723
  %362 = getelementptr inbounds [3 x ptr], ptr %361, i64 0, i64 0, !dbg !2728
  store ptr %15, ptr %362, align 8, !dbg !2728
  %363 = getelementptr inbounds ptr, ptr %362, i64 1, !dbg !2728
  store ptr %15, ptr %363, align 8, !dbg !2728
  %364 = getelementptr inbounds ptr, ptr %363, i64 1, !dbg !2728
  store ptr %15, ptr %364, align 8, !dbg !2728
  %365 = getelementptr inbounds [3 x ptr], ptr %361, i64 1, !dbg !2723
  %366 = getelementptr inbounds [3 x ptr], ptr %365, i64 0, i64 0, !dbg !2729
  store ptr %15, ptr %366, align 8, !dbg !2729
  %367 = getelementptr inbounds ptr, ptr %366, i64 1, !dbg !2729
  store ptr %15, ptr %367, align 8, !dbg !2729
  %368 = getelementptr inbounds ptr, ptr %367, i64 1, !dbg !2729
  store ptr %15, ptr %368, align 8, !dbg !2729
  %369 = getelementptr inbounds [3 x ptr], ptr %365, i64 1, !dbg !2723
  %370 = getelementptr inbounds [3 x ptr], ptr %369, i64 0, i64 0, !dbg !2730
  store ptr %15, ptr %370, align 8, !dbg !2730
  %371 = getelementptr inbounds ptr, ptr %370, i64 1, !dbg !2730
  store ptr %15, ptr %371, align 8, !dbg !2730
  %372 = getelementptr inbounds ptr, ptr %371, i64 1, !dbg !2730
  store ptr %15, ptr %372, align 8, !dbg !2730
  %373 = getelementptr inbounds [3 x ptr], ptr %369, i64 1, !dbg !2723
  %374 = getelementptr inbounds [3 x ptr], ptr %373, i64 0, i64 0, !dbg !2731
  store ptr %15, ptr %374, align 8, !dbg !2731
  %375 = getelementptr inbounds ptr, ptr %374, i64 1, !dbg !2731
  store ptr %15, ptr %375, align 8, !dbg !2731
  %376 = getelementptr inbounds ptr, ptr %375, i64 1, !dbg !2731
  store ptr %15, ptr %376, align 8, !dbg !2731
  %377 = getelementptr inbounds [3 x ptr], ptr %373, i64 1, !dbg !2723
  %378 = getelementptr inbounds [3 x ptr], ptr %377, i64 0, i64 0, !dbg !2732
  store ptr %15, ptr %378, align 8, !dbg !2732
  %379 = getelementptr inbounds ptr, ptr %378, i64 1, !dbg !2732
  store ptr %15, ptr %379, align 8, !dbg !2732
  %380 = getelementptr inbounds ptr, ptr %379, i64 1, !dbg !2732
  store ptr %15, ptr %380, align 8, !dbg !2732
  call void @llvm.dbg.declare(metadata ptr %17, metadata !2733, metadata !DIExpression()), !dbg !2734
  store ptr null, ptr %17, align 8, !dbg !2734
  call void @llvm.dbg.declare(metadata ptr %18, metadata !2735, metadata !DIExpression()), !dbg !2736
  store ptr @_ZL5g_637, ptr %18, align 8, !dbg !2736
  call void @llvm.dbg.declare(metadata ptr %19, metadata !2737, metadata !DIExpression()), !dbg !2738
  store ptr null, ptr %19, align 8, !dbg !2738
  call void @llvm.dbg.declare(metadata ptr %20, metadata !2739, metadata !DIExpression()), !dbg !2740
  store i8 22, ptr %20, align 1, !dbg !2740
  call void @llvm.dbg.declare(metadata ptr %21, metadata !2741, metadata !DIExpression()), !dbg !2742
  store ptr @_ZL4g_34, ptr %21, align 8, !dbg !2742
  call void @llvm.dbg.declare(metadata ptr %22, metadata !2743, metadata !DIExpression()), !dbg !2744
  store ptr getelementptr inbounds ([7 x [4 x [9 x %union.U0]]], ptr @_ZL6g_2393, i64 0, i64 3, i64 1, i64 1), ptr %22, align 8, !dbg !2744
  call void @llvm.dbg.declare(metadata ptr %23, metadata !2745, metadata !DIExpression()), !dbg !2746
  store i16 -7081, ptr %23, align 2, !dbg !2746
  call void @llvm.dbg.declare(metadata ptr %24, metadata !2747, metadata !DIExpression()), !dbg !2752
  store ptr null, ptr %24, align 8, !dbg !2752
  call void @llvm.dbg.declare(metadata ptr %25, metadata !2753, metadata !DIExpression()), !dbg !2754
  call void @llvm.memcpy.p0.p0.i64(ptr align 4 %25, ptr align 4 @__const._ZL6func_2sj.l_2743, i64 4, i1 false), !dbg !2754
  call void @llvm.dbg.declare(metadata ptr %26, metadata !2755, metadata !DIExpression()), !dbg !2756
  store i32 -1, ptr %26, align 4, !dbg !2756
  call void @llvm.dbg.declare(metadata ptr %27, metadata !2757, metadata !DIExpression()), !dbg !2758
  store ptr @_ZL5g_461, ptr %27, align 8, !dbg !2758
  call void @llvm.dbg.declare(metadata ptr %28, metadata !2759, metadata !DIExpression()), !dbg !2761
  store ptr %27, ptr %28, align 8, !dbg !2761
  call void @llvm.dbg.declare(metadata ptr %29, metadata !2762, metadata !DIExpression()), !dbg !2764
  store ptr %28, ptr %29, align 8, !dbg !2764
  call void @llvm.dbg.declare(metadata ptr %30, metadata !2765, metadata !DIExpression()), !dbg !2767
  call void @llvm.memcpy.p0.p0.i64(ptr align 1 %30, ptr align 1 @__const._ZL6func_2sj.l_2781, i64 5, i1 false), !dbg !2767
  call void @llvm.dbg.declare(metadata ptr %31, metadata !2768, metadata !DIExpression()), !dbg !2769
  store ptr @_ZL6g_2411, ptr %31, align 8, !dbg !2769
  call void @llvm.dbg.declare(metadata ptr %32, metadata !2770, metadata !DIExpression()), !dbg !2771
  store ptr %17, ptr %32, align 8, !dbg !2771
  call void @llvm.dbg.declare(metadata ptr %33, metadata !2772, metadata !DIExpression()), !dbg !2774
  %381 = getelementptr inbounds [8 x ptr], ptr %33, i64 0, i64 0, !dbg !2775
  store ptr %32, ptr %381, align 8, !dbg !2775
  %382 = getelementptr inbounds ptr, ptr %381, i64 1, !dbg !2775
  store ptr %32, ptr %382, align 8, !dbg !2775
  %383 = getelementptr inbounds ptr, ptr %382, i64 1, !dbg !2775
  store ptr %32, ptr %383, align 8, !dbg !2775
  %384 = getelementptr inbounds ptr, ptr %383, i64 1, !dbg !2775
  store ptr %32, ptr %384, align 8, !dbg !2775
  %385 = getelementptr inbounds ptr, ptr %384, i64 1, !dbg !2775
  store ptr %32, ptr %385, align 8, !dbg !2775
  %386 = getelementptr inbounds ptr, ptr %385, i64 1, !dbg !2775
  store ptr %32, ptr %386, align 8, !dbg !2775
  %387 = getelementptr inbounds ptr, ptr %386, i64 1, !dbg !2775
  store ptr %32, ptr %387, align 8, !dbg !2775
  %388 = getelementptr inbounds ptr, ptr %387, i64 1, !dbg !2775
  store ptr %32, ptr %388, align 8, !dbg !2775
  call void @llvm.dbg.declare(metadata ptr %34, metadata !2776, metadata !DIExpression()), !dbg !2777
  store i8 -48, ptr %34, align 1, !dbg !2777
  call void @llvm.dbg.declare(metadata ptr %35, metadata !2778, metadata !DIExpression()), !dbg !2780
  store ptr getelementptr inbounds ([5 x [2 x ptr]], ptr @_ZL6g_1215, i64 0, i64 4, i64 1), ptr %35, align 8, !dbg !2780
  call void @llvm.dbg.declare(metadata ptr %36, metadata !2781, metadata !DIExpression()), !dbg !2782
  store i8 8, ptr %36, align 1, !dbg !2782
  call void @llvm.dbg.declare(metadata ptr %37, metadata !2783, metadata !DIExpression()), !dbg !2784
  store i64 2351027929537125673, ptr %37, align 8, !dbg !2784
  call void @llvm.dbg.declare(metadata ptr %38, metadata !2785, metadata !DIExpression()), !dbg !2787
  store ptr @_ZL6g_1084, ptr %38, align 8, !dbg !2787
  call void @llvm.dbg.declare(metadata ptr %39, metadata !2788, metadata !DIExpression()), !dbg !2790
  store ptr %38, ptr %39, align 8, !dbg !2790
  call void @llvm.dbg.declare(metadata ptr %40, metadata !2791, metadata !DIExpression()), !dbg !2793
  store ptr %39, ptr %40, align 8, !dbg !2793
  call void @llvm.dbg.declare(metadata ptr %41, metadata !2794, metadata !DIExpression()), !dbg !2797
  call void @llvm.memcpy.p0.p0.i64(ptr align 16 %41, ptr align 16 @__const._ZL6func_2sj.l_3008, i64 384, i1 false), !dbg !2797
  call void @llvm.dbg.declare(metadata ptr %42, metadata !2798, metadata !DIExpression()), !dbg !2799
  call void @llvm.dbg.declare(metadata ptr %43, metadata !2800, metadata !DIExpression()), !dbg !2801
  call void @llvm.dbg.declare(metadata ptr %44, metadata !2802, metadata !DIExpression()), !dbg !2803
  store i32 0, ptr %42, align 4, !dbg !2804
  br label %389, !dbg !2806

389:                                              ; preds = %407, %2
  %390 = load i32, ptr %42, align 4, !dbg !2807
  %391 = icmp slt i32 %390, 1, !dbg !2809
  br i1 %391, label %392, label %410, !dbg !2810

392:                                              ; preds = %389
  store i32 0, ptr %43, align 4, !dbg !2811
  br label %393, !dbg !2814

393:                                              ; preds = %403, %392
  %394 = load i32, ptr %43, align 4, !dbg !2815
  %395 = icmp slt i32 %394, 3, !dbg !2817
  br i1 %395, label %396, label %406, !dbg !2818

396:                                              ; preds = %393
  %397 = load i32, ptr %42, align 4, !dbg !2819
  %398 = sext i32 %397 to i64, !dbg !2820
  %399 = getelementptr inbounds [1 x [3 x ptr]], ptr %6, i64 0, i64 %398, !dbg !2820
  %400 = load i32, ptr %43, align 4, !dbg !2821
  %401 = sext i32 %400 to i64, !dbg !2820
  %402 = getelementptr inbounds [3 x ptr], ptr %399, i64 0, i64 %401, !dbg !2820
  store ptr @_ZL3g_8, ptr %402, align 8, !dbg !2822
  br label %403, !dbg !2820

403:                                              ; preds = %396
  %404 = load i32, ptr %43, align 4, !dbg !2823
  %405 = add nsw i32 %404, 1, !dbg !2823
  store i32 %405, ptr %43, align 4, !dbg !2823
  br label %393, !dbg !2824, !llvm.loop !2825

406:                                              ; preds = %393
  br label %407, !dbg !2827

407:                                              ; preds = %406
  %408 = load i32, ptr %42, align 4, !dbg !2828
  %409 = add nsw i32 %408, 1, !dbg !2828
  store i32 %409, ptr %42, align 4, !dbg !2828
  br label %389, !dbg !2829, !llvm.loop !2830

410:                                              ; preds = %389
  %411 = load i32, ptr @_ZL4g_11, align 4, !dbg !2832
  %412 = add i32 %411, -1, !dbg !2832
  store i32 %412, ptr @_ZL4g_11, align 4, !dbg !2832
  %413 = load i16, ptr %3, align 2, !dbg !2833
  %414 = sext i16 %413 to i32, !dbg !2833
  ret i32 %414, !dbg !2834
}

; Function Attrs: mustprogress noinline nounwind optnone sspstrong uwtable
define internal noundef i32 @_ZL25safe_add_func_int32_t_s_sii(i32 noundef %0, i32 noundef %1) #3 !dbg !2835 {
  %3 = alloca i32, align 4
  %4 = alloca i32, align 4
  store i32 %0, ptr %3, align 4
  call void @llvm.dbg.declare(metadata ptr %3, metadata !2839, metadata !DIExpression()), !dbg !2840
  store i32 %1, ptr %4, align 4
  call void @llvm.dbg.declare(metadata ptr %4, metadata !2841, metadata !DIExpression()), !dbg !2842
  %5 = load i32, ptr %3, align 4, !dbg !2843
  %6 = icmp sgt i32 %5, 0, !dbg !2844
  br i1 %6, label %7, label %15, !dbg !2845

7:                                                ; preds = %2
  %8 = load i32, ptr %4, align 4, !dbg !2846
  %9 = icmp sgt i32 %8, 0, !dbg !2847
  br i1 %9, label %10, label %15, !dbg !2848

10:                                               ; preds = %7
  %11 = load i32, ptr %3, align 4, !dbg !2849
  %12 = load i32, ptr %4, align 4, !dbg !2850
  %13 = sub nsw i32 2147483647, %12, !dbg !2851
  %14 = icmp sgt i32 %11, %13, !dbg !2852
  br i1 %14, label %26, label %15, !dbg !2853

15:                                               ; preds = %10, %7, %2
  %16 = load i32, ptr %3, align 4, !dbg !2854
  %17 = icmp slt i32 %16, 0, !dbg !2855
  br i1 %17, label %18, label %28, !dbg !2856

18:                                               ; preds = %15
  %19 = load i32, ptr %4, align 4, !dbg !2857
  %20 = icmp slt i32 %19, 0, !dbg !2858
  br i1 %20, label %21, label %28, !dbg !2859

21:                                               ; preds = %18
  %22 = load i32, ptr %3, align 4, !dbg !2860
  %23 = load i32, ptr %4, align 4, !dbg !2861
  %24 = sub nsw i32 -2147483648, %23, !dbg !2862
  %25 = icmp slt i32 %22, %24, !dbg !2863
  br i1 %25, label %26, label %28, !dbg !2864

26:                                               ; preds = %21, %10
  %27 = load i32, ptr %3, align 4, !dbg !2865
  br label %32, !dbg !2864

28:                                               ; preds = %21, %18, %15
  %29 = load i32, ptr %3, align 4, !dbg !2866
  %30 = load i32, ptr %4, align 4, !dbg !2867
  %31 = add nsw i32 %29, %30, !dbg !2868
  br label %32, !dbg !2864

32:                                               ; preds = %28, %26
  %33 = phi i32 [ %27, %26 ], [ %31, %28 ], !dbg !2864
  ret i32 %33, !dbg !2869
}

; Function Attrs: mustprogress noinline nounwind optnone sspstrong uwtable
define internal noundef i32 @_ZL26safe_add_func_uint32_t_u_ujj(i32 noundef %0, i32 noundef %1) #3 !dbg !2870 {
  %3 = alloca i32, align 4
  %4 = alloca i32, align 4
  store i32 %0, ptr %3, align 4
  call void @llvm.dbg.declare(metadata ptr %3, metadata !2873, metadata !DIExpression()), !dbg !2874
  store i32 %1, ptr %4, align 4
  call void @llvm.dbg.declare(metadata ptr %4, metadata !2875, metadata !DIExpression()), !dbg !2876
  %5 = load i32, ptr %3, align 4, !dbg !2877
  %6 = load i32, ptr %4, align 4, !dbg !2878
  %7 = add i32 %5, %6, !dbg !2879
  ret i32 %7, !dbg !2880
}

; Function Attrs: mustprogress noinline nounwind optnone sspstrong uwtable
define internal noundef signext i8 @_ZL24safe_mul_func_int8_t_s_saa(i8 noundef signext %0, i8 noundef signext %1) #3 !dbg !2881 {
  %3 = alloca i8, align 1
  %4 = alloca i8, align 1
  store i8 %0, ptr %3, align 1
  call void @llvm.dbg.declare(metadata ptr %3, metadata !2884, metadata !DIExpression()), !dbg !2885
  store i8 %1, ptr %4, align 1
  call void @llvm.dbg.declare(metadata ptr %4, metadata !2886, metadata !DIExpression()), !dbg !2887
  %5 = load i8, ptr %3, align 1, !dbg !2888
  %6 = sext i8 %5 to i32, !dbg !2888
  %7 = load i8, ptr %4, align 1, !dbg !2889
  %8 = sext i8 %7 to i32, !dbg !2889
  %9 = mul nsw i32 %6, %8, !dbg !2890
  %10 = trunc i32 %9 to i8, !dbg !2888
  ret i8 %10, !dbg !2891
}

; Function Attrs: mustprogress noinline nounwind optnone sspstrong uwtable
define internal noundef zeroext i16 @_ZL26safe_mul_func_uint16_t_u_utt(i16 noundef zeroext %0, i16 noundef zeroext %1) #3 !dbg !2892 {
  %3 = alloca i16, align 2
  %4 = alloca i16, align 2
  store i16 %0, ptr %3, align 2
  call void @llvm.dbg.declare(metadata ptr %3, metadata !2895, metadata !DIExpression()), !dbg !2896
  store i16 %1, ptr %4, align 2
  call void @llvm.dbg.declare(metadata ptr %4, metadata !2897, metadata !DIExpression()), !dbg !2898
  %5 = load i16, ptr %3, align 2, !dbg !2899
  %6 = zext i16 %5 to i32, !dbg !2899
  %7 = load i16, ptr %4, align 2, !dbg !2900
  %8 = zext i16 %7 to i32, !dbg !2900
  %9 = mul i32 %6, %8, !dbg !2901
  %10 = trunc i32 %9 to i16, !dbg !2902
  ret i16 %10, !dbg !2903
}

; Function Attrs: mustprogress noinline nounwind optnone sspstrong uwtable
define internal noundef i64 @_ZL25safe_mod_func_int64_t_s_sll(i64 noundef %0, i64 noundef %1) #3 !dbg !2904 {
  %3 = alloca i64, align 8
  %4 = alloca i64, align 8
  store i64 %0, ptr %3, align 8
  call void @llvm.dbg.declare(metadata ptr %3, metadata !2907, metadata !DIExpression()), !dbg !2908
  store i64 %1, ptr %4, align 8
  call void @llvm.dbg.declare(metadata ptr %4, metadata !2909, metadata !DIExpression()), !dbg !2910
  %5 = load i64, ptr %4, align 8, !dbg !2911
  %6 = icmp eq i64 %5, 0, !dbg !2912
  br i1 %6, label %13, label %7, !dbg !2913

7:                                                ; preds = %2
  %8 = load i64, ptr %3, align 8, !dbg !2914
  %9 = icmp eq i64 %8, -9223372036854775808, !dbg !2915
  br i1 %9, label %10, label %15, !dbg !2916

10:                                               ; preds = %7
  %11 = load i64, ptr %4, align 8, !dbg !2917
  %12 = icmp eq i64 %11, -1, !dbg !2918
  br i1 %12, label %13, label %15, !dbg !2919

13:                                               ; preds = %10, %2
  %14 = load i64, ptr %3, align 8, !dbg !2920
  br label %19, !dbg !2919

15:                                               ; preds = %10, %7
  %16 = load i64, ptr %3, align 8, !dbg !2921
  %17 = load i64, ptr %4, align 8, !dbg !2922
  %18 = srem i64 %16, %17, !dbg !2923
  br label %19, !dbg !2919

19:                                               ; preds = %15, %13
  %20 = phi i64 [ %14, %13 ], [ %18, %15 ], !dbg !2919
  ret i64 %20, !dbg !2924
}

; Function Attrs: mustprogress noinline nounwind optnone sspstrong uwtable
define internal noundef i32 @_ZL28safe_lshift_func_int32_t_s_sii(i32 noundef %0, i32 noundef %1) #3 !dbg !2925 {
  %3 = alloca i32, align 4
  %4 = alloca i32, align 4
  store i32 %0, ptr %3, align 4
  call void @llvm.dbg.declare(metadata ptr %3, metadata !2928, metadata !DIExpression()), !dbg !2929
  store i32 %1, ptr %4, align 4
  call void @llvm.dbg.declare(metadata ptr %4, metadata !2930, metadata !DIExpression()), !dbg !2931
  %5 = load i32, ptr %3, align 4, !dbg !2932
  %6 = icmp slt i32 %5, 0, !dbg !2933
  br i1 %6, label %18, label %7, !dbg !2934

7:                                                ; preds = %2
  %8 = load i32, ptr %4, align 4, !dbg !2935
  %9 = icmp slt i32 %8, 0, !dbg !2936
  br i1 %9, label %18, label %10, !dbg !2937

10:                                               ; preds = %7
  %11 = load i32, ptr %4, align 4, !dbg !2938
  %12 = icmp sge i32 %11, 32, !dbg !2939
  br i1 %12, label %18, label %13, !dbg !2940

13:                                               ; preds = %10
  %14 = load i32, ptr %3, align 4, !dbg !2941
  %15 = load i32, ptr %4, align 4, !dbg !2942
  %16 = ashr i32 2147483647, %15, !dbg !2943
  %17 = icmp sgt i32 %14, %16, !dbg !2944
  br i1 %17, label %18, label %20, !dbg !2945

18:                                               ; preds = %13, %10, %7, %2
  %19 = load i32, ptr %3, align 4, !dbg !2946
  br label %24, !dbg !2945

20:                                               ; preds = %13
  %21 = load i32, ptr %3, align 4, !dbg !2947
  %22 = load i32, ptr %4, align 4, !dbg !2948
  %23 = shl i32 %21, %22, !dbg !2949
  br label %24, !dbg !2945

24:                                               ; preds = %20, %18
  %25 = phi i32 [ %19, %18 ], [ %23, %20 ], !dbg !2945
  ret i32 %25, !dbg !2950
}

; Function Attrs: mustprogress noinline nounwind optnone sspstrong uwtable
define internal noundef signext i16 @_ZL25safe_sub_func_int16_t_s_sss(i16 noundef signext %0, i16 noundef signext %1) #3 !dbg !2951 {
  %3 = alloca i16, align 2
  %4 = alloca i16, align 2
  store i16 %0, ptr %3, align 2
  call void @llvm.dbg.declare(metadata ptr %3, metadata !2954, metadata !DIExpression()), !dbg !2955
  store i16 %1, ptr %4, align 2
  call void @llvm.dbg.declare(metadata ptr %4, metadata !2956, metadata !DIExpression()), !dbg !2957
  %5 = load i16, ptr %3, align 2, !dbg !2958
  %6 = sext i16 %5 to i32, !dbg !2958
  %7 = load i16, ptr %4, align 2, !dbg !2959
  %8 = sext i16 %7 to i32, !dbg !2959
  %9 = sub nsw i32 %6, %8, !dbg !2960
  %10 = trunc i32 %9 to i16, !dbg !2961
  ret i16 %10, !dbg !2962
}

; Function Attrs: nocallback nofree nounwind willreturn memory(argmem: write)
declare void @llvm.memset.p0.i64(ptr nocapture writeonly, i8, i64, i1 immarg) #6

; Function Attrs: mustprogress noinline nounwind optnone sspstrong uwtable
define internal void @_ZL12crc32_8bytesm(i64 noundef %0) #3 !dbg !2963 {
  %2 = alloca i64, align 8
  store i64 %0, ptr %2, align 8
  call void @llvm.dbg.declare(metadata ptr %2, metadata !2966, metadata !DIExpression()), !dbg !2967
  %3 = load i64, ptr %2, align 8, !dbg !2968
  %4 = lshr i64 %3, 0, !dbg !2969
  %5 = and i64 %4, 255, !dbg !2970
  %6 = trunc i64 %5 to i8, !dbg !2971
  call void @_ZL10crc32_byteh(i8 noundef zeroext %6), !dbg !2972
  %7 = load i64, ptr %2, align 8, !dbg !2973
  %8 = lshr i64 %7, 8, !dbg !2974
  %9 = and i64 %8, 255, !dbg !2975
  %10 = trunc i64 %9 to i8, !dbg !2976
  call void @_ZL10crc32_byteh(i8 noundef zeroext %10), !dbg !2977
  %11 = load i64, ptr %2, align 8, !dbg !2978
  %12 = lshr i64 %11, 16, !dbg !2979
  %13 = and i64 %12, 255, !dbg !2980
  %14 = trunc i64 %13 to i8, !dbg !2981
  call void @_ZL10crc32_byteh(i8 noundef zeroext %14), !dbg !2982
  %15 = load i64, ptr %2, align 8, !dbg !2983
  %16 = lshr i64 %15, 24, !dbg !2984
  %17 = and i64 %16, 255, !dbg !2985
  %18 = trunc i64 %17 to i8, !dbg !2986
  call void @_ZL10crc32_byteh(i8 noundef zeroext %18), !dbg !2987
  %19 = load i64, ptr %2, align 8, !dbg !2988
  %20 = lshr i64 %19, 32, !dbg !2989
  %21 = and i64 %20, 255, !dbg !2990
  %22 = trunc i64 %21 to i8, !dbg !2991
  call void @_ZL10crc32_byteh(i8 noundef zeroext %22), !dbg !2992
  %23 = load i64, ptr %2, align 8, !dbg !2993
  %24 = lshr i64 %23, 40, !dbg !2994
  %25 = and i64 %24, 255, !dbg !2995
  %26 = trunc i64 %25 to i8, !dbg !2996
  call void @_ZL10crc32_byteh(i8 noundef zeroext %26), !dbg !2997
  %27 = load i64, ptr %2, align 8, !dbg !2998
  %28 = lshr i64 %27, 48, !dbg !2999
  %29 = and i64 %28, 255, !dbg !3000
  %30 = trunc i64 %29 to i8, !dbg !3001
  call void @_ZL10crc32_byteh(i8 noundef zeroext %30), !dbg !3002
  %31 = load i64, ptr %2, align 8, !dbg !3003
  %32 = lshr i64 %31, 56, !dbg !3004
  %33 = and i64 %32, 255, !dbg !3005
  %34 = trunc i64 %33 to i8, !dbg !3006
  call void @_ZL10crc32_byteh(i8 noundef zeroext %34), !dbg !3007
  ret void, !dbg !3008
}

; Function Attrs: mustprogress noinline nounwind optnone sspstrong uwtable
define internal void @_ZL10crc32_byteh(i8 noundef zeroext %0) #3 !dbg !3009 {
  %2 = alloca i8, align 1
  store i8 %0, ptr %2, align 1
  call void @llvm.dbg.declare(metadata ptr %2, metadata !3012, metadata !DIExpression()), !dbg !3013
  %3 = load i32, ptr @_ZL13crc32_context, align 4, !dbg !3014
  %4 = lshr i32 %3, 8, !dbg !3015
  %5 = and i32 %4, 16777215, !dbg !3016
  %6 = load i32, ptr @_ZL13crc32_context, align 4, !dbg !3017
  %7 = load i8, ptr %2, align 1, !dbg !3018
  %8 = zext i8 %7 to i32, !dbg !3018
  %9 = xor i32 %6, %8, !dbg !3019
  %10 = and i32 %9, 255, !dbg !3020
  %11 = zext i32 %10 to i64, !dbg !3021
  %12 = getelementptr inbounds [256 x i32], ptr @_ZL9crc32_tab, i64 0, i64 %11, !dbg !3021
  %13 = load i32, ptr %12, align 4, !dbg !3021
  %14 = xor i32 %5, %13, !dbg !3022
  store i32 %14, ptr @_ZL13crc32_context, align 4, !dbg !3023
  ret void, !dbg !3024
}

attributes #0 = { mustprogress noinline norecurse nounwind optnone sspstrong uwtable "frame-pointer"="all" "min-legal-vector-width"="0" "no-trapping-math"="true" "stack-protector-buffer-size"="8" "target-cpu"="x86-64" "target-features"="+cx8,+fxsr,+mmx,+sse,+sse2,+x87" "tune-cpu"="generic" }
attributes #1 = { nocallback nofree nosync nounwind speculatable willreturn memory(none) }
attributes #2 = { nounwind willreturn memory(read) "frame-pointer"="all" "no-trapping-math"="true" "stack-protector-buffer-size"="8" "target-cpu"="x86-64" "target-features"="+cx8,+fxsr,+mmx,+sse,+sse2,+x87" "tune-cpu"="generic" }
attributes #3 = { mustprogress noinline nounwind optnone sspstrong uwtable "frame-pointer"="all" "min-legal-vector-width"="0" "no-trapping-math"="true" "stack-protector-buffer-size"="8" "target-cpu"="x86-64" "target-features"="+cx8,+fxsr,+mmx,+sse,+sse2,+x87" "tune-cpu"="generic" }
attributes #4 = { "frame-pointer"="all" "no-trapping-math"="true" "stack-protector-buffer-size"="8" "target-cpu"="x86-64" "target-features"="+cx8,+fxsr,+mmx,+sse,+sse2,+x87" "tune-cpu"="generic" }
attributes #5 = { nocallback nofree nounwind willreturn memory(argmem: readwrite) }
attributes #6 = { nocallback nofree nounwind willreturn memory(argmem: write) }
attributes #7 = { nounwind willreturn memory(read) }

!llvm.dbg.cu = !{!10}
!llvm.module.flags = !{!1085, !1086, !1087, !1088, !1089, !1090, !1091}
!llvm.ident = !{!1092}

!0 = !DIGlobalVariableExpression(var: !1, expr: !DIExpression())
!1 = distinct !DIGlobalVariable(scope: null, file: !2, line: 1662, type: !3, isLocal: true, isDefinition: true)
!2 = !DIFile(filename: "cpp/csmith5.cpp", directory: "/home/kai/src/ll2x", checksumkind: CSK_MD5, checksum: "63fb82fd6d2b76530265bd4888c957e3")
!3 = !DICompositeType(tag: DW_TAG_array_type, baseType: !4, size: 16, elements: !6)
!4 = !DIDerivedType(tag: DW_TAG_const_type, baseType: !5)
!5 = !DIBasicType(name: "char", size: 8, encoding: DW_ATE_signed_char)
!6 = !{!7}
!7 = !DISubrange(count: 2)
!8 = !DIGlobalVariableExpression(var: !9, expr: !DIExpression())
!9 = distinct !DIGlobalVariable(name: "g_6", linkageName: "_ZL3g_6", scope: !10, file: !2, line: 21, type: !1084, isLocal: true, isDefinition: true)
!10 = distinct !DICompileUnit(language: DW_LANG_C_plus_plus_14, file: !2, producer: "clang version 16.0.6", isOptimized: false, runtimeVersion: 0, emissionKind: FullDebug, retainedTypes: !11, globals: !14, imports: !725, splitDebugInlining: false, nameTableKind: None)
!11 = !{!12, !13}
!12 = !DIBasicType(name: "unsigned int", size: 32, encoding: DW_ATE_unsigned)
!13 = !DIBasicType(name: "int", size: 32, encoding: DW_ATE_signed)
!14 = !{!0, !15, !20, !22, !27, !29, !31, !33, !35, !37, !42, !47, !52, !57, !59, !64, !66, !73, !75, !77, !82, !84, !86, !88, !90, !92, !94, !96, !98, !100, !102, !104, !106, !111, !113, !115, !117, !122, !124, !129, !131, !133, !135, !141, !143, !145, !147, !149, !151, !153, !155, !160, !162, !164, !166, !168, !170, !172, !179, !181, !183, !185, !190, !192, !197, !199, !201, !203, !205, !207, !209, !211, !213, !215, !217, !219, !221, !223, !225, !227, !232, !234, !236, !238, !240, !242, !244, !246, !248, !250, !255, !257, !259, !261, !263, !265, !267, !269, !271, !273, !275, !277, !279, !281, !283, !285, !287, !289, !291, !293, !295, !297, !299, !301, !303, !305, !307, !309, !311, !313, !315, !317, !319, !321, !323, !325, !327, !329, !331, !333, !335, !337, !339, !341, !343, !345, !347, !349, !351, !353, !361, !365, !367, !377, !379, !383, !385, !388, !396, !399, !401, !406, !409, !412, !8, !417, !419, !422, !424, !426, !428, !430, !435, !442, !445, !448, !450, !455, !457, !460, !462, !464, !467, !471, !473, !476, !479, !485, !487, !489, !491, !493, !497, !499, !503, !508, !511, !515, !517, !519, !522, !524, !526, !528, !530, !532, !534, !536, !538, !540, !543, !545, !549, !551, !553, !556, !558, !560, !562, !564, !566, !568, !570, !572, !574, !576, !578, !580, !584, !587, !589, !592, !594, !596, !598, !600, !602, !606, !610, !614, !616, !618, !620, !622, !624, !626, !628, !630, !633, !635, !637, !639, !641, !643, !647, !649, !651, !653, !655, !657, !661, !663, !665, !667, !669, !671, !673, !675, !677, !679, !681, !683, !685, !687, !689, !691, !693, !695, !697, !699, !703, !707, !710, !712, !714, !716, !718, !720, !723}
!15 = !DIGlobalVariableExpression(var: !16, expr: !DIExpression())
!16 = distinct !DIGlobalVariable(scope: null, file: !2, line: 1666, type: !17, isLocal: true, isDefinition: true)
!17 = !DICompositeType(tag: DW_TAG_array_type, baseType: !4, size: 32, elements: !18)
!18 = !{!19}
!19 = !DISubrange(count: 4)
!20 = !DIGlobalVariableExpression(var: !21, expr: !DIExpression())
!21 = distinct !DIGlobalVariable(scope: null, file: !2, line: 1667, type: !17, isLocal: true, isDefinition: true)
!22 = !DIGlobalVariableExpression(var: !23, expr: !DIExpression())
!23 = distinct !DIGlobalVariable(scope: null, file: !2, line: 1668, type: !24, isLocal: true, isDefinition: true)
!24 = !DICompositeType(tag: DW_TAG_array_type, baseType: !4, size: 40, elements: !25)
!25 = !{!26}
!26 = !DISubrange(count: 5)
!27 = !DIGlobalVariableExpression(var: !28, expr: !DIExpression())
!28 = distinct !DIGlobalVariable(scope: null, file: !2, line: 1669, type: !24, isLocal: true, isDefinition: true)
!29 = !DIGlobalVariableExpression(var: !30, expr: !DIExpression())
!30 = distinct !DIGlobalVariable(scope: null, file: !2, line: 1670, type: !24, isLocal: true, isDefinition: true)
!31 = !DIGlobalVariableExpression(var: !32, expr: !DIExpression())
!32 = distinct !DIGlobalVariable(scope: null, file: !2, line: 1671, type: !24, isLocal: true, isDefinition: true)
!33 = !DIGlobalVariableExpression(var: !34, expr: !DIExpression())
!34 = distinct !DIGlobalVariable(scope: null, file: !2, line: 1672, type: !24, isLocal: true, isDefinition: true)
!35 = !DIGlobalVariableExpression(var: !36, expr: !DIExpression())
!36 = distinct !DIGlobalVariable(scope: null, file: !2, line: 1673, type: !24, isLocal: true, isDefinition: true)
!37 = !DIGlobalVariableExpression(var: !38, expr: !DIExpression())
!38 = distinct !DIGlobalVariable(scope: null, file: !2, line: 1678, type: !39, isLocal: true, isDefinition: true)
!39 = !DICompositeType(tag: DW_TAG_array_type, baseType: !4, size: 88, elements: !40)
!40 = !{!41}
!41 = !DISubrange(count: 11)
!42 = !DIGlobalVariableExpression(var: !43, expr: !DIExpression())
!43 = distinct !DIGlobalVariable(scope: null, file: !2, line: 1679, type: !44, isLocal: true, isDefinition: true)
!44 = !DICompositeType(tag: DW_TAG_array_type, baseType: !4, size: 144, elements: !45)
!45 = !{!46}
!46 = !DISubrange(count: 18)
!47 = !DIGlobalVariableExpression(var: !48, expr: !DIExpression())
!48 = distinct !DIGlobalVariable(scope: null, file: !2, line: 1685, type: !49, isLocal: true, isDefinition: true)
!49 = !DICompositeType(tag: DW_TAG_array_type, baseType: !4, size: 64, elements: !50)
!50 = !{!51}
!51 = !DISubrange(count: 8)
!52 = !DIGlobalVariableExpression(var: !53, expr: !DIExpression())
!53 = distinct !DIGlobalVariable(scope: null, file: !2, line: 1686, type: !54, isLocal: true, isDefinition: true)
!54 = !DICompositeType(tag: DW_TAG_array_type, baseType: !4, size: 112, elements: !55)
!55 = !{!56}
!56 = !DISubrange(count: 14)
!57 = !DIGlobalVariableExpression(var: !58, expr: !DIExpression())
!58 = distinct !DIGlobalVariable(scope: null, file: !2, line: 1689, type: !24, isLocal: true, isDefinition: true)
!59 = !DIGlobalVariableExpression(var: !60, expr: !DIExpression())
!60 = distinct !DIGlobalVariable(scope: null, file: !2, line: 1690, type: !61, isLocal: true, isDefinition: true)
!61 = !DICompositeType(tag: DW_TAG_array_type, baseType: !4, size: 48, elements: !62)
!62 = !{!63}
!63 = !DISubrange(count: 6)
!64 = !DIGlobalVariableExpression(var: !65, expr: !DIExpression())
!65 = distinct !DIGlobalVariable(scope: null, file: !2, line: 1691, type: !61, isLocal: true, isDefinition: true)
!66 = !DIGlobalVariableExpression(var: !67, expr: !DIExpression(DW_OP_constu, 240128632, DW_OP_stack_value))
!67 = distinct !DIGlobalVariable(name: "g_141", scope: !10, file: !2, line: 36, type: !68, isLocal: true, isDefinition: true)
!68 = !DIDerivedType(tag: DW_TAG_const_type, baseType: !69)
!69 = !DIDerivedType(tag: DW_TAG_typedef, name: "int32_t", file: !70, line: 26, baseType: !71)
!70 = !DIFile(filename: "/usr/include/bits/stdint-intn.h", directory: "", checksumkind: CSK_MD5, checksum: "85f68316edee664d7bd685b977adf677")
!71 = !DIDerivedType(tag: DW_TAG_typedef, name: "__int32_t", file: !72, line: 41, baseType: !13)
!72 = !DIFile(filename: "/usr/include/bits/types.h", directory: "", checksumkind: CSK_MD5, checksum: "4a64d909bcfa62a0a7682c3ac78c6965")
!73 = !DIGlobalVariableExpression(var: !74, expr: !DIExpression())
!74 = distinct !DIGlobalVariable(scope: null, file: !2, line: 1692, type: !61, isLocal: true, isDefinition: true)
!75 = !DIGlobalVariableExpression(var: !76, expr: !DIExpression())
!76 = distinct !DIGlobalVariable(scope: null, file: !2, line: 1693, type: !61, isLocal: true, isDefinition: true)
!77 = !DIGlobalVariableExpression(var: !78, expr: !DIExpression())
!78 = distinct !DIGlobalVariable(scope: null, file: !2, line: 1696, type: !79, isLocal: true, isDefinition: true)
!79 = !DICompositeType(tag: DW_TAG_array_type, baseType: !4, size: 72, elements: !80)
!80 = !{!81}
!81 = !DISubrange(count: 9)
!82 = !DIGlobalVariableExpression(var: !83, expr: !DIExpression())
!83 = distinct !DIGlobalVariable(scope: null, file: !2, line: 1700, type: !61, isLocal: true, isDefinition: true)
!84 = !DIGlobalVariableExpression(var: !85, expr: !DIExpression())
!85 = distinct !DIGlobalVariable(scope: null, file: !2, line: 1701, type: !79, isLocal: true, isDefinition: true)
!86 = !DIGlobalVariableExpression(var: !87, expr: !DIExpression())
!87 = distinct !DIGlobalVariable(scope: null, file: !2, line: 1704, type: !79, isLocal: true, isDefinition: true)
!88 = !DIGlobalVariableExpression(var: !89, expr: !DIExpression())
!89 = distinct !DIGlobalVariable(scope: null, file: !2, line: 1710, type: !79, isLocal: true, isDefinition: true)
!90 = !DIGlobalVariableExpression(var: !91, expr: !DIExpression())
!91 = distinct !DIGlobalVariable(scope: null, file: !2, line: 1714, type: !61, isLocal: true, isDefinition: true)
!92 = !DIGlobalVariableExpression(var: !93, expr: !DIExpression())
!93 = distinct !DIGlobalVariable(scope: null, file: !2, line: 1717, type: !79, isLocal: true, isDefinition: true)
!94 = !DIGlobalVariableExpression(var: !95, expr: !DIExpression())
!95 = distinct !DIGlobalVariable(scope: null, file: !2, line: 1721, type: !61, isLocal: true, isDefinition: true)
!96 = !DIGlobalVariableExpression(var: !97, expr: !DIExpression())
!97 = distinct !DIGlobalVariable(scope: null, file: !2, line: 1722, type: !61, isLocal: true, isDefinition: true)
!98 = !DIGlobalVariableExpression(var: !99, expr: !DIExpression())
!99 = distinct !DIGlobalVariable(scope: null, file: !2, line: 1723, type: !61, isLocal: true, isDefinition: true)
!100 = !DIGlobalVariableExpression(var: !101, expr: !DIExpression())
!101 = distinct !DIGlobalVariable(scope: null, file: !2, line: 1724, type: !61, isLocal: true, isDefinition: true)
!102 = !DIGlobalVariableExpression(var: !103, expr: !DIExpression())
!103 = distinct !DIGlobalVariable(scope: null, file: !2, line: 1725, type: !61, isLocal: true, isDefinition: true)
!104 = !DIGlobalVariableExpression(var: !105, expr: !DIExpression())
!105 = distinct !DIGlobalVariable(scope: null, file: !2, line: 1726, type: !61, isLocal: true, isDefinition: true)
!106 = !DIGlobalVariableExpression(var: !107, expr: !DIExpression())
!107 = distinct !DIGlobalVariable(scope: null, file: !2, line: 1731, type: !108, isLocal: true, isDefinition: true)
!108 = !DICompositeType(tag: DW_TAG_array_type, baseType: !4, size: 96, elements: !109)
!109 = !{!110}
!110 = !DISubrange(count: 12)
!111 = !DIGlobalVariableExpression(var: !112, expr: !DIExpression())
!112 = distinct !DIGlobalVariable(scope: null, file: !2, line: 1736, type: !61, isLocal: true, isDefinition: true)
!113 = !DIGlobalVariableExpression(var: !114, expr: !DIExpression())
!114 = distinct !DIGlobalVariable(scope: null, file: !2, line: 1739, type: !108, isLocal: true, isDefinition: true)
!115 = !DIGlobalVariableExpression(var: !116, expr: !DIExpression())
!116 = distinct !DIGlobalVariable(scope: null, file: !2, line: 1749, type: !44, isLocal: true, isDefinition: true)
!117 = !DIGlobalVariableExpression(var: !118, expr: !DIExpression())
!118 = distinct !DIGlobalVariable(scope: null, file: !2, line: 1750, type: !119, isLocal: true, isDefinition: true)
!119 = !DICompositeType(tag: DW_TAG_array_type, baseType: !4, size: 176, elements: !120)
!120 = !{!121}
!121 = !DISubrange(count: 22)
!122 = !DIGlobalVariableExpression(var: !123, expr: !DIExpression())
!123 = distinct !DIGlobalVariable(scope: null, file: !2, line: 1757, type: !79, isLocal: true, isDefinition: true)
!124 = !DIGlobalVariableExpression(var: !125, expr: !DIExpression())
!125 = distinct !DIGlobalVariable(scope: null, file: !2, line: 1767, type: !126, isLocal: true, isDefinition: true)
!126 = !DICompositeType(tag: DW_TAG_array_type, baseType: !4, size: 120, elements: !127)
!127 = !{!128}
!128 = !DISubrange(count: 15)
!129 = !DIGlobalVariableExpression(var: !130, expr: !DIExpression())
!130 = distinct !DIGlobalVariable(scope: null, file: !2, line: 1773, type: !61, isLocal: true, isDefinition: true)
!131 = !DIGlobalVariableExpression(var: !132, expr: !DIExpression())
!132 = distinct !DIGlobalVariable(scope: null, file: !2, line: 1774, type: !61, isLocal: true, isDefinition: true)
!133 = !DIGlobalVariableExpression(var: !134, expr: !DIExpression())
!134 = distinct !DIGlobalVariable(scope: null, file: !2, line: 1777, type: !79, isLocal: true, isDefinition: true)
!135 = !DIGlobalVariableExpression(var: !136, expr: !DIExpression(DW_OP_constu, 0, DW_OP_stack_value))
!136 = distinct !DIGlobalVariable(name: "g_797", scope: !10, file: !2, line: 84, type: !137, isLocal: true, isDefinition: true)
!137 = !DIDerivedType(tag: DW_TAG_const_type, baseType: !138)
!138 = !DIDerivedType(tag: DW_TAG_typedef, name: "int64_t", file: !70, line: 27, baseType: !139)
!139 = !DIDerivedType(tag: DW_TAG_typedef, name: "__int64_t", file: !72, line: 44, baseType: !140)
!140 = !DIBasicType(name: "long", size: 64, encoding: DW_ATE_signed)
!141 = !DIGlobalVariableExpression(var: !142, expr: !DIExpression())
!142 = distinct !DIGlobalVariable(scope: null, file: !2, line: 1781, type: !61, isLocal: true, isDefinition: true)
!143 = !DIGlobalVariableExpression(var: !144, expr: !DIExpression(DW_OP_constu, 1089575575, DW_OP_stack_value))
!144 = distinct !DIGlobalVariable(name: "g_879", scope: !10, file: !2, line: 85, type: !68, isLocal: true, isDefinition: true)
!145 = !DIGlobalVariableExpression(var: !146, expr: !DIExpression())
!146 = distinct !DIGlobalVariable(scope: null, file: !2, line: 1782, type: !61, isLocal: true, isDefinition: true)
!147 = !DIGlobalVariableExpression(var: !148, expr: !DIExpression())
!148 = distinct !DIGlobalVariable(scope: null, file: !2, line: 1783, type: !61, isLocal: true, isDefinition: true)
!149 = !DIGlobalVariableExpression(var: !150, expr: !DIExpression())
!150 = distinct !DIGlobalVariable(scope: null, file: !2, line: 1784, type: !61, isLocal: true, isDefinition: true)
!151 = !DIGlobalVariableExpression(var: !152, expr: !DIExpression())
!152 = distinct !DIGlobalVariable(scope: null, file: !2, line: 1785, type: !61, isLocal: true, isDefinition: true)
!153 = !DIGlobalVariableExpression(var: !154, expr: !DIExpression(DW_OP_constu, 0, DW_OP_stack_value))
!154 = distinct !DIGlobalVariable(name: "g_1085", scope: !10, file: !2, line: 93, type: !68, isLocal: true, isDefinition: true)
!155 = !DIGlobalVariableExpression(var: !156, expr: !DIExpression())
!156 = distinct !DIGlobalVariable(scope: null, file: !2, line: 1786, type: !157, isLocal: true, isDefinition: true)
!157 = !DICompositeType(tag: DW_TAG_array_type, baseType: !4, size: 56, elements: !158)
!158 = !{!159}
!159 = !DISubrange(count: 7)
!160 = !DIGlobalVariableExpression(var: !161, expr: !DIExpression())
!161 = distinct !DIGlobalVariable(scope: null, file: !2, line: 1787, type: !157, isLocal: true, isDefinition: true)
!162 = !DIGlobalVariableExpression(var: !163, expr: !DIExpression())
!163 = distinct !DIGlobalVariable(scope: null, file: !2, line: 1788, type: !157, isLocal: true, isDefinition: true)
!164 = !DIGlobalVariableExpression(var: !165, expr: !DIExpression())
!165 = distinct !DIGlobalVariable(scope: null, file: !2, line: 1789, type: !157, isLocal: true, isDefinition: true)
!166 = !DIGlobalVariableExpression(var: !167, expr: !DIExpression())
!167 = distinct !DIGlobalVariable(scope: null, file: !2, line: 1790, type: !157, isLocal: true, isDefinition: true)
!168 = !DIGlobalVariableExpression(var: !169, expr: !DIExpression())
!169 = distinct !DIGlobalVariable(scope: null, file: !2, line: 1791, type: !157, isLocal: true, isDefinition: true)
!170 = !DIGlobalVariableExpression(var: !171, expr: !DIExpression())
!171 = distinct !DIGlobalVariable(scope: null, file: !2, line: 1792, type: !157, isLocal: true, isDefinition: true)
!172 = !DIGlobalVariableExpression(var: !173, expr: !DIExpression(DW_OP_constu, 1, DW_OP_stack_value))
!173 = distinct !DIGlobalVariable(name: "g_1363", scope: !10, file: !2, line: 109, type: !174, isLocal: true, isDefinition: true)
!174 = !DIDerivedType(tag: DW_TAG_const_type, baseType: !175)
!175 = !DIDerivedType(tag: DW_TAG_typedef, name: "uint16_t", file: !176, line: 25, baseType: !177)
!176 = !DIFile(filename: "/usr/include/bits/stdint-uintn.h", directory: "", checksumkind: CSK_MD5, checksum: "4ecee94d7257cd86659727d06a979b60")
!177 = !DIDerivedType(tag: DW_TAG_typedef, name: "__uint16_t", file: !72, line: 40, baseType: !178)
!178 = !DIBasicType(name: "unsigned short", size: 16, encoding: DW_ATE_unsigned)
!179 = !DIGlobalVariableExpression(var: !180, expr: !DIExpression())
!180 = distinct !DIGlobalVariable(scope: null, file: !2, line: 1793, type: !157, isLocal: true, isDefinition: true)
!181 = !DIGlobalVariableExpression(var: !182, expr: !DIExpression(DW_OP_constu, 35900, DW_OP_stack_value))
!182 = distinct !DIGlobalVariable(name: "g_1368", scope: !10, file: !2, line: 111, type: !174, isLocal: true, isDefinition: true)
!183 = !DIGlobalVariableExpression(var: !184, expr: !DIExpression())
!184 = distinct !DIGlobalVariable(scope: null, file: !2, line: 1794, type: !157, isLocal: true, isDefinition: true)
!185 = !DIGlobalVariableExpression(var: !186, expr: !DIExpression())
!186 = distinct !DIGlobalVariable(scope: null, file: !2, line: 1797, type: !187, isLocal: true, isDefinition: true)
!187 = !DICompositeType(tag: DW_TAG_array_type, baseType: !4, size: 80, elements: !188)
!188 = !{!189}
!189 = !DISubrange(count: 10)
!190 = !DIGlobalVariableExpression(var: !191, expr: !DIExpression())
!191 = distinct !DIGlobalVariable(scope: null, file: !2, line: 1801, type: !157, isLocal: true, isDefinition: true)
!192 = !DIGlobalVariableExpression(var: !193, expr: !DIExpression())
!193 = distinct !DIGlobalVariable(scope: null, file: !2, line: 1806, type: !194, isLocal: true, isDefinition: true)
!194 = !DICompositeType(tag: DW_TAG_array_type, baseType: !4, size: 104, elements: !195)
!195 = !{!196}
!196 = !DISubrange(count: 13)
!197 = !DIGlobalVariableExpression(var: !198, expr: !DIExpression())
!198 = distinct !DIGlobalVariable(scope: null, file: !2, line: 1811, type: !157, isLocal: true, isDefinition: true)
!199 = !DIGlobalVariableExpression(var: !200, expr: !DIExpression())
!200 = distinct !DIGlobalVariable(scope: null, file: !2, line: 1812, type: !157, isLocal: true, isDefinition: true)
!201 = !DIGlobalVariableExpression(var: !202, expr: !DIExpression())
!202 = distinct !DIGlobalVariable(scope: null, file: !2, line: 1815, type: !187, isLocal: true, isDefinition: true)
!203 = !DIGlobalVariableExpression(var: !204, expr: !DIExpression())
!204 = distinct !DIGlobalVariable(scope: null, file: !2, line: 1819, type: !187, isLocal: true, isDefinition: true)
!205 = !DIGlobalVariableExpression(var: !206, expr: !DIExpression())
!206 = distinct !DIGlobalVariable(scope: null, file: !2, line: 1820, type: !157, isLocal: true, isDefinition: true)
!207 = !DIGlobalVariableExpression(var: !208, expr: !DIExpression())
!208 = distinct !DIGlobalVariable(scope: null, file: !2, line: 1821, type: !157, isLocal: true, isDefinition: true)
!209 = !DIGlobalVariableExpression(var: !210, expr: !DIExpression())
!210 = distinct !DIGlobalVariable(scope: null, file: !2, line: 1822, type: !157, isLocal: true, isDefinition: true)
!211 = !DIGlobalVariableExpression(var: !212, expr: !DIExpression())
!212 = distinct !DIGlobalVariable(scope: null, file: !2, line: 1823, type: !157, isLocal: true, isDefinition: true)
!213 = !DIGlobalVariableExpression(var: !214, expr: !DIExpression())
!214 = distinct !DIGlobalVariable(scope: null, file: !2, line: 1824, type: !157, isLocal: true, isDefinition: true)
!215 = !DIGlobalVariableExpression(var: !216, expr: !DIExpression())
!216 = distinct !DIGlobalVariable(scope: null, file: !2, line: 1825, type: !157, isLocal: true, isDefinition: true)
!217 = !DIGlobalVariableExpression(var: !218, expr: !DIExpression())
!218 = distinct !DIGlobalVariable(scope: null, file: !2, line: 1826, type: !187, isLocal: true, isDefinition: true)
!219 = !DIGlobalVariableExpression(var: !220, expr: !DIExpression())
!220 = distinct !DIGlobalVariable(scope: null, file: !2, line: 1827, type: !187, isLocal: true, isDefinition: true)
!221 = !DIGlobalVariableExpression(var: !222, expr: !DIExpression())
!222 = distinct !DIGlobalVariable(scope: null, file: !2, line: 1828, type: !187, isLocal: true, isDefinition: true)
!223 = !DIGlobalVariableExpression(var: !224, expr: !DIExpression())
!224 = distinct !DIGlobalVariable(scope: null, file: !2, line: 1829, type: !187, isLocal: true, isDefinition: true)
!225 = !DIGlobalVariableExpression(var: !226, expr: !DIExpression())
!226 = distinct !DIGlobalVariable(scope: null, file: !2, line: 1830, type: !187, isLocal: true, isDefinition: true)
!227 = !DIGlobalVariableExpression(var: !228, expr: !DIExpression())
!228 = distinct !DIGlobalVariable(scope: null, file: !2, line: 1837, type: !229, isLocal: true, isDefinition: true)
!229 = !DICompositeType(tag: DW_TAG_array_type, baseType: !4, size: 152, elements: !230)
!230 = !{!231}
!231 = !DISubrange(count: 19)
!232 = !DIGlobalVariableExpression(var: !233, expr: !DIExpression())
!233 = distinct !DIGlobalVariable(scope: null, file: !2, line: 1845, type: !194, isLocal: true, isDefinition: true)
!234 = !DIGlobalVariableExpression(var: !235, expr: !DIExpression())
!235 = distinct !DIGlobalVariable(scope: null, file: !2, line: 1849, type: !187, isLocal: true, isDefinition: true)
!236 = !DIGlobalVariableExpression(var: !237, expr: !DIExpression())
!237 = distinct !DIGlobalVariable(scope: null, file: !2, line: 1852, type: !194, isLocal: true, isDefinition: true)
!238 = !DIGlobalVariableExpression(var: !239, expr: !DIExpression())
!239 = distinct !DIGlobalVariable(scope: null, file: !2, line: 1856, type: !187, isLocal: true, isDefinition: true)
!240 = !DIGlobalVariableExpression(var: !241, expr: !DIExpression())
!241 = distinct !DIGlobalVariable(scope: null, file: !2, line: 1857, type: !187, isLocal: true, isDefinition: true)
!242 = !DIGlobalVariableExpression(var: !243, expr: !DIExpression())
!243 = distinct !DIGlobalVariable(scope: null, file: !2, line: 1858, type: !187, isLocal: true, isDefinition: true)
!244 = !DIGlobalVariableExpression(var: !245, expr: !DIExpression())
!245 = distinct !DIGlobalVariable(scope: null, file: !2, line: 1859, type: !187, isLocal: true, isDefinition: true)
!246 = !DIGlobalVariableExpression(var: !247, expr: !DIExpression())
!247 = distinct !DIGlobalVariable(scope: null, file: !2, line: 1860, type: !187, isLocal: true, isDefinition: true)
!248 = !DIGlobalVariableExpression(var: !249, expr: !DIExpression())
!249 = distinct !DIGlobalVariable(scope: null, file: !2, line: 1867, type: !229, isLocal: true, isDefinition: true)
!250 = !DIGlobalVariableExpression(var: !251, expr: !DIExpression())
!251 = distinct !DIGlobalVariable(scope: null, file: !2, line: 1877, type: !252, isLocal: true, isDefinition: true)
!252 = !DICompositeType(tag: DW_TAG_array_type, baseType: !4, size: 128, elements: !253)
!253 = !{!254}
!254 = !DISubrange(count: 16)
!255 = !DIGlobalVariableExpression(var: !256, expr: !DIExpression())
!256 = distinct !DIGlobalVariable(scope: null, file: !2, line: 1886, type: !252, isLocal: true, isDefinition: true)
!257 = !DIGlobalVariableExpression(var: !258, expr: !DIExpression())
!258 = distinct !DIGlobalVariable(scope: null, file: !2, line: 1891, type: !187, isLocal: true, isDefinition: true)
!259 = !DIGlobalVariableExpression(var: !260, expr: !DIExpression())
!260 = distinct !DIGlobalVariable(scope: null, file: !2, line: 1892, type: !187, isLocal: true, isDefinition: true)
!261 = !DIGlobalVariableExpression(var: !262, expr: !DIExpression())
!262 = distinct !DIGlobalVariable(scope: null, file: !2, line: 1893, type: !187, isLocal: true, isDefinition: true)
!263 = !DIGlobalVariableExpression(var: !264, expr: !DIExpression())
!264 = distinct !DIGlobalVariable(scope: null, file: !2, line: 1894, type: !187, isLocal: true, isDefinition: true)
!265 = !DIGlobalVariableExpression(var: !266, expr: !DIExpression())
!266 = distinct !DIGlobalVariable(scope: null, file: !2, line: 1895, type: !187, isLocal: true, isDefinition: true)
!267 = !DIGlobalVariableExpression(var: !268, expr: !DIExpression())
!268 = distinct !DIGlobalVariable(scope: null, file: !2, line: 1896, type: !187, isLocal: true, isDefinition: true)
!269 = !DIGlobalVariableExpression(var: !270, expr: !DIExpression())
!270 = distinct !DIGlobalVariable(scope: null, file: !2, line: 1897, type: !187, isLocal: true, isDefinition: true)
!271 = !DIGlobalVariableExpression(var: !272, expr: !DIExpression())
!272 = distinct !DIGlobalVariable(scope: null, file: !2, line: 1898, type: !187, isLocal: true, isDefinition: true)
!273 = !DIGlobalVariableExpression(var: !274, expr: !DIExpression())
!274 = distinct !DIGlobalVariable(scope: null, file: !2, line: 1901, type: !194, isLocal: true, isDefinition: true)
!275 = !DIGlobalVariableExpression(var: !276, expr: !DIExpression())
!276 = distinct !DIGlobalVariable(scope: null, file: !2, line: 1905, type: !187, isLocal: true, isDefinition: true)
!277 = !DIGlobalVariableExpression(var: !278, expr: !DIExpression())
!278 = distinct !DIGlobalVariable(scope: null, file: !2, line: 1906, type: !187, isLocal: true, isDefinition: true)
!279 = !DIGlobalVariableExpression(var: !280, expr: !DIExpression())
!280 = distinct !DIGlobalVariable(scope: null, file: !2, line: 1907, type: !187, isLocal: true, isDefinition: true)
!281 = !DIGlobalVariableExpression(var: !282, expr: !DIExpression())
!282 = distinct !DIGlobalVariable(scope: null, file: !2, line: 1908, type: !187, isLocal: true, isDefinition: true)
!283 = !DIGlobalVariableExpression(var: !284, expr: !DIExpression())
!284 = distinct !DIGlobalVariable(scope: null, file: !2, line: 1909, type: !187, isLocal: true, isDefinition: true)
!285 = !DIGlobalVariableExpression(var: !286, expr: !DIExpression())
!286 = distinct !DIGlobalVariable(scope: null, file: !2, line: 1912, type: !194, isLocal: true, isDefinition: true)
!287 = !DIGlobalVariableExpression(var: !288, expr: !DIExpression())
!288 = distinct !DIGlobalVariable(scope: null, file: !2, line: 1916, type: !187, isLocal: true, isDefinition: true)
!289 = !DIGlobalVariableExpression(var: !290, expr: !DIExpression())
!290 = distinct !DIGlobalVariable(scope: null, file: !2, line: 1917, type: !187, isLocal: true, isDefinition: true)
!291 = !DIGlobalVariableExpression(var: !292, expr: !DIExpression())
!292 = distinct !DIGlobalVariable(scope: null, file: !2, line: 1918, type: !187, isLocal: true, isDefinition: true)
!293 = !DIGlobalVariableExpression(var: !294, expr: !DIExpression())
!294 = distinct !DIGlobalVariable(scope: null, file: !2, line: 1919, type: !187, isLocal: true, isDefinition: true)
!295 = !DIGlobalVariableExpression(var: !296, expr: !DIExpression())
!296 = distinct !DIGlobalVariable(scope: null, file: !2, line: 1922, type: !194, isLocal: true, isDefinition: true)
!297 = !DIGlobalVariableExpression(var: !298, expr: !DIExpression())
!298 = distinct !DIGlobalVariable(scope: null, file: !2, line: 1930, type: !252, isLocal: true, isDefinition: true)
!299 = !DIGlobalVariableExpression(var: !300, expr: !DIExpression())
!300 = distinct !DIGlobalVariable(scope: null, file: !2, line: 1935, type: !187, isLocal: true, isDefinition: true)
!301 = !DIGlobalVariableExpression(var: !302, expr: !DIExpression())
!302 = distinct !DIGlobalVariable(scope: null, file: !2, line: 1936, type: !187, isLocal: true, isDefinition: true)
!303 = !DIGlobalVariableExpression(var: !304, expr: !DIExpression())
!304 = distinct !DIGlobalVariable(scope: null, file: !2, line: 1937, type: !187, isLocal: true, isDefinition: true)
!305 = !DIGlobalVariableExpression(var: !306, expr: !DIExpression())
!306 = distinct !DIGlobalVariable(scope: null, file: !2, line: 1938, type: !187, isLocal: true, isDefinition: true)
!307 = !DIGlobalVariableExpression(var: !308, expr: !DIExpression())
!308 = distinct !DIGlobalVariable(scope: null, file: !2, line: 1939, type: !187, isLocal: true, isDefinition: true)
!309 = !DIGlobalVariableExpression(var: !310, expr: !DIExpression())
!310 = distinct !DIGlobalVariable(scope: null, file: !2, line: 1940, type: !187, isLocal: true, isDefinition: true)
!311 = !DIGlobalVariableExpression(var: !312, expr: !DIExpression())
!312 = distinct !DIGlobalVariable(scope: null, file: !2, line: 1941, type: !187, isLocal: true, isDefinition: true)
!313 = !DIGlobalVariableExpression(var: !314, expr: !DIExpression())
!314 = distinct !DIGlobalVariable(scope: null, file: !2, line: 1942, type: !187, isLocal: true, isDefinition: true)
!315 = !DIGlobalVariableExpression(var: !316, expr: !DIExpression())
!316 = distinct !DIGlobalVariable(scope: null, file: !2, line: 1943, type: !187, isLocal: true, isDefinition: true)
!317 = !DIGlobalVariableExpression(var: !318, expr: !DIExpression())
!318 = distinct !DIGlobalVariable(scope: null, file: !2, line: 1944, type: !187, isLocal: true, isDefinition: true)
!319 = !DIGlobalVariableExpression(var: !320, expr: !DIExpression())
!320 = distinct !DIGlobalVariable(scope: null, file: !2, line: 1945, type: !187, isLocal: true, isDefinition: true)
!321 = !DIGlobalVariableExpression(var: !322, expr: !DIExpression())
!322 = distinct !DIGlobalVariable(scope: null, file: !2, line: 1946, type: !187, isLocal: true, isDefinition: true)
!323 = !DIGlobalVariableExpression(var: !324, expr: !DIExpression())
!324 = distinct !DIGlobalVariable(scope: null, file: !2, line: 1947, type: !187, isLocal: true, isDefinition: true)
!325 = !DIGlobalVariableExpression(var: !326, expr: !DIExpression())
!326 = distinct !DIGlobalVariable(scope: null, file: !2, line: 1948, type: !187, isLocal: true, isDefinition: true)
!327 = !DIGlobalVariableExpression(var: !328, expr: !DIExpression())
!328 = distinct !DIGlobalVariable(scope: null, file: !2, line: 1949, type: !157, isLocal: true, isDefinition: true)
!329 = !DIGlobalVariableExpression(var: !330, expr: !DIExpression())
!330 = distinct !DIGlobalVariable(scope: null, file: !2, line: 1950, type: !157, isLocal: true, isDefinition: true)
!331 = !DIGlobalVariableExpression(var: !332, expr: !DIExpression())
!332 = distinct !DIGlobalVariable(scope: null, file: !2, line: 1951, type: !157, isLocal: true, isDefinition: true)
!333 = !DIGlobalVariableExpression(var: !334, expr: !DIExpression())
!334 = distinct !DIGlobalVariable(scope: null, file: !2, line: 1952, type: !157, isLocal: true, isDefinition: true)
!335 = !DIGlobalVariableExpression(var: !336, expr: !DIExpression())
!336 = distinct !DIGlobalVariable(scope: null, file: !2, line: 1953, type: !157, isLocal: true, isDefinition: true)
!337 = !DIGlobalVariableExpression(var: !338, expr: !DIExpression())
!338 = distinct !DIGlobalVariable(scope: null, file: !2, line: 1960, type: !252, isLocal: true, isDefinition: true)
!339 = !DIGlobalVariableExpression(var: !340, expr: !DIExpression())
!340 = distinct !DIGlobalVariable(scope: null, file: !2, line: 1968, type: !187, isLocal: true, isDefinition: true)
!341 = !DIGlobalVariableExpression(var: !342, expr: !DIExpression())
!342 = distinct !DIGlobalVariable(scope: null, file: !2, line: 1974, type: !187, isLocal: true, isDefinition: true)
!343 = !DIGlobalVariableExpression(var: !344, expr: !DIExpression())
!344 = distinct !DIGlobalVariable(scope: null, file: !2, line: 1978, type: !157, isLocal: true, isDefinition: true)
!345 = !DIGlobalVariableExpression(var: !346, expr: !DIExpression())
!346 = distinct !DIGlobalVariable(scope: null, file: !2, line: 1979, type: !157, isLocal: true, isDefinition: true)
!347 = !DIGlobalVariableExpression(var: !348, expr: !DIExpression())
!348 = distinct !DIGlobalVariable(scope: null, file: !2, line: 1980, type: !157, isLocal: true, isDefinition: true)
!349 = !DIGlobalVariableExpression(var: !350, expr: !DIExpression())
!350 = distinct !DIGlobalVariable(scope: null, file: !2, line: 1981, type: !157, isLocal: true, isDefinition: true)
!351 = !DIGlobalVariableExpression(var: !352, expr: !DIExpression())
!352 = distinct !DIGlobalVariable(scope: null, file: !2, line: 1982, type: !157, isLocal: true, isDefinition: true)
!353 = !DIGlobalVariableExpression(var: !354, expr: !DIExpression())
!354 = distinct !DIGlobalVariable(name: "crc32_tab", linkageName: "_ZL9crc32_tab", scope: !10, file: !355, line: 47, type: !356, isLocal: true, isDefinition: true)
!355 = !DIFile(filename: "/usr/local/include/csmith.h", directory: "", checksumkind: CSK_MD5, checksum: "384f85511c9e0cdae8849f8ee261c941")
!356 = !DICompositeType(tag: DW_TAG_array_type, baseType: !357, size: 8192, elements: !359)
!357 = !DIDerivedType(tag: DW_TAG_typedef, name: "uint32_t", file: !176, line: 26, baseType: !358)
!358 = !DIDerivedType(tag: DW_TAG_typedef, name: "__uint32_t", file: !72, line: 42, baseType: !12)
!359 = !{!360}
!360 = !DISubrange(count: 256)
!361 = !DIGlobalVariableExpression(var: !362, expr: !DIExpression())
!362 = distinct !DIGlobalVariable(name: "g_1327", scope: !10, file: !2, line: 106, type: !363, isLocal: true, isDefinition: true)
!363 = !DIDerivedType(tag: DW_TAG_const_type, baseType: !364)
!364 = !DIDerivedType(tag: DW_TAG_pointer_type, baseType: !69, size: 64)
!365 = !DIGlobalVariableExpression(var: !366, expr: !DIExpression())
!366 = distinct !DIGlobalVariable(name: "g_1016", linkageName: "_ZL6g_1016", scope: !10, file: !2, line: 90, type: !364, isLocal: true, isDefinition: true)
!367 = !DIGlobalVariableExpression(var: !368, expr: !DIExpression())
!368 = distinct !DIGlobalVariable(name: "g_630", linkageName: "_ZL5g_630", scope: !10, file: !2, line: 79, type: !369, isLocal: true, isDefinition: true)
!369 = !DICompositeType(tag: DW_TAG_array_type, baseType: !370, size: 128, elements: !6)
!370 = !DIDerivedType(tag: DW_TAG_pointer_type, baseType: !371, size: 64)
!371 = !DIDerivedType(tag: DW_TAG_pointer_type, baseType: !372, size: 64)
!372 = !DIDerivedType(tag: DW_TAG_pointer_type, baseType: !373, size: 64)
!373 = !DIDerivedType(tag: DW_TAG_pointer_type, baseType: !374, size: 64)
!374 = distinct !DICompositeType(tag: DW_TAG_union_type, name: "U0", file: !2, line: 16, size: 32, flags: DIFlagTypePassByValue, elements: !375, identifier: "_ZTS2U0")
!375 = !{!376}
!376 = !DIDerivedType(tag: DW_TAG_member, name: "f0", scope: !374, file: !2, line: 17, baseType: !357, size: 32)
!377 = !DIGlobalVariableExpression(var: !378, expr: !DIExpression())
!378 = distinct !DIGlobalVariable(name: "g_631", linkageName: "_ZL5g_631", scope: !10, file: !2, line: 78, type: !371, isLocal: true, isDefinition: true)
!379 = !DIGlobalVariableExpression(var: !380, expr: !DIExpression())
!380 = distinct !DIGlobalVariable(name: "g_1032", linkageName: "_ZL6g_1032", scope: !10, file: !2, line: 92, type: !381, isLocal: true, isDefinition: true)
!381 = !DIDerivedType(tag: DW_TAG_pointer_type, baseType: !382, size: 64)
!382 = !DIDerivedType(tag: DW_TAG_pointer_type, baseType: !138, size: 64)
!383 = !DIGlobalVariableExpression(var: !384, expr: !DIExpression())
!384 = distinct !DIGlobalVariable(name: "g_1033", linkageName: "_ZL6g_1033", scope: !10, file: !2, line: 91, type: !382, isLocal: true, isDefinition: true)
!385 = !DIGlobalVariableExpression(var: !386, expr: !DIExpression())
!386 = distinct !DIGlobalVariable(name: "g_637", linkageName: "_ZL5g_637", scope: !10, file: !2, line: 81, type: !387, isLocal: true, isDefinition: true)
!387 = !DIDerivedType(tag: DW_TAG_pointer_type, baseType: !364, size: 64)
!388 = !DIGlobalVariableExpression(var: !389, expr: !DIExpression())
!389 = distinct !DIGlobalVariable(name: "g_1215", linkageName: "_ZL6g_1215", scope: !10, file: !2, line: 98, type: !390, isLocal: true, isDefinition: true)
!390 = !DICompositeType(tag: DW_TAG_array_type, baseType: !391, size: 1280, elements: !395)
!391 = !DIDerivedType(tag: DW_TAG_pointer_type, baseType: !392, size: 64)
!392 = !DIDerivedType(tag: DW_TAG_typedef, name: "int8_t", file: !70, line: 24, baseType: !393)
!393 = !DIDerivedType(tag: DW_TAG_typedef, name: "__int8_t", file: !72, line: 37, baseType: !394)
!394 = !DIBasicType(name: "signed char", size: 8, encoding: DW_ATE_signed_char)
!395 = !{!7, !26, !7}
!396 = !DIGlobalVariableExpression(var: !397, expr: !DIExpression())
!397 = distinct !DIGlobalVariable(name: "g_1084", linkageName: "_ZL6g_1084", scope: !10, file: !2, line: 94, type: !398, isLocal: true, isDefinition: true)
!398 = !DIDerivedType(tag: DW_TAG_pointer_type, baseType: !68, size: 64)
!399 = !DIGlobalVariableExpression(var: !400, expr: !DIExpression())
!400 = distinct !DIGlobalVariable(name: "g_477", linkageName: "_ZL5g_477", scope: !10, file: !2, line: 63, type: !373, isLocal: true, isDefinition: true)
!401 = !DIGlobalVariableExpression(var: !402, expr: !DIExpression())
!402 = distinct !DIGlobalVariable(name: "g_2366", linkageName: "_ZL6g_2366", scope: !10, file: !2, line: 133, type: !403, isLocal: true, isDefinition: true)
!403 = !DIDerivedType(tag: DW_TAG_volatile_type, baseType: !404)
!404 = !DIDerivedType(tag: DW_TAG_pointer_type, baseType: !405, size: 64)
!405 = !DIDerivedType(tag: DW_TAG_volatile_type, baseType: !364)
!406 = !DIGlobalVariableExpression(var: !407, expr: !DIExpression())
!407 = distinct !DIGlobalVariable(name: "g_2367", linkageName: "_ZL6g_2367", scope: !10, file: !2, line: 132, type: !408, isLocal: true, isDefinition: true)
!408 = !DICompositeType(tag: DW_TAG_array_type, baseType: !405, size: 128, elements: !6)
!409 = !DIGlobalVariableExpression(var: !410, expr: !DIExpression())
!410 = distinct !DIGlobalVariable(name: "g_1842", linkageName: "_ZL6g_1842", scope: !10, file: !2, line: 118, type: !411, isLocal: true, isDefinition: true)
!411 = !DIDerivedType(tag: DW_TAG_pointer_type, baseType: !357, size: 64)
!412 = !DIGlobalVariableExpression(var: !413, expr: !DIExpression())
!413 = distinct !DIGlobalVariable(scope: null, file: !355, line: 114, type: !414, isLocal: true, isDefinition: true)
!414 = !DICompositeType(tag: DW_TAG_array_type, baseType: !4, size: 288, elements: !415)
!415 = !{!416}
!416 = !DISubrange(count: 36)
!417 = !DIGlobalVariableExpression(var: !418, expr: !DIExpression())
!418 = distinct !DIGlobalVariable(name: "g_8", linkageName: "_ZL3g_8", scope: !10, file: !2, line: 22, type: !69, isLocal: true, isDefinition: true)
!419 = !DIGlobalVariableExpression(var: !420, expr: !DIExpression())
!420 = distinct !DIGlobalVariable(name: "g_10", linkageName: "_ZL4g_10", scope: !10, file: !2, line: 23, type: !421, isLocal: true, isDefinition: true)
!421 = !DIDerivedType(tag: DW_TAG_volatile_type, baseType: !138)
!422 = !DIGlobalVariableExpression(var: !423, expr: !DIExpression())
!423 = distinct !DIGlobalVariable(name: "g_11", linkageName: "_ZL4g_11", scope: !10, file: !2, line: 24, type: !357, isLocal: true, isDefinition: true)
!424 = !DIGlobalVariableExpression(var: !425, expr: !DIExpression())
!425 = distinct !DIGlobalVariable(name: "g_34", linkageName: "_ZL4g_34", scope: !10, file: !2, line: 25, type: !69, isLocal: true, isDefinition: true)
!426 = !DIGlobalVariableExpression(var: !427, expr: !DIExpression())
!427 = distinct !DIGlobalVariable(name: "g_59", linkageName: "_ZL4g_59", scope: !10, file: !2, line: 26, type: !357, isLocal: true, isDefinition: true)
!428 = !DIGlobalVariableExpression(var: !429, expr: !DIExpression())
!429 = distinct !DIGlobalVariable(name: "g_72", linkageName: "_ZL4g_72", scope: !10, file: !2, line: 27, type: !357, isLocal: true, isDefinition: true)
!430 = !DIGlobalVariableExpression(var: !431, expr: !DIExpression())
!431 = distinct !DIGlobalVariable(name: "g_74", linkageName: "_ZL4g_74", scope: !10, file: !2, line: 28, type: !432, isLocal: true, isDefinition: true)
!432 = !DIDerivedType(tag: DW_TAG_typedef, name: "int16_t", file: !70, line: 25, baseType: !433)
!433 = !DIDerivedType(tag: DW_TAG_typedef, name: "__int16_t", file: !72, line: 39, baseType: !434)
!434 = !DIBasicType(name: "short", size: 16, encoding: DW_ATE_signed)
!435 = !DIGlobalVariableExpression(var: !436, expr: !DIExpression())
!436 = distinct !DIGlobalVariable(name: "g_81", linkageName: "_ZL4g_81", scope: !10, file: !2, line: 29, type: !437, isLocal: true, isDefinition: true)
!437 = !DICompositeType(tag: DW_TAG_array_type, baseType: !438, size: 160, elements: !440)
!438 = !DIDerivedType(tag: DW_TAG_const_type, baseType: !439)
!439 = !DIDerivedType(tag: DW_TAG_volatile_type, baseType: !69)
!440 = !{!441, !26}
!441 = !DISubrange(count: 1)
!442 = !DIGlobalVariableExpression(var: !443, expr: !DIExpression())
!443 = distinct !DIGlobalVariable(name: "g_83", linkageName: "_ZL4g_83", scope: !10, file: !2, line: 32, type: !444, isLocal: true, isDefinition: true)
!444 = !DICompositeType(tag: DW_TAG_array_type, baseType: !69, size: 288, elements: !80)
!445 = !DIGlobalVariableExpression(var: !446, expr: !DIExpression())
!446 = distinct !DIGlobalVariable(name: "g_88", linkageName: "_ZL4g_88", scope: !10, file: !2, line: 33, type: !447, isLocal: true, isDefinition: true)
!447 = !DIDerivedType(tag: DW_TAG_volatile_type, baseType: !357)
!448 = !DIGlobalVariableExpression(var: !449, expr: !DIExpression())
!449 = distinct !DIGlobalVariable(name: "g_111", linkageName: "_ZL5g_111", scope: !10, file: !2, line: 34, type: !175, isLocal: true, isDefinition: true)
!450 = !DIGlobalVariableExpression(var: !451, expr: !DIExpression())
!451 = distinct !DIGlobalVariable(name: "g_122", linkageName: "_ZL5g_122", scope: !10, file: !2, line: 35, type: !452, isLocal: true, isDefinition: true)
!452 = !DIDerivedType(tag: DW_TAG_typedef, name: "uint64_t", file: !176, line: 27, baseType: !453)
!453 = !DIDerivedType(tag: DW_TAG_typedef, name: "__uint64_t", file: !72, line: 45, baseType: !454)
!454 = !DIBasicType(name: "unsigned long", size: 64, encoding: DW_ATE_unsigned)
!455 = !DIGlobalVariableExpression(var: !456, expr: !DIExpression())
!456 = distinct !DIGlobalVariable(name: "g_175", linkageName: "_ZL5g_175", scope: !10, file: !2, line: 37, type: !392, isLocal: true, isDefinition: true)
!457 = !DIGlobalVariableExpression(var: !458, expr: !DIExpression())
!458 = distinct !DIGlobalVariable(name: "g_177", linkageName: "_ZL5g_177", scope: !10, file: !2, line: 38, type: !459, isLocal: true, isDefinition: true)
!459 = !DICompositeType(tag: DW_TAG_array_type, baseType: !392, size: 32, elements: !18)
!460 = !DIGlobalVariableExpression(var: !461, expr: !DIExpression())
!461 = distinct !DIGlobalVariable(name: "g_181", linkageName: "_ZL5g_181", scope: !10, file: !2, line: 39, type: !439, isLocal: true, isDefinition: true)
!462 = !DIGlobalVariableExpression(var: !463, expr: !DIExpression())
!463 = distinct !DIGlobalVariable(name: "g_184", linkageName: "_ZL5g_184", scope: !10, file: !2, line: 42, type: !374, isLocal: true, isDefinition: true)
!464 = !DIGlobalVariableExpression(var: !465, expr: !DIExpression())
!465 = distinct !DIGlobalVariable(name: "g_223", linkageName: "_ZL5g_223", scope: !10, file: !2, line: 46, type: !466, isLocal: true, isDefinition: true)
!466 = !DICompositeType(tag: DW_TAG_array_type, baseType: !138, size: 576, elements: !80)
!467 = !DIGlobalVariableExpression(var: !468, expr: !DIExpression())
!468 = distinct !DIGlobalVariable(name: "g_225", linkageName: "_ZL5g_225", scope: !10, file: !2, line: 47, type: !469, isLocal: true, isDefinition: true)
!469 = !DICompositeType(tag: DW_TAG_array_type, baseType: !470, size: 128, elements: !6)
!470 = !DIDerivedType(tag: DW_TAG_const_type, baseType: !452)
!471 = !DIGlobalVariableExpression(var: !472, expr: !DIExpression())
!472 = distinct !DIGlobalVariable(name: "g_227", linkageName: "_ZL5g_227", scope: !10, file: !2, line: 48, type: !138, isLocal: true, isDefinition: true)
!473 = !DIGlobalVariableExpression(var: !474, expr: !DIExpression())
!474 = distinct !DIGlobalVariable(name: "g_304", linkageName: "_ZL5g_304", scope: !10, file: !2, line: 51, type: !475, isLocal: true, isDefinition: true)
!475 = !DICompositeType(tag: DW_TAG_array_type, baseType: !432, size: 96, elements: !62)
!476 = !DIGlobalVariableExpression(var: !477, expr: !DIExpression())
!477 = distinct !DIGlobalVariable(name: "g_314", linkageName: "_ZL5g_314", scope: !10, file: !2, line: 52, type: !478, isLocal: true, isDefinition: true)
!478 = !DIDerivedType(tag: DW_TAG_volatile_type, baseType: !432)
!479 = !DIGlobalVariableExpression(var: !480, expr: !DIExpression())
!480 = distinct !DIGlobalVariable(name: "g_324", linkageName: "_ZL5g_324", scope: !10, file: !2, line: 53, type: !481, isLocal: true, isDefinition: true)
!481 = !DIDerivedType(tag: DW_TAG_volatile_type, baseType: !482)
!482 = !DIDerivedType(tag: DW_TAG_typedef, name: "uint8_t", file: !176, line: 24, baseType: !483)
!483 = !DIDerivedType(tag: DW_TAG_typedef, name: "__uint8_t", file: !72, line: 38, baseType: !484)
!484 = !DIBasicType(name: "unsigned char", size: 8, encoding: DW_ATE_unsigned_char)
!485 = !DIGlobalVariableExpression(var: !486, expr: !DIExpression())
!486 = distinct !DIGlobalVariable(name: "g_328", linkageName: "_ZL5g_328", scope: !10, file: !2, line: 54, type: !481, isLocal: true, isDefinition: true)
!487 = !DIGlobalVariableExpression(var: !488, expr: !DIExpression())
!488 = distinct !DIGlobalVariable(name: "g_368", linkageName: "_ZL5g_368", scope: !10, file: !2, line: 55, type: !69, isLocal: true, isDefinition: true)
!489 = !DIGlobalVariableExpression(var: !490, expr: !DIExpression())
!490 = distinct !DIGlobalVariable(name: "g_411", linkageName: "_ZL5g_411", scope: !10, file: !2, line: 57, type: !439, isLocal: true, isDefinition: true)
!491 = !DIGlobalVariableExpression(var: !492, expr: !DIExpression())
!492 = distinct !DIGlobalVariable(name: "g_432", linkageName: "_ZL5g_432", scope: !10, file: !2, line: 60, type: !432, isLocal: true, isDefinition: true)
!493 = !DIGlobalVariableExpression(var: !494, expr: !DIExpression())
!494 = distinct !DIGlobalVariable(name: "g_460", linkageName: "_ZL5g_460", scope: !10, file: !2, line: 61, type: !495, isLocal: true, isDefinition: true)
!495 = !DICompositeType(tag: DW_TAG_array_type, baseType: !482, size: 640, elements: !496)
!496 = !{!189, !51}
!497 = !DIGlobalVariableExpression(var: !498, expr: !DIExpression())
!498 = distinct !DIGlobalVariable(name: "g_461", linkageName: "_ZL5g_461", scope: !10, file: !2, line: 62, type: !432, isLocal: true, isDefinition: true)
!499 = !DIGlobalVariableExpression(var: !500, expr: !DIExpression())
!500 = distinct !DIGlobalVariable(name: "g_485", linkageName: "_ZL5g_485", scope: !10, file: !2, line: 66, type: !501, isLocal: true, isDefinition: true)
!501 = !DICompositeType(tag: DW_TAG_array_type, baseType: !502, size: 224, elements: !158)
!502 = !DIDerivedType(tag: DW_TAG_const_type, baseType: !374)
!503 = !DIGlobalVariableExpression(var: !504, expr: !DIExpression())
!504 = distinct !DIGlobalVariable(name: "g_489", linkageName: "_ZL5g_489", scope: !10, file: !2, line: 67, type: !505, isLocal: true, isDefinition: true)
!505 = !DICompositeType(tag: DW_TAG_array_type, baseType: !374, size: 576, elements: !506)
!506 = !{!7, !507, !507}
!507 = !DISubrange(count: 3)
!508 = !DIGlobalVariableExpression(var: !509, expr: !DIExpression())
!509 = distinct !DIGlobalVariable(name: "g_514", linkageName: "_ZL5g_514", scope: !10, file: !2, line: 68, type: !510, isLocal: true, isDefinition: true)
