; ModuleID = 'cpp/csmith6.cpp'
source_filename = "cpp/csmith6.cpp"
target datalayout = "e-m:e-p270:32:32-p271:32:32-p272:64:64-i64:64-f80:128-n8:16:32:64-S128"
target triple = "x86_64-pc-linux-gnu"

@.str = private unnamed_addr constant [2 x i8] c"1\00", align 1
@_ZL3g_2 = internal global [9 x [6 x i32]] [[6 x i32] [i32 0, i32 -171093060, i32 0, i32 0, i32 -171093060, i32 0], [6 x i32] [i32 0, i32 -171093060, i32 0, i32 0, i32 -171093060, i32 0], [6 x i32] [i32 0, i32 -171093060, i32 0, i32 0, i32 -171093060, i32 0], [6 x i32] [i32 0, i32 -171093060, i32 0, i32 0, i32 -171093060, i32 0], [6 x i32] [i32 0, i32 -171093060, i32 0, i32 0, i32 -171093060, i32 0], [6 x i32] [i32 0, i32 -171093060, i32 0, i32 0, i32 -171093060, i32 0], [6 x i32] [i32 0, i32 -171093060, i32 0, i32 0, i32 -171093060, i32 0], [6 x i32] [i32 0, i32 -171093060, i32 0, i32 0, i32 0, i32 -1], [6 x i32] [i32 -1, i32 0, i32 -1, i32 -1, i32 0, i32 -1]], align 16
@.str.1 = private unnamed_addr constant [10 x i8] c"g_2[i][j]\00", align 1
@.str.2 = private unnamed_addr constant [18 x i8] c"index = [%d][%d]\0A\00", align 1
@_ZL4g_28 = internal global i32 -1344124514, align 4
@.str.3 = private unnamed_addr constant [5 x i8] c"g_28\00", align 1
@_ZL4g_34 = internal global i64 -8, align 8
@.str.4 = private unnamed_addr constant [5 x i8] c"g_34\00", align 1
@_ZL4g_37 = internal global i64 6912814813887110508, align 8
@.str.5 = private unnamed_addr constant [5 x i8] c"g_37\00", align 1
@_ZL4g_41 = internal global i8 -46, align 1
@.str.6 = private unnamed_addr constant [5 x i8] c"g_41\00", align 1
@_ZL4g_43 = internal global [5 x i8] c"\01\01\01\01\01", align 1
@.str.7 = private unnamed_addr constant [8 x i8] c"g_43[i]\00", align 1
@.str.8 = private unnamed_addr constant [14 x i8] c"index = [%d]\0A\00", align 1
@_ZL4g_49 = internal global i64 -8034568548221794537, align 8
@.str.9 = private unnamed_addr constant [5 x i8] c"g_49\00", align 1
@_ZL4g_57 = internal global i16 1, align 2
@.str.10 = private unnamed_addr constant [5 x i8] c"g_57\00", align 1
@_ZL4g_93 = internal global i16 28359, align 2
@.str.11 = private unnamed_addr constant [5 x i8] c"g_93\00", align 1
@_ZL4g_94 = internal global i32 1918273527, align 4
@.str.12 = private unnamed_addr constant [5 x i8] c"g_94\00", align 1
@_ZL5g_108 = internal global i8 -88, align 1
@.str.13 = private unnamed_addr constant [6 x i8] c"g_108\00", align 1
@_ZL5g_111 = internal global i32 978008010, align 4
@.str.14 = private unnamed_addr constant [6 x i8] c"g_111\00", align 1
@_ZL5g_113 = internal global [8 x i32] [i32 -358845677, i32 -358845677, i32 -358845677, i32 -358845677, i32 -358845677, i32 -358845677, i32 -358845677, i32 -358845677], align 16
@.str.15 = private unnamed_addr constant [9 x i8] c"g_113[i]\00", align 1
@_ZL5g_122 = internal global i64 5, align 8
@.str.16 = private unnamed_addr constant [6 x i8] c"g_122\00", align 1
@_ZL5g_160 = internal global [2 x [9 x i16]] [[9 x i16] [i16 3032, i16 3032, i16 3032, i16 3032, i16 3032, i16 3032, i16 3032, i16 3032, i16 3032], [9 x i16] [i16 -1455, i16 -1455, i16 -1455, i16 -1455, i16 -1455, i16 -1455, i16 -1455, i16 -1455, i16 -1455]], align 16
@.str.17 = private unnamed_addr constant [12 x i8] c"g_160[i][j]\00", align 1
@_ZL5g_172 = internal global [6 x [1 x [9 x i16]]] [[1 x [9 x i16]] [[9 x i16] [i16 -1, i16 -322, i16 -8104, i16 -31614, i16 -31614, i16 -8104, i16 -322, i16 -1, i16 -8104]], [1 x [9 x i16]] [[9 x i16] [i16 16474, i16 -1, i16 -15344, i16 11914, i16 11914, i16 -15344, i16 -1, i16 16474, i16 -15344]], [1 x [9 x i16]] [[9 x i16] [i16 -1, i16 -322, i16 -8104, i16 -31614, i16 -31614, i16 -8104, i16 -322, i16 -1, i16 -8104]], [1 x [9 x i16]] [[9 x i16] [i16 16474, i16 -1, i16 -15344, i16 11914, i16 11914, i16 -15344, i16 -1, i16 16474, i16 -15344]], [1 x [9 x i16]] [[9 x i16] [i16 -1, i16 -322, i16 -8104, i16 -31614, i16 -31614, i16 -8104, i16 -322, i16 -1, i16 -8104]], [1 x [9 x i16]] [[9 x i16] [i16 16474, i16 -1, i16 -15344, i16 11914, i16 11914, i16 -15344, i16 -1, i16 16474, i16 -15344]]], align 16
@.str.18 = private unnamed_addr constant [15 x i8] c"g_172[i][j][k]\00", align 1
@.str.19 = private unnamed_addr constant [22 x i8] c"index = [%d][%d][%d]\0A\00", align 1
@_ZL5g_175 = internal global i8 -8, align 1
@.str.20 = private unnamed_addr constant [6 x i8] c"g_175\00", align 1
@_ZL5g_209 = internal global i32 1279039244, align 4
@.str.21 = private unnamed_addr constant [6 x i8] c"g_209\00", align 1
@.str.22 = private unnamed_addr constant [6 x i8] c"g_280\00", align 1
@.str.23 = private unnamed_addr constant [6 x i8] c"g_360\00", align 1
@_ZL5g_373 = internal global i32 0, align 4
@.str.24 = private unnamed_addr constant [6 x i8] c"g_373\00", align 1
@_ZL5g_398 = internal global i32 0, align 4
@.str.25 = private unnamed_addr constant [6 x i8] c"g_398\00", align 1
@_ZL5g_402 = internal global i32 0, align 4
@.str.26 = private unnamed_addr constant [6 x i8] c"g_402\00", align 1
@_ZL5g_435 = internal global i16 -1, align 2
@.str.27 = private unnamed_addr constant [6 x i8] c"g_435\00", align 1
@_ZL5g_482 = internal global i32 -102721689, align 4
@.str.28 = private unnamed_addr constant [6 x i8] c"g_482\00", align 1
@_ZL5g_506 = internal global i64 7692743135838287573, align 8
@.str.29 = private unnamed_addr constant [6 x i8] c"g_506\00", align 1
@_ZL5g_507 = internal global [2 x [7 x i64]] [[7 x i64] [i64 2, i64 1, i64 4, i64 4, i64 1, i64 2, i64 1], [7 x i64] [i64 8758010830626825212, i64 2, i64 2, i64 8758010830626825212, i64 1, i64 8758010830626825212, i64 2]], align 16
@.str.30 = private unnamed_addr constant [12 x i8] c"g_507[i][j]\00", align 1
@_ZL5g_511 = internal global i64 -8, align 8
@.str.31 = private unnamed_addr constant [6 x i8] c"g_511\00", align 1
@_ZL5g_514 = internal global i64 8888941885530089132, align 8
@.str.32 = private unnamed_addr constant [6 x i8] c"g_514\00", align 1
@_ZL5g_542 = internal global i32 2063760832, align 4
@.str.33 = private unnamed_addr constant [6 x i8] c"g_542\00", align 1
@_ZL5g_602 = internal global i8 -67, align 1
@.str.34 = private unnamed_addr constant [6 x i8] c"g_602\00", align 1
@_ZL5g_609 = internal constant i64 -5930793272635028879, align 8
@.str.35 = private unnamed_addr constant [6 x i8] c"g_609\00", align 1
@_ZL5g_622 = internal global [4 x [1 x i32]] [[1 x i32] [i32 -841545248], [1 x i32] [i32 1247411350], [1 x i32] [i32 -841545248], [1 x i32] [i32 1247411350]], align 16
@.str.36 = private unnamed_addr constant [12 x i8] c"g_622[i][j]\00", align 1
@_ZL5g_686 = internal global i32 -3, align 4
@.str.37 = private unnamed_addr constant [6 x i8] c"g_686\00", align 1
@_ZL5g_712 = internal global i8 4, align 1
@.str.38 = private unnamed_addr constant [6 x i8] c"g_712\00", align 1
@_ZL5g_749 = internal global [9 x [10 x [2 x i32]]] [[10 x [2 x i32]] [[2 x i32] [i32 -320840303, i32 -306515051], [2 x i32] [i32 4, i32 -9], [2 x i32] [i32 -1402184501, i32 0], [2 x i32] [i32 -1400926049, i32 0], [2 x i32] [i32 -1, i32 -2], [2 x i32] [i32 0, i32 -5], [2 x i32] [i32 3, i32 -235586919], [2 x i32] [i32 -1402184501, i32 1], [2 x i32] [i32 5, i32 439292723], [2 x i32] [i32 -1, i32 -6]], [10 x [2 x i32]] [[2 x i32] [i32 -1, i32 -1584951641], [2 x i32] [i32 148928929, i32 -2044298736], [2 x i32] [i32 -326051658, i32 -326051658], [2 x i32] [i32 1, i32 439292723], [2 x i32] [i32 -2015577073, i32 -1400926049], [2 x i32] [i32 -1542241091, i32 583963325], [2 x i32] [i32 534869980, i32 -1542241091], [2 x i32] [i32 -9, i32 0], [2 x i32] [i32 -9, i32 -1542241091], [2 x i32] [i32 534869980, i32 583963325]], [10 x [2 x i32]] [[2 x i32] [i32 -1542241091, i32 -1400926049], [2 x i32] [i32 -2015577073, i32 439292723], [2 x i32] [i32 1, i32 -326051658], [2 x i32] [i32 -326051658, i32 -2044298736], [2 x i32] [i32 148928929, i32 -1584951641], [2 x i32] [i32 -1, i32 -6], [2 x i32] [i32 -1, i32 439292723], [2 x i32] [i32 0, i32 -1484573792], [2 x i32] [i32 -320840303, i32 -9], [2 x i32] [i32 534869980, i32 363308033]], [10 x [2 x i32]] [[2 x i32] [i32 -340369592, i32 -1402184501], [2 x i32] [i32 9, i32 -1542241091], [2 x i32] [i32 9, i32 1], [2 x i32] [i32 -320840303, i32 3], [2 x i32] [i32 -2015577073, i32 0], [2 x i32] [i32 1780051787, i32 -6], [2 x i32] [i32 1677847210, i32 -2044298736], [2 x i32] [i32 0, i32 9], [2 x i32] [i32 -326051658, i32 -1], [2 x i32] [i32 -1, i32 0]], [10 x [2 x i32]] [[2 x i32] [i32 -1, i32 -1400926049], [2 x i32] [i32 -5, i32 -9], [2 x i32] [i32 9, i32 -320840303], [2 x i32] [i32 -9, i32 650286999], [2 x i32] [i32 9, i32 363308033], [2 x i32] [i32 -2044298736, i32 583963325], [2 x i32] [i32 -5, i32 3], [2 x i32] [i32 0, i32 -235586919], [2 x i32] [i32 1, i32 -1], [2 x i32] [i32 1677847210, i32 -1584951641]], [10 x [2 x i32]] [[2 x i32] [i32 -7, i32 -1584951641], [2 x i32] [i32 1677847210, i32 -1], [2 x i32] [i32 1, i32 -235586919], [2 x i32] [i32 0, i32 3], [2 x i32] [i32 -5, i32 583963325], [2 x i32] [i32 -2044298736, i32 363308033], [2 x i32] [i32 9, i32 650286999], [2 x i32] [i32 -9, i32 -320840303], [2 x i32] [i32 9, i32 -9], [2 x i32] [i32 -5, i32 -1400926049]], [10 x [2 x i32]] [[2 x i32] [i32 -1, i32 0], [2 x i32] [i32 -1, i32 -1], [2 x i32] [i32 -326051658, i32 9], [2 x i32] [i32 0, i32 -2044298736], [2 x i32] [i32 1677847210, i32 -6], [2 x i32] [i32 1780051787, i32 0], [2 x i32] [i32 -2015577073, i32 3], [2 x i32] [i32 -320840303, i32 1], [2 x i32] [i32 9, i32 -1542241091], [2 x i32] [i32 9, i32 -1402184501]], [10 x [2 x i32]] [[2 x i32] [i32 -340369592, i32 363308033], [2 x i32] [i32 534869980, i32 -9], [2 x i32] [i32 -320840303, i32 -1484573792], [2 x i32] [i32 0, i32 439292723], [2 x i32] [i32 -1, i32 -6], [2 x i32] [i32 -1, i32 -1584951641], [2 x i32] [i32 148928929, i32 -2044298736], [2 x i32] [i32 -326051658, i32 -326051658], [2 x i32] [i32 1, i32 439292723], [2 x i32] [i32 -2015577073, i32 -1400926049]], [10 x [2 x i32]] [[2 x i32] [i32 -1542241091, i32 583963325], [2 x i32] [i32 534869980, i32 -1542241091], [2 x i32] [i32 -9, i32 0], [2 x i32] [i32 -9, i32 -1542241091], [2 x i32] [i32 534869980, i32 583963325], [2 x i32] [i32 -1542241091, i32 -1400926049], [2 x i32] [i32 -2015577073, i32 439292723], [2 x i32] [i32 1, i32 -326051658], [2 x i32] [i32 -326051658, i32 -2044298736], [2 x i32] [i32 148928929, i32 -1584951641]]], align 16
@.str.39 = private unnamed_addr constant [15 x i8] c"g_749[i][j][k]\00", align 1
@_ZL5g_786 = internal constant [5 x i64] [i64 8508816304153981413, i64 8508816304153981413, i64 8508816304153981413, i64 8508816304153981413, i64 8508816304153981413], align 16
@.str.40 = private unnamed_addr constant [9 x i8] c"g_786[i]\00", align 1
@_ZL5g_890 = internal global i64 -1, align 8
@.str.41 = private unnamed_addr constant [6 x i8] c"g_890\00", align 1
@_ZL5g_921 = internal global i32 -1817587227, align 4
@.str.42 = private unnamed_addr constant [6 x i8] c"g_921\00", align 1
@_ZL5g_985 = internal global i32 1, align 4
@.str.43 = private unnamed_addr constant [6 x i8] c"g_985\00", align 1
@_ZL6g_1041 = internal global i16 31893, align 2
@.str.44 = private unnamed_addr constant [7 x i8] c"g_1041\00", align 1
@.str.45 = private unnamed_addr constant [7 x i8] c"g_1154\00", align 1
@_ZL6g_1302 = internal global i64 2, align 8
@.str.46 = private unnamed_addr constant [7 x i8] c"g_1302\00", align 1
@_ZL6g_1363 = internal global [6 x [3 x [1 x i16]]] [[3 x [1 x i16]] [[1 x i16] [i16 -31785], [1 x i16] [i16 -28879], [1 x i16] [i16 -31785]], [3 x [1 x i16]] [[1 x i16] [i16 -28879], [1 x i16] [i16 -31785], [1 x i16] [i16 -28879]], [3 x [1 x i16]] [[1 x i16] [i16 -31785], [1 x i16] [i16 -28879], [1 x i16] [i16 -31785]], [3 x [1 x i16]] [[1 x i16] [i16 -28879], [1 x i16] [i16 -31785], [1 x i16] [i16 -28879]], [3 x [1 x i16]] [[1 x i16] [i16 -31785], [1 x i16] [i16 -28879], [1 x i16] [i16 -31785]], [3 x [1 x i16]] [[1 x i16] [i16 -28879], [1 x i16] [i16 -31785], [1 x i16] [i16 -28879]]], align 16
@.str.47 = private unnamed_addr constant [16 x i8] c"g_1363[i][j][k]\00", align 1
@_ZL6g_1364 = internal global i16 -1, align 2
@.str.48 = private unnamed_addr constant [7 x i8] c"g_1364\00", align 1
@_ZL6g_1376 = internal global i16 26107, align 2
@.str.49 = private unnamed_addr constant [7 x i8] c"g_1376\00", align 1
@_ZL6g_1600 = internal global i8 51, align 1
@.str.50 = private unnamed_addr constant [7 x i8] c"g_1600\00", align 1
@_ZL6g_1645 = internal global i32 3, align 4
@.str.51 = private unnamed_addr constant [7 x i8] c"g_1645\00", align 1
@_ZL6g_1647 = internal global i64 -8, align 8
@.str.52 = private unnamed_addr constant [7 x i8] c"g_1647\00", align 1
@_ZL6g_1700 = internal constant i64 4, align 8
@.str.53 = private unnamed_addr constant [7 x i8] c"g_1700\00", align 1
@_ZL6g_1703 = internal constant i64 4, align 8
@.str.54 = private unnamed_addr constant [7 x i8] c"g_1703\00", align 1
@_ZL6g_1706 = internal constant i64 1, align 8
@.str.55 = private unnamed_addr constant [7 x i8] c"g_1706\00", align 1
@_ZL6g_1708 = internal constant [3 x i64] [i64 5495675862025599004, i64 5495675862025599004, i64 5495675862025599004], align 16
@.str.56 = private unnamed_addr constant [10 x i8] c"g_1708[i]\00", align 1
@_ZL6g_1711 = internal constant i64 -9, align 8
@.str.57 = private unnamed_addr constant [7 x i8] c"g_1711\00", align 1
@_ZL6g_1712 = internal constant i64 3, align 8
@.str.58 = private unnamed_addr constant [7 x i8] c"g_1712\00", align 1
@_ZL6g_1713 = internal constant i64 -9, align 8
@.str.59 = private unnamed_addr constant [7 x i8] c"g_1713\00", align 1
@_ZL6g_1714 = internal constant i64 3651751527759991297, align 8
@.str.60 = private unnamed_addr constant [7 x i8] c"g_1714\00", align 1
@_ZL6g_1715 = internal constant i64 -10, align 8
@.str.61 = private unnamed_addr constant [7 x i8] c"g_1715\00", align 1
@_ZL6g_1716 = internal constant [4 x [7 x [4 x i64]]] [[7 x [4 x i64]] [[4 x i64] [i64 -1748601284245943983, i64 5831101122921801380, i64 -5030980055044297114, i64 6890084919312535044], [4 x i64] [i64 -5030980055044297114, i64 6890084919312535044, i64 6890084919312535044, i64 -5030980055044297114], [4 x i64] [i64 -7, i64 -1, i64 0, i64 -2221509684974377749], [4 x i64] [i64 6006945650337206554, i64 -8, i64 5271461966599613422, i64 7651493359563235374], [4 x i64] [i64 0, i64 0, i64 0, i64 7651493359563235374], [4 x i64] [i64 6622658458921508289, i64 -8, i64 -5030980055044297114, i64 -2221509684974377749], [4 x i64] [i64 -8595931879579303838, i64 -1, i64 6006945650337206554, i64 -5030980055044297114]], [7 x [4 x i64]] [[4 x i64] [i64 0, i64 6890084919312535044, i64 -6476408637184806169, i64 6890084919312535044], [4 x i64] [i64 6006945650337206554, i64 5831101122921801380, i64 -1, i64 0], [4 x i64] [i64 1, i64 0, i64 -1, i64 5271461966599613422], [4 x i64] [i64 1399279060106253692, i64 -9044783816515692127, i64 -5030980055044297114, i64 0], [4 x i64] [i64 1399279060106253692, i64 -2221509684974377749, i64 -1, i64 -5030980055044297114], [4 x i64] [i64 1, i64 0, i64 -1, i64 6006945650337206554], [4 x i64] [i64 6006945650337206554, i64 7407882772383617862, i64 -6476408637184806169, i64 -6476408637184806169]], [7 x [4 x i64]] [[4 x i64] [i64 0, i64 0, i64 6006945650337206554, i64 -1], [4 x i64] [i64 -8595931879579303838, i64 5755451614997122373, i64 -5030980055044297114, i64 -1], [4 x i64] [i64 6622658458921508289, i64 6006945650337206554, i64 0, i64 -5030980055044297114], [4 x i64] [i64 0, i64 6006945650337206554, i64 5271461966599613422, i64 -1], [4 x i64] [i64 6006945650337206554, i64 5755451614997122373, i64 0, i64 -1], [4 x i64] [i64 -7, i64 0, i64 6890084919312535044, i64 -6476408637184806169], [4 x i64] [i64 -5030980055044297114, i64 7407882772383617862, i64 -5030980055044297114, i64 6006945650337206554]], [7 x [4 x i64]] [[4 x i64] [i64 -1748601284245943983, i64 0, i64 -2221509684974377749, i64 -5030980055044297114], [4 x i64] [i64 -2124719411807307466, i64 -2221509684974377749, i64 7651493359563235374, i64 0], [4 x i64] [i64 6006945650337206554, i64 -9044783816515692127, i64 7651493359563235374, i64 5271461966599613422], [4 x i64] [i64 -2124719411807307466, i64 0, i64 -2221509684974377749, i64 0], [4 x i64] [i64 -1748601284245943983, i64 5831101122921801380, i64 -5030980055044297114, i64 6890084919312535044], [4 x i64] [i64 -5030980055044297114, i64 6890084919312535044, i64 6890084919312535044, i64 -5030980055044297114], [4 x i64] [i64 -7, i64 -1, i64 0, i64 -2221509684974377749]]], align 16
@.str.62 = private unnamed_addr constant [16 x i8] c"g_1716[i][j][k]\00", align 1
@_ZL6g_1717 = internal constant [9 x [7 x [4 x i64]]] [[7 x [4 x i64]] [[4 x i64] [i64 -4, i64 7124645143338505401, i64 3935060333605535940, i64 7], [4 x i64] [i64 3147694071008497415, i64 -2942734478459320306, i64 -2942734478459320306, i64 3147694071008497415], [4 x i64] [i64 -6, i64 -4, i64 -3484156029141371204, i64 8312415184025761562], [4 x i64] [i64 8142442733542175602, i64 -588641555633559865, i64 1, i64 7124645143338505401], [4 x i64] [i64 0, i64 6088940799439490079, i64 7227771245206293615, i64 7124645143338505401], [4 x i64] [i64 8224359734332349560, i64 -588641555633559865, i64 -3509860951218728373, i64 8312415184025761562], [4 x i64] [i64 9209633334260551399, i64 -4, i64 5871445534159539104, i64 3147694071008497415]], [7 x [4 x i64]] [[4 x i64] [i64 2, i64 -2942734478459320306, i64 8224359734332349560, i64 7], [4 x i64] [i64 6088940799439490079, i64 7124645143338505401, i64 -1, i64 1], [4 x i64] [i64 6, i64 -7275012792843963754, i64 0, i64 0], [4 x i64] [i64 2, i64 1, i64 6236070767232026070, i64 5099160595756353134], [4 x i64] [i64 849595082720710337, i64 1, i64 -3509860951218728373, i64 -1], [4 x i64] [i64 0, i64 8142442733542175602, i64 -1174220143296053822, i64 0], [4 x i64] [i64 0, i64 -3484156029141371204, i64 1, i64 -4]], [7 x [4 x i64]] [[4 x i64] [i64 -3484156029141371204, i64 1, i64 -3484156029141371204, i64 2], [4 x i64] [i64 -7275012792843963754, i64 2, i64 -3393782805724211852, i64 0], [4 x i64] [i64 849595082720710337, i64 -3393782805724211852, i64 -5540646784848201790, i64 -3509860951218728373], [4 x i64] [i64 -8, i64 6088940799439490079, i64 -5540646784848201790, i64 0], [4 x i64] [i64 849595082720710337, i64 7227771245206293615, i64 -178326187761016662, i64 849595082720710337], [4 x i64] [i64 -2942734478459320306, i64 -8, i64 0, i64 1], [4 x i64] [i64 0, i64 1, i64 -6510982362758076271, i64 -8623245006459521573]], [7 x [4 x i64]] [[4 x i64] [i64 -1, i64 8312415184025761562, i64 7, i64 6088940799439490079], [4 x i64] [i64 -3484156029141371204, i64 1, i64 -1, i64 1], [4 x i64] [i64 3935060333605535940, i64 -1, i64 10920126035958880, i64 -3440848573739585343], [4 x i64] [i64 -3509860951218728373, i64 7227771245206293615, i64 8142442733542175602, i64 8224359734332349560], [4 x i64] [i64 8312415184025761562, i64 -8623245006459521573, i64 0, i64 -3509860951218728373], [4 x i64] [i64 6248050932378554289, i64 -2942734478459320306, i64 0, i64 0], [4 x i64] [i64 -3509860951218728373, i64 -3509860951218728373, i64 7124645143338505401, i64 -6]], [7 x [4 x i64]] [[4 x i64] [i64 2, i64 10920126035958880, i64 -1, i64 -1], [4 x i64] [i64 0, i64 5, i64 -6021345408607962501, i64 -1], [4 x i64] [i64 -1, i64 5, i64 0, i64 -1], [4 x i64] [i64 5, i64 10920126035958880, i64 0, i64 -6], [4 x i64] [i64 -3393782805724211852, i64 -3509860951218728373, i64 -1174220143296053822, i64 0], [4 x i64] [i64 849595082720710337, i64 -2942734478459320306, i64 -7275012792843963754, i64 -3509860951218728373], [4 x i64] [i64 -1, i64 -8623245006459521573, i64 -5540646784848201790, i64 8224359734332349560]], [7 x [4 x i64]] [[4 x i64] [i64 -3440848573739585343, i64 7227771245206293615, i64 -1174220143296053822, i64 -3440848573739585343], [4 x i64] [i64 -2942734478459320306, i64 -1, i64 -6290130090726911448, i64 1], [4 x i64] [i64 5, i64 1, i64 -6510982362758076271, i64 6088940799439490079], [4 x i64] [i64 -1, i64 8312415184025761562, i64 -6021345408607962501, i64 -8623245006459521573], [4 x i64] [i64 -3484156029141371204, i64 1, i64 -4, i64 1], [4 x i64] [i64 2, i64 -8, i64 10920126035958880, i64 849595082720710337], [4 x i64] [i64 -6510982362758076271, i64 7227771245206293615, i64 0, i64 0]], [7 x [4 x i64]] [[4 x i64] [i64 8312415184025761562, i64 6088940799439490079, i64 0, i64 -3509860951218728373], [4 x i64] [i64 8312415184025761562, i64 -3393782805724211852, i64 0, i64 -3484156029141371204], [4 x i64] [i64 -6510982362758076271, i64 -3509860951218728373, i64 10920126035958880, i64 -5540646784848201790], [4 x i64] [i64 2, i64 5460621155143502633, i64 -4, i64 -1], [4 x i64] [i64 -3484156029141371204, i64 0, i64 -6021345408607962501, i64 -1], [4 x i64] [i64 -1, i64 5, i64 -6510982362758076271, i64 -8], [4 x i64] [i64 5, i64 5460621155143502633, i64 -6290130090726911448, i64 -6]], [7 x [4 x i64]] [[4 x i64] [i64 -2942734478459320306, i64 -6510982362758076271, i64 -1174220143296053822, i64 -3484156029141371204], [4 x i64] [i64 -3440848573739585343, i64 -2942734478459320306, i64 -5540646784848201790, i64 -6510982362758076271], [4 x i64] [i64 -1, i64 6088940799439490079, i64 -7275012792843963754, i64 8224359734332349560], [4 x i64] [i64 849595082720710337, i64 -1174220143296053822, i64 -1174220143296053822, i64 849595082720710337], [4 x i64] [i64 -3393782805724211852, i64 -1, i64 0, i64 1], [4 x i64] [i64 5, i64 1, i64 0, i64 6088940799439490079], [4 x i64] [i64 -1, i64 6248050932378554289, i64 -6021345408607962501, i64 6088940799439490079]], [7 x [4 x i64]] [[4 x i64] [i64 0, i64 1, i64 -1, i64 1], [4 x i64] [i64 2, i64 -1, i64 7124645143338505401, i64 849595082720710337], [4 x i64] [i64 -3509860951218728373, i64 -1174220143296053822, i64 0, i64 8224359734332349560], [4 x i64] [i64 6248050932378554289, i64 6088940799439490079, i64 0, i64 -6510982362758076271], [4 x i64] [i64 8312415184025761562, i64 -2942734478459320306, i64 8142442733542175602, i64 -3484156029141371204], [4 x i64] [i64 -3509860951218728373, i64 -6510982362758076271, i64 10920126035958880, i64 -6], [4 x i64] [i64 3935060333605535940, i64 5460621155143502633, i64 -1, i64 -8]]], align 16
@.str.63 = private unnamed_addr constant [16 x i8] c"g_1717[i][j][k]\00", align 1
@_ZL6g_1718 = internal constant i64 -5475972884247730102, align 8
@.str.64 = private unnamed_addr constant [7 x i8] c"g_1718\00", align 1
@_ZL6g_1719 = internal constant i64 5, align 8
@.str.65 = private unnamed_addr constant [7 x i8] c"g_1719\00", align 1
@_ZL6g_1720 = internal constant i64 -4843294472073020640, align 8
@.str.66 = private unnamed_addr constant [7 x i8] c"g_1720\00", align 1
@_ZL6g_1721 = internal constant i64 9, align 8
@.str.67 = private unnamed_addr constant [7 x i8] c"g_1721\00", align 1
@_ZL6g_1722 = internal constant i64 8955832581192197971, align 8
@.str.68 = private unnamed_addr constant [7 x i8] c"g_1722\00", align 1
@_ZL6g_1723 = internal constant i64 -1, align 8
@.str.69 = private unnamed_addr constant [7 x i8] c"g_1723\00", align 1
@_ZL6g_1724 = internal constant i64 -6, align 8
@.str.70 = private unnamed_addr constant [7 x i8] c"g_1724\00", align 1
@_ZL6g_1725 = internal constant i64 -7640784996344976435, align 8
@.str.71 = private unnamed_addr constant [7 x i8] c"g_1725\00", align 1
@_ZL6g_1726 = internal constant i64 -1, align 8
@.str.72 = private unnamed_addr constant [7 x i8] c"g_1726\00", align 1
@_ZL6g_1727 = internal constant i64 9, align 8
@.str.73 = private unnamed_addr constant [7 x i8] c"g_1727\00", align 1
@_ZL6g_1728 = internal constant i64 -8017581640498587721, align 8
@.str.74 = private unnamed_addr constant [7 x i8] c"g_1728\00", align 1
@_ZL6g_1729 = internal constant i64 -5, align 8
@.str.75 = private unnamed_addr constant [7 x i8] c"g_1729\00", align 1
@_ZL6g_1730 = internal constant i64 -1, align 8
@.str.76 = private unnamed_addr constant [7 x i8] c"g_1730\00", align 1
@_ZL6g_1731 = internal constant i64 7817239385116580382, align 8
@.str.77 = private unnamed_addr constant [7 x i8] c"g_1731\00", align 1
@_ZL6g_1732 = internal constant i64 -1, align 8
@.str.78 = private unnamed_addr constant [7 x i8] c"g_1732\00", align 1
@_ZL6g_1733 = internal constant i64 0, align 8
@.str.79 = private unnamed_addr constant [7 x i8] c"g_1733\00", align 1
@_ZL6g_1734 = internal constant i64 -1639170656796537635, align 8
@.str.80 = private unnamed_addr constant [7 x i8] c"g_1734\00", align 1
@_ZL6g_1735 = internal constant [7 x i64] [i64 0, i64 0, i64 1, i64 5699427483297252761, i64 5699427483297252761, i64 0, i64 5699427483297252761], align 16
@.str.81 = private unnamed_addr constant [10 x i8] c"g_1735[i]\00", align 1
@_ZL6g_1736 = internal constant [1 x [6 x [6 x i64]]] [[6 x [6 x i64]] [[6 x i64] [i64 0, i64 8827035135982826572, i64 5, i64 2399559481150526330, i64 2399559481150526330, i64 5], [6 x i64] [i64 0, i64 0, i64 2399559481150526330, i64 5463614001746820515, i64 9, i64 5463614001746820515], [6 x i64] [i64 8827035135982826572, i64 0, i64 8827035135982826572, i64 5, i64 2399559481150526330, i64 2399559481150526330], [6 x i64] [i64 -1, i64 8827035135982826572, i64 8827035135982826572, i64 -1, i64 0, i64 5463614001746820515], [6 x i64] [i64 5463614001746820515, i64 -1, i64 2399559481150526330, i64 -1, i64 5463614001746820515, i64 5], [6 x i64] [i64 -1, i64 5463614001746820515, i64 5, i64 5, i64 5463614001746820515, i64 -1]]], align 16
@.str.82 = private unnamed_addr constant [16 x i8] c"g_1736[i][j][k]\00", align 1
@_ZL6g_1737 = internal constant i64 -2681370340062277985, align 8
@.str.83 = private unnamed_addr constant [7 x i8] c"g_1737\00", align 1
@_ZL6g_1738 = internal constant i64 3087608440793605023, align 8
@.str.84 = private unnamed_addr constant [7 x i8] c"g_1738\00", align 1
@_ZL6g_1739 = internal constant i64 -1, align 8
@.str.85 = private unnamed_addr constant [7 x i8] c"g_1739\00", align 1
@_ZL6g_1740 = internal constant i64 -6671150946055638203, align 8
@.str.86 = private unnamed_addr constant [7 x i8] c"g_1740\00", align 1
@_ZL6g_1741 = internal constant i64 1, align 8
@.str.87 = private unnamed_addr constant [7 x i8] c"g_1741\00", align 1
@_ZL6g_1742 = internal constant i64 6907304445379479573, align 8
@.str.88 = private unnamed_addr constant [7 x i8] c"g_1742\00", align 1
@_ZL6g_1743 = internal constant i64 -8, align 8
@.str.89 = private unnamed_addr constant [7 x i8] c"g_1743\00", align 1
@_ZL6g_1744 = internal constant [1 x [4 x [8 x i64]]] [[4 x [8 x i64]] [[8 x i64] [i64 -1, i64 -6, i64 1726849887472848892, i64 -5333885445657950860, i64 0, i64 -1625737078613488972, i64 -1625737078613488972, i64 0], [8 x i64] [i64 7992318294456091810, i64 0, i64 0, i64 7992318294456091810, i64 -1, i64 8, i64 -1625737078613488972, i64 1549944810115458474], [8 x i64] [i64 -6, i64 7992318294456091810, i64 1726849887472848892, i64 -1625737078613488972, i64 1726849887472848892, i64 7992318294456091810, i64 -6, i64 -8791476950764404163], [8 x i64] [i64 1726849887472848892, i64 7992318294456091810, i64 -6, i64 -8791476950764404163, i64 8, i64 8, i64 -8791476950764404163, i64 -6]]], align 16
@.str.90 = private unnamed_addr constant [16 x i8] c"g_1744[i][j][k]\00", align 1
@_ZL6g_1745 = internal constant i64 0, align 8
@.str.91 = private unnamed_addr constant [7 x i8] c"g_1745\00", align 1
@_ZL6g_1746 = internal constant i64 0, align 8
@.str.92 = private unnamed_addr constant [7 x i8] c"g_1746\00", align 1
@_ZL6g_1747 = internal constant i64 1, align 8
@.str.93 = private unnamed_addr constant [7 x i8] c"g_1747\00", align 1
@_ZL6g_1748 = internal constant i64 -3, align 8
@.str.94 = private unnamed_addr constant [7 x i8] c"g_1748\00", align 1
@_ZL6g_1749 = internal constant i64 0, align 8
@.str.95 = private unnamed_addr constant [7 x i8] c"g_1749\00", align 1
@_ZL6g_1750 = internal constant i64 769426575824003442, align 8
@.str.96 = private unnamed_addr constant [7 x i8] c"g_1750\00", align 1
@_ZL6g_1752 = internal constant i64 8, align 8
@.str.97 = private unnamed_addr constant [7 x i8] c"g_1752\00", align 1
@_ZL6g_1754 = internal constant i64 -7, align 8
@.str.98 = private unnamed_addr constant [7 x i8] c"g_1754\00", align 1
@_ZL6g_1756 = internal constant i64 -355583711594695750, align 8
@.str.99 = private unnamed_addr constant [7 x i8] c"g_1756\00", align 1
@_ZL6g_1758 = internal constant i64 1315894895678909994, align 8
@.str.100 = private unnamed_addr constant [7 x i8] c"g_1758\00", align 1
@.str.101 = private unnamed_addr constant [7 x i8] c"g_1823\00", align 1
@.str.102 = private unnamed_addr constant [7 x i8] c"g_1825\00", align 1
@_ZL6g_1849 = internal global i32 1128530481, align 4
@.str.103 = private unnamed_addr constant [7 x i8] c"g_1849\00", align 1
@_ZL6g_1899 = internal global i16 -10493, align 2
@.str.104 = private unnamed_addr constant [7 x i8] c"g_1899\00", align 1
@_ZL6g_1921 = internal global i32 -1984202771, align 4
@.str.105 = private unnamed_addr constant [7 x i8] c"g_1921\00", align 1
@_ZL6g_1987 = internal global i8 -6, align 1
@.str.106 = private unnamed_addr constant [7 x i8] c"g_1987\00", align 1
@.str.107 = private unnamed_addr constant [7 x i8] c"g_1992\00", align 1
@_ZL6g_2045 = internal global i64 0, align 8
@.str.108 = private unnamed_addr constant [7 x i8] c"g_2045\00", align 1
@_ZL6g_2147 = internal global [7 x i64] [i64 181112458922615915, i64 181112458922615915, i64 181112458922615915, i64 181112458922615915, i64 181112458922615915, i64 181112458922615915, i64 181112458922615915], align 16
@.str.109 = private unnamed_addr constant [10 x i8] c"g_2147[i]\00", align 1
@_ZL6g_2178 = internal global i32 1, align 4
@.str.110 = private unnamed_addr constant [7 x i8] c"g_2178\00", align 1
@_ZL6g_2236 = internal global i32 1274984877, align 4
@.str.111 = private unnamed_addr constant [7 x i8] c"g_2236\00", align 1
@_ZL6g_2260 = internal global i8 3, align 1
@.str.112 = private unnamed_addr constant [7 x i8] c"g_2260\00", align 1
@_ZL6g_2264 = internal global i8 -4, align 1
@.str.113 = private unnamed_addr constant [7 x i8] c"g_2264\00", align 1
@_ZL6g_2317 = internal global i64 -3, align 8
@.str.114 = private unnamed_addr constant [7 x i8] c"g_2317\00", align 1
@_ZL6g_2385 = internal global [2 x [10 x [2 x i32]]] [[10 x [2 x i32]] [[2 x i32] [i32 -1663063648, i32 1], [2 x i32] [i32 0, i32 -1663063648], [2 x i32] [i32 1, i32 2095136699], [2 x i32] [i32 1, i32 -1663063648], [2 x i32] [i32 0, i32 1], [2 x i32] [i32 -1663063648, i32 2095136699], [2 x i32] [i32 -1710845505, i32 -1710845505], [2 x i32] [i32 0, i32 -1710845505], [2 x i32] [i32 -1710845505, i32 2095136699], [2 x i32] [i32 -1663063648, i32 1]], [10 x [2 x i32]] [[2 x i32] [i32 0, i32 -1663063648], [2 x i32] [i32 1, i32 2095136699], [2 x i32] [i32 1, i32 -1663063648], [2 x i32] [i32 0, i32 1], [2 x i32] [i32 -1663063648, i32 2095136699], [2 x i32] [i32 -1710845505, i32 -1710845505], [2 x i32] [i32 0, i32 -1710845505], [2 x i32] [i32 -1710845505, i32 2095136699], [2 x i32] [i32 -1663063648, i32 1], [2 x i32] [i32 0, i32 -1663063648]]], align 16
@.str.115 = private unnamed_addr constant [16 x i8] c"g_2385[i][j][k]\00", align 1
@_ZL6g_2387 = internal global i32 1, align 4
@.str.116 = private unnamed_addr constant [7 x i8] c"g_2387\00", align 1
@_ZL6g_2389 = internal global i32 -845071547, align 4
@.str.117 = private unnamed_addr constant [7 x i8] c"g_2389\00", align 1
@_ZL6g_2391 = internal global [3 x i32] zeroinitializer, align 4
@.str.118 = private unnamed_addr constant [10 x i8] c"g_2391[i]\00", align 1
@_ZL6g_2394 = internal global i32 2011681314, align 4
@.str.119 = private unnamed_addr constant [7 x i8] c"g_2394\00", align 1
@_ZL6g_2396 = internal global i32 917292169, align 4
@.str.120 = private unnamed_addr constant [7 x i8] c"g_2396\00", align 1
@_ZL6g_2398 = internal global i32 9, align 4
@.str.121 = private unnamed_addr constant [7 x i8] c"g_2398\00", align 1
@_ZL6g_2400 = internal global i32 1796205211, align 4
@.str.122 = private unnamed_addr constant [7 x i8] c"g_2400\00", align 1
@_ZL6g_2402 = internal global i32 -1284452691, align 4
@.str.123 = private unnamed_addr constant [7 x i8] c"g_2402\00", align 1
@_ZL6g_2404 = internal global i32 -1550694865, align 4
@.str.124 = private unnamed_addr constant [7 x i8] c"g_2404\00", align 1
@_ZL6g_2406 = internal global i32 1602213217, align 4
@.str.125 = private unnamed_addr constant [7 x i8] c"g_2406\00", align 1
@_ZL6g_2408 = internal global i32 -1807988432, align 4
@.str.126 = private unnamed_addr constant [7 x i8] c"g_2408\00", align 1
@_ZL6g_2410 = internal global i32 175883937, align 4
@.str.127 = private unnamed_addr constant [7 x i8] c"g_2410\00", align 1
@_ZL6g_2413 = internal global i32 1577730301, align 4
@.str.128 = private unnamed_addr constant [7 x i8] c"g_2413\00", align 1
@.str.129 = private unnamed_addr constant [7 x i8] c"g_2490\00", align 1
@_ZL6g_2546 = internal global i32 -654644268, align 4
@.str.130 = private unnamed_addr constant [7 x i8] c"g_2546\00", align 1
@_ZL6g_2619 = internal global i32 -266157764, align 4
@.str.131 = private unnamed_addr constant [7 x i8] c"g_2619\00", align 1
@_ZL6g_2645 = internal global i64 0, align 8
@.str.132 = private unnamed_addr constant [7 x i8] c"g_2645\00", align 1
@_ZL6g_2663 = internal global i32 2, align 4
@.str.133 = private unnamed_addr constant [7 x i8] c"g_2663\00", align 1
@_ZL6g_2685 = internal global [4 x i16] [i16 24067, i16 24067, i16 24067, i16 24067], align 2
@.str.134 = private unnamed_addr constant [10 x i8] c"g_2685[i]\00", align 1
@_ZL6g_2745 = internal global i64 7584994148051031396, align 8
@.str.135 = private unnamed_addr constant [7 x i8] c"g_2745\00", align 1
@_ZL6g_2759 = internal global i8 0, align 1
@.str.136 = private unnamed_addr constant [7 x i8] c"g_2759\00", align 1
@_ZL6g_2772 = internal global i16 26256, align 2
@.str.137 = private unnamed_addr constant [7 x i8] c"g_2772\00", align 1
@_ZL6g_2843 = internal global i32 -10, align 4
@.str.138 = private unnamed_addr constant [7 x i8] c"g_2843\00", align 1
@_ZL6g_2920 = internal global [6 x [4 x i8]] [[4 x i8] c"\01\01Y\01", [4 x i8] c"\01\00\00\01", [4 x i8] c"\00\01\00\00", [4 x i8] c"\01\01Y\01", [4 x i8] c"\01\00\00\01", [4 x i8] c"\00\01\00\00"], align 16
@.str.139 = private unnamed_addr constant [13 x i8] c"g_2920[i][j]\00", align 1
@_ZL6g_2949 = internal global i64 -5151646414374596700, align 8
@.str.140 = private unnamed_addr constant [7 x i8] c"g_2949\00", align 1
@_ZL6g_3009 = internal global i64 3854600219478124391, align 8
@.str.141 = private unnamed_addr constant [7 x i8] c"g_3009\00", align 1
@_ZL6g_3018 = internal global [6 x [9 x i32]] [[9 x i32] [i32 1, i32 1, i32 1, i32 1, i32 1, i32 1, i32 1, i32 1, i32 1], [9 x i32] [i32 -6, i32 -6, i32 -6, i32 -6, i32 -6, i32 -6, i32 -6, i32 -6, i32 -6], [9 x i32] [i32 1, i32 1, i32 1, i32 1, i32 1, i32 1, i32 1, i32 1, i32 1], [9 x i32] [i32 -6, i32 -6, i32 -6, i32 -6, i32 -6, i32 -6, i32 -6, i32 -6, i32 -6], [9 x i32] [i32 1, i32 1, i32 1, i32 1, i32 1, i32 1, i32 1, i32 1, i32 1], [9 x i32] [i32 -6, i32 -6, i32 -6, i32 -6, i32 -6, i32 -6, i32 -6, i32 -6, i32 -6]], align 16
@.str.142 = private unnamed_addr constant [13 x i8] c"g_3018[i][j]\00", align 1
@_ZL6g_3052 = internal global i32 1, align 4
@.str.143 = private unnamed_addr constant [7 x i8] c"g_3052\00", align 1
@_ZL6g_3053 = internal global i32 -1098849813, align 4
@.str.144 = private unnamed_addr constant [7 x i8] c"g_3053\00", align 1
@_ZL6g_3054 = internal global i32 -750457148, align 4
@.str.145 = private unnamed_addr constant [7 x i8] c"g_3054\00", align 1
@_ZL6g_3055 = internal global [6 x [4 x i32]] [[4 x i32] [i32 587896532, i32 2089506360, i32 -1, i32 2089506360], [4 x i32] [i32 -771707342, i32 -891767755, i32 815332784, i32 -1], [4 x i32] [i32 2089506360, i32 -891767755, i32 -891767755, i32 2089506360], [4 x i32] [i32 -891767755, i32 2089506360, i32 -771707342, i32 587896532], [4 x i32] [i32 -891767755, i32 -771707342, i32 -891767755, i32 815332784], [4 x i32] [i32 2089506360, i32 587896532, i32 815332784, i32 815332784]], align 16
@.str.146 = private unnamed_addr constant [13 x i8] c"g_3055[i][j]\00", align 1
@_ZL6g_3056 = internal global i32 -1326741545, align 4
@.str.147 = private unnamed_addr constant [7 x i8] c"g_3056\00", align 1
@_ZL6g_3057 = internal global i32 -1, align 4
@.str.148 = private unnamed_addr constant [7 x i8] c"g_3057\00", align 1
@_ZL6g_3058 = internal global i32 1, align 4
@.str.149 = private unnamed_addr constant [7 x i8] c"g_3058\00", align 1
@_ZL6g_3059 = internal global i32 0, align 4
@.str.150 = private unnamed_addr constant [7 x i8] c"g_3059\00", align 1
@_ZL6g_3060 = internal global i32 -1041862509, align 4
@.str.151 = private unnamed_addr constant [7 x i8] c"g_3060\00", align 1
@_ZL6g_3061 = internal global i32 -1, align 4
@.str.152 = private unnamed_addr constant [7 x i8] c"g_3061\00", align 1
@_ZL6g_3062 = internal global i32 1, align 4
@.str.153 = private unnamed_addr constant [7 x i8] c"g_3062\00", align 1
@_ZL6g_3063 = internal global i32 -420763354, align 4
@.str.154 = private unnamed_addr constant [7 x i8] c"g_3063\00", align 1
@_ZL6g_3064 = internal global i32 -1, align 4
@.str.155 = private unnamed_addr constant [7 x i8] c"g_3064\00", align 1
@_ZL6g_3065 = internal global [7 x [5 x i32]] [[5 x i32] [i32 0, i32 722406368, i32 0, i32 722406368, i32 0], [5 x i32] [i32 -1, i32 -1, i32 -1, i32 -1, i32 -1], [5 x i32] [i32 -29169679, i32 722406368, i32 -29169679, i32 722406368, i32 -29169679], [5 x i32] [i32 -1, i32 -1, i32 -1, i32 -1, i32 -1], [5 x i32] [i32 0, i32 722406368, i32 0, i32 722406368, i32 0], [5 x i32] [i32 -1, i32 -1, i32 -1, i32 -1, i32 -1], [5 x i32] [i32 -29169679, i32 722406368, i32 -29169679, i32 722406368, i32 -29169679]], align 16
@.str.156 = private unnamed_addr constant [13 x i8] c"g_3065[i][j]\00", align 1
@_ZL6g_3066 = internal global i32 -1, align 4
@.str.157 = private unnamed_addr constant [7 x i8] c"g_3066\00", align 1
@_ZL6g_3067 = internal global i32 -208006902, align 4
@.str.158 = private unnamed_addr constant [7 x i8] c"g_3067\00", align 1
@_ZL6g_3068 = internal global i32 -8, align 4
@.str.159 = private unnamed_addr constant [7 x i8] c"g_3068\00", align 1
@_ZL6g_3069 = internal global i32 2, align 4
@.str.160 = private unnamed_addr constant [7 x i8] c"g_3069\00", align 1
@_ZL6g_3070 = internal global i32 5, align 4
@.str.161 = private unnamed_addr constant [7 x i8] c"g_3070\00", align 1
@_ZL6g_3071 = internal global i32 4, align 4
@.str.162 = private unnamed_addr constant [7 x i8] c"g_3071\00", align 1
@_ZL6g_3072 = internal global i32 -1482011998, align 4
@.str.163 = private unnamed_addr constant [7 x i8] c"g_3072\00", align 1
@_ZL6g_3073 = internal global i32 -5, align 4
@.str.164 = private unnamed_addr constant [7 x i8] c"g_3073\00", align 1
@_ZL6g_3074 = internal global i32 -2, align 4
@.str.165 = private unnamed_addr constant [7 x i8] c"g_3074\00", align 1
@_ZL6g_3075 = internal global [8 x i32] [i32 -3, i32 -3, i32 -3, i32 -3, i32 -3, i32 -3, i32 -3, i32 -3], align 16
@.str.166 = private unnamed_addr constant [10 x i8] c"g_3075[i]\00", align 1
@_ZL6g_3076 = internal global i32 3, align 4
@.str.167 = private unnamed_addr constant [7 x i8] c"g_3076\00", align 1
@_ZL6g_3077 = internal global i32 8, align 4
@.str.168 = private unnamed_addr constant [7 x i8] c"g_3077\00", align 1
@_ZL6g_3078 = internal global i32 0, align 4
@.str.169 = private unnamed_addr constant [7 x i8] c"g_3078\00", align 1
@_ZL6g_3079 = internal global [8 x [4 x [8 x i32]]] [[4 x [8 x i32]] [[8 x i32] [i32 0, i32 -1785860858, i32 -10, i32 853861636, i32 -1933069696, i32 0, i32 1742894918, i32 1815343686], [8 x i32] [i32 1, i32 722226186, i32 -9, i32 -1, i32 1, i32 -1785860858, i32 765046379, i32 2], [8 x i32] [i32 985158387, i32 0, i32 -1467540421, i32 -1785860858, i32 -1, i32 -4, i32 2, i32 -3], [8 x i32] [i32 -1809907388, i32 1815343686, i32 0, i32 -714410568, i32 584369870, i32 -9, i32 -9, i32 584369870]], [4 x [8 x i32]] [[8 x i32] [i32 -1128634088, i32 -1874744000, i32 -1874744000, i32 -1128634088, i32 433814155, i32 -4, i32 -588023214, i32 -1], [8 x i32] [i32 1, i32 -1809907388, i32 -10, i32 -1706845867, i32 791473948, i32 9, i32 1, i32 1], [8 x i32] [i32 2038882485, i32 -1809907388, i32 1640425186, i32 722226186, i32 8, i32 -4, i32 -8, i32 794364046], [8 x i32] [i32 -2075340073, i32 -1874744000, i32 2094378031, i32 530365047, i32 -1, i32 -9, i32 -4, i32 0]], [4 x [8 x i32]] [[8 x i32] [i32 -37854605, i32 1815343686, i32 989455465, i32 1633570608, i32 1, i32 -4, i32 1, i32 -9], [8 x i32] [i32 -6, i32 0, i32 0, i32 -1933069696, i32 7, i32 -1785860858, i32 985158387, i32 695730065], [8 x i32] [i32 -1, i32 722226186, i32 472316755, i32 -10, i32 0, i32 0, i32 161633866, i32 -3], [8 x i32] [i32 -1874744000, i32 -1060214541, i32 584369870, i32 791473948, i32 853861636, i32 -1785860858, i32 -1508768619, i32 736090378]], [4 x [8 x i32]] [[8 x i32] [i32 0, i32 0, i32 -37854605, i32 4, i32 -1, i32 1, i32 722226186, i32 1], [8 x i32] [i32 -1, i32 -1, i32 1742894918, i32 0, i32 -37854605, i32 6, i32 -1060214541, i32 985158387], [8 x i32] [i32 -9, i32 695730065, i32 -7, i32 -10, i32 1, i32 -714410568, i32 -1874744000, i32 -953793100], [8 x i32] [i32 -8, i32 -1706845867, i32 7, i32 1, i32 0, i32 1309784258, i32 -10, i32 -9]], [4 x [8 x i32]] [[8 x i32] [i32 1, i32 1, i32 1, i32 9, i32 -6, i32 9, i32 1, i32 1], [8 x i32] [i32 695730065, i32 -810172494, i32 1, i32 4, i32 -1874744000, i32 584369870, i32 -588023214, i32 1537802239], [8 x i32] [i32 -1809907388, i32 1407376318, i32 0, i32 -8, i32 695730065, i32 -1467540421, i32 -588023214, i32 -735125494], [8 x i32] [i32 1640425186, i32 -8, i32 1, i32 584369870, i32 -901608112, i32 0, i32 1, i32 -4]], [4 x [8 x i32]] [[8 x i32] [i32 -901608112, i32 0, i32 1, i32 -4, i32 1, i32 -1, i32 -10, i32 -9], [8 x i32] [i32 6, i32 -9, i32 7, i32 -2075340073, i32 0, i32 2, i32 -1874744000, i32 -10], [8 x i32] [i32 9, i32 0, i32 -7, i32 -1, i32 -1706845867, i32 0, i32 -1060214541, i32 433814155], [8 x i32] [i32 530365047, i32 -1933069696, i32 1742894918, i32 -1467540421, i32 -10, i32 -4, i32 722226186, i32 1]], [4 x [8 x i32]] [[8 x i32] [i32 0, i32 -4, i32 -37854605, i32 2, i32 -588023214, i32 695730065, i32 -1508768619, i32 0], [8 x i32] [i32 -2075340073, i32 1, i32 584369870, i32 -1, i32 1, i32 -588023214, i32 161633866, i32 722226186], [8 x i32] [i32 1116654728, i32 -10, i32 695730065, i32 1, i32 -4, i32 0, i32 -1467540421, i32 -810172494], [8 x i32] [i32 1, i32 -735125494, i32 2038882485, i32 -9, i32 4, i32 1, i32 765046379, i32 -7]], [4 x [8 x i32]] [[8 x i32] [i32 -9, i32 985158387, i32 -1, i32 0, i32 1004926661, i32 -9, i32 1, i32 1], [8 x i32] [i32 1, i32 1633570608, i32 8, i32 8, i32 1633570608, i32 1, i32 -1128634088, i32 -10], [8 x i32] [i32 584369870, i32 -714410568, i32 0, i32 1815343686, i32 -1809907388, i32 1742894918, i32 4, i32 -2075340073], [8 x i32] [i32 -810172494, i32 -37854605, i32 1004926661, i32 1815343686, i32 -10, i32 599604207, i32 1734266579, i32 -10]]], align 16
@.str.170 = private unnamed_addr constant [16 x i8] c"g_3079[i][j][k]\00", align 1
@_ZL6g_3080 = internal global i32 1765270099, align 4
@.str.171 = private unnamed_addr constant [7 x i8] c"g_3080\00", align 1
@_ZL6g_3081 = internal global i32 -1, align 4
@.str.172 = private unnamed_addr constant [7 x i8] c"g_3081\00", align 1
@_ZL6g_3082 = internal global i32 1202274508, align 4
@.str.173 = private unnamed_addr constant [7 x i8] c"g_3082\00", align 1
@_ZL6g_3083 = internal global i32 2070530969, align 4
@.str.174 = private unnamed_addr constant [7 x i8] c"g_3083\00", align 1
@_ZL6g_3195 = internal constant [3 x i8] c"\05\05\05", align 1
@.str.175 = private unnamed_addr constant [10 x i8] c"g_3195[i]\00", align 1
@_ZL6g_3197 = internal global [4 x i64] [i64 -65882669444779232, i64 -65882669444779232, i64 -65882669444779232, i64 -65882669444779232], align 16
@.str.176 = private unnamed_addr constant [10 x i8] c"g_3197[i]\00", align 1
@_ZL6g_3338 = internal global i8 -107, align 1
@.str.177 = private unnamed_addr constant [7 x i8] c"g_3338\00", align 1
@.str.178 = private unnamed_addr constant [7 x i8] c"g_3356\00", align 1
@.str.179 = private unnamed_addr constant [7 x i8] c"g_3357\00", align 1
@.str.180 = private unnamed_addr constant [7 x i8] c"g_3358\00", align 1
@.str.181 = private unnamed_addr constant [7 x i8] c"g_3359\00", align 1
@.str.182 = private unnamed_addr constant [7 x i8] c"g_3360\00", align 1
@.str.183 = private unnamed_addr constant [7 x i8] c"g_3361\00", align 1
@_ZL6g_3362 = internal constant [3 x i64] [i64 1, i64 1, i64 1], align 16
@.str.184 = private unnamed_addr constant [10 x i8] c"g_3362[i]\00", align 1
@.str.185 = private unnamed_addr constant [7 x i8] c"g_3363\00", align 1
@.str.186 = private unnamed_addr constant [7 x i8] c"g_3364\00", align 1
@.str.187 = private unnamed_addr constant [7 x i8] c"g_3365\00", align 1
@.str.188 = private unnamed_addr constant [7 x i8] c"g_3366\00", align 1
@.str.189 = private unnamed_addr constant [7 x i8] c"g_3367\00", align 1
@.str.190 = private unnamed_addr constant [7 x i8] c"g_3368\00", align 1
@.str.191 = private unnamed_addr constant [7 x i8] c"g_3369\00", align 1
@.str.192 = private unnamed_addr constant [7 x i8] c"g_3370\00", align 1
@.str.193 = private unnamed_addr constant [7 x i8] c"g_3371\00", align 1
@.str.194 = private unnamed_addr constant [7 x i8] c"g_3372\00", align 1
@.str.195 = private unnamed_addr constant [7 x i8] c"g_3373\00", align 1
@.str.196 = private unnamed_addr constant [7 x i8] c"g_3374\00", align 1
@_ZL6g_3375 = internal constant [8 x i64] [i64 1, i64 1, i64 1, i64 1, i64 1, i64 1, i64 1, i64 1], align 16
@.str.197 = private unnamed_addr constant [10 x i8] c"g_3375[i]\00", align 1
@.str.198 = private unnamed_addr constant [7 x i8] c"g_3376\00", align 1
@.str.199 = private unnamed_addr constant [7 x i8] c"g_3377\00", align 1
@.str.200 = private unnamed_addr constant [7 x i8] c"g_3378\00", align 1
@.str.201 = private unnamed_addr constant [7 x i8] c"g_3379\00", align 1
@_ZL6g_3543 = internal global i16 12248, align 2
@.str.202 = private unnamed_addr constant [7 x i8] c"g_3543\00", align 1
@_ZL6g_3679 = internal global i16 17177, align 2
@.str.203 = private unnamed_addr constant [7 x i8] c"g_3679\00", align 1
@_ZL6g_3716 = internal global i64 8397247002480261296, align 8
@.str.204 = private unnamed_addr constant [7 x i8] c"g_3716\00", align 1
@_ZL6g_3743 = internal global i64 0, align 8
@.str.205 = private unnamed_addr constant [7 x i8] c"g_3743\00", align 1
@_ZL13crc32_context = internal global i32 -1, align 4
@_ZL9crc32_tab = internal global [256 x i32] zeroinitializer, align 16
@__const._ZL6func_1v.l_979 = private unnamed_addr constant [7 x ptr] [ptr @_ZL5g_122, ptr @_ZL5g_122, ptr @_ZL5g_122, ptr @_ZL5g_122, ptr @_ZL5g_122, ptr @_ZL5g_122, ptr @_ZL5g_122], align 16
@_ZL5g_975 = internal global ptr null, align 8
@_ZL5g_606 = internal global ptr @_ZL5g_607, align 8
@_ZL5g_119 = internal global ptr null, align 8
@_ZL6g_1928 = internal global ptr @_ZL5g_118, align 8
@__const._ZL6func_1v.l_3735 = private unnamed_addr constant [9 x [7 x [3 x ptr]]] [[7 x [3 x ptr]] [[3 x ptr] [ptr getelementptr (i8, ptr @_ZL6g_2685, i64 4), ptr getelementptr (i8, ptr @_ZL6g_2685, i64 4), ptr @_ZL4g_93], [3 x ptr] [ptr getelementptr (i8, ptr @_ZL6g_1363, i64 34), ptr getelementptr (i8, ptr @_ZL5g_172, i64 60), ptr getelementptr (i8, ptr @_ZL6g_2685, i64 4)], [3 x ptr] [ptr getelementptr (i8, ptr @_ZL6g_2685, i64 4), ptr getelementptr (i8, ptr @_ZL6g_2685, i64 4), ptr getelementptr (i8, ptr @_ZL6g_1363, i64 34)], [3 x ptr] [ptr getelementptr (i8, ptr @_ZL5g_172, i64 60), ptr getelementptr (i8, ptr @_ZL6g_1363, i64 34), ptr getelementptr (i8, ptr @_ZL5g_172, i64 16)], [3 x ptr] [ptr getelementptr (i8, ptr @_ZL6g_2685, i64 4), ptr getelementptr (i8, ptr @_ZL6g_2685, i64 4), ptr getelementptr (i8, ptr @_ZL6g_2685, i64 4)], [3 x ptr] [ptr getelementptr (i8, ptr @_ZL6g_2685, i64 4), ptr getelementptr (i8, ptr @_ZL5g_172, i64 60), ptr getelementptr (i8, ptr @_ZL5g_172, i64 16)], [3 x ptr] [ptr null, ptr getelementptr (i8, ptr @_ZL6g_2685, i64 4), ptr getelementptr (i8, ptr @_ZL6g_2685, i64 4)]], [7 x [3 x ptr]] [[3 x ptr] [ptr getelementptr (i8, ptr @_ZL5g_172, i64 16), ptr getelementptr (i8, ptr @_ZL6g_2685, i64 4), ptr getelementptr (i8, ptr @_ZL5g_172, i64 16)], [3 x ptr] [ptr getelementptr (i8, ptr @_ZL6g_2685, i64 4), ptr null, ptr getelementptr (i8, ptr @_ZL6g_1363, i64 34)], [3 x ptr] [ptr getelementptr (i8, ptr @_ZL5g_172, i64 16), ptr getelementptr (i8, ptr @_ZL5g_172, i64 16), ptr getelementptr (i8, ptr @_ZL6g_2685, i64 4)], [3 x ptr] [ptr null, ptr getelementptr (i8, ptr @_ZL6g_2685, i64 4), ptr @_ZL4g_93], [3 x ptr] [ptr getelementptr (i8, ptr @_ZL6g_2685, i64 4), ptr getelementptr (i8, ptr @_ZL5g_172, i64 16), ptr getelementptr (i8, ptr @_ZL6g_1363, i64 34)], [3 x ptr] [ptr getelementptr (i8, ptr @_ZL6g_2685, i64 4), ptr getelementptr (i8, ptr @_ZL6g_2685, i64 4), ptr getelementptr (i8, ptr @_ZL6g_2685, i64 4)], [3 x ptr] [ptr getelementptr (i8, ptr @_ZL6g_2685, i64 4), ptr getelementptr (i8, ptr @_ZL6g_1363, i64 34), ptr getelementptr (i8, ptr @_ZL6g_1363, i64 34)]], [7 x [3 x ptr]] [[3 x ptr] [ptr getelementptr (i8, ptr @_ZL6g_2685, i64 4), ptr getelementptr (i8, ptr @_ZL6g_2685, i64 4), ptr getelementptr (i8, ptr @_ZL6g_1363, i64 34)], [3 x ptr] [ptr getelementptr (i8, ptr @_ZL5g_172, i64 16), ptr getelementptr (i8, ptr @_ZL6g_2685, i64 4), ptr getelementptr (i8, ptr @_ZL5g_172, i64 16)], [3 x ptr] [ptr getelementptr (i8, ptr @_ZL6g_2685, i64 4), ptr getelementptr (i8, ptr @_ZL6g_2685, i64 4), ptr getelementptr (i8, ptr @_ZL6g_2685, i64 4)], [3 x ptr] [ptr getelementptr (i8, ptr @_ZL6g_2685, i64 4), ptr getelementptr (i8, ptr @_ZL5g_172, i64 16), ptr getelementptr (i8, ptr @_ZL6g_2685, i64 4)], [3 x ptr] [ptr getelementptr (i8, ptr @_ZL6g_2685, i64 4), ptr getelementptr (i8, ptr @_ZL6g_2685, i64 4), ptr getelementptr (i8, ptr @_ZL6g_2685, i64 4)], [3 x ptr] [ptr getelementptr (i8, ptr @_ZL6g_1363, i64 34), ptr getelementptr (i8, ptr @_ZL6g_2685, i64 4), ptr getelementptr (i8, ptr @_ZL5g_172, i64 16)], [3 x ptr] [ptr getelementptr (i8, ptr @_ZL6g_2685, i64 4), ptr getelementptr (i8, ptr @_ZL6g_2685, i64 4), ptr getelementptr (i8, ptr @_ZL6g_2685, i64 4)]], [7 x [3 x ptr]] [[3 x ptr] [ptr getelementptr (i8, ptr @_ZL5g_172, i64 16), ptr getelementptr (i8, ptr @_ZL6g_1363, i64 34), ptr getelementptr (i8, ptr @_ZL6g_2685, i64 4)], [3 x ptr] [ptr @_ZL4g_93, ptr getelementptr (i8, ptr @_ZL6g_2685, i64 4), ptr getelementptr (i8, ptr @_ZL6g_2685, i64 4)], [3 x ptr] [ptr getelementptr (i8, ptr @_ZL5g_172, i64 16), ptr getelementptr (i8, ptr @_ZL5g_172, i64 16), ptr getelementptr (i8, ptr @_ZL5g_172, i64 16)], [3 x ptr] [ptr getelementptr (i8, ptr @_ZL6g_2685, i64 4), ptr @_ZL4g_93, ptr getelementptr (i8, ptr @_ZL6g_1363, i64 34)], [3 x ptr] [ptr getelementptr (i8, ptr @_ZL6g_1363, i64 34), ptr getelementptr (i8, ptr @_ZL5g_172, i64 16), ptr getelementptr (i8, ptr @_ZL6g_1363, i64 34)], [3 x ptr] [ptr getelementptr (i8, ptr @_ZL6g_2685, i64 4), ptr getelementptr (i8, ptr @_ZL6g_2685, i64 4), ptr getelementptr (i8, ptr @_ZL6g_2685, i64 4)], [3 x ptr] [ptr getelementptr (i8, ptr @_ZL6g_2685, i64 4), ptr getelementptr (i8, ptr @_ZL6g_1363, i64 34), ptr getelementptr (i8, ptr @_ZL6g_1363, i64 34)]], [7 x [3 x ptr]] [[3 x ptr] [ptr getelementptr (i8, ptr @_ZL6g_2685, i64 4), ptr getelementptr (i8, ptr @_ZL6g_2685, i64 4), ptr getelementptr (i8, ptr @_ZL6g_1363, i64 34)], [3 x ptr] [ptr getelementptr (i8, ptr @_ZL5g_172, i64 16), ptr getelementptr (i8, ptr @_ZL6g_2685, i64 4), ptr getelementptr (i8, ptr @_ZL5g_172, i64 16)], [3 x ptr] [ptr getelementptr (i8, ptr @_ZL6g_2685, i64 4), ptr getelementptr (i8, ptr @_ZL6g_2685, i64 4), ptr getelementptr (i8, ptr @_ZL6g_2685, i64 4)], [3 x ptr] [ptr getelementptr (i8, ptr @_ZL6g_2685, i64 4), ptr getelementptr (i8, ptr @_ZL5g_172, i64 16), ptr getelementptr (i8, ptr @_ZL6g_2685, i64 4)], [3 x ptr] [ptr getelementptr (i8, ptr @_ZL6g_2685, i64 4), ptr getelementptr (i8, ptr @_ZL6g_2685, i64 4), ptr getelementptr (i8, ptr @_ZL6g_2685, i64 4)], [3 x ptr] [ptr getelementptr (i8, ptr @_ZL6g_1363, i64 34), ptr getelementptr (i8, ptr @_ZL6g_2685, i64 4), ptr getelementptr (i8, ptr @_ZL5g_172, i64 16)], [3 x ptr] [ptr getelementptr (i8, ptr @_ZL6g_2685, i64 4), ptr getelementptr (i8, ptr @_ZL6g_2685, i64 4), ptr getelementptr (i8, ptr @_ZL6g_2685, i64 4)]], [7 x [3 x ptr]] [[3 x ptr] [ptr getelementptr (i8, ptr @_ZL5g_172, i64 16), ptr getelementptr (i8, ptr @_ZL6g_1363, i64 34), ptr getelementptr (i8, ptr @_ZL6g_2685, i64 4)], [3 x ptr] [ptr @_ZL4g_93, ptr getelementptr (i8, ptr @_ZL6g_2685, i64 4), ptr getelementptr (i8, ptr @_ZL6g_2685, i64 4)], [3 x ptr] [ptr getelementptr (i8, ptr @_ZL5g_172, i64 16), ptr getelementptr (i8, ptr @_ZL5g_172, i64 16), ptr getelementptr (i8, ptr @_ZL5g_172, i64 16)], [3 x ptr] [ptr getelementptr (i8, ptr @_ZL6g_2685, i64 4), ptr @_ZL4g_93, ptr getelementptr (i8, ptr @_ZL6g_1363, i64 34)], [3 x ptr] [ptr getelementptr (i8, ptr @_ZL6g_1363, i64 34), ptr getelementptr (i8, ptr @_ZL5g_172, i64 16), ptr getelementptr (i8, ptr @_ZL6g_1363, i64 34)], [3 x ptr] [ptr getelementptr (i8, ptr @_ZL6g_2685, i64 4), ptr getelementptr (i8, ptr @_ZL6g_2685, i64 4), ptr getelementptr (i8, ptr @_ZL6g_2685, i64 4)], [3 x ptr] [ptr getelementptr (i8, ptr @_ZL6g_2685, i64 4), ptr getelementptr (i8, ptr @_ZL6g_1363, i64 34), ptr getelementptr (i8, ptr @_ZL6g_1363, i64 34)]], [7 x [3 x ptr]] [[3 x ptr] [ptr getelementptr (i8, ptr @_ZL6g_2685, i64 4), ptr getelementptr (i8, ptr @_ZL6g_2685, i64 4), ptr getelementptr (i8, ptr @_ZL6g_1363, i64 34)], [3 x ptr] [ptr getelementptr (i8, ptr @_ZL5g_172, i64 16), ptr getelementptr (i8, ptr @_ZL6g_2685, i64 4), ptr getelementptr (i8, ptr @_ZL5g_172, i64 16)], [3 x ptr] [ptr getelementptr (i8, ptr @_ZL6g_2685, i64 4), ptr getelementptr (i8, ptr @_ZL6g_2685, i64 4), ptr getelementptr (i8, ptr @_ZL6g_2685, i64 4)], [3 x ptr] [ptr getelementptr (i8, ptr @_ZL6g_2685, i64 4), ptr getelementptr (i8, ptr @_ZL5g_172, i64 16), ptr getelementptr (i8, ptr @_ZL6g_2685, i64 4)], [3 x ptr] [ptr getelementptr (i8, ptr @_ZL6g_2685, i64 4), ptr getelementptr (i8, ptr @_ZL6g_2685, i64 4), ptr getelementptr (i8, ptr @_ZL6g_2685, i64 4)], [3 x ptr] [ptr getelementptr (i8, ptr @_ZL6g_1363, i64 34), ptr getelementptr (i8, ptr @_ZL6g_2685, i64 4), ptr getelementptr (i8, ptr @_ZL5g_172, i64 16)], [3 x ptr] [ptr getelementptr (i8, ptr @_ZL6g_2685, i64 4), ptr getelementptr (i8, ptr @_ZL6g_2685, i64 4), ptr getelementptr (i8, ptr @_ZL6g_2685, i64 4)]], [7 x [3 x ptr]] [[3 x ptr] [ptr getelementptr (i8, ptr @_ZL5g_172, i64 16), ptr getelementptr (i8, ptr @_ZL6g_1363, i64 34), ptr getelementptr (i8, ptr @_ZL6g_2685, i64 4)], [3 x ptr] [ptr @_ZL4g_93, ptr getelementptr (i8, ptr @_ZL6g_2685, i64 4), ptr getelementptr (i8, ptr @_ZL6g_2685, i64 4)], [3 x ptr] [ptr getelementptr (i8, ptr @_ZL5g_172, i64 16), ptr getelementptr (i8, ptr @_ZL5g_172, i64 16), ptr getelementptr (i8, ptr @_ZL5g_172, i64 16)], [3 x ptr] [ptr getelementptr (i8, ptr @_ZL6g_2685, i64 4), ptr @_ZL4g_93, ptr getelementptr (i8, ptr @_ZL6g_1363, i64 34)], [3 x ptr] [ptr getelementptr (i8, ptr @_ZL6g_1363, i64 34), ptr getelementptr (i8, ptr @_ZL5g_172, i64 16), ptr getelementptr (i8, ptr @_ZL6g_1363, i64 34)], [3 x ptr] [ptr getelementptr (i8, ptr @_ZL6g_2685, i64 4), ptr getelementptr (i8, ptr @_ZL6g_2685, i64 4), ptr getelementptr (i8, ptr @_ZL6g_2685, i64 4)], [3 x ptr] [ptr getelementptr (i8, ptr @_ZL6g_2685, i64 4), ptr getelementptr (i8, ptr @_ZL6g_1363, i64 34), ptr getelementptr (i8, ptr @_ZL6g_1363, i64 34)]], [7 x [3 x ptr]] [[3 x ptr] [ptr getelementptr (i8, ptr @_ZL6g_2685, i64 4), ptr getelementptr (i8, ptr @_ZL6g_2685, i64 4), ptr getelementptr (i8, ptr @_ZL6g_1363, i64 34)], [3 x ptr] [ptr getelementptr (i8, ptr @_ZL5g_172, i64 16), ptr getelementptr (i8, ptr @_ZL6g_2685, i64 4), ptr getelementptr (i8, ptr @_ZL5g_172, i64 16)], [3 x ptr] [ptr getelementptr (i8, ptr @_ZL6g_2685, i64 4), ptr getelementptr (i8, ptr @_ZL6g_2685, i64 4), ptr getelementptr (i8, ptr @_ZL6g_2685, i64 4)], [3 x ptr] [ptr getelementptr (i8, ptr @_ZL6g_2685, i64 4), ptr getelementptr (i8, ptr @_ZL5g_172, i64 16), ptr getelementptr (i8, ptr @_ZL6g_2685, i64 4)], [3 x ptr] [ptr getelementptr (i8, ptr @_ZL6g_2685, i64 4), ptr getelementptr (i8, ptr @_ZL6g_2685, i64 4), ptr getelementptr (i8, ptr @_ZL6g_2685, i64 4)], [3 x ptr] [ptr getelementptr (i8, ptr @_ZL6g_1363, i64 34), ptr getelementptr (i8, ptr @_ZL6g_2685, i64 4), ptr getelementptr (i8, ptr @_ZL5g_172, i64 16)], [3 x ptr] [ptr getelementptr (i8, ptr @_ZL6g_2685, i64 4), ptr getelementptr (i8, ptr @_ZL6g_2685, i64 4), ptr getelementptr (i8, ptr @_ZL6g_2685, i64 4)]]], align 16
@_ZL6g_1811 = internal global ptr getelementptr (i8, ptr @_ZL6g_1812, i64 64), align 8
@__const._ZL6func_1v.l_3718 = private unnamed_addr constant [9 x i8] c"\00\B0\B0\00\B0\B0\00\B0\B0", align 1
@_ZL6g_1810 = internal global ptr @_ZL6g_1811, align 8
@constinit = private global [3 x ptr] [ptr @_ZL6g_1810, ptr null, ptr @_ZL6g_1810], align 8
@constinit.206 = private global [3 x ptr] [ptr @_ZL6g_1810, ptr null, ptr @_ZL6g_1810], align 8
@constinit.207 = private global [3 x ptr] [ptr @_ZL6g_1810, ptr null, ptr null], align 8
@constinit.208 = private global [3 x ptr] [ptr @_ZL6g_1810, ptr null, ptr @_ZL6g_1810], align 8
@constinit.209 = private global [3 x ptr] [ptr @_ZL6g_1810, ptr null, ptr null], align 8
@constinit.210 = private global [3 x ptr] [ptr @_ZL6g_1810, ptr null, ptr @_ZL6g_1810], align 8
@constinit.211 = private global [3 x ptr] [ptr @_ZL6g_1810, ptr null, ptr null], align 8
@constinit.212 = private global [3 x ptr] [ptr @_ZL6g_1810, ptr null, ptr @_ZL6g_1810], align 8
@_ZL6g_2643 = internal global ptr @_ZL6g_2644, align 8
@__const._ZL7func_10i.l_1253 = private unnamed_addr constant [4 x [9 x i8]] [[9 x i8] c"@\AF\AF@\01@\AF\AF@", [9 x i8] c"\C0B3B\C0\C0B3B", [9 x i8] c"\AF\01\01\01\01\AF\01\01\01", [9 x i8] c"\C0\C0B3B\C0\C0B3"], align 16
@__const._ZL7func_10i.l_1260 = private unnamed_addr constant [10 x [5 x [5 x i32]]] [[5 x [5 x i32]] [[5 x i32] [i32 -6, i32 876257135, i32 -1629488037, i32 -1481966783, i32 2102080650], [5 x i32] [i32 -264689169, i32 5, i32 442813535, i32 5, i32 -1481966783], [5 x i32] [i32 7, i32 3, i32 974516484, i32 -1, i32 4], [5 x i32] [i32 442813535, i32 0, i32 1120655021, i32 1871150801, i32 -6], [5 x i32] [i32 0, i32 0, i32 5, i32 -1, i32 230898283]], [5 x [5 x i32]] [[5 x i32] [i32 2, i32 3, i32 4, i32 3, i32 2], [5 x i32] [i32 -1682836068, i32 5, i32 -279565153, i32 -1, i32 -1], [5 x i32] [i32 1432134084, i32 876257135, i32 -1, i32 -1930204801, i32 0], [5 x i32] [i32 -1, i32 -1383416973, i32 -1481966783, i32 5, i32 -1], [5 x i32] [i32 1120655021, i32 -1930204801, i32 3, i32 -1926240966, i32 2]], [5 x [5 x i32]] [[5 x i32] [i32 -1, i32 -1, i32 -264689169, i32 -1629488037, i32 230898283], [5 x i32] [i32 -140664423, i32 -1, i32 -1682836068, i32 -1, i32 -6], [5 x i32] [i32 1, i32 -361092534, i32 -1682836068, i32 876257135, i32 4], [5 x i32] [i32 -1, i32 -1481966783, i32 -264689169, i32 -264689169, i32 -1481966783], [5 x i32] [i32 1871150801, i32 -1, i32 3, i32 1120655021, i32 2102080650]], [5 x [5 x i32]] [[5 x i32] [i32 -1383416973, i32 -693417416, i32 -1481966783, i32 2, i32 -948731527], [5 x i32] [i32 -542638918, i32 588066407, i32 -1, i32 -693417416, i32 876257135], [5 x i32] [i32 -1383416973, i32 1432134084, i32 -279565153, i32 -140664423, i32 -361092534], [5 x i32] [i32 1871150801, i32 -1629488037, i32 4, i32 0, i32 5], [5 x i32] [i32 -1, i32 1, i32 5, i32 4, i32 -1843485494]], [5 x [5 x i32]] [[5 x i32] [i32 1, i32 -279565153, i32 1120655021, i32 4, i32 1432134084], [5 x i32] [i32 -140664423, i32 -542638918, i32 974516484, i32 0, i32 974516484], [5 x i32] [i32 -1, i32 -1, i32 442813535, i32 -140664423, i32 588066407], [5 x i32] [i32 1120655021, i32 5, i32 -1629488037, i32 -693417416, i32 1871150801], [5 x i32] [i32 -1, i32 7, i32 -6, i32 2, i32 -1]], [5 x [5 x i32]] [[5 x i32] [i32 1432134084, i32 5, i32 -1, i32 1120655021, i32 -693417416], [5 x i32] [i32 -1682836068, i32 -1, i32 -1, i32 -264689169, i32 -1629488037], [5 x i32] [i32 2, i32 -542638918, i32 -361092534, i32 876257135, i32 -140664423], [5 x i32] [i32 0, i32 -279565153, i32 230898283, i32 -1, i32 -140664423], [5 x i32] [i32 442813535, i32 1, i32 -1, i32 -1629488037, i32 -1629488037]], [5 x [5 x i32]] [[5 x i32] [i32 7, i32 -1629488037, i32 7, i32 -1926240966, i32 -542638918], [5 x i32] [i32 -1481966783, i32 -1, i32 2, i32 -1, i32 -1926240966], [5 x i32] [i32 -264689169, i32 3, i32 -1, i32 0, i32 588066407], [5 x i32] [i32 -361092534, i32 -542638918, i32 2, i32 -1926240966, i32 3], [5 x i32] [i32 -1926240966, i32 4, i32 -1383416973, i32 876257135, i32 -1]], [5 x [5 x i32]] [[5 x i32] [i32 2102080650, i32 1432134084, i32 -1926240966, i32 -1, i32 -1], [5 x i32] [i32 -542638918, i32 0, i32 -1, i32 588066407, i32 -140664423], [5 x i32] [i32 -542638918, i32 -1926240966, i32 0, i32 -279565153, i32 2102080650], [5 x i32] [i32 2102080650, i32 5, i32 5, i32 2102080650, i32 0], [5 x i32] [i32 -1926240966, i32 0, i32 442813535, i32 1432134084, i32 230898283]], [5 x [5 x i32]] [[5 x i32] [i32 -361092534, i32 -1930204801, i32 -264689169, i32 2, i32 -1629488037], [5 x i32] [i32 -264689169, i32 230898283, i32 -1, i32 1432134084, i32 -361092534], [5 x i32] [i32 -1481966783, i32 -1, i32 -1843485494, i32 2102080650, i32 1432134084], [5 x i32] [i32 -1383416973, i32 876257135, i32 -1, i32 -279565153, i32 -2], [5 x i32] [i32 -1843485494, i32 7, i32 -1682836068, i32 588066407, i32 -264689169]], [5 x [5 x i32]] [[5 x i32] [i32 -693417416, i32 7, i32 2102080650, i32 -1, i32 -1], [5 x i32] [i32 1120655021, i32 876257135, i32 -2, i32 876257135, i32 1120655021], [5 x i32] [i32 5, i32 -1, i32 -948731527, i32 -1926240966, i32 442813535], [5 x i32] [i32 -1, i32 230898283, i32 -279565153, i32 0, i32 1871150801], [5 x i32] [i32 5, i32 -1930204801, i32 1432134084, i32 -1, i32 442813535]]], align 16
@__const._ZL7func_10i.l_1293 = private unnamed_addr constant [6 x [10 x ptr]] [[10 x ptr] [ptr @_ZL5g_602, ptr @_ZL5g_175, ptr @_ZL5g_602, ptr null, ptr @_ZL5g_602, ptr @_ZL5g_602, ptr null, ptr @_ZL5g_175, ptr null, ptr null], [10 x ptr] [ptr @_ZL5g_175, ptr @_ZL5g_175, ptr @_ZL5g_175, ptr @_ZL5g_602, ptr @_ZL5g_602, ptr @_ZL5g_175, ptr @_ZL5g_175, ptr @_ZL5g_175, ptr @_ZL5g_602, ptr @_ZL5g_602], [10 x ptr] [ptr @_ZL5g_175, ptr null, ptr @_ZL5g_602, ptr @_ZL5g_602, ptr null, ptr @_ZL5g_602, ptr @_ZL5g_175, ptr @_ZL5g_602, ptr null, ptr @_ZL5g_602], [10 x ptr] [ptr @_ZL5g_602, ptr @_ZL5g_175, ptr @_ZL5g_602, ptr null, ptr @_ZL5g_602, ptr @_ZL5g_602, ptr null, ptr @_ZL5g_175, ptr null, ptr null], [10 x ptr] [ptr @_ZL5g_175, ptr @_ZL5g_175, ptr @_ZL5g_175, ptr @_ZL5g_602, ptr @_ZL5g_602, ptr @_ZL5g_175, ptr @_ZL5g_175, ptr @_ZL5g_175, ptr @_ZL5g_602, ptr @_ZL5g_602], [10 x ptr] [ptr @_ZL5g_175, ptr null, ptr @_ZL5g_602, ptr @_ZL5g_602, ptr null, ptr @_ZL5g_602, ptr @_ZL5g_175, ptr @_ZL5g_602, ptr null, ptr @_ZL5g_602]], align 16
@_ZL6g_1000 = internal global ptr null, align 8
@__const._ZL7func_10i.l_1462 = private unnamed_addr constant [8 x [9 x i32]] [[9 x i32] [i32 8, i32 -7, i32 -6, i32 -616422952, i32 -549658163, i32 0, i32 -237300613, i32 8, i32 566911911], [9 x i32] [i32 1, i32 566911911, i32 305140776, i32 0, i32 -5, i32 8, i32 -756604681, i32 -616422952, i32 0], [9 x i32] [i32 -2, i32 -549658163, i32 6, i32 -756604681, i32 2, i32 2, i32 -756604681, i32 6, i32 -549658163], [9 x i32] [i32 -549658163, i32 -237300613, i32 50790888, i32 5, i32 -8, i32 -756604681, i32 -237300613, i32 -1, i32 -5], [9 x i32] [i32 1, i32 -756604681, i32 1, i32 -8, i32 8, i32 1, i32 -549658163, i32 8, i32 0], [9 x i32] [i32 6, i32 -6, i32 369458716, i32 8, i32 421247468, i32 50790888, i32 -1, i32 6, i32 1], [9 x i32] [i32 -473711886, i32 421247468, i32 -6, i32 50790888, i32 -1141130368, i32 50790888, i32 -6, i32 421247468, i32 -473711886], [9 x i32] [i32 -616422952, i32 8, i32 -1, i32 8, i32 -431024228, i32 1, i32 1, i32 -5, i32 8]], align 16
@__const._ZL7func_10i.l_1532 = private unnamed_addr constant [8 x i8] c"\80\F7\80\80\F7\80\80\F7", align 1
@__const._ZL7func_10i.l_1533 = private unnamed_addr constant [8 x i16] [i16 -32159, i16 -32159, i16 -32159, i16 -32159, i16 -32159, i16 -32159, i16 -32159, i16 -32159], align 16
@_ZL5g_118 = internal global ptr @_ZL5g_119, align 8
@__const._ZL7func_10i.l_2205 = private unnamed_addr constant [8 x i32] [i32 -1, i32 -1, i32 -1, i32 -1, i32 -1, i32 -1, i32 -1, i32 -1], align 16
@__const._ZL7func_10i.l_2318 = private unnamed_addr constant [6 x [6 x i16]] [[6 x i16] [i16 -15634, i16 0, i16 0, i16 -15634, i16 0, i16 0], [6 x i16] [i16 -15634, i16 0, i16 0, i16 -15634, i16 0, i16 0], [6 x i16] [i16 -15634, i16 0, i16 0, i16 -15634, i16 0, i16 0], [6 x i16] [i16 -15634, i16 0, i16 0, i16 -15634, i16 0, i16 0], [6 x i16] [i16 -15634, i16 0, i16 0, i16 -15634, i16 0, i16 0], [6 x i16] [i16 -15634, i16 0, i16 0, i16 -15634, i16 0, i16 0]], align 16
@_ZL5g_464 = internal global ptr null, align 8
@__const._ZL7func_10i.l_2369 = private unnamed_addr constant [3 x [3 x [3 x ptr]]] [[3 x [3 x ptr]] [[3 x ptr] [ptr @_ZL5g_464, ptr @_ZL5g_464, ptr @_ZL5g_464], [3 x ptr] [ptr null, ptr @_ZL5g_464, ptr @_ZL5g_464], [3 x ptr] [ptr @_ZL5g_464, ptr @_ZL5g_464, ptr @_ZL5g_464]], [3 x [3 x ptr]] [[3 x ptr] [ptr null, ptr @_ZL5g_464, ptr @_ZL5g_464], [3 x ptr] [ptr @_ZL5g_464, ptr @_ZL5g_464, ptr @_ZL5g_464], [3 x ptr] [ptr null, ptr @_ZL5g_464, ptr @_ZL5g_464]], [3 x [3 x ptr]] [[3 x ptr] [ptr @_ZL5g_464, ptr @_ZL5g_464, ptr @_ZL5g_464], [3 x ptr] [ptr null, ptr @_ZL5g_464, ptr @_ZL5g_464], [3 x ptr] [ptr @_ZL5g_464, ptr @_ZL5g_464, ptr @_ZL5g_464]]], align 16
@__const._ZL7func_10i.l_2370 = private unnamed_addr constant [10 x i16] [i16 -1, i16 6, i16 -19926, i16 -19926, i16 6, i16 -1, i16 6, i16 -19926, i16 -19926, i16 6], align 16
@__const._ZL7func_10i.l_2476 = private unnamed_addr constant [3 x [6 x i64]] [[6 x i64] [i64 0, i64 1, i64 0, i64 1, i64 0, i64 1], [6 x i64] [i64 0, i64 1, i64 0, i64 1, i64 0, i64 1], [6 x i64] [i64 0, i64 1, i64 0, i64 1, i64 0, i64 1]], align 16
@_ZL6g_2490 = internal constant i16 32464, align 2
@__const._ZL7func_10i.l_3546 = private unnamed_addr constant [3 x [5 x i64]] [[5 x i64] [i64 -4, i64 4888981532901158153, i64 -9073549675849877259, i64 -5, i64 -9073549675849877259], [5 x i64] [i64 -9073549675849877259, i64 -9073549675849877259, i64 7, i64 -5, i64 7116196116056365716], [5 x i64] [i64 4888981532901158153, i64 -4, i64 -4, i64 4888981532901158153, i64 -9073549675849877259]], align 16
@_ZL6g_1801 = internal global [7 x [6 x ptr]] [[6 x ptr] [ptr null, ptr @_ZL5g_111, ptr @_ZL5g_111, ptr @_ZL5g_111, ptr @_ZL5g_111, ptr @_ZL5g_111], [6 x ptr] [ptr @_ZL5g_111, ptr @_ZL5g_111, ptr null, ptr @_ZL5g_111, ptr @_ZL5g_111, ptr @_ZL5g_111], [6 x ptr] [ptr null, ptr @_ZL5g_111, ptr null, ptr @_ZL5g_111, ptr null, ptr @_ZL5g_111], [6 x ptr] [ptr null, ptr @_ZL5g_111, ptr @_ZL5g_111, ptr @_ZL5g_111, ptr @_ZL5g_111, ptr @_ZL5g_111], [6 x ptr] [ptr null, ptr @_ZL5g_111, ptr null, ptr @_ZL5g_111, ptr @_ZL5g_111, ptr @_ZL5g_111], [6 x ptr] [ptr null, ptr @_ZL5g_111, ptr @_ZL5g_111, ptr @_ZL5g_111, ptr @_ZL5g_111, ptr @_ZL5g_111], [6 x ptr] [ptr @_ZL5g_111, ptr @_ZL5g_111, ptr null, ptr @_ZL5g_111, ptr @_ZL5g_111, ptr @_ZL5g_111]], align 16
@__const._ZL7func_12i.l_988 = private unnamed_addr constant [7 x i8] c"\F8\06\06\F8\06\06\F8", align 1
@_ZL5g_850 = internal global ptr null, align 8
@__const._ZL7func_12i.l_1026 = private unnamed_addr constant [2 x [8 x i32]] [[8 x i32] [i32 -248990232, i32 276625090, i32 -248990232, i32 276625090, i32 -248990232, i32 276625090, i32 -248990232, i32 276625090], [8 x i32] [i32 -248990232, i32 276625090, i32 -248990232, i32 276625090, i32 -248990232, i32 276625090, i32 -248990232, i32 276625090]], align 16
@__const._ZL7func_12i.l_1066 = private unnamed_addr constant [8 x i64] [i64 -1834904782710138157, i64 -1834904782710138157, i64 -1834904782710138157, i64 -1834904782710138157, i64 -1834904782710138157, i64 -1834904782710138157, i64 -1834904782710138157, i64 -1834904782710138157], align 16
@_ZL5g_359 = internal global ptr @_ZL5g_360, align 8
@_ZL5g_352 = internal global ptr @_ZL5g_175, align 8
@_ZL5g_314 = internal global ptr @_ZL5g_209, align 8
@__const._ZL7func_12i.l_1029 = private unnamed_addr constant [2 x [10 x [7 x i32]]] [[10 x [7 x i32]] [[7 x i32] [i32 247471347, i32 1, i32 1787291399, i32 -4, i32 -10, i32 0, i32 1], [7 x i32] [i32 -1, i32 4, i32 -197855030, i32 0, i32 -10, i32 0, i32 -197855030], [7 x i32] [i32 -1990702459, i32 -1990702459, i32 -175492211, i32 759404578, i32 9, i32 1, i32 -2065376208], [7 x i32] [i32 -10, i32 1059128049, i32 -1, i32 -197855030, i32 -1, i32 4, i32 1183499434], [7 x i32] [i32 -1, i32 -6, i32 1, i32 -1, i32 9, i32 -4, i32 9], [7 x i32] [i32 -1483552514, i32 -1, i32 -1, i32 -1483552514, i32 -10, i32 -6, i32 -33094319], [7 x i32] [i32 -1, i32 1, i32 -6, i32 -1, i32 -10, i32 1, i32 759404578], [7 x i32] [i32 -197855030, i32 -1, i32 1059128049, i32 -10, i32 1565823289, i32 1383532477, i32 -33094319], [7 x i32] [i32 759404578, i32 -175492211, i32 -1990702459, i32 -1990702459, i32 -175492211, i32 759404578, i32 9], [7 x i32] [i32 0, i32 -197855030, i32 4, i32 -1, i32 218233446, i32 1312338586, i32 1183499434]], [10 x [7 x i32]] [[7 x i32] [i32 -4, i32 1787291399, i32 1, i32 247471347, i32 -1, i32 2054663720, i32 -2065376208], [7 x i32] [i32 -822352331, i32 -197855030, i32 -10, i32 -1253112973, i32 -1253112973, i32 -10, i32 -197855030], [7 x i32] [i32 0, i32 1787291399, i32 247471347, i32 -6, i32 -4, i32 1, i32 1], [7 x i32] [i32 218233446, i32 -822352331, i32 2, i32 4, i32 -10, i32 -1, i32 1050987874], [7 x i32] [i32 247471347, i32 1, i32 1, i32 -6, i32 -175492211, i32 -175492211, i32 -6], [7 x i32] [i32 1403000162, i32 1050987874, i32 1403000162, i32 1383532477, i32 2, i32 -197855030, i32 1312338586], [7 x i32] [i32 -1, i32 -714817623, i32 759404578, i32 -1, i32 0, i32 1787291399, i32 9], [7 x i32] [i32 1050987874, i32 0, i32 -1, i32 -822352331, i32 -6, i32 -197855030, i32 -197855030], [7 x i32] [i32 1, i32 -1517625806, i32 -1, i32 -1517625806, i32 1, i32 -175492211, i32 -4], [7 x i32] [i32 0, i32 1183499434, i32 4, i32 -1, i32 -197855030, i32 -1, i32 1059128049]]], align 16
@_ZL5g_505 = internal global [8 x ptr] [ptr @_ZL5g_506, ptr @_ZL5g_506, ptr @_ZL5g_506, ptr @_ZL5g_506, ptr @_ZL5g_506, ptr @_ZL5g_506, ptr @_ZL5g_506, ptr @_ZL5g_506], align 16
@__const._ZL7func_12i.l_1112 = private unnamed_addr constant [8 x ptr] [ptr @_ZL5g_111, ptr @_ZL5g_111, ptr @_ZL5g_111, ptr @_ZL5g_111, ptr @_ZL5g_111, ptr @_ZL5g_111, ptr @_ZL5g_111, ptr @_ZL5g_111], align 16
@_ZL5g_311 = internal global ptr @_ZL5g_312, align 8
@_ZL5g_462 = internal global ptr @_ZL5g_463, align 8
@_ZL5g_607 = internal global ptr @_ZL5g_608, align 8
@__const._ZL7func_12i.l_1211 = private unnamed_addr constant [1 x [2 x [4 x i32]]] [[2 x [4 x i32]] [[4 x i32] [i32 -5, i32 -5, i32 996264237, i32 -5], [4 x i32] [i32 -5, i32 -428427558, i32 -428427558, i32 -5]]], align 16
@_ZL6g_1189 = internal global ptr getelementptr (i8, ptr @_ZL5g_160, i64 14), align 8
@constinit.213 = private global [8 x ptr] zeroinitializer, align 8
@constinit.214 = private global [8 x ptr] [ptr null, ptr null, ptr getelementptr (i8, ptr @_ZL3g_2, i64 100), ptr null, ptr null, ptr getelementptr (i8, ptr @_ZL3g_2, i64 100), ptr null, ptr null], align 8
@constinit.215 = private global [8 x ptr] [ptr null, ptr null, ptr getelementptr (i8, ptr @_ZL3g_2, i64 100), ptr null, ptr null, ptr getelementptr (i8, ptr @_ZL3g_2, i64 100), ptr null, ptr null], align 8
@_ZL5g_360 = internal constant i64 -2843249347071839833, align 8
@_ZL5g_312 = internal constant ptr getelementptr (i8, ptr @_ZL5g_313, i64 280), align 8
@_ZL5g_313 = internal global [9 x [6 x [4 x ptr]]] [[6 x [4 x ptr]] [[4 x ptr] [ptr @_ZL5g_314, ptr @_ZL5g_314, ptr @_ZL5g_314, ptr @_ZL5g_314], [4 x ptr] [ptr @_ZL5g_314, ptr @_ZL5g_314, ptr @_ZL5g_314, ptr @_ZL5g_314], [4 x ptr] [ptr @_ZL5g_314, ptr @_ZL5g_314, ptr null, ptr @_ZL5g_314], [4 x ptr] [ptr @_ZL5g_314, ptr @_ZL5g_314, ptr @_ZL5g_314, ptr null], [4 x ptr] [ptr @_ZL5g_314, ptr @_ZL5g_314, ptr @_ZL5g_314, ptr @_ZL5g_314], [4 x ptr] [ptr @_ZL5g_314, ptr @_ZL5g_314, ptr @_ZL5g_314, ptr @_ZL5g_314]], [6 x [4 x ptr]] [[4 x ptr] [ptr @_ZL5g_314, ptr @_ZL5g_314, ptr @_ZL5g_314, ptr @_ZL5g_314], [4 x ptr] [ptr @_ZL5g_314, ptr @_ZL5g_314, ptr @_ZL5g_314, ptr @_ZL5g_314], [4 x ptr] [ptr @_ZL5g_314, ptr @_ZL5g_314, ptr @_ZL5g_314, ptr @_ZL5g_314], [4 x ptr] [ptr @_ZL5g_314, ptr @_ZL5g_314, ptr @_ZL5g_314, ptr @_ZL5g_314], [4 x ptr] [ptr @_ZL5g_314, ptr @_ZL5g_314, ptr @_ZL5g_314, ptr null], [4 x ptr] [ptr @_ZL5g_314, ptr null, ptr @_ZL5g_314, ptr @_ZL5g_314]], [6 x [4 x ptr]] [[4 x ptr] [ptr @_ZL5g_314, ptr @_ZL5g_314, ptr null, ptr null], [4 x ptr] [ptr @_ZL5g_314, ptr null, ptr @_ZL5g_314, ptr @_ZL5g_314], [4 x ptr] [ptr @_ZL5g_314, ptr @_ZL5g_314, ptr @_ZL5g_314, ptr @_ZL5g_314], [4 x ptr] [ptr @_ZL5g_314, ptr @_ZL5g_314, ptr null, ptr @_ZL5g_314], [4 x ptr] [ptr @_ZL5g_314, ptr @_ZL5g_314, ptr @_ZL5g_314, ptr null], [4 x ptr] [ptr @_ZL5g_314, ptr @_ZL5g_314, ptr null, ptr @_ZL5g_314]], [6 x [4 x ptr]] [[4 x ptr] [ptr @_ZL5g_314, ptr @_ZL5g_314, ptr @_ZL5g_314, ptr @_ZL5g_314], [4 x ptr] [ptr @_ZL5g_314, ptr @_ZL5g_314, ptr @_ZL5g_314, ptr @_ZL5g_314], [4 x ptr] [ptr @_ZL5g_314, ptr null, ptr @_ZL5g_314, ptr null], [4 x ptr] [ptr @_ZL5g_314, ptr @_ZL5g_314, ptr null, ptr @_ZL5g_314], [4 x ptr] [ptr @_ZL5g_314, ptr null, ptr @_ZL5g_314, ptr null], [4 x ptr] [ptr @_ZL5g_314, ptr @_ZL5g_314, ptr @_ZL5g_314, ptr @_ZL5g_314]], [6 x [4 x ptr]] [[4 x ptr] [ptr @_ZL5g_314, ptr @_ZL5g_314, ptr @_ZL5g_314, ptr null], [4 x ptr] [ptr @_ZL5g_314, ptr @_ZL5g_314, ptr @_ZL5g_314, ptr @_ZL5g_314], [4 x ptr] [ptr @_ZL5g_314, ptr @_ZL5g_314, ptr @_ZL5g_314, ptr @_ZL5g_314], [4 x ptr] [ptr @_ZL5g_314, ptr @_ZL5g_314, ptr @_ZL5g_314, ptr null], [4 x ptr] [ptr @_ZL5g_314, ptr @_ZL5g_314, ptr @_ZL5g_314, ptr null], [4 x ptr] [ptr @_ZL5g_314, ptr null, ptr @_ZL5g_314, ptr @_ZL5g_314]], [6 x [4 x ptr]] [[4 x ptr] [ptr @_ZL5g_314, ptr @_ZL5g_314, ptr @_ZL5g_314, ptr null], [4 x ptr] [ptr @_ZL5g_314, ptr @_ZL5g_314, ptr @_ZL5g_314, ptr @_ZL5g_314], [4 x ptr] [ptr @_ZL5g_314, ptr @_ZL5g_314, ptr @_ZL5g_314, ptr @_ZL5g_314], [4 x ptr] [ptr null, ptr @_ZL5g_314, ptr @_ZL5g_314, ptr null], [4 x ptr] [ptr @_ZL5g_314, ptr @_ZL5g_314, ptr @_ZL5g_314, ptr null], [4 x ptr] [ptr @_ZL5g_314, ptr @_ZL5g_314, ptr @_ZL5g_314, ptr null]], [6 x [4 x ptr]] [[4 x ptr] [ptr @_ZL5g_314, ptr @_ZL5g_314, ptr @_ZL5g_314, ptr null], [4 x ptr] [ptr @_ZL5g_314, ptr @_ZL5g_314, ptr @_ZL5g_314, ptr @_ZL5g_314], [4 x ptr] [ptr @_ZL5g_314, ptr @_ZL5g_314, ptr @_ZL5g_314, ptr @_ZL5g_314], [4 x ptr] [ptr @_ZL5g_314, ptr @_ZL5g_314, ptr @_ZL5g_314, ptr null], [4 x ptr] [ptr @_ZL5g_314, ptr @_ZL5g_314, ptr @_ZL5g_314, ptr @_ZL5g_314], [4 x ptr] [ptr @_ZL5g_314, ptr null, ptr @_ZL5g_314, ptr null]], [6 x [4 x ptr]] [[4 x ptr] [ptr @_ZL5g_314, ptr @_ZL5g_314, ptr @_ZL5g_314, ptr null], [4 x ptr] [ptr null, ptr @_ZL5g_314, ptr null, ptr @_ZL5g_314], [4 x ptr] [ptr @_ZL5g_314, ptr @_ZL5g_314, ptr null, ptr @_ZL5g_314], [4 x ptr] [ptr @_ZL5g_314, ptr @_ZL5g_314, ptr null, ptr null], [4 x ptr] [ptr null, ptr @_ZL5g_314, ptr @_ZL5g_314, ptr null], [4 x ptr] [ptr @_ZL5g_314, ptr null, ptr @_ZL5g_314, ptr @_ZL5g_314]], [6 x [4 x ptr]] [[4 x ptr] [ptr @_ZL5g_314, ptr @_ZL5g_314, ptr @_ZL5g_314, ptr @_ZL5g_314], [4 x ptr] [ptr @_ZL5g_314, ptr @_ZL5g_314, ptr @_ZL5g_314, ptr @_ZL5g_314], [4 x ptr] [ptr @_ZL5g_314, ptr @_ZL5g_314, ptr @_ZL5g_314, ptr @_ZL5g_314], [4 x ptr] [ptr @_ZL5g_314, ptr @_ZL5g_314, ptr @_ZL5g_314, ptr @_ZL5g_314], [4 x ptr] [ptr @_ZL5g_314, ptr null, ptr @_ZL5g_314, ptr @_ZL5g_314], [4 x ptr] [ptr @_ZL5g_314, ptr @_ZL5g_314, ptr @_ZL5g_314, ptr @_ZL5g_314]]], align 16
@_ZL5g_463 = internal constant ptr @_ZL5g_464, align 8
@_ZL5g_608 = internal global ptr @_ZL5g_609, align 8
@__const._ZL7func_14j.l_887 = private unnamed_addr constant [8 x ptr] [ptr null, ptr @_ZL5g_111, ptr null, ptr @_ZL5g_111, ptr null, ptr @_ZL5g_111, ptr null, ptr @_ZL5g_111], align 16
@__const._ZL7func_14j.l_27 = private unnamed_addr constant [10 x ptr] [ptr @_ZL4g_28, ptr @_ZL4g_28, ptr @_ZL4g_28, ptr @_ZL4g_28, ptr @_ZL4g_28, ptr @_ZL4g_28, ptr @_ZL4g_28, ptr @_ZL4g_28, ptr @_ZL4g_28, ptr @_ZL4g_28], align 16
@__const._ZL7func_14j.l_955 = private unnamed_addr constant [5 x [5 x i32]] [[5 x i32] [i32 487183680, i32 3, i32 487183680, i32 3, i32 487183680], [5 x i32] [i32 2, i32 -1, i32 -1, i32 2, i32 2], [5 x i32] [i32 -6, i32 3, i32 -6, i32 3, i32 -6], [5 x i32] [i32 2, i32 2, i32 -1, i32 -1, i32 2], [5 x i32] [i32 487183680, i32 3, i32 487183680, i32 3, i32 487183680]], align 16
@_ZL6g_1812 = internal global [2 x [10 x ptr]] [[10 x ptr] [ptr @_ZL6g_1645, ptr @_ZL6g_1645, ptr @_ZL6g_1645, ptr @_ZL6g_1645, ptr @_ZL6g_1645, ptr @_ZL6g_1645, ptr @_ZL6g_1645, ptr @_ZL6g_1645, ptr @_ZL6g_1645, ptr @_ZL6g_1645], [10 x ptr] [ptr @_ZL6g_1645, ptr @_ZL6g_1645, ptr @_ZL6g_1645, ptr @_ZL6g_1645, ptr @_ZL6g_1645, ptr @_ZL6g_1645, ptr @_ZL6g_1645, ptr @_ZL6g_1645, ptr @_ZL6g_1645, ptr @_ZL6g_1645]], align 16
@_ZL6g_2644 = internal global ptr @_ZL6g_2645, align 8
@.str.216 = private unnamed_addr constant [36 x i8] c"...checksum after hashing %s : %lX\0A\00", align 1
@.str.217 = private unnamed_addr constant [15 x i8] c"checksum = %X\0A\00", align 1

; Function Attrs: mustprogress noinline norecurse nounwind optnone sspstrong uwtable
define dso_local noundef i32 @main(i32 noundef %0, ptr noundef %1) #0 {
  %3 = alloca i32, align 4
  %4 = alloca i32, align 4
  %5 = alloca ptr, align 8
  %6 = alloca i32, align 4
  %7 = alloca i32, align 4
  %8 = alloca i32, align 4
  %9 = alloca i32, align 4
  store i32 0, ptr %3, align 4
  store i32 %0, ptr %4, align 4
  store ptr %1, ptr %5, align 8
  store i32 0, ptr %9, align 4
  %10 = load i32, ptr %4, align 4
  %11 = icmp eq i32 %10, 2
  br i1 %11, label %12, label %19

12:                                               ; preds = %2
  %13 = load ptr, ptr %5, align 8
  %14 = getelementptr inbounds ptr, ptr %13, i64 1
  %15 = load ptr, ptr %14, align 8
  %16 = call i32 @strcmp(ptr noundef %15, ptr noundef @.str) #6
  %17 = icmp eq i32 %16, 0
  br i1 %17, label %18, label %19

18:                                               ; preds = %12
  store i32 1, ptr %9, align 4
  br label %19

19:                                               ; preds = %18, %12, %2
  call void @_ZL19platform_main_beginv()
  call void @_ZL12crc32_gentabv()
  %20 = call noundef zeroext i8 @_ZL6func_1v()
  store i32 0, ptr %6, align 4
  br label %21

21:                                               ; preds = %49, %19
  %22 = load i32, ptr %6, align 4
  %23 = icmp slt i32 %22, 9
  br i1 %23, label %24, label %52

24:                                               ; preds = %21
  store i32 0, ptr %7, align 4
  br label %25

25:                                               ; preds = %45, %24
  %26 = load i32, ptr %7, align 4
  %27 = icmp slt i32 %26, 6
  br i1 %27, label %28, label %48

28:                                               ; preds = %25
  %29 = load i32, ptr %6, align 4
  %30 = sext i32 %29 to i64
  %31 = getelementptr inbounds [9 x [6 x i32]], ptr @_ZL3g_2, i64 0, i64 %30
  %32 = load i32, ptr %7, align 4
  %33 = sext i32 %32 to i64
  %34 = getelementptr inbounds [6 x i32], ptr %31, i64 0, i64 %33
  %35 = load i32, ptr %34, align 4
  %36 = sext i32 %35 to i64
  %37 = load i32, ptr %9, align 4
  call void @_ZL15transparent_crcmPci(i64 noundef %36, ptr noundef @.str.1, i32 noundef %37)
  %38 = load i32, ptr %9, align 4
  %39 = icmp ne i32 %38, 0
  br i1 %39, label %40, label %44

40:                                               ; preds = %28
  %41 = load i32, ptr %6, align 4
  %42 = load i32, ptr %7, align 4
  %43 = call i32 (ptr, ...) @printf(ptr noundef @.str.2, i32 noundef %41, i32 noundef %42)
  br label %44

44:                                               ; preds = %40, %28
  br label %45

45:                                               ; preds = %44
  %46 = load i32, ptr %7, align 4
  %47 = add nsw i32 %46, 1
  store i32 %47, ptr %7, align 4
  br label %25, !llvm.loop !6

48:                                               ; preds = %25
  br label %49

49:                                               ; preds = %48
  %50 = load i32, ptr %6, align 4
  %51 = add nsw i32 %50, 1
  store i32 %51, ptr %6, align 4
  br label %21, !llvm.loop !8

52:                                               ; preds = %21
  %53 = load i32, ptr @_ZL4g_28, align 4
  %54 = zext i32 %53 to i64
  %55 = load i32, ptr %9, align 4
  call void @_ZL15transparent_crcmPci(i64 noundef %54, ptr noundef @.str.3, i32 noundef %55)
  %56 = load i64, ptr @_ZL4g_34, align 8
  %57 = load i32, ptr %9, align 4
  call void @_ZL15transparent_crcmPci(i64 noundef %56, ptr noundef @.str.4, i32 noundef %57)
  %58 = load i64, ptr @_ZL4g_37, align 8
  %59 = load i32, ptr %9, align 4
  call void @_ZL15transparent_crcmPci(i64 noundef %58, ptr noundef @.str.5, i32 noundef %59)
  %60 = load i8, ptr @_ZL4g_41, align 1
  %61 = zext i8 %60 to i64
  %62 = load i32, ptr %9, align 4
  call void @_ZL15transparent_crcmPci(i64 noundef %61, ptr noundef @.str.6, i32 noundef %62)
  store i32 0, ptr %6, align 4
  br label %63

63:                                               ; preds = %79, %52
  %64 = load i32, ptr %6, align 4
  %65 = icmp slt i32 %64, 5
  br i1 %65, label %66, label %82

66:                                               ; preds = %63
  %67 = load i32, ptr %6, align 4
  %68 = sext i32 %67 to i64
  %69 = getelementptr inbounds [5 x i8], ptr @_ZL4g_43, i64 0, i64 %68
  %70 = load i8, ptr %69, align 1
  %71 = zext i8 %70 to i64
  %72 = load i32, ptr %9, align 4
  call void @_ZL15transparent_crcmPci(i64 noundef %71, ptr noundef @.str.7, i32 noundef %72)
  %73 = load i32, ptr %9, align 4
  %74 = icmp ne i32 %73, 0
  br i1 %74, label %75, label %78

75:                                               ; preds = %66
  %76 = load i32, ptr %6, align 4
  %77 = call i32 (ptr, ...) @printf(ptr noundef @.str.8, i32 noundef %76)
  br label %78

78:                                               ; preds = %75, %66
  br label %79

79:                                               ; preds = %78
  %80 = load i32, ptr %6, align 4
  %81 = add nsw i32 %80, 1
  store i32 %81, ptr %6, align 4
  br label %63, !llvm.loop !9

82:                                               ; preds = %63
  %83 = load volatile i64, ptr @_ZL4g_49, align 8
  %84 = load i32, ptr %9, align 4
  call void @_ZL15transparent_crcmPci(i64 noundef %83, ptr noundef @.str.9, i32 noundef %84)
  %85 = load i16, ptr @_ZL4g_57, align 2
  %86 = zext i16 %85 to i64
  %87 = load i32, ptr %9, align 4
  call void @_ZL15transparent_crcmPci(i64 noundef %86, ptr noundef @.str.10, i32 noundef %87)
  %88 = load i16, ptr @_ZL4g_93, align 2
  %89 = sext i16 %88 to i64
  %90 = load i32, ptr %9, align 4
  call void @_ZL15transparent_crcmPci(i64 noundef %89, ptr noundef @.str.11, i32 noundef %90)
  %91 = load i32, ptr @_ZL4g_94, align 4
  %92 = zext i32 %91 to i64
  %93 = load i32, ptr %9, align 4
  call void @_ZL15transparent_crcmPci(i64 noundef %92, ptr noundef @.str.12, i32 noundef %93)
  %94 = load i8, ptr @_ZL5g_108, align 1
  %95 = sext i8 %94 to i64
  %96 = load i32, ptr %9, align 4
  call void @_ZL15transparent_crcmPci(i64 noundef %95, ptr noundef @.str.13, i32 noundef %96)
  %97 = load i32, ptr @_ZL5g_111, align 4
  %98 = sext i32 %97 to i64
  %99 = load i32, ptr %9, align 4
  call void @_ZL15transparent_crcmPci(i64 noundef %98, ptr noundef @.str.14, i32 noundef %99)
  store i32 0, ptr %6, align 4
  br label %100

100:                                              ; preds = %116, %82
  %101 = load i32, ptr %6, align 4
  %102 = icmp slt i32 %101, 8
  br i1 %102, label %103, label %119

103:                                              ; preds = %100
  %104 = load i32, ptr %6, align 4
  %105 = sext i32 %104 to i64
  %106 = getelementptr inbounds [8 x i32], ptr @_ZL5g_113, i64 0, i64 %105
  %107 = load i32, ptr %106, align 4
  %108 = sext i32 %107 to i64
  %109 = load i32, ptr %9, align 4
  call void @_ZL15transparent_crcmPci(i64 noundef %108, ptr noundef @.str.15, i32 noundef %109)
  %110 = load i32, ptr %9, align 4
  %111 = icmp ne i32 %110, 0
  br i1 %111, label %112, label %115

112:                                              ; preds = %103
  %113 = load i32, ptr %6, align 4
  %114 = call i32 (ptr, ...) @printf(ptr noundef @.str.8, i32 noundef %113)
  br label %115

115:                                              ; preds = %112, %103
  br label %116

116:                                              ; preds = %115
  %117 = load i32, ptr %6, align 4
  %118 = add nsw i32 %117, 1
  store i32 %118, ptr %6, align 4
  br label %100, !llvm.loop !10

119:                                              ; preds = %100
  %120 = load i64, ptr @_ZL5g_122, align 8
  %121 = load i32, ptr %9, align 4
  call void @_ZL15transparent_crcmPci(i64 noundef %120, ptr noundef @.str.16, i32 noundef %121)
  store i32 0, ptr %6, align 4
  br label %122

122:                                              ; preds = %150, %119
  %123 = load i32, ptr %6, align 4
  %124 = icmp slt i32 %123, 2
  br i1 %124, label %125, label %153

125:                                              ; preds = %122
  store i32 0, ptr %7, align 4
  br label %126

126:                                              ; preds = %146, %125
  %127 = load i32, ptr %7, align 4
  %128 = icmp slt i32 %127, 9
  br i1 %128, label %129, label %149

129:                                              ; preds = %126
  %130 = load i32, ptr %6, align 4
  %131 = sext i32 %130 to i64
  %132 = getelementptr inbounds [2 x [9 x i16]], ptr @_ZL5g_160, i64 0, i64 %131
  %133 = load i32, ptr %7, align 4
  %134 = sext i32 %133 to i64
  %135 = getelementptr inbounds [9 x i16], ptr %132, i64 0, i64 %134
  %136 = load i16, ptr %135, align 2
  %137 = zext i16 %136 to i64
  %138 = load i32, ptr %9, align 4
  call void @_ZL15transparent_crcmPci(i64 noundef %137, ptr noundef @.str.17, i32 noundef %138)
  %139 = load i32, ptr %9, align 4
  %140 = icmp ne i32 %139, 0
  br i1 %140, label %141, label %145

141:                                              ; preds = %129
  %142 = load i32, ptr %6, align 4
  %143 = load i32, ptr %7, align 4
  %144 = call i32 (ptr, ...) @printf(ptr noundef @.str.2, i32 noundef %142, i32 noundef %143)
  br label %145

145:                                              ; preds = %141, %129
  br label %146

146:                                              ; preds = %145
  %147 = load i32, ptr %7, align 4
  %148 = add nsw i32 %147, 1
  store i32 %148, ptr %7, align 4
  br label %126, !llvm.loop !11

149:                                              ; preds = %126
  br label %150

150:                                              ; preds = %149
  %151 = load i32, ptr %6, align 4
  %152 = add nsw i32 %151, 1
  store i32 %152, ptr %6, align 4
  br label %122, !llvm.loop !12

153:                                              ; preds = %122
  store i32 0, ptr %6, align 4
  br label %154

154:                                              ; preds = %194, %153
  %155 = load i32, ptr %6, align 4
  %156 = icmp slt i32 %155, 6
  br i1 %156, label %157, label %197

157:                                              ; preds = %154
  store i32 0, ptr %7, align 4
  br label %158

158:                                              ; preds = %190, %157
  %159 = load i32, ptr %7, align 4
  %160 = icmp slt i32 %159, 1
  br i1 %160, label %161, label %193

161:                                              ; preds = %158
  store i32 0, ptr %8, align 4
  br label %162

162:                                              ; preds = %186, %161
  %163 = load i32, ptr %8, align 4
  %164 = icmp slt i32 %163, 9
  br i1 %164, label %165, label %189

165:                                              ; preds = %162
  %166 = load i32, ptr %6, align 4
  %167 = sext i32 %166 to i64
  %168 = getelementptr inbounds [6 x [1 x [9 x i16]]], ptr @_ZL5g_172, i64 0, i64 %167
  %169 = load i32, ptr %7, align 4
  %170 = sext i32 %169 to i64
  %171 = getelementptr inbounds [1 x [9 x i16]], ptr %168, i64 0, i64 %170
  %172 = load i32, ptr %8, align 4
  %173 = sext i32 %172 to i64
  %174 = getelementptr inbounds [9 x i16], ptr %171, i64 0, i64 %173
  %175 = load i16, ptr %174, align 2
  %176 = sext i16 %175 to i64
  %177 = load i32, ptr %9, align 4
  call void @_ZL15transparent_crcmPci(i64 noundef %176, ptr noundef @.str.18, i32 noundef %177)
  %178 = load i32, ptr %9, align 4
  %179 = icmp ne i32 %178, 0
  br i1 %179, label %180, label %185

180:                                              ; preds = %165
  %181 = load i32, ptr %6, align 4
  %182 = load i32, ptr %7, align 4
  %183 = load i32, ptr %8, align 4
  %184 = call i32 (ptr, ...) @printf(ptr noundef @.str.19, i32 noundef %181, i32 noundef %182, i32 noundef %183)
  br label %185

185:                                              ; preds = %180, %165
  br label %186

186:                                              ; preds = %185
  %187 = load i32, ptr %8, align 4
  %188 = add nsw i32 %187, 1
  store i32 %188, ptr %8, align 4
  br label %162, !llvm.loop !13

189:                                              ; preds = %162
  br label %190

190:                                              ; preds = %189
  %191 = load i32, ptr %7, align 4
  %192 = add nsw i32 %191, 1
  store i32 %192, ptr %7, align 4
  br label %158, !llvm.loop !14

193:                                              ; preds = %158
  br label %194

194:                                              ; preds = %193
  %195 = load i32, ptr %6, align 4
  %196 = add nsw i32 %195, 1
  store i32 %196, ptr %6, align 4
  br label %154, !llvm.loop !15

197:                                              ; preds = %154
  %198 = load i8, ptr @_ZL5g_175, align 1
  %199 = sext i8 %198 to i64
  %200 = load i32, ptr %9, align 4
  call void @_ZL15transparent_crcmPci(i64 noundef %199, ptr noundef @.str.20, i32 noundef %200)
  %201 = load i32, ptr @_ZL5g_209, align 4
  %202 = sext i32 %201 to i64
  %203 = load i32, ptr %9, align 4
  call void @_ZL15transparent_crcmPci(i64 noundef %202, ptr noundef @.str.21, i32 noundef %203)
  %204 = load i32, ptr %9, align 4
  call void @_ZL15transparent_crcmPci(i64 noundef 4294967289, ptr noundef @.str.22, i32 noundef %204)
  %205 = load i32, ptr %9, align 4
  call void @_ZL15transparent_crcmPci(i64 noundef -2843249347071839833, ptr noundef @.str.23, i32 noundef %205)
  %206 = load i32, ptr @_ZL5g_373, align 4
  %207 = zext i32 %206 to i64
  %208 = load i32, ptr %9, align 4
  call void @_ZL15transparent_crcmPci(i64 noundef %207, ptr noundef @.str.24, i32 noundef %208)
  %209 = load volatile i32, ptr @_ZL5g_398, align 4
  %210 = sext i32 %209 to i64
  %211 = load i32, ptr %9, align 4
  call void @_ZL15transparent_crcmPci(i64 noundef %210, ptr noundef @.str.25, i32 noundef %211)
  %212 = load volatile i32, ptr @_ZL5g_402, align 4
  %213 = zext i32 %212 to i64
  %214 = load i32, ptr %9, align 4
  call void @_ZL15transparent_crcmPci(i64 noundef %213, ptr noundef @.str.26, i32 noundef %214)
  %215 = load i16, ptr @_ZL5g_435, align 2
  %216 = zext i16 %215 to i64
  %217 = load i32, ptr %9, align 4
  call void @_ZL15transparent_crcmPci(i64 noundef %216, ptr noundef @.str.27, i32 noundef %217)
  %218 = load i32, ptr @_ZL5g_482, align 4
  %219 = sext i32 %218 to i64
  %220 = load i32, ptr %9, align 4
  call void @_ZL15transparent_crcmPci(i64 noundef %219, ptr noundef @.str.28, i32 noundef %220)
  %221 = load volatile i64, ptr @_ZL5g_506, align 8
  %222 = load i32, ptr %9, align 4
  call void @_ZL15transparent_crcmPci(i64 noundef %221, ptr noundef @.str.29, i32 noundef %222)
  store i32 0, ptr %6, align 4
  br label %223

223:                                              ; preds = %250, %197
  %224 = load i32, ptr %6, align 4
  %225 = icmp slt i32 %224, 2
  br i1 %225, label %226, label %253

226:                                              ; preds = %223
  store i32 0, ptr %7, align 4
  br label %227

227:                                              ; preds = %246, %226
  %228 = load i32, ptr %7, align 4
  %229 = icmp slt i32 %228, 7
  br i1 %229, label %230, label %249

230:                                              ; preds = %227
  %231 = load i32, ptr %6, align 4
  %232 = sext i32 %231 to i64
  %233 = getelementptr inbounds [2 x [7 x i64]], ptr @_ZL5g_507, i64 0, i64 %232
  %234 = load i32, ptr %7, align 4
  %235 = sext i32 %234 to i64
  %236 = getelementptr inbounds [7 x i64], ptr %233, i64 0, i64 %235
  %237 = load volatile i64, ptr %236, align 8
  %238 = load i32, ptr %9, align 4
  call void @_ZL15transparent_crcmPci(i64 noundef %237, ptr noundef @.str.30, i32 noundef %238)
  %239 = load i32, ptr %9, align 4
  %240 = icmp ne i32 %239, 0
  br i1 %240, label %241, label %245

241:                                              ; preds = %230
  %242 = load i32, ptr %6, align 4
  %243 = load i32, ptr %7, align 4
  %244 = call i32 (ptr, ...) @printf(ptr noundef @.str.2, i32 noundef %242, i32 noundef %243)
  br label %245

245:                                              ; preds = %241, %230
  br label %246

246:                                              ; preds = %245
  %247 = load i32, ptr %7, align 4
  %248 = add nsw i32 %247, 1
  store i32 %248, ptr %7, align 4
  br label %227, !llvm.loop !16

249:                                              ; preds = %227
  br label %250

250:                                              ; preds = %249
  %251 = load i32, ptr %6, align 4
  %252 = add nsw i32 %251, 1
  store i32 %252, ptr %6, align 4
  br label %223, !llvm.loop !17

253:                                              ; preds = %223
  %254 = load i64, ptr @_ZL5g_511, align 8
  %255 = load i32, ptr %9, align 4
  call void @_ZL15transparent_crcmPci(i64 noundef %254, ptr noundef @.str.31, i32 noundef %255)
  %256 = load i64, ptr @_ZL5g_514, align 8
  %257 = load i32, ptr %9, align 4
  call void @_ZL15transparent_crcmPci(i64 noundef %256, ptr noundef @.str.32, i32 noundef %257)
  %258 = load i32, ptr @_ZL5g_542, align 4
  %259 = sext i32 %258 to i64
  %260 = load i32, ptr %9, align 4
  call void @_ZL15transparent_crcmPci(i64 noundef %259, ptr noundef @.str.33, i32 noundef %260)
  %261 = load i8, ptr @_ZL5g_602, align 1
  %262 = sext i8 %261 to i64
  %263 = load i32, ptr %9, align 4
  call void @_ZL15transparent_crcmPci(i64 noundef %262, ptr noundef @.str.34, i32 noundef %263)
  %264 = load volatile i64, ptr @_ZL5g_609, align 8
  %265 = load i32, ptr %9, align 4
  call void @_ZL15transparent_crcmPci(i64 noundef %264, ptr noundef @.str.35, i32 noundef %265)
  store i32 0, ptr %6, align 4
  br label %266

266:                                              ; preds = %294, %253
  %267 = load i32, ptr %6, align 4
  %268 = icmp slt i32 %267, 4
  br i1 %268, label %269, label %297

269:                                              ; preds = %266
  store i32 0, ptr %7, align 4
  br label %270

270:                                              ; preds = %290, %269
  %271 = load i32, ptr %7, align 4
  %272 = icmp slt i32 %271, 1
  br i1 %272, label %273, label %293

273:                                              ; preds = %270
  %274 = load i32, ptr %6, align 4
  %275 = sext i32 %274 to i64
  %276 = getelementptr inbounds [4 x [1 x i32]], ptr @_ZL5g_622, i64 0, i64 %275
  %277 = load i32, ptr %7, align 4
  %278 = sext i32 %277 to i64
  %279 = getelementptr inbounds [1 x i32], ptr %276, i64 0, i64 %278
  %280 = load volatile i32, ptr %279, align 4
  %281 = zext i32 %280 to i64
  %282 = load i32, ptr %9, align 4
  call void @_ZL15transparent_crcmPci(i64 noundef %281, ptr noundef @.str.36, i32 noundef %282)
  %283 = load i32, ptr %9, align 4
  %284 = icmp ne i32 %283, 0
  br i1 %284, label %285, label %289

285:                                              ; preds = %273
  %286 = load i32, ptr %6, align 4
  %287 = load i32, ptr %7, align 4
  %288 = call i32 (ptr, ...) @printf(ptr noundef @.str.2, i32 noundef %286, i32 noundef %287)
  br label %289

289:                                              ; preds = %285, %273
  br label %290

290:                                              ; preds = %289
  %291 = load i32, ptr %7, align 4
  %292 = add nsw i32 %291, 1
  store i32 %292, ptr %7, align 4
  br label %270, !llvm.loop !18

293:                                              ; preds = %270
  br label %294

294:                                              ; preds = %293
  %295 = load i32, ptr %6, align 4
  %296 = add nsw i32 %295, 1
  store i32 %296, ptr %6, align 4
  br label %266, !llvm.loop !19

297:                                              ; preds = %266
  %298 = load i32, ptr @_ZL5g_686, align 4
  %299 = zext i32 %298 to i64
  %300 = load i32, ptr %9, align 4
  call void @_ZL15transparent_crcmPci(i64 noundef %299, ptr noundef @.str.37, i32 noundef %300)
  %301 = load i8, ptr @_ZL5g_712, align 1
  %302 = zext i8 %301 to i64
  %303 = load i32, ptr %9, align 4
  call void @_ZL15transparent_crcmPci(i64 noundef %302, ptr noundef @.str.38, i32 noundef %303)
  store i32 0, ptr %6, align 4
  br label %304

304:                                              ; preds = %344, %297
  %305 = load i32, ptr %6, align 4
  %306 = icmp slt i32 %305, 9
  br i1 %306, label %307, label %347

307:                                              ; preds = %304
  store i32 0, ptr %7, align 4
  br label %308

308:                                              ; preds = %340, %307
  %309 = load i32, ptr %7, align 4
  %310 = icmp slt i32 %309, 10
  br i1 %310, label %311, label %343

311:                                              ; preds = %308
  store i32 0, ptr %8, align 4
  br label %312

312:                                              ; preds = %336, %311
  %313 = load i32, ptr %8, align 4
  %314 = icmp slt i32 %313, 2
  br i1 %314, label %315, label %339

315:                                              ; preds = %312
  %316 = load i32, ptr %6, align 4
  %317 = sext i32 %316 to i64
  %318 = getelementptr inbounds [9 x [10 x [2 x i32]]], ptr @_ZL5g_749, i64 0, i64 %317
  %319 = load i32, ptr %7, align 4
  %320 = sext i32 %319 to i64
  %321 = getelementptr inbounds [10 x [2 x i32]], ptr %318, i64 0, i64 %320
  %322 = load i32, ptr %8, align 4
  %323 = sext i32 %322 to i64
  %324 = getelementptr inbounds [2 x i32], ptr %321, i64 0, i64 %323
  %325 = load volatile i32, ptr %324, align 4
  %326 = sext i32 %325 to i64
  %327 = load i32, ptr %9, align 4
  call void @_ZL15transparent_crcmPci(i64 noundef %326, ptr noundef @.str.39, i32 noundef %327)
  %328 = load i32, ptr %9, align 4
  %329 = icmp ne i32 %328, 0
  br i1 %329, label %330, label %335

330:                                              ; preds = %315
  %331 = load i32, ptr %6, align 4
  %332 = load i32, ptr %7, align 4
  %333 = load i32, ptr %8, align 4
  %334 = call i32 (ptr, ...) @printf(ptr noundef @.str.19, i32 noundef %331, i32 noundef %332, i32 noundef %333)
  br label %335

335:                                              ; preds = %330, %315
  br label %336

336:                                              ; preds = %335
  %337 = load i32, ptr %8, align 4
  %338 = add nsw i32 %337, 1
  store i32 %338, ptr %8, align 4
  br label %312, !llvm.loop !20

339:                                              ; preds = %312
  br label %340

340:                                              ; preds = %339
  %341 = load i32, ptr %7, align 4
  %342 = add nsw i32 %341, 1
  store i32 %342, ptr %7, align 4
  br label %308, !llvm.loop !21

343:                                              ; preds = %308
  br label %344

344:                                              ; preds = %343
  %345 = load i32, ptr %6, align 4
  %346 = add nsw i32 %345, 1
  store i32 %346, ptr %6, align 4
  br label %304, !llvm.loop !22

347:                                              ; preds = %304
  store i32 0, ptr %6, align 4
  br label %348

348:                                              ; preds = %363, %347
  %349 = load i32, ptr %6, align 4
  %350 = icmp slt i32 %349, 5
  br i1 %350, label %351, label %366

351:                                              ; preds = %348
  %352 = load i32, ptr %6, align 4
  %353 = sext i32 %352 to i64
  %354 = getelementptr inbounds [5 x i64], ptr @_ZL5g_786, i64 0, i64 %353
  %355 = load i64, ptr %354, align 8
  %356 = load i32, ptr %9, align 4
  call void @_ZL15transparent_crcmPci(i64 noundef %355, ptr noundef @.str.40, i32 noundef %356)
  %357 = load i32, ptr %9, align 4
  %358 = icmp ne i32 %357, 0
  br i1 %358, label %359, label %362

359:                                              ; preds = %351
  %360 = load i32, ptr %6, align 4
  %361 = call i32 (ptr, ...) @printf(ptr noundef @.str.8, i32 noundef %360)
  br label %362

362:                                              ; preds = %359, %351
  br label %363

363:                                              ; preds = %362
  %364 = load i32, ptr %6, align 4
  %365 = add nsw i32 %364, 1
  store i32 %365, ptr %6, align 4
  br label %348, !llvm.loop !23

366:                                              ; preds = %348
  %367 = load i64, ptr @_ZL5g_890, align 8
  %368 = load i32, ptr %9, align 4
  call void @_ZL15transparent_crcmPci(i64 noundef %367, ptr noundef @.str.41, i32 noundef %368)
  %369 = load i32, ptr @_ZL5g_921, align 4
  %370 = sext i32 %369 to i64
  %371 = load i32, ptr %9, align 4
  call void @_ZL15transparent_crcmPci(i64 noundef %370, ptr noundef @.str.42, i32 noundef %371)
  %372 = load i32, ptr @_ZL5g_985, align 4
  %373 = sext i32 %372 to i64
  %374 = load i32, ptr %9, align 4
  call void @_ZL15transparent_crcmPci(i64 noundef %373, ptr noundef @.str.43, i32 noundef %374)
  %375 = load volatile i16, ptr @_ZL6g_1041, align 2
  %376 = zext i16 %375 to i64
  %377 = load i32, ptr %9, align 4
  call void @_ZL15transparent_crcmPci(i64 noundef %376, ptr noundef @.str.44, i32 noundef %377)
  %378 = load i32, ptr %9, align 4
  call void @_ZL15transparent_crcmPci(i64 noundef -1, ptr noundef @.str.45, i32 noundef %378)
  %379 = load volatile i64, ptr @_ZL6g_1302, align 8
  %380 = load i32, ptr %9, align 4
  call void @_ZL15transparent_crcmPci(i64 noundef %379, ptr noundef @.str.46, i32 noundef %380)
  store i32 0, ptr %6, align 4
  br label %381

381:                                              ; preds = %421, %366
  %382 = load i32, ptr %6, align 4
  %383 = icmp slt i32 %382, 6
  br i1 %383, label %384, label %424

384:                                              ; preds = %381
  store i32 0, ptr %7, align 4
  br label %385

385:                                              ; preds = %417, %384
  %386 = load i32, ptr %7, align 4
  %387 = icmp slt i32 %386, 3
  br i1 %387, label %388, label %420

388:                                              ; preds = %385
  store i32 0, ptr %8, align 4
  br label %389

389:                                              ; preds = %413, %388
  %390 = load i32, ptr %8, align 4
  %391 = icmp slt i32 %390, 1
  br i1 %391, label %392, label %416

392:                                              ; preds = %389
  %393 = load i32, ptr %6, align 4
  %394 = sext i32 %393 to i64
  %395 = getelementptr inbounds [6 x [3 x [1 x i16]]], ptr @_ZL6g_1363, i64 0, i64 %394
  %396 = load i32, ptr %7, align 4
  %397 = sext i32 %396 to i64
  %398 = getelementptr inbounds [3 x [1 x i16]], ptr %395, i64 0, i64 %397
  %399 = load i32, ptr %8, align 4
  %400 = sext i32 %399 to i64
  %401 = getelementptr inbounds [1 x i16], ptr %398, i64 0, i64 %400
  %402 = load i16, ptr %401, align 2
  %403 = sext i16 %402 to i64
  %404 = load i32, ptr %9, align 4
  call void @_ZL15transparent_crcmPci(i64 noundef %403, ptr noundef @.str.47, i32 noundef %404)
  %405 = load i32, ptr %9, align 4
  %406 = icmp ne i32 %405, 0
  br i1 %406, label %407, label %412

407:                                              ; preds = %392
  %408 = load i32, ptr %6, align 4
  %409 = load i32, ptr %7, align 4
  %410 = load i32, ptr %8, align 4
  %411 = call i32 (ptr, ...) @printf(ptr noundef @.str.19, i32 noundef %408, i32 noundef %409, i32 noundef %410)
  br label %412

412:                                              ; preds = %407, %392
  br label %413

413:                                              ; preds = %412
  %414 = load i32, ptr %8, align 4
  %415 = add nsw i32 %414, 1
  store i32 %415, ptr %8, align 4
  br label %389, !llvm.loop !24

416:                                              ; preds = %389
  br label %417

417:                                              ; preds = %416
  %418 = load i32, ptr %7, align 4
  %419 = add nsw i32 %418, 1
  store i32 %419, ptr %7, align 4
  br label %385, !llvm.loop !25

420:                                              ; preds = %385
  br label %421

421:                                              ; preds = %420
  %422 = load i32, ptr %6, align 4
  %423 = add nsw i32 %422, 1
  store i32 %423, ptr %6, align 4
  br label %381, !llvm.loop !26

424:                                              ; preds = %381
  %425 = load i16, ptr @_ZL6g_1364, align 2
  %426 = sext i16 %425 to i64
  %427 = load i32, ptr %9, align 4
  call void @_ZL15transparent_crcmPci(i64 noundef %426, ptr noundef @.str.48, i32 noundef %427)
  %428 = load volatile i16, ptr @_ZL6g_1376, align 2
  %429 = sext i16 %428 to i64
  %430 = load i32, ptr %9, align 4
  call void @_ZL15transparent_crcmPci(i64 noundef %429, ptr noundef @.str.49, i32 noundef %430)
  %431 = load volatile i8, ptr @_ZL6g_1600, align 1
  %432 = zext i8 %431 to i64
  %433 = load i32, ptr %9, align 4
  call void @_ZL15transparent_crcmPci(i64 noundef %432, ptr noundef @.str.50, i32 noundef %433)
  %434 = load i32, ptr @_ZL6g_1645, align 4
  %435 = zext i32 %434 to i64
  %436 = load i32, ptr %9, align 4
  call void @_ZL15transparent_crcmPci(i64 noundef %435, ptr noundef @.str.51, i32 noundef %436)
  %437 = load i64, ptr @_ZL6g_1647, align 8
  %438 = load i32, ptr %9, align 4
  call void @_ZL15transparent_crcmPci(i64 noundef %437, ptr noundef @.str.52, i32 noundef %438)
  %439 = load volatile i64, ptr @_ZL6g_1700, align 8
  %440 = load i32, ptr %9, align 4
  call void @_ZL15transparent_crcmPci(i64 noundef %439, ptr noundef @.str.53, i32 noundef %440)
  %441 = load volatile i64, ptr @_ZL6g_1703, align 8
  %442 = load i32, ptr %9, align 4
  call void @_ZL15transparent_crcmPci(i64 noundef %441, ptr noundef @.str.54, i32 noundef %442)
  %443 = load volatile i64, ptr @_ZL6g_1706, align 8
  %444 = load i32, ptr %9, align 4
  call void @_ZL15transparent_crcmPci(i64 noundef %443, ptr noundef @.str.55, i32 noundef %444)
  store i32 0, ptr %6, align 4
  br label %445

445:                                              ; preds = %460, %424
  %446 = load i32, ptr %6, align 4
  %447 = icmp slt i32 %446, 3
  br i1 %447, label %448, label %463

448:                                              ; preds = %445
  %449 = load i32, ptr %6, align 4
  %450 = sext i32 %449 to i64
  %451 = getelementptr inbounds [3 x i64], ptr @_ZL6g_1708, i64 0, i64 %450
  %452 = load volatile i64, ptr %451, align 8
  %453 = load i32, ptr %9, align 4
  call void @_ZL15transparent_crcmPci(i64 noundef %452, ptr noundef @.str.56, i32 noundef %453)
  %454 = load i32, ptr %9, align 4
  %455 = icmp ne i32 %454, 0
  br i1 %455, label %456, label %459

456:                                              ; preds = %448
  %457 = load i32, ptr %6, align 4
  %458 = call i32 (ptr, ...) @printf(ptr noundef @.str.8, i32 noundef %457)
  br label %459

459:                                              ; preds = %456, %448
  br label %460

460:                                              ; preds = %459
  %461 = load i32, ptr %6, align 4
  %462 = add nsw i32 %461, 1
  store i32 %462, ptr %6, align 4
  br label %445, !llvm.loop !27

463:                                              ; preds = %445
  %464 = load volatile i64, ptr @_ZL6g_1711, align 8
  %465 = load i32, ptr %9, align 4
  call void @_ZL15transparent_crcmPci(i64 noundef %464, ptr noundef @.str.57, i32 noundef %465)
  %466 = load volatile i64, ptr @_ZL6g_1712, align 8
  %467 = load i32, ptr %9, align 4
  call void @_ZL15transparent_crcmPci(i64 noundef %466, ptr noundef @.str.58, i32 noundef %467)
  %468 = load volatile i64, ptr @_ZL6g_1713, align 8
  %469 = load i32, ptr %9, align 4
  call void @_ZL15transparent_crcmPci(i64 noundef %468, ptr noundef @.str.59, i32 noundef %469)
  %470 = load volatile i64, ptr @_ZL6g_1714, align 8
  %471 = load i32, ptr %9, align 4
  call void @_ZL15transparent_crcmPci(i64 noundef %470, ptr noundef @.str.60, i32 noundef %471)
  %472 = load volatile i64, ptr @_ZL6g_1715, align 8
  %473 = load i32, ptr %9, align 4
  call void @_ZL15transparent_crcmPci(i64 noundef %472, ptr noundef @.str.61, i32 noundef %473)
  store i32 0, ptr %6, align 4
  br label %474

474:                                              ; preds = %513, %463
  %475 = load i32, ptr %6, align 4
  %476 = icmp slt i32 %475, 4
  br i1 %476, label %477, label %516

477:                                              ; preds = %474
  store i32 0, ptr %7, align 4
  br label %478

478:                                              ; preds = %509, %477
  %479 = load i32, ptr %7, align 4
  %480 = icmp slt i32 %479, 7
  br i1 %480, label %481, label %512

481:                                              ; preds = %478
  store i32 0, ptr %8, align 4
  br label %482

482:                                              ; preds = %505, %481
  %483 = load i32, ptr %8, align 4
  %484 = icmp slt i32 %483, 4
  br i1 %484, label %485, label %508

485:                                              ; preds = %482
  %486 = load i32, ptr %6, align 4
  %487 = sext i32 %486 to i64
  %488 = getelementptr inbounds [4 x [7 x [4 x i64]]], ptr @_ZL6g_1716, i64 0, i64 %487
  %489 = load i32, ptr %7, align 4
  %490 = sext i32 %489 to i64
  %491 = getelementptr inbounds [7 x [4 x i64]], ptr %488, i64 0, i64 %490
  %492 = load i32, ptr %8, align 4
  %493 = sext i32 %492 to i64
  %494 = getelementptr inbounds [4 x i64], ptr %491, i64 0, i64 %493
  %495 = load volatile i64, ptr %494, align 8
  %496 = load i32, ptr %9, align 4
  call void @_ZL15transparent_crcmPci(i64 noundef %495, ptr noundef @.str.62, i32 noundef %496)
  %497 = load i32, ptr %9, align 4
  %498 = icmp ne i32 %497, 0
  br i1 %498, label %499, label %504

499:                                              ; preds = %485
  %500 = load i32, ptr %6, align 4
  %501 = load i32, ptr %7, align 4
  %502 = load i32, ptr %8, align 4
  %503 = call i32 (ptr, ...) @printf(ptr noundef @.str.19, i32 noundef %500, i32 noundef %501, i32 noundef %502)
  br label %504

504:                                              ; preds = %499, %485
  br label %505

505:                                              ; preds = %504
  %506 = load i32, ptr %8, align 4
  %507 = add nsw i32 %506, 1
  store i32 %507, ptr %8, align 4
  br label %482, !llvm.loop !28

508:                                              ; preds = %482
  br label %509

509:                                              ; preds = %508
  %510 = load i32, ptr %7, align 4
  %511 = add nsw i32 %510, 1
  store i32 %511, ptr %7, align 4
  br label %478, !llvm.loop !29

512:                                              ; preds = %478
  br label %513

513:                                              ; preds = %512
  %514 = load i32, ptr %6, align 4
  %515 = add nsw i32 %514, 1
  store i32 %515, ptr %6, align 4
  br label %474, !llvm.loop !30

516:                                              ; preds = %474
  store i32 0, ptr %6, align 4
  br label %517

517:                                              ; preds = %556, %516
  %518 = load i32, ptr %6, align 4
  %519 = icmp slt i32 %518, 9
  br i1 %519, label %520, label %559

520:                                              ; preds = %517
  store i32 0, ptr %7, align 4
  br label %521

521:                                              ; preds = %552, %520
  %522 = load i32, ptr %7, align 4
  %523 = icmp slt i32 %522, 7
  br i1 %523, label %524, label %555

524:                                              ; preds = %521
  store i32 0, ptr %8, align 4
  br label %525

525:                                              ; preds = %548, %524
  %526 = load i32, ptr %8, align 4
  %527 = icmp slt i32 %526, 4
  br i1 %527, label %528, label %551

528:                                              ; preds = %525
  %529 = load i32, ptr %6, align 4
  %530 = sext i32 %529 to i64
  %531 = getelementptr inbounds [9 x [7 x [4 x i64]]], ptr @_ZL6g_1717, i64 0, i64 %530
  %532 = load i32, ptr %7, align 4
  %533 = sext i32 %532 to i64
  %534 = getelementptr inbounds [7 x [4 x i64]], ptr %531, i64 0, i64 %533
  %535 = load i32, ptr %8, align 4
  %536 = sext i32 %535 to i64
  %537 = getelementptr inbounds [4 x i64], ptr %534, i64 0, i64 %536
  %538 = load volatile i64, ptr %537, align 8
  %539 = load i32, ptr %9, align 4
  call void @_ZL15transparent_crcmPci(i64 noundef %538, ptr noundef @.str.63, i32 noundef %539)
  %540 = load i32, ptr %9, align 4
  %541 = icmp ne i32 %540, 0
  br i1 %541, label %542, label %547

542:                                              ; preds = %528
  %543 = load i32, ptr %6, align 4
  %544 = load i32, ptr %7, align 4
  %545 = load i32, ptr %8, align 4
  %546 = call i32 (ptr, ...) @printf(ptr noundef @.str.19, i32 noundef %543, i32 noundef %544, i32 noundef %545)
  br label %547

547:                                              ; preds = %542, %528
  br label %548

548:                                              ; preds = %547
  %549 = load i32, ptr %8, align 4
  %550 = add nsw i32 %549, 1
  store i32 %550, ptr %8, align 4
  br label %525, !llvm.loop !31

551:                                              ; preds = %525
  br label %552

552:                                              ; preds = %551
  %553 = load i32, ptr %7, align 4
  %554 = add nsw i32 %553, 1
  store i32 %554, ptr %7, align 4
  br label %521, !llvm.loop !32

555:                                              ; preds = %521
  br label %556

556:                                              ; preds = %555
  %557 = load i32, ptr %6, align 4
  %558 = add nsw i32 %557, 1
  store i32 %558, ptr %6, align 4
  br label %517, !llvm.loop !33

559:                                              ; preds = %517
  %560 = load volatile i64, ptr @_ZL6g_1718, align 8
  %561 = load i32, ptr %9, align 4
  call void @_ZL15transparent_crcmPci(i64 noundef %560, ptr noundef @.str.64, i32 noundef %561)
  %562 = load volatile i64, ptr @_ZL6g_1719, align 8
  %563 = load i32, ptr %9, align 4
  call void @_ZL15transparent_crcmPci(i64 noundef %562, ptr noundef @.str.65, i32 noundef %563)
  %564 = load volatile i64, ptr @_ZL6g_1720, align 8
  %565 = load i32, ptr %9, align 4
  call void @_ZL15transparent_crcmPci(i64 noundef %564, ptr noundef @.str.66, i32 noundef %565)
  %566 = load volatile i64, ptr @_ZL6g_1721, align 8
  %567 = load i32, ptr %9, align 4
  call void @_ZL15transparent_crcmPci(i64 noundef %566, ptr noundef @.str.67, i32 noundef %567)
  %568 = load volatile i64, ptr @_ZL6g_1722, align 8
  %569 = load i32, ptr %9, align 4
  call void @_ZL15transparent_crcmPci(i64 noundef %568, ptr noundef @.str.68, i32 noundef %569)
  %570 = load volatile i64, ptr @_ZL6g_1723, align 8
  %571 = load i32, ptr %9, align 4
  call void @_ZL15transparent_crcmPci(i64 noundef %570, ptr noundef @.str.69, i32 noundef %571)
  %572 = load volatile i64, ptr @_ZL6g_1724, align 8
  %573 = load i32, ptr %9, align 4
  call void @_ZL15transparent_crcmPci(i64 noundef %572, ptr noundef @.str.70, i32 noundef %573)
  %574 = load volatile i64, ptr @_ZL6g_1725, align 8
  %575 = load i32, ptr %9, align 4
  call void @_ZL15transparent_crcmPci(i64 noundef %574, ptr noundef @.str.71, i32 noundef %575)
  %576 = load volatile i64, ptr @_ZL6g_1726, align 8
  %577 = load i32, ptr %9, align 4
  call void @_ZL15transparent_crcmPci(i64 noundef %576, ptr noundef @.str.72, i32 noundef %577)
  %578 = load volatile i64, ptr @_ZL6g_1727, align 8
  %579 = load i32, ptr %9, align 4
  call void @_ZL15transparent_crcmPci(i64 noundef %578, ptr noundef @.str.73, i32 noundef %579)
  %580 = load volatile i64, ptr @_ZL6g_1728, align 8
  %581 = load i32, ptr %9, align 4
  call void @_ZL15transparent_crcmPci(i64 noundef %580, ptr noundef @.str.74, i32 noundef %581)
  %582 = load volatile i64, ptr @_ZL6g_1729, align 8
  %583 = load i32, ptr %9, align 4
  call void @_ZL15transparent_crcmPci(i64 noundef %582, ptr noundef @.str.75, i32 noundef %583)
  %584 = load volatile i64, ptr @_ZL6g_1730, align 8
  %585 = load i32, ptr %9, align 4
  call void @_ZL15transparent_crcmPci(i64 noundef %584, ptr noundef @.str.76, i32 noundef %585)
  %586 = load volatile i64, ptr @_ZL6g_1731, align 8
  %587 = load i32, ptr %9, align 4
  call void @_ZL15transparent_crcmPci(i64 noundef %586, ptr noundef @.str.77, i32 noundef %587)
  %588 = load volatile i64, ptr @_ZL6g_1732, align 8
  %589 = load i32, ptr %9, align 4
  call void @_ZL15transparent_crcmPci(i64 noundef %588, ptr noundef @.str.78, i32 noundef %589)
  %590 = load volatile i64, ptr @_ZL6g_1733, align 8
  %591 = load i32, ptr %9, align 4
  call void @_ZL15transparent_crcmPci(i64 noundef %590, ptr noundef @.str.79, i32 noundef %591)
  %592 = load volatile i64, ptr @_ZL6g_1734, align 8
  %593 = load i32, ptr %9, align 4
  call void @_ZL15transparent_crcmPci(i64 noundef %592, ptr noundef @.str.80, i32 noundef %593)
  store i32 0, ptr %6, align 4
  br label %594

594:                                              ; preds = %609, %559
  %595 = load i32, ptr %6, align 4
  %596 = icmp slt i32 %595, 7
  br i1 %596, label %597, label %612

597:                                              ; preds = %594
  %598 = load i32, ptr %6, align 4
  %599 = sext i32 %598 to i64
  %600 = getelementptr inbounds [7 x i64], ptr @_ZL6g_1735, i64 0, i64 %599
  %601 = load volatile i64, ptr %600, align 8
  %602 = load i32, ptr %9, align 4
  call void @_ZL15transparent_crcmPci(i64 noundef %601, ptr noundef @.str.81, i32 noundef %602)
  %603 = load i32, ptr %9, align 4
  %604 = icmp ne i32 %603, 0
  br i1 %604, label %605, label %608

605:                                              ; preds = %597
  %606 = load i32, ptr %6, align 4
  %607 = call i32 (ptr, ...) @printf(ptr noundef @.str.8, i32 noundef %606)
  br label %608

608:                                              ; preds = %605, %597
  br label %609

609:                                              ; preds = %608
  %610 = load i32, ptr %6, align 4
  %611 = add nsw i32 %610, 1
  store i32 %611, ptr %6, align 4
  br label %594, !llvm.loop !34

612:                                              ; preds = %594
  store i32 0, ptr %6, align 4
  br label %613

613:                                              ; preds = %652, %612
  %614 = load i32, ptr %6, align 4
  %615 = icmp slt i32 %614, 1
  br i1 %615, label %616, label %655

616:                                              ; preds = %613
  store i32 0, ptr %7, align 4
  br label %617

617:                                              ; preds = %648, %616
  %618 = load i32, ptr %7, align 4
  %619 = icmp slt i32 %618, 6
  br i1 %619, label %620, label %651

620:                                              ; preds = %617
  store i32 0, ptr %8, align 4
  br label %621

621:                                              ; preds = %644, %620
  %622 = load i32, ptr %8, align 4
  %623 = icmp slt i32 %622, 6
  br i1 %623, label %624, label %647

624:                                              ; preds = %621
  %625 = load i32, ptr %6, align 4
  %626 = sext i32 %625 to i64
  %627 = getelementptr inbounds [1 x [6 x [6 x i64]]], ptr @_ZL6g_1736, i64 0, i64 %626
  %628 = load i32, ptr %7, align 4
  %629 = sext i32 %628 to i64
  %630 = getelementptr inbounds [6 x [6 x i64]], ptr %627, i64 0, i64 %629
  %631 = load i32, ptr %8, align 4
  %632 = sext i32 %631 to i64
  %633 = getelementptr inbounds [6 x i64], ptr %630, i64 0, i64 %632
  %634 = load volatile i64, ptr %633, align 8
  %635 = load i32, ptr %9, align 4
  call void @_ZL15transparent_crcmPci(i64 noundef %634, ptr noundef @.str.82, i32 noundef %635)
  %636 = load i32, ptr %9, align 4
  %637 = icmp ne i32 %636, 0
  br i1 %637, label %638, label %643

638:                                              ; preds = %624
  %639 = load i32, ptr %6, align 4
  %640 = load i32, ptr %7, align 4
  %641 = load i32, ptr %8, align 4
  %642 = call i32 (ptr, ...) @printf(ptr noundef @.str.19, i32 noundef %639, i32 noundef %640, i32 noundef %641)
  br label %643

643:                                              ; preds = %638, %624
  br label %644

644:                                              ; preds = %643
  %645 = load i32, ptr %8, align 4
  %646 = add nsw i32 %645, 1
  store i32 %646, ptr %8, align 4
  br label %621, !llvm.loop !35

647:                                              ; preds = %621
  br label %648

648:                                              ; preds = %647
  %649 = load i32, ptr %7, align 4
  %650 = add nsw i32 %649, 1
  store i32 %650, ptr %7, align 4
  br label %617, !llvm.loop !36

651:                                              ; preds = %617
  br label %652

652:                                              ; preds = %651
  %653 = load i32, ptr %6, align 4
  %654 = add nsw i32 %653, 1
  store i32 %654, ptr %6, align 4
  br label %613, !llvm.loop !37

655:                                              ; preds = %613
  %656 = load volatile i64, ptr @_ZL6g_1737, align 8
  %657 = load i32, ptr %9, align 4
  call void @_ZL15transparent_crcmPci(i64 noundef %656, ptr noundef @.str.83, i32 noundef %657)
  %658 = load volatile i64, ptr @_ZL6g_1738, align 8
  %659 = load i32, ptr %9, align 4
  call void @_ZL15transparent_crcmPci(i64 noundef %658, ptr noundef @.str.84, i32 noundef %659)
  %660 = load volatile i64, ptr @_ZL6g_1739, align 8
  %661 = load i32, ptr %9, align 4
  call void @_ZL15transparent_crcmPci(i64 noundef %660, ptr noundef @.str.85, i32 noundef %661)
  %662 = load volatile i64, ptr @_ZL6g_1740, align 8
  %663 = load i32, ptr %9, align 4
  call void @_ZL15transparent_crcmPci(i64 noundef %662, ptr noundef @.str.86, i32 noundef %663)
  %664 = load volatile i64, ptr @_ZL6g_1741, align 8
  %665 = load i32, ptr %9, align 4
  call void @_ZL15transparent_crcmPci(i64 noundef %664, ptr noundef @.str.87, i32 noundef %665)
  %666 = load volatile i64, ptr @_ZL6g_1742, align 8
  %667 = load i32, ptr %9, align 4
  call void @_ZL15transparent_crcmPci(i64 noundef %666, ptr noundef @.str.88, i32 noundef %667)
  %668 = load volatile i64, ptr @_ZL6g_1743, align 8
  %669 = load i32, ptr %9, align 4
  call void @_ZL15transparent_crcmPci(i64 noundef %668, ptr noundef @.str.89, i32 noundef %669)
  store i32 0, ptr %6, align 4
  br label %670

670:                                              ; preds = %709, %655
  %671 = load i32, ptr %6, align 4
  %672 = icmp slt i32 %671, 1
  br i1 %672, label %673, label %712

673:                                              ; preds = %670
  store i32 0, ptr %7, align 4
  br label %674

674:                                              ; preds = %705, %673
  %675 = load i32, ptr %7, align 4
  %676 = icmp slt i32 %675, 4
  br i1 %676, label %677, label %708

677:                                              ; preds = %674
  store i32 0, ptr %8, align 4
  br label %678

678:                                              ; preds = %701, %677
  %679 = load i32, ptr %8, align 4
  %680 = icmp slt i32 %679, 8
  br i1 %680, label %681, label %704

681:                                              ; preds = %678
  %682 = load i32, ptr %6, align 4
  %683 = sext i32 %682 to i64
  %684 = getelementptr inbounds [1 x [4 x [8 x i64]]], ptr @_ZL6g_1744, i64 0, i64 %683
  %685 = load i32, ptr %7, align 4
  %686 = sext i32 %685 to i64
  %687 = getelementptr inbounds [4 x [8 x i64]], ptr %684, i64 0, i64 %686
  %688 = load i32, ptr %8, align 4
  %689 = sext i32 %688 to i64
  %690 = getelementptr inbounds [8 x i64], ptr %687, i64 0, i64 %689
  %691 = load volatile i64, ptr %690, align 8
  %692 = load i32, ptr %9, align 4
  call void @_ZL15transparent_crcmPci(i64 noundef %691, ptr noundef @.str.90, i32 noundef %692)
  %693 = load i32, ptr %9, align 4
  %694 = icmp ne i32 %693, 0
  br i1 %694, label %695, label %700

695:                                              ; preds = %681
  %696 = load i32, ptr %6, align 4
  %697 = load i32, ptr %7, align 4
  %698 = load i32, ptr %8, align 4
  %699 = call i32 (ptr, ...) @printf(ptr noundef @.str.19, i32 noundef %696, i32 noundef %697, i32 noundef %698)
  br label %700

700:                                              ; preds = %695, %681
  br label %701

701:                                              ; preds = %700
  %702 = load i32, ptr %8, align 4
  %703 = add nsw i32 %702, 1
  store i32 %703, ptr %8, align 4
  br label %678, !llvm.loop !38

704:                                              ; preds = %678
  br label %705

705:                                              ; preds = %704
  %706 = load i32, ptr %7, align 4
  %707 = add nsw i32 %706, 1
  store i32 %707, ptr %7, align 4
  br label %674, !llvm.loop !39

708:                                              ; preds = %674
  br label %709

709:                                              ; preds = %708
  %710 = load i32, ptr %6, align 4
  %711 = add nsw i32 %710, 1
  store i32 %711, ptr %6, align 4
  br label %670, !llvm.loop !40

712:                                              ; preds = %670
  %713 = load volatile i64, ptr @_ZL6g_1745, align 8
  %714 = load i32, ptr %9, align 4
  call void @_ZL15transparent_crcmPci(i64 noundef %713, ptr noundef @.str.91, i32 noundef %714)
  %715 = load volatile i64, ptr @_ZL6g_1746, align 8
  %716 = load i32, ptr %9, align 4
  call void @_ZL15transparent_crcmPci(i64 noundef %715, ptr noundef @.str.92, i32 noundef %716)
  %717 = load volatile i64, ptr @_ZL6g_1747, align 8
  %718 = load i32, ptr %9, align 4
  call void @_ZL15transparent_crcmPci(i64 noundef %717, ptr noundef @.str.93, i32 noundef %718)
  %719 = load volatile i64, ptr @_ZL6g_1748, align 8
  %720 = load i32, ptr %9, align 4
  call void @_ZL15transparent_crcmPci(i64 noundef %719, ptr noundef @.str.94, i32 noundef %720)
  %721 = load volatile i64, ptr @_ZL6g_1749, align 8
  %722 = load i32, ptr %9, align 4
  call void @_ZL15transparent_crcmPci(i64 noundef %721, ptr noundef @.str.95, i32 noundef %722)
  %723 = load volatile i64, ptr @_ZL6g_1750, align 8
  %724 = load i32, ptr %9, align 4
  call void @_ZL15transparent_crcmPci(i64 noundef %723, ptr noundef @.str.96, i32 noundef %724)
  %725 = load volatile i64, ptr @_ZL6g_1752, align 8
  %726 = load i32, ptr %9, align 4
  call void @_ZL15transparent_crcmPci(i64 noundef %725, ptr noundef @.str.97, i32 noundef %726)
  %727 = load volatile i64, ptr @_ZL6g_1754, align 8
  %728 = load i32, ptr %9, align 4
  call void @_ZL15transparent_crcmPci(i64 noundef %727, ptr noundef @.str.98, i32 noundef %728)
  %729 = load volatile i64, ptr @_ZL6g_1756, align 8
  %730 = load i32, ptr %9, align 4
  call void @_ZL15transparent_crcmPci(i64 noundef %729, ptr noundef @.str.99, i32 noundef %730)
  %731 = load volatile i64, ptr @_ZL6g_1758, align 8
  %732 = load i32, ptr %9, align 4
  call void @_ZL15transparent_crcmPci(i64 noundef %731, ptr noundef @.str.100, i32 noundef %732)
  %733 = load i32, ptr %9, align 4
  call void @_ZL15transparent_crcmPci(i64 noundef 0, ptr noundef @.str.101, i32 noundef %733)
  %734 = load i32, ptr %9, align 4
  call void @_ZL15transparent_crcmPci(i64 noundef 1, ptr noundef @.str.102, i32 noundef %734)
  %735 = load i32, ptr @_ZL6g_1849, align 4
  %736 = zext i32 %735 to i64
  %737 = load i32, ptr %9, align 4
  call void @_ZL15transparent_crcmPci(i64 noundef %736, ptr noundef @.str.103, i32 noundef %737)
  %738 = load i16, ptr @_ZL6g_1899, align 2
  %739 = sext i16 %738 to i64
  %740 = load i32, ptr %9, align 4
  call void @_ZL15transparent_crcmPci(i64 noundef %739, ptr noundef @.str.104, i32 noundef %740)
  %741 = load i32, ptr @_ZL6g_1921, align 4
  %742 = sext i32 %741 to i64
  %743 = load i32, ptr %9, align 4
  call void @_ZL15transparent_crcmPci(i64 noundef %742, ptr noundef @.str.105, i32 noundef %743)
  %744 = load i8, ptr @_ZL6g_1987, align 1
  %745 = zext i8 %744 to i64
  %746 = load i32, ptr %9, align 4
  call void @_ZL15transparent_crcmPci(i64 noundef %745, ptr noundef @.str.106, i32 noundef %746)
  %747 = load i32, ptr %9, align 4
  call void @_ZL15transparent_crcmPci(i64 noundef -1667198406, ptr noundef @.str.107, i32 noundef %747)
  %748 = load i64, ptr @_ZL6g_2045, align 8
  %749 = load i32, ptr %9, align 4
  call void @_ZL15transparent_crcmPci(i64 noundef %748, ptr noundef @.str.108, i32 noundef %749)
  store i32 0, ptr %6, align 4
  br label %750

750:                                              ; preds = %765, %712
  %751 = load i32, ptr %6, align 4
  %752 = icmp slt i32 %751, 7
  br i1 %752, label %753, label %768

753:                                              ; preds = %750
  %754 = load i32, ptr %6, align 4
  %755 = sext i32 %754 to i64
  %756 = getelementptr inbounds [7 x i64], ptr @_ZL6g_2147, i64 0, i64 %755
  %757 = load i64, ptr %756, align 8
  %758 = load i32, ptr %9, align 4
  call void @_ZL15transparent_crcmPci(i64 noundef %757, ptr noundef @.str.109, i32 noundef %758)
  %759 = load i32, ptr %9, align 4
  %760 = icmp ne i32 %759, 0
  br i1 %760, label %761, label %764

761:                                              ; preds = %753
  %762 = load i32, ptr %6, align 4
  %763 = call i32 (ptr, ...) @printf(ptr noundef @.str.8, i32 noundef %762)
  br label %764

764:                                              ; preds = %761, %753
  br label %765

765:                                              ; preds = %764
  %766 = load i32, ptr %6, align 4
  %767 = add nsw i32 %766, 1
  store i32 %767, ptr %6, align 4
  br label %750, !llvm.loop !41

768:                                              ; preds = %750
  %769 = load i32, ptr @_ZL6g_2178, align 4
  %770 = zext i32 %769 to i64
  %771 = load i32, ptr %9, align 4
  call void @_ZL15transparent_crcmPci(i64 noundef %770, ptr noundef @.str.110, i32 noundef %771)
  %772 = load i32, ptr @_ZL6g_2236, align 4
  %773 = sext i32 %772 to i64
  %774 = load i32, ptr %9, align 4
  call void @_ZL15transparent_crcmPci(i64 noundef %773, ptr noundef @.str.111, i32 noundef %774)
  %775 = load i8, ptr @_ZL6g_2260, align 1
  %776 = zext i8 %775 to i64
  %777 = load i32, ptr %9, align 4
  call void @_ZL15transparent_crcmPci(i64 noundef %776, ptr noundef @.str.112, i32 noundef %777)
  %778 = load volatile i8, ptr @_ZL6g_2264, align 1
  %779 = zext i8 %778 to i64
  %780 = load i32, ptr %9, align 4
  call void @_ZL15transparent_crcmPci(i64 noundef %779, ptr noundef @.str.113, i32 noundef %780)
  %781 = load i64, ptr @_ZL6g_2317, align 8
  %782 = load i32, ptr %9, align 4
  call void @_ZL15transparent_crcmPci(i64 noundef %781, ptr noundef @.str.114, i32 noundef %782)
  store i32 0, ptr %6, align 4
  br label %783

783:                                              ; preds = %823, %768
  %784 = load i32, ptr %6, align 4
  %785 = icmp slt i32 %784, 2
  br i1 %785, label %786, label %826

786:                                              ; preds = %783
  store i32 0, ptr %7, align 4
  br label %787

787:                                              ; preds = %819, %786
  %788 = load i32, ptr %7, align 4
  %789 = icmp slt i32 %788, 10
  br i1 %789, label %790, label %822

790:                                              ; preds = %787
  store i32 0, ptr %8, align 4
  br label %791

791:                                              ; preds = %815, %790
  %792 = load i32, ptr %8, align 4
  %793 = icmp slt i32 %792, 2
  br i1 %793, label %794, label %818

794:                                              ; preds = %791
  %795 = load i32, ptr %6, align 4
  %796 = sext i32 %795 to i64
  %797 = getelementptr inbounds [2 x [10 x [2 x i32]]], ptr @_ZL6g_2385, i64 0, i64 %796
  %798 = load i32, ptr %7, align 4
  %799 = sext i32 %798 to i64
  %800 = getelementptr inbounds [10 x [2 x i32]], ptr %797, i64 0, i64 %799
  %801 = load i32, ptr %8, align 4
  %802 = sext i32 %801 to i64
  %803 = getelementptr inbounds [2 x i32], ptr %800, i64 0, i64 %802
  %804 = load i32, ptr %803, align 4
  %805 = sext i32 %804 to i64
  %806 = load i32, ptr %9, align 4
  call void @_ZL15transparent_crcmPci(i64 noundef %805, ptr noundef @.str.115, i32 noundef %806)
  %807 = load i32, ptr %9, align 4
  %808 = icmp ne i32 %807, 0
  br i1 %808, label %809, label %814

809:                                              ; preds = %794
  %810 = load i32, ptr %6, align 4
  %811 = load i32, ptr %7, align 4
  %812 = load i32, ptr %8, align 4
  %813 = call i32 (ptr, ...) @printf(ptr noundef @.str.19, i32 noundef %810, i32 noundef %811, i32 noundef %812)
  br label %814

814:                                              ; preds = %809, %794
  br label %815

815:                                              ; preds = %814
  %816 = load i32, ptr %8, align 4
  %817 = add nsw i32 %816, 1
  store i32 %817, ptr %8, align 4
  br label %791, !llvm.loop !42

818:                                              ; preds = %791
  br label %819

819:                                              ; preds = %818
  %820 = load i32, ptr %7, align 4
  %821 = add nsw i32 %820, 1
  store i32 %821, ptr %7, align 4
  br label %787, !llvm.loop !43

822:                                              ; preds = %787
  br label %823

823:                                              ; preds = %822
  %824 = load i32, ptr %6, align 4
  %825 = add nsw i32 %824, 1
  store i32 %825, ptr %6, align 4
  br label %783, !llvm.loop !44

826:                                              ; preds = %783
  %827 = load i32, ptr @_ZL6g_2387, align 4
  %828 = sext i32 %827 to i64
  %829 = load i32, ptr %9, align 4
  call void @_ZL15transparent_crcmPci(i64 noundef %828, ptr noundef @.str.116, i32 noundef %829)
  %830 = load i32, ptr @_ZL6g_2389, align 4
  %831 = sext i32 %830 to i64
  %832 = load i32, ptr %9, align 4
  call void @_ZL15transparent_crcmPci(i64 noundef %831, ptr noundef @.str.117, i32 noundef %832)
  store i32 0, ptr %6, align 4
  br label %833

833:                                              ; preds = %849, %826
  %834 = load i32, ptr %6, align 4
  %835 = icmp slt i32 %834, 3
  br i1 %835, label %836, label %852

836:                                              ; preds = %833
  %837 = load i32, ptr %6, align 4
  %838 = sext i32 %837 to i64
  %839 = getelementptr inbounds [3 x i32], ptr @_ZL6g_2391, i64 0, i64 %838
  %840 = load i32, ptr %839, align 4
  %841 = sext i32 %840 to i64
  %842 = load i32, ptr %9, align 4
  call void @_ZL15transparent_crcmPci(i64 noundef %841, ptr noundef @.str.118, i32 noundef %842)
  %843 = load i32, ptr %9, align 4
  %844 = icmp ne i32 %843, 0
  br i1 %844, label %845, label %848

845:                                              ; preds = %836
  %846 = load i32, ptr %6, align 4
  %847 = call i32 (ptr, ...) @printf(ptr noundef @.str.8, i32 noundef %846)
  br label %848

848:                                              ; preds = %845, %836
  br label %849

849:                                              ; preds = %848
  %850 = load i32, ptr %6, align 4
  %851 = add nsw i32 %850, 1
  store i32 %851, ptr %6, align 4
  br label %833, !llvm.loop !45

852:                                              ; preds = %833
  %853 = load i32, ptr @_ZL6g_2394, align 4
  %854 = sext i32 %853 to i64
  %855 = load i32, ptr %9, align 4
  call void @_ZL15transparent_crcmPci(i64 noundef %854, ptr noundef @.str.119, i32 noundef %855)
  %856 = load i32, ptr @_ZL6g_2396, align 4
  %857 = sext i32 %856 to i64
  %858 = load i32, ptr %9, align 4
  call void @_ZL15transparent_crcmPci(i64 noundef %857, ptr noundef @.str.120, i32 noundef %858)
  %859 = load i32, ptr @_ZL6g_2398, align 4
  %860 = sext i32 %859 to i64
  %861 = load i32, ptr %9, align 4
  call void @_ZL15transparent_crcmPci(i64 noundef %860, ptr noundef @.str.121, i32 noundef %861)
  %862 = load i32, ptr @_ZL6g_2400, align 4
  %863 = sext i32 %862 to i64
  %864 = load i32, ptr %9, align 4
  call void @_ZL15transparent_crcmPci(i64 noundef %863, ptr noundef @.str.122, i32 noundef %864)
  %865 = load i32, ptr @_ZL6g_2402, align 4
  %866 = sext i32 %865 to i64
  %867 = load i32, ptr %9, align 4
  call void @_ZL15transparent_crcmPci(i64 noundef %866, ptr noundef @.str.123, i32 noundef %867)
  %868 = load i32, ptr @_ZL6g_2404, align 4
  %869 = sext i32 %868 to i64
  %870 = load i32, ptr %9, align 4
  call void @_ZL15transparent_crcmPci(i64 noundef %869, ptr noundef @.str.124, i32 noundef %870)
  %871 = load i32, ptr @_ZL6g_2406, align 4
  %872 = sext i32 %871 to i64
  %873 = load i32, ptr %9, align 4
  call void @_ZL15transparent_crcmPci(i64 noundef %872, ptr noundef @.str.125, i32 noundef %873)
  %874 = load i32, ptr @_ZL6g_2408, align 4
  %875 = sext i32 %874 to i64
  %876 = load i32, ptr %9, align 4
  call void @_ZL15transparent_crcmPci(i64 noundef %875, ptr noundef @.str.126, i32 noundef %876)
  %877 = load i32, ptr @_ZL6g_2410, align 4
  %878 = sext i32 %877 to i64
  %879 = load i32, ptr %9, align 4
  call void @_ZL15transparent_crcmPci(i64 noundef %878, ptr noundef @.str.127, i32 noundef %879)
  %880 = load i32, ptr @_ZL6g_2413, align 4
  %881 = sext i32 %880 to i64
  %882 = load i32, ptr %9, align 4
  call void @_ZL15transparent_crcmPci(i64 noundef %881, ptr noundef @.str.128, i32 noundef %882)
  %883 = load i32, ptr %9, align 4
  call void @_ZL15transparent_crcmPci(i64 noundef 32464, ptr noundef @.str.129, i32 noundef %883)
  %884 = load i32, ptr @_ZL6g_2546, align 4
  %885 = zext i32 %884 to i64
  %886 = load i32, ptr %9, align 4
  call void @_ZL15transparent_crcmPci(i64 noundef %885, ptr noundef @.str.130, i32 noundef %886)
  %887 = load i32, ptr @_ZL6g_2619, align 4
  %888 = sext i32 %887 to i64
  %889 = load i32, ptr %9, align 4
  call void @_ZL15transparent_crcmPci(i64 noundef %888, ptr noundef @.str.131, i32 noundef %889)
  %890 = load i64, ptr @_ZL6g_2645, align 8
  %891 = load i32, ptr %9, align 4
  call void @_ZL15transparent_crcmPci(i64 noundef %890, ptr noundef @.str.132, i32 noundef %891)
  %892 = load i32, ptr @_ZL6g_2663, align 4
  %893 = sext i32 %892 to i64
  %894 = load i32, ptr %9, align 4
  call void @_ZL15transparent_crcmPci(i64 noundef %893, ptr noundef @.str.133, i32 noundef %894)
  store i32 0, ptr %6, align 4
  br label %895

895:                                              ; preds = %911, %852
  %896 = load i32, ptr %6, align 4
  %897 = icmp slt i32 %896, 4
  br i1 %897, label %898, label %914

898:                                              ; preds = %895
  %899 = load i32, ptr %6, align 4
  %900 = sext i32 %899 to i64
  %901 = getelementptr inbounds [4 x i16], ptr @_ZL6g_2685, i64 0, i64 %900
  %902 = load i16, ptr %901, align 2
  %903 = sext i16 %902 to i64
  %904 = load i32, ptr %9, align 4
  call void @_ZL15transparent_crcmPci(i64 noundef %903, ptr noundef @.str.134, i32 noundef %904)
  %905 = load i32, ptr %9, align 4
  %906 = icmp ne i32 %905, 0
  br i1 %906, label %907, label %910

907:                                              ; preds = %898
  %908 = load i32, ptr %6, align 4
  %909 = call i32 (ptr, ...) @printf(ptr noundef @.str.8, i32 noundef %908)
  br label %910

910:                                              ; preds = %907, %898
  br label %911

911:                                              ; preds = %910
  %912 = load i32, ptr %6, align 4
  %913 = add nsw i32 %912, 1
  store i32 %913, ptr %6, align 4
  br label %895, !llvm.loop !46

914:                                              ; preds = %895
  %915 = load i64, ptr @_ZL6g_2745, align 8
  %916 = load i32, ptr %9, align 4
  call void @_ZL15transparent_crcmPci(i64 noundef %915, ptr noundef @.str.135, i32 noundef %916)
  %917 = load volatile i8, ptr @_ZL6g_2759, align 1
  %918 = sext i8 %917 to i64
  %919 = load i32, ptr %9, align 4
  call void @_ZL15transparent_crcmPci(i64 noundef %918, ptr noundef @.str.136, i32 noundef %919)
  %920 = load i16, ptr @_ZL6g_2772, align 2
  %921 = zext i16 %920 to i64
  %922 = load i32, ptr %9, align 4
  call void @_ZL15transparent_crcmPci(i64 noundef %921, ptr noundef @.str.137, i32 noundef %922)
  %923 = load i32, ptr @_ZL6g_2843, align 4
  %924 = zext i32 %923 to i64
  %925 = load i32, ptr %9, align 4
  call void @_ZL15transparent_crcmPci(i64 noundef %924, ptr noundef @.str.138, i32 noundef %925)
  store i32 0, ptr %6, align 4
  br label %926

926:                                              ; preds = %954, %914
  %927 = load i32, ptr %6, align 4
  %928 = icmp slt i32 %927, 6
  br i1 %928, label %929, label %957

929:                                              ; preds = %926
  store i32 0, ptr %7, align 4
  br label %930

930:                                              ; preds = %950, %929
  %931 = load i32, ptr %7, align 4
  %932 = icmp slt i32 %931, 4
  br i1 %932, label %933, label %953

933:                                              ; preds = %930
  %934 = load i32, ptr %6, align 4
  %935 = sext i32 %934 to i64
  %936 = getelementptr inbounds [6 x [4 x i8]], ptr @_ZL6g_2920, i64 0, i64 %935
  %937 = load i32, ptr %7, align 4
  %938 = sext i32 %937 to i64
  %939 = getelementptr inbounds [4 x i8], ptr %936, i64 0, i64 %938
  %940 = load i8, ptr %939, align 1
  %941 = sext i8 %940 to i64
  %942 = load i32, ptr %9, align 4
  call void @_ZL15transparent_crcmPci(i64 noundef %941, ptr noundef @.str.139, i32 noundef %942)
  %943 = load i32, ptr %9, align 4
  %944 = icmp ne i32 %943, 0
  br i1 %944, label %945, label %949

945:                                              ; preds = %933
  %946 = load i32, ptr %6, align 4
  %947 = load i32, ptr %7, align 4
  %948 = call i32 (ptr, ...) @printf(ptr noundef @.str.2, i32 noundef %946, i32 noundef %947)
  br label %949

949:                                              ; preds = %945, %933
  br label %950

950:                                              ; preds = %949
  %951 = load i32, ptr %7, align 4
  %952 = add nsw i32 %951, 1
  store i32 %952, ptr %7, align 4
  br label %930, !llvm.loop !47

953:                                              ; preds = %930
  br label %954

954:                                              ; preds = %953
  %955 = load i32, ptr %6, align 4
  %956 = add nsw i32 %955, 1
  store i32 %956, ptr %6, align 4
  br label %926, !llvm.loop !48

957:                                              ; preds = %926
  %958 = load volatile i64, ptr @_ZL6g_2949, align 8
  %959 = load i32, ptr %9, align 4
  call void @_ZL15transparent_crcmPci(i64 noundef %958, ptr noundef @.str.140, i32 noundef %959)
  %960 = load i64, ptr @_ZL6g_3009, align 8
  %961 = load i32, ptr %9, align 4
  call void @_ZL15transparent_crcmPci(i64 noundef %960, ptr noundef @.str.141, i32 noundef %961)
  store i32 0, ptr %6, align 4
  br label %962

962:                                              ; preds = %990, %957
  %963 = load i32, ptr %6, align 4
  %964 = icmp slt i32 %963, 6
  br i1 %964, label %965, label %993

965:                                              ; preds = %962
  store i32 0, ptr %7, align 4
  br label %966

966:                                              ; preds = %986, %965
  %967 = load i32, ptr %7, align 4
  %968 = icmp slt i32 %967, 9
  br i1 %968, label %969, label %989

969:                                              ; preds = %966
  %970 = load i32, ptr %6, align 4
  %971 = sext i32 %970 to i64
  %972 = getelementptr inbounds [6 x [9 x i32]], ptr @_ZL6g_3018, i64 0, i64 %971
  %973 = load i32, ptr %7, align 4
  %974 = sext i32 %973 to i64
  %975 = getelementptr inbounds [9 x i32], ptr %972, i64 0, i64 %974
  %976 = load i32, ptr %975, align 4
  %977 = zext i32 %976 to i64
  %978 = load i32, ptr %9, align 4
  call void @_ZL15transparent_crcmPci(i64 noundef %977, ptr noundef @.str.142, i32 noundef %978)
  %979 = load i32, ptr %9, align 4
  %980 = icmp ne i32 %979, 0
  br i1 %980, label %981, label %985

981:                                              ; preds = %969
  %982 = load i32, ptr %6, align 4
  %983 = load i32, ptr %7, align 4
  %984 = call i32 (ptr, ...) @printf(ptr noundef @.str.2, i32 noundef %982, i32 noundef %983)
  br label %985

985:                                              ; preds = %981, %969
  br label %986

986:                                              ; preds = %985
  %987 = load i32, ptr %7, align 4
  %988 = add nsw i32 %987, 1
  store i32 %988, ptr %7, align 4
  br label %966, !llvm.loop !49

989:                                              ; preds = %966
  br label %990

990:                                              ; preds = %989
  %991 = load i32, ptr %6, align 4
  %992 = add nsw i32 %991, 1
  store i32 %992, ptr %6, align 4
  br label %962, !llvm.loop !50

993:                                              ; preds = %962
  %994 = load i32, ptr @_ZL6g_3052, align 4
  %995 = sext i32 %994 to i64
  %996 = load i32, ptr %9, align 4
  call void @_ZL15transparent_crcmPci(i64 noundef %995, ptr noundef @.str.143, i32 noundef %996)
  %997 = load i32, ptr @_ZL6g_3053, align 4
  %998 = sext i32 %997 to i64
  %999 = load i32, ptr %9, align 4
  call void @_ZL15transparent_crcmPci(i64 noundef %998, ptr noundef @.str.144, i32 noundef %999)
  %1000 = load i32, ptr @_ZL6g_3054, align 4
  %1001 = sext i32 %1000 to i64
  %1002 = load i32, ptr %9, align 4
  call void @_ZL15transparent_crcmPci(i64 noundef %1001, ptr noundef @.str.145, i32 noundef %1002)
  store i32 0, ptr %6, align 4
  br label %1003

1003:                                             ; preds = %1031, %993
  %1004 = load i32, ptr %6, align 4
  %1005 = icmp slt i32 %1004, 6
  br i1 %1005, label %1006, label %1034

1006:                                             ; preds = %1003
  store i32 0, ptr %7, align 4
  br label %1007

1007:                                             ; preds = %1027, %1006
  %1008 = load i32, ptr %7, align 4
  %1009 = icmp slt i32 %1008, 4
  br i1 %1009, label %1010, label %1030

1010:                                             ; preds = %1007
  %1011 = load i32, ptr %6, align 4
  %1012 = sext i32 %1011 to i64
  %1013 = getelementptr inbounds [6 x [4 x i32]], ptr @_ZL6g_3055, i64 0, i64 %1012
  %1014 = load i32, ptr %7, align 4
  %1015 = sext i32 %1014 to i64
  %1016 = getelementptr inbounds [4 x i32], ptr %1013, i64 0, i64 %1015
  %1017 = load i32, ptr %1016, align 4
  %1018 = sext i32 %1017 to i64
  %1019 = load i32, ptr %9, align 4
  call void @_ZL15transparent_crcmPci(i64 noundef %1018, ptr noundef @.str.146, i32 noundef %1019)
  %1020 = load i32, ptr %9, align 4
  %1021 = icmp ne i32 %1020, 0
  br i1 %1021, label %1022, label %1026

1022:                                             ; preds = %1010
  %1023 = load i32, ptr %6, align 4
  %1024 = load i32, ptr %7, align 4
  %1025 = call i32 (ptr, ...) @printf(ptr noundef @.str.2, i32 noundef %1023, i32 noundef %1024)
  br label %1026

1026:                                             ; preds = %1022, %1010
  br label %1027

1027:                                             ; preds = %1026
  %1028 = load i32, ptr %7, align 4
  %1029 = add nsw i32 %1028, 1
  store i32 %1029, ptr %7, align 4
  br label %1007, !llvm.loop !51

1030:                                             ; preds = %1007
  br label %1031

1031:                                             ; preds = %1030
  %1032 = load i32, ptr %6, align 4
  %1033 = add nsw i32 %1032, 1
  store i32 %1033, ptr %6, align 4
  br label %1003, !llvm.loop !52

1034:                                             ; preds = %1003
  %1035 = load i32, ptr @_ZL6g_3056, align 4
  %1036 = sext i32 %1035 to i64
  %1037 = load i32, ptr %9, align 4
  call void @_ZL15transparent_crcmPci(i64 noundef %1036, ptr noundef @.str.147, i32 noundef %1037)
  %1038 = load i32, ptr @_ZL6g_3057, align 4
  %1039 = sext i32 %1038 to i64
  %1040 = load i32, ptr %9, align 4
  call void @_ZL15transparent_crcmPci(i64 noundef %1039, ptr noundef @.str.148, i32 noundef %1040)
  %1041 = load i32, ptr @_ZL6g_3058, align 4
  %1042 = sext i32 %1041 to i64
  %1043 = load i32, ptr %9, align 4
  call void @_ZL15transparent_crcmPci(i64 noundef %1042, ptr noundef @.str.149, i32 noundef %1043)
  %1044 = load i32, ptr @_ZL6g_3059, align 4
  %1045 = sext i32 %1044 to i64
  %1046 = load i32, ptr %9, align 4
  call void @_ZL15transparent_crcmPci(i64 noundef %1045, ptr noundef @.str.150, i32 noundef %1046)
  %1047 = load i32, ptr @_ZL6g_3060, align 4
  %1048 = sext i32 %1047 to i64
  %1049 = load i32, ptr %9, align 4
  call void @_ZL15transparent_crcmPci(i64 noundef %1048, ptr noundef @.str.151, i32 noundef %1049)
  %1050 = load i32, ptr @_ZL6g_3061, align 4
  %1051 = sext i32 %1050 to i64
  %1052 = load i32, ptr %9, align 4
  call void @_ZL15transparent_crcmPci(i64 noundef %1051, ptr noundef @.str.152, i32 noundef %1052)
  %1053 = load i32, ptr @_ZL6g_3062, align 4
  %1054 = sext i32 %1053 to i64
  %1055 = load i32, ptr %9, align 4
  call void @_ZL15transparent_crcmPci(i64 noundef %1054, ptr noundef @.str.153, i32 noundef %1055)
  %1056 = load i32, ptr @_ZL6g_3063, align 4
  %1057 = sext i32 %1056 to i64
  %1058 = load i32, ptr %9, align 4
  call void @_ZL15transparent_crcmPci(i64 noundef %1057, ptr noundef @.str.154, i32 noundef %1058)
  %1059 = load i32, ptr @_ZL6g_3064, align 4
  %1060 = sext i32 %1059 to i64
  %1061 = load i32, ptr %9, align 4
  call void @_ZL15transparent_crcmPci(i64 noundef %1060, ptr noundef @.str.155, i32 noundef %1061)
  store i32 0, ptr %6, align 4
  br label %1062

1062:                                             ; preds = %1090, %1034
  %1063 = load i32, ptr %6, align 4
  %1064 = icmp slt i32 %1063, 7
  br i1 %1064, label %1065, label %1093

1065:                                             ; preds = %1062
  store i32 0, ptr %7, align 4
  br label %1066

1066:                                             ; preds = %1086, %1065
  %1067 = load i32, ptr %7, align 4
  %1068 = icmp slt i32 %1067, 5
  br i1 %1068, label %1069, label %1089

1069:                                             ; preds = %1066
  %1070 = load i32, ptr %6, align 4
  %1071 = sext i32 %1070 to i64
  %1072 = getelementptr inbounds [7 x [5 x i32]], ptr @_ZL6g_3065, i64 0, i64 %1071
  %1073 = load i32, ptr %7, align 4
  %1074 = sext i32 %1073 to i64
  %1075 = getelementptr inbounds [5 x i32], ptr %1072, i64 0, i64 %1074
  %1076 = load i32, ptr %1075, align 4
  %1077 = sext i32 %1076 to i64
  %1078 = load i32, ptr %9, align 4
  call void @_ZL15transparent_crcmPci(i64 noundef %1077, ptr noundef @.str.156, i32 noundef %1078)
  %1079 = load i32, ptr %9, align 4
  %1080 = icmp ne i32 %1079, 0
  br i1 %1080, label %1081, label %1085

1081:                                             ; preds = %1069
  %1082 = load i32, ptr %6, align 4
  %1083 = load i32, ptr %7, align 4
  %1084 = call i32 (ptr, ...) @printf(ptr noundef @.str.2, i32 noundef %1082, i32 noundef %1083)
  br label %1085

1085:                                             ; preds = %1081, %1069
  br label %1086

1086:                                             ; preds = %1085
  %1087 = load i32, ptr %7, align 4
  %1088 = add nsw i32 %1087, 1
  store i32 %1088, ptr %7, align 4
  br label %1066, !llvm.loop !53

1089:                                             ; preds = %1066
  br label %1090

1090:                                             ; preds = %1089
  %1091 = load i32, ptr %6, align 4
  %1092 = add nsw i32 %1091, 1
  store i32 %1092, ptr %6, align 4
  br label %1062, !llvm.loop !54

1093:                                             ; preds = %1062
  %1094 = load i32, ptr @_ZL6g_3066, align 4
  %1095 = sext i32 %1094 to i64
  %1096 = load i32, ptr %9, align 4
  call void @_ZL15transparent_crcmPci(i64 noundef %1095, ptr noundef @.str.157, i32 noundef %1096)
  %1097 = load i32, ptr @_ZL6g_3067, align 4
  %1098 = sext i32 %1097 to i64
  %1099 = load i32, ptr %9, align 4
  call void @_ZL15transparent_crcmPci(i64 noundef %1098, ptr noundef @.str.158, i32 noundef %1099)
  %1100 = load i32, ptr @_ZL6g_3068, align 4
  %1101 = sext i32 %1100 to i64
  %1102 = load i32, ptr %9, align 4
  call void @_ZL15transparent_crcmPci(i64 noundef %1101, ptr noundef @.str.159, i32 noundef %1102)
  %1103 = load i32, ptr @_ZL6g_3069, align 4
  %1104 = sext i32 %1103 to i64
  %1105 = load i32, ptr %9, align 4
  call void @_ZL15transparent_crcmPci(i64 noundef %1104, ptr noundef @.str.160, i32 noundef %1105)
  %1106 = load i32, ptr @_ZL6g_3070, align 4
  %1107 = sext i32 %1106 to i64
  %1108 = load i32, ptr %9, align 4
  call void @_ZL15transparent_crcmPci(i64 noundef %1107, ptr noundef @.str.161, i32 noundef %1108)
  %1109 = load i32, ptr @_ZL6g_3071, align 4
  %1110 = sext i32 %1109 to i64
  %1111 = load i32, ptr %9, align 4
  call void @_ZL15transparent_crcmPci(i64 noundef %1110, ptr noundef @.str.162, i32 noundef %1111)
  %1112 = load i32, ptr @_ZL6g_3072, align 4
  %1113 = sext i32 %1112 to i64
  %1114 = load i32, ptr %9, align 4
  call void @_ZL15transparent_crcmPci(i64 noundef %1113, ptr noundef @.str.163, i32 noundef %1114)
  %1115 = load i32, ptr @_ZL6g_3073, align 4
  %1116 = sext i32 %1115 to i64
  %1117 = load i32, ptr %9, align 4
  call void @_ZL15transparent_crcmPci(i64 noundef %1116, ptr noundef @.str.164, i32 noundef %1117)
  %1118 = load i32, ptr @_ZL6g_3074, align 4
  %1119 = sext i32 %1118 to i64
  %1120 = load i32, ptr %9, align 4
  call void @_ZL15transparent_crcmPci(i64 noundef %1119, ptr noundef @.str.165, i32 noundef %1120)
  store i32 0, ptr %6, align 4
  br label %1121

1121:                                             ; preds = %1137, %1093
  %1122 = load i32, ptr %6, align 4
  %1123 = icmp slt i32 %1122, 8
  br i1 %1123, label %1124, label %1140

1124:                                             ; preds = %1121
  %1125 = load i32, ptr %6, align 4
  %1126 = sext i32 %1125 to i64
  %1127 = getelementptr inbounds [8 x i32], ptr @_ZL6g_3075, i64 0, i64 %1126
  %1128 = load i32, ptr %1127, align 4
  %1129 = sext i32 %1128 to i64
  %1130 = load i32, ptr %9, align 4
  call void @_ZL15transparent_crcmPci(i64 noundef %1129, ptr noundef @.str.166, i32 noundef %1130)
  %1131 = load i32, ptr %9, align 4
  %1132 = icmp ne i32 %1131, 0
  br i1 %1132, label %1133, label %1136

1133:                                             ; preds = %1124
  %1134 = load i32, ptr %6, align 4
  %1135 = call i32 (ptr, ...) @printf(ptr noundef @.str.8, i32 noundef %1134)
  br label %1136

1136:                                             ; preds = %1133, %1124
  br label %1137

1137:                                             ; preds = %1136
  %1138 = load i32, ptr %6, align 4
  %1139 = add nsw i32 %1138, 1
  store i32 %1139, ptr %6, align 4
  br label %1121, !llvm.loop !55

1140:                                             ; preds = %1121
  %1141 = load i32, ptr @_ZL6g_3076, align 4
  %1142 = sext i32 %1141 to i64
  %1143 = load i32, ptr %9, align 4
  call void @_ZL15transparent_crcmPci(i64 noundef %1142, ptr noundef @.str.167, i32 noundef %1143)
  %1144 = load i32, ptr @_ZL6g_3077, align 4
  %1145 = sext i32 %1144 to i64
  %1146 = load i32, ptr %9, align 4
  call void @_ZL15transparent_crcmPci(i64 noundef %1145, ptr noundef @.str.168, i32 noundef %1146)
  %1147 = load i32, ptr @_ZL6g_3078, align 4
  %1148 = sext i32 %1147 to i64
  %1149 = load i32, ptr %9, align 4
  call void @_ZL15transparent_crcmPci(i64 noundef %1148, ptr noundef @.str.169, i32 noundef %1149)
  store i32 0, ptr %6, align 4
  br label %1150

1150:                                             ; preds = %1190, %1140
  %1151 = load i32, ptr %6, align 4
  %1152 = icmp slt i32 %1151, 8
  br i1 %1152, label %1153, label %1193

1153:                                             ; preds = %1150
  store i32 0, ptr %7, align 4
  br label %1154

1154:                                             ; preds = %1186, %1153
  %1155 = load i32, ptr %7, align 4
  %1156 = icmp slt i32 %1155, 4
  br i1 %1156, label %1157, label %1189

1157:                                             ; preds = %1154
  store i32 0, ptr %8, align 4
  br label %1158

1158:                                             ; preds = %1182, %1157
  %1159 = load i32, ptr %8, align 4
  %1160 = icmp slt i32 %1159, 8
  br i1 %1160, label %1161, label %1185

1161:                                             ; preds = %1158
  %1162 = load i32, ptr %6, align 4
  %1163 = sext i32 %1162 to i64
  %1164 = getelementptr inbounds [8 x [4 x [8 x i32]]], ptr @_ZL6g_3079, i64 0, i64 %1163
  %1165 = load i32, ptr %7, align 4
  %1166 = sext i32 %1165 to i64
  %1167 = getelementptr inbounds [4 x [8 x i32]], ptr %1164, i64 0, i64 %1166
  %1168 = load i32, ptr %8, align 4
  %1169 = sext i32 %1168 to i64
  %1170 = getelementptr inbounds [8 x i32], ptr %1167, i64 0, i64 %1169
  %1171 = load i32, ptr %1170, align 4
  %1172 = sext i32 %1171 to i64
  %1173 = load i32, ptr %9, align 4
  call void @_ZL15transparent_crcmPci(i64 noundef %1172, ptr noundef @.str.170, i32 noundef %1173)
  %1174 = load i32, ptr %9, align 4
  %1175 = icmp ne i32 %1174, 0
  br i1 %1175, label %1176, label %1181

1176:                                             ; preds = %1161
  %1177 = load i32, ptr %6, align 4
  %1178 = load i32, ptr %7, align 4
  %1179 = load i32, ptr %8, align 4
  %1180 = call i32 (ptr, ...) @printf(ptr noundef @.str.19, i32 noundef %1177, i32 noundef %1178, i32 noundef %1179)
  br label %1181

1181:                                             ; preds = %1176, %1161
  br label %1182

1182:                                             ; preds = %1181
  %1183 = load i32, ptr %8, align 4
  %1184 = add nsw i32 %1183, 1
  store i32 %1184, ptr %8, align 4
  br label %1158, !llvm.loop !56

1185:                                             ; preds = %1158
  br label %1186

1186:                                             ; preds = %1185
  %1187 = load i32, ptr %7, align 4
  %1188 = add nsw i32 %1187, 1
  store i32 %1188, ptr %7, align 4
  br label %1154, !llvm.loop !57

1189:                                             ; preds = %1154
  br label %1190

1190:                                             ; preds = %1189
  %1191 = load i32, ptr %6, align 4
  %1192 = add nsw i32 %1191, 1
  store i32 %1192, ptr %6, align 4
  br label %1150, !llvm.loop !58

1193:                                             ; preds = %1150
  %1194 = load i32, ptr @_ZL6g_3080, align 4
  %1195 = sext i32 %1194 to i64
  %1196 = load i32, ptr %9, align 4
  call void @_ZL15transparent_crcmPci(i64 noundef %1195, ptr noundef @.str.171, i32 noundef %1196)
  %1197 = load i32, ptr @_ZL6g_3081, align 4
  %1198 = sext i32 %1197 to i64
  %1199 = load i32, ptr %9, align 4
  call void @_ZL15transparent_crcmPci(i64 noundef %1198, ptr noundef @.str.172, i32 noundef %1199)
  %1200 = load i32, ptr @_ZL6g_3082, align 4
  %1201 = sext i32 %1200 to i64
  %1202 = load i32, ptr %9, align 4
  call void @_ZL15transparent_crcmPci(i64 noundef %1201, ptr noundef @.str.173, i32 noundef %1202)
  %1203 = load i32, ptr @_ZL6g_3083, align 4
  %1204 = sext i32 %1203 to i64
  %1205 = load i32, ptr %9, align 4
  call void @_ZL15transparent_crcmPci(i64 noundef %1204, ptr noundef @.str.174, i32 noundef %1205)
  store i32 0, ptr %6, align 4
  br label %1206

1206:                                             ; preds = %1222, %1193
  %1207 = load i32, ptr %6, align 4
  %1208 = icmp slt i32 %1207, 3
  br i1 %1208, label %1209, label %1225

1209:                                             ; preds = %1206
  %1210 = load i32, ptr %6, align 4
  %1211 = sext i32 %1210 to i64
  %1212 = getelementptr inbounds [3 x i8], ptr @_ZL6g_3195, i64 0, i64 %1211
  %1213 = load i8, ptr %1212, align 1
  %1214 = sext i8 %1213 to i64
  %1215 = load i32, ptr %9, align 4
  call void @_ZL15transparent_crcmPci(i64 noundef %1214, ptr noundef @.str.175, i32 noundef %1215)
  %1216 = load i32, ptr %9, align 4
  %1217 = icmp ne i32 %1216, 0
  br i1 %1217, label %1218, label %1221

1218:                                             ; preds = %1209
  %1219 = load i32, ptr %6, align 4
  %1220 = call i32 (ptr, ...) @printf(ptr noundef @.str.8, i32 noundef %1219)
  br label %1221

1221:                                             ; preds = %1218, %1209
  br label %1222

1222:                                             ; preds = %1221
  %1223 = load i32, ptr %6, align 4
  %1224 = add nsw i32 %1223, 1
  store i32 %1224, ptr %6, align 4
  br label %1206, !llvm.loop !59

1225:                                             ; preds = %1206
  store i32 0, ptr %6, align 4
  br label %1226

1226:                                             ; preds = %1241, %1225
  %1227 = load i32, ptr %6, align 4
  %1228 = icmp slt i32 %1227, 4
  br i1 %1228, label %1229, label %1244

1229:                                             ; preds = %1226
  %1230 = load i32, ptr %6, align 4
  %1231 = sext i32 %1230 to i64
  %1232 = getelementptr inbounds [4 x i64], ptr @_ZL6g_3197, i64 0, i64 %1231
  %1233 = load i64, ptr %1232, align 8
  %1234 = load i32, ptr %9, align 4
  call void @_ZL15transparent_crcmPci(i64 noundef %1233, ptr noundef @.str.176, i32 noundef %1234)
  %1235 = load i32, ptr %9, align 4
  %1236 = icmp ne i32 %1235, 0
  br i1 %1236, label %1237, label %1240

1237:                                             ; preds = %1229
  %1238 = load i32, ptr %6, align 4
  %1239 = call i32 (ptr, ...) @printf(ptr noundef @.str.8, i32 noundef %1238)
  br label %1240

1240:                                             ; preds = %1237, %1229
  br label %1241

1241:                                             ; preds = %1240
  %1242 = load i32, ptr %6, align 4
  %1243 = add nsw i32 %1242, 1
  store i32 %1243, ptr %6, align 4
  br label %1226, !llvm.loop !60

1244:                                             ; preds = %1226
  %1245 = load i8, ptr @_ZL6g_3338, align 1
  %1246 = zext i8 %1245 to i64
  %1247 = load i32, ptr %9, align 4
  call void @_ZL15transparent_crcmPci(i64 noundef %1246, ptr noundef @.str.177, i32 noundef %1247)
  %1248 = load i32, ptr %9, align 4
  call void @_ZL15transparent_crcmPci(i64 noundef 6273940967352418314, ptr noundef @.str.178, i32 noundef %1248)
  %1249 = load i32, ptr %9, align 4
  call void @_ZL15transparent_crcmPci(i64 noundef 7, ptr noundef @.str.179, i32 noundef %1249)
  %1250 = load i32, ptr %9, align 4
  call void @_ZL15transparent_crcmPci(i64 noundef -4, ptr noundef @.str.180, i32 noundef %1250)
  %1251 = load i32, ptr %9, align 4
  call void @_ZL15transparent_crcmPci(i64 noundef -2, ptr noundef @.str.181, i32 noundef %1251)
  %1252 = load i32, ptr %9, align 4
  call void @_ZL15transparent_crcmPci(i64 noundef 6833488189295631733, ptr noundef @.str.182, i32 noundef %1252)
  %1253 = load i32, ptr %9, align 4
  call void @_ZL15transparent_crcmPci(i64 noundef -6, ptr noundef @.str.183, i32 noundef %1253)
  store i32 0, ptr %6, align 4
  br label %1254

1254:                                             ; preds = %1269, %1244
  %1255 = load i32, ptr %6, align 4
  %1256 = icmp slt i32 %1255, 3
  br i1 %1256, label %1257, label %1272

1257:                                             ; preds = %1254
  %1258 = load i32, ptr %6, align 4
  %1259 = sext i32 %1258 to i64
  %1260 = getelementptr inbounds [3 x i64], ptr @_ZL6g_3362, i64 0, i64 %1259
  %1261 = load i64, ptr %1260, align 8
  %1262 = load i32, ptr %9, align 4
  call void @_ZL15transparent_crcmPci(i64 noundef %1261, ptr noundef @.str.184, i32 noundef %1262)
  %1263 = load i32, ptr %9, align 4
  %1264 = icmp ne i32 %1263, 0
  br i1 %1264, label %1265, label %1268

1265:                                             ; preds = %1257
  %1266 = load i32, ptr %6, align 4
  %1267 = call i32 (ptr, ...) @printf(ptr noundef @.str.8, i32 noundef %1266)
  br label %1268

1268:                                             ; preds = %1265, %1257
  br label %1269

1269:                                             ; preds = %1268
  %1270 = load i32, ptr %6, align 4
  %1271 = add nsw i32 %1270, 1
  store i32 %1271, ptr %6, align 4
  br label %1254, !llvm.loop !61

1272:                                             ; preds = %1254
  %1273 = load i32, ptr %9, align 4
  call void @_ZL15transparent_crcmPci(i64 noundef -1, ptr noundef @.str.185, i32 noundef %1273)
  %1274 = load i32, ptr %9, align 4
  call void @_ZL15transparent_crcmPci(i64 noundef 7046111591244611236, ptr noundef @.str.186, i32 noundef %1274)
  %1275 = load i32, ptr %9, align 4
  call void @_ZL15transparent_crcmPci(i64 noundef 1, ptr noundef @.str.187, i32 noundef %1275)
  %1276 = load i32, ptr %9, align 4
  call void @_ZL15transparent_crcmPci(i64 noundef 8081331253881628420, ptr noundef @.str.188, i32 noundef %1276)
  %1277 = load i32, ptr %9, align 4
  call void @_ZL15transparent_crcmPci(i64 noundef -8939883635111050208, ptr noundef @.str.189, i32 noundef %1277)
  %1278 = load i32, ptr %9, align 4
  call void @_ZL15transparent_crcmPci(i64 noundef 2959951333466284120, ptr noundef @.str.190, i32 noundef %1278)
  %1279 = load i32, ptr %9, align 4
  call void @_ZL15transparent_crcmPci(i64 noundef -7601150668844010202, ptr noundef @.str.191, i32 noundef %1279)
  %1280 = load i32, ptr %9, align 4
  call void @_ZL15transparent_crcmPci(i64 noundef -8, ptr noundef @.str.192, i32 noundef %1280)
  %1281 = load i32, ptr %9, align 4
  call void @_ZL15transparent_crcmPci(i64 noundef 6324489790252802483, ptr noundef @.str.193, i32 noundef %1281)
  %1282 = load i32, ptr %9, align 4
  call void @_ZL15transparent_crcmPci(i64 noundef 1577613224172833773, ptr noundef @.str.194, i32 noundef %1282)
  %1283 = load i32, ptr %9, align 4
  call void @_ZL15transparent_crcmPci(i64 noundef -7798799469850784915, ptr noundef @.str.195, i32 noundef %1283)
  %1284 = load i32, ptr %9, align 4
  call void @_ZL15transparent_crcmPci(i64 noundef 1, ptr noundef @.str.196, i32 noundef %1284)
  store i32 0, ptr %6, align 4
  br label %1285

1285:                                             ; preds = %1300, %1272
  %1286 = load i32, ptr %6, align 4
  %1287 = icmp slt i32 %1286, 8
  br i1 %1287, label %1288, label %1303

1288:                                             ; preds = %1285
  %1289 = load i32, ptr %6, align 4
  %1290 = sext i32 %1289 to i64
  %1291 = getelementptr inbounds [8 x i64], ptr @_ZL6g_3375, i64 0, i64 %1290
  %1292 = load i64, ptr %1291, align 8
  %1293 = load i32, ptr %9, align 4
  call void @_ZL15transparent_crcmPci(i64 noundef %1292, ptr noundef @.str.197, i32 noundef %1293)
  %1294 = load i32, ptr %9, align 4
  %1295 = icmp ne i32 %1294, 0
  br i1 %1295, label %1296, label %1299

1296:                                             ; preds = %1288
  %1297 = load i32, ptr %6, align 4
  %1298 = call i32 (ptr, ...) @printf(ptr noundef @.str.8, i32 noundef %1297)
  br label %1299

1299:                                             ; preds = %1296, %1288
  br label %1300

1300:                                             ; preds = %1299
  %1301 = load i32, ptr %6, align 4
  %1302 = add nsw i32 %1301, 1
  store i32 %1302, ptr %6, align 4
  br label %1285, !llvm.loop !62

1303:                                             ; preds = %1285
  %1304 = load i32, ptr %9, align 4
  call void @_ZL15transparent_crcmPci(i64 noundef 4041362172719232434, ptr noundef @.str.198, i32 noundef %1304)
  %1305 = load i32, ptr %9, align 4
  call void @_ZL15transparent_crcmPci(i64 noundef 6, ptr noundef @.str.199, i32 noundef %1305)
  %1306 = load i32, ptr %9, align 4
  call void @_ZL15transparent_crcmPci(i64 noundef -8396925512080132231, ptr noundef @.str.200, i32 noundef %1306)
  %1307 = load i32, ptr %9, align 4
  call void @_ZL15transparent_crcmPci(i64 noundef 9, ptr noundef @.str.201, i32 noundef %1307)
  %1308 = load i16, ptr @_ZL6g_3543, align 2
  %1309 = zext i16 %1308 to i64
  %1310 = load i32, ptr %9, align 4
  call void @_ZL15transparent_crcmPci(i64 noundef %1309, ptr noundef @.str.202, i32 noundef %1310)
  %1311 = load volatile i16, ptr @_ZL6g_3679, align 2
  %1312 = zext i16 %1311 to i64
  %1313 = load i32, ptr %9, align 4
  call void @_ZL15transparent_crcmPci(i64 noundef %1312, ptr noundef @.str.203, i32 noundef %1313)
  %1314 = load i64, ptr @_ZL6g_3716, align 8
  %1315 = load i32, ptr %9, align 4
  call void @_ZL15transparent_crcmPci(i64 noundef %1314, ptr noundef @.str.204, i32 noundef %1315)
  %1316 = load i64, ptr @_ZL6g_3743, align 8
  %1317 = load i32, ptr %9, align 4
  call void @_ZL15transparent_crcmPci(i64 noundef %1316, ptr noundef @.str.205, i32 noundef %1317)
  %1318 = load i32, ptr @_ZL13crc32_context, align 4
  %1319 = zext i32 %1318 to i64
  %1320 = xor i64 %1319, 4294967295
  %1321 = trunc i64 %1320 to i32
  %1322 = load i32, ptr %9, align 4
  call void @_ZL17platform_main_endji(i32 noundef %1321, i32 noundef %1322)
  ret i32 0
}

; Function Attrs: nounwind willreturn memory(read)
declare i32 @strcmp(ptr noundef, ptr noundef) #1

; Function Attrs: mustprogress noinline nounwind optnone sspstrong uwtable
define internal void @_ZL19platform_main_beginv() #2 {
  ret void
}

; Function Attrs: mustprogress noinline nounwind optnone sspstrong uwtable
define internal void @_ZL12crc32_gentabv() #2 {
  %1 = alloca i32, align 4
  %2 = alloca i32, align 4
  %3 = alloca i32, align 4
  %4 = alloca i32, align 4
  store i32 -306674912, ptr %2, align 4
  store i32 0, ptr %3, align 4
  br label %5

5:                                                ; preds = %33, %0
  %6 = load i32, ptr %3, align 4
  %7 = icmp slt i32 %6, 256
  br i1 %7, label %8, label %36

8:                                                ; preds = %5
  %9 = load i32, ptr %3, align 4
  store i32 %9, ptr %1, align 4
  store i32 8, ptr %4, align 4
  br label %10

10:                                               ; preds = %25, %8
  %11 = load i32, ptr %4, align 4
  %12 = icmp sgt i32 %11, 0
  br i1 %12, label %13, label %28

13:                                               ; preds = %10
  %14 = load i32, ptr %1, align 4
  %15 = and i32 %14, 1
  %16 = icmp ne i32 %15, 0
  br i1 %16, label %17, label %21

17:                                               ; preds = %13
  %18 = load i32, ptr %1, align 4
  %19 = lshr i32 %18, 1
  %20 = xor i32 %19, -306674912
  store i32 %20, ptr %1, align 4
  br label %24

21:                                               ; preds = %13
  %22 = load i32, ptr %1, align 4
  %23 = lshr i32 %22, 1
  store i32 %23, ptr %1, align 4
  br label %24

24:                                               ; preds = %21, %17
  br label %25

25:                                               ; preds = %24
  %26 = load i32, ptr %4, align 4
  %27 = add nsw i32 %26, -1
  store i32 %27, ptr %4, align 4
  br label %10, !llvm.loop !63

28:                                               ; preds = %10
  %29 = load i32, ptr %1, align 4
  %30 = load i32, ptr %3, align 4
  %31 = sext i32 %30 to i64
  %32 = getelementptr inbounds [256 x i32], ptr @_ZL9crc32_tab, i64 0, i64 %31
  store i32 %29, ptr %32, align 4
  br label %33

33:                                               ; preds = %28
  %34 = load i32, ptr %3, align 4
  %35 = add nsw i32 %34, 1
  store i32 %35, ptr %3, align 4
  br label %5, !llvm.loop !64

36:                                               ; preds = %5
  ret void
}

; Function Attrs: mustprogress noinline nounwind optnone sspstrong uwtable
define internal noundef zeroext i8 @_ZL6func_1v() #2 {
  %1 = alloca i8, align 1
  %2 = alloca i32, align 4
  %3 = alloca [7 x ptr], align 16
  %4 = alloca ptr, align 8
  %5 = alloca ptr, align 8
  %6 = alloca ptr, align 8
  %7 = alloca i32, align 4
  %8 = alloca i32, align 4
  %9 = alloca [6 x ptr], align 16
  %10 = alloca i64, align 8
  %11 = alloca [5 x [2 x i32]], align 16
  %12 = alloca [6 x i64], align 16
  %13 = alloca ptr, align 8
  %14 = alloca i64, align 8
  %15 = alloca i32, align 4
  %16 = alloca i32, align 4
  %17 = alloca ptr, align 8
  %18 = alloca ptr, align 8
  %19 = alloca ptr, align 8
  %20 = alloca [9 x [7 x [3 x ptr]]], align 16
  %21 = alloca [4 x ptr], align 16
  %22 = alloca [6 x i32], align 16
  %23 = alloca i32, align 4
  %24 = alloca i32, align 4
  %25 = alloca i32, align 4
  %26 = alloca i64, align 8
  %27 = alloca ptr, align 8
  %28 = alloca [9 x i8], align 1
  %29 = alloca [9 x [8 x [3 x ptr]]], align 16
  %30 = alloca i32, align 4
  %31 = alloca ptr, align 8
  %32 = alloca i32, align 4
  %33 = alloca i32, align 4
  %34 = alloca i32, align 4
  %35 = alloca i32, align 4
  store i32 85901069, ptr %2, align 4
  call void @llvm.memcpy.p0.p0.i64(ptr align 16 %3, ptr align 16 @__const._ZL6func_1v.l_979, i64 56, i1 false)
  %36 = getelementptr inbounds [7 x ptr], ptr %3, i64 0, i64 6
  store ptr %36, ptr %4, align 8
  store ptr %4, ptr %5, align 8
  store ptr %5, ptr %6, align 8
  store i32 -6, ptr %7, align 4
  store i32 501574033, ptr %8, align 4
  store i64 -2, ptr %10, align 8
  call void @llvm.memset.p0.i64(ptr align 16 %12, i8 0, i64 48, i1 false)
  %37 = getelementptr inbounds [6 x i64], ptr %12, i32 0, i32 0
  store i64 -1, ptr %37, align 16
  %38 = getelementptr inbounds [6 x i64], ptr %12, i32 0, i32 1
  store i64 -1, ptr %38, align 8
  %39 = getelementptr inbounds [6 x i64], ptr %12, i32 0, i32 2
  store i64 2862546018116496137, ptr %39, align 16
  %40 = getelementptr inbounds [6 x i64], ptr %12, i32 0, i32 3
  store i64 -1, ptr %40, align 8
  %41 = getelementptr inbounds [6 x i64], ptr %12, i32 0, i32 4
  store i64 -1, ptr %41, align 16
  %42 = getelementptr inbounds [6 x i64], ptr %12, i32 0, i32 5
  store i64 2862546018116496137, ptr %42, align 8
  store ptr @_ZL6g_3716, ptr %13, align 8
  store i64 0, ptr %14, align 8
  store i32 0, ptr %15, align 4
  br label %43

43:                                               ; preds = %50, %0
  %44 = load i32, ptr %15, align 4
  %45 = icmp slt i32 %44, 6
  br i1 %45, label %46, label %53

46:                                               ; preds = %43
  %47 = load i32, ptr %15, align 4
  %48 = sext i32 %47 to i64
  %49 = getelementptr inbounds [6 x ptr], ptr %9, i64 0, i64 %48
  store ptr @_ZL6g_3064, ptr %49, align 8
  br label %50

50:                                               ; preds = %46
  %51 = load i32, ptr %15, align 4
  %52 = add nsw i32 %51, 1
  store i32 %52, ptr %15, align 4
  br label %43, !llvm.loop !65

53:                                               ; preds = %43
  store i32 0, ptr %15, align 4
  br label %54

54:                                               ; preds = %72, %53
  %55 = load i32, ptr %15, align 4
  %56 = icmp slt i32 %55, 5
  br i1 %56, label %57, label %75

57:                                               ; preds = %54
  store i32 0, ptr %16, align 4
  br label %58

58:                                               ; preds = %68, %57
  %59 = load i32, ptr %16, align 4
  %60 = icmp slt i32 %59, 2
  br i1 %60, label %61, label %71

61:                                               ; preds = %58
  %62 = load i32, ptr %15, align 4
  %63 = sext i32 %62 to i64
  %64 = getelementptr inbounds [5 x [2 x i32]], ptr %11, i64 0, i64 %63
  %65 = load i32, ptr %16, align 4
  %66 = sext i32 %65 to i64
  %67 = getelementptr inbounds [2 x i32], ptr %64, i64 0, i64 %66
  store i32 1, ptr %67, align 4
  br label %68

68:                                               ; preds = %61
  %69 = load i32, ptr %16, align 4
  %70 = add nsw i32 %69, 1
  store i32 %70, ptr %16, align 4
  br label %58, !llvm.loop !66

71:                                               ; preds = %58
  br label %72

72:                                               ; preds = %71
  %73 = load i32, ptr %15, align 4
  %74 = add nsw i32 %73, 1
  store i32 %74, ptr %15, align 4
  br label %54, !llvm.loop !67

75:                                               ; preds = %54
  %76 = load i32, ptr getelementptr inbounds ([9 x [6 x i32]], ptr @_ZL3g_2, i64 0, i64 4, i64 1), align 4
  %77 = load i32, ptr %2, align 4
  %78 = icmp ne i32 %77, 0
  %79 = zext i1 %78 to i16
  %80 = load i32, ptr getelementptr inbounds ([9 x [6 x i32]], ptr @_ZL3g_2, i64 0, i64 4, i64 1), align 4
  %81 = call noundef i64 @_ZL7func_14j(i32 noundef %80)
  %82 = load i32, ptr %2, align 4
  %83 = zext i32 %82 to i64
  store ptr null, ptr @_ZL5g_975, align 8
  %84 = load ptr, ptr %6, align 8
  %85 = icmp ne ptr null, %84
  %86 = zext i1 %85 to i64
  %87 = and i64 %86, -8705260421649269952
  %88 = icmp ne i64 %83, %87
  %89 = zext i1 %88 to i64
  %90 = load ptr, ptr @_ZL5g_606, align 8
  %91 = load volatile ptr, ptr %90, align 8
  %92 = load volatile ptr, ptr %91, align 8
  %93 = load volatile i64, ptr %92, align 8
  %94 = call noundef i64 @_ZL26safe_add_func_uint64_t_u_umm(i64 noundef %89, i64 noundef %93)
  %95 = trunc i64 %94 to i32
  store i32 %95, ptr %7, align 4
  %96 = call noundef i32 @_ZL7func_12i(i32 noundef %95)
  %97 = icmp ne i32 %96, 0
  br i1 %97, label %101, label %98

98:                                               ; preds = %75
  %99 = load i32, ptr %7, align 4
  %100 = icmp ne i32 %99, 0
  br label %101

101:                                              ; preds = %98, %75
  %102 = phi i1 [ true, %75 ], [ %100, %98 ]
  %103 = zext i1 %102 to i32
  %104 = call noundef signext i8 @_ZL7func_10i(i32 noundef %103)
  %105 = sext i8 %104 to i32
  %106 = load i32, ptr %2, align 4
  %107 = icmp ult i32 %105, %106
  %108 = zext i1 %107 to i32
  %109 = load i32, ptr %2, align 4
  %110 = icmp ule i32 %108, %109
  br i1 %110, label %111, label %114

111:                                              ; preds = %101
  %112 = load i32, ptr %2, align 4
  %113 = icmp ne i32 %112, 0
  br label %114

114:                                              ; preds = %111, %101
  %115 = phi i1 [ false, %101 ], [ %113, %111 ]
  %116 = zext i1 %115 to i16
  %117 = call noundef zeroext i16 @_ZL26safe_mod_func_uint16_t_u_utt(i16 noundef zeroext %79, i16 noundef zeroext %116)
  %118 = zext i16 %117 to i32
  %119 = call noundef i32 @_ZL29safe_rshift_func_uint32_t_u_ujj(i32 noundef %118, i32 noundef 9)
  %120 = load i32, ptr %2, align 4
  %121 = trunc i32 %120 to i8
  %122 = call noundef signext i8 @_ZL24safe_sub_func_int8_t_s_saa(i8 noundef signext 45, i8 noundef signext %121)
  %123 = sext i8 %122 to i32
  %124 = and i32 %76, %123
  %125 = load i32, ptr %2, align 4
  %126 = icmp ugt i32 %124, %125
  %127 = zext i1 %126 to i32
  %128 = load i32, ptr %2, align 4
  %129 = and i32 %127, %128
  %130 = zext i32 %129 to i64
  %131 = and i64 %130, 1895604987
  %132 = load i32, ptr %8, align 4
  %133 = sext i32 %132 to i64
  %134 = and i64 %133, %131
  %135 = trunc i64 %134 to i32
  store i32 %135, ptr %8, align 4
  %136 = load i32, ptr @_ZL5g_985, align 4
  %137 = icmp ne i32 %136, 0
  br i1 %137, label %138, label %139

138:                                              ; preds = %114
  br label %140

139:                                              ; preds = %114
  br label %140

140:                                              ; preds = %139, %138
  store i32 0, ptr @_ZL6g_2398, align 4
  br label %141

141:                                              ; preds = %146, %140
  %142 = load i32, ptr @_ZL6g_2398, align 4
  %143 = icmp ne i32 %142, 1
  br i1 %143, label %144, label %149

144:                                              ; preds = %141
  %145 = load i8, ptr @_ZL6g_3338, align 1
  store i8 %145, ptr %1, align 1
  br label %527

146:                                              ; No predecessors!
  %147 = load i32, ptr @_ZL6g_2398, align 4
  %148 = add nsw i32 %147, 1
  store i32 %148, ptr @_ZL6g_2398, align 4
  br label %141, !llvm.loop !68

149:                                              ; preds = %141
  %150 = getelementptr inbounds [6 x i64], ptr %12, i64 0, i64 3
  %151 = load i64, ptr %150, align 8
  %152 = add i64 %151, 1
  store i64 %152, ptr %150, align 8
  store i32 -9, ptr @_ZL6g_2406, align 4
  br label %153

153:                                              ; preds = %522, %149
  %154 = load i32, ptr @_ZL6g_2406, align 4
  %155 = icmp slt i32 %154, 29
  br i1 %155, label %156, label %525

156:                                              ; preds = %153
  store ptr getelementptr inbounds ([8 x [4 x [8 x i32]]], ptr @_ZL6g_3079, i64 0, i64 5, i64 3, i64 2), ptr %17, align 8
  store ptr @_ZL5g_119, ptr %18, align 8
  store ptr @_ZL6g_1928, ptr %19, align 8
  call void @llvm.memcpy.p0.p0.i64(ptr align 16 %20, ptr align 16 @__const._ZL6func_1v.l_3735, i64 1512, i1 false)
  %157 = getelementptr inbounds [4 x ptr], ptr %21, i64 0, i64 0
  %158 = getelementptr inbounds [9 x [7 x [3 x ptr]]], ptr %20, i64 0, i64 3
  %159 = getelementptr inbounds [7 x [3 x ptr]], ptr %158, i64 0, i64 3
  %160 = getelementptr inbounds [3 x ptr], ptr %159, i64 0, i64 2
  store ptr %160, ptr %157, align 8
  %161 = getelementptr inbounds ptr, ptr %157, i64 1
  %162 = getelementptr inbounds [9 x [7 x [3 x ptr]]], ptr %20, i64 0, i64 3
  %163 = getelementptr inbounds [7 x [3 x ptr]], ptr %162, i64 0, i64 3
  %164 = getelementptr inbounds [3 x ptr], ptr %163, i64 0, i64 2
  store ptr %164, ptr %161, align 8
  %165 = getelementptr inbounds ptr, ptr %161, i64 1
  %166 = getelementptr inbounds [9 x [7 x [3 x ptr]]], ptr %20, i64 0, i64 3
  %167 = getelementptr inbounds [7 x [3 x ptr]], ptr %166, i64 0, i64 3
  %168 = getelementptr inbounds [3 x ptr], ptr %167, i64 0, i64 2
  store ptr %168, ptr %165, align 8
  %169 = getelementptr inbounds ptr, ptr %165, i64 1
  %170 = getelementptr inbounds [9 x [7 x [3 x ptr]]], ptr %20, i64 0, i64 3
  %171 = getelementptr inbounds [7 x [3 x ptr]], ptr %170, i64 0, i64 3
  %172 = getelementptr inbounds [3 x ptr], ptr %171, i64 0, i64 2
  store ptr %172, ptr %169, align 8
  store i32 0, ptr %23, align 4
  br label %173

173:                                              ; preds = %180, %156
  %174 = load i32, ptr %23, align 4
  %175 = icmp slt i32 %174, 6
  br i1 %175, label %176, label %183

176:                                              ; preds = %173
  %177 = load i32, ptr %23, align 4
  %178 = sext i32 %177 to i64
  %179 = getelementptr inbounds [6 x i32], ptr %22, i64 0, i64 %178
  store i32 -1983002672, ptr %179, align 4
  br label %180

180:                                              ; preds = %176
  %181 = load i32, ptr %23, align 4
  %182 = add nsw i32 %181, 1
  store i32 %182, ptr %23, align 4
  br label %173, !llvm.loop !69

183:                                              ; preds = %173
  store i32 0, ptr @_ZL6g_2236, align 4
  br label %184

184:                                              ; preds = %471, %183
  %185 = load i32, ptr @_ZL6g_2236, align 4
  %186 = icmp sle i32 %185, 1
  br i1 %186, label %187, label %474

187:                                              ; preds = %184
  store i64 -4, ptr %26, align 8
  store ptr @_ZL6g_1811, ptr %27, align 8
  call void @llvm.memcpy.p0.p0.i64(ptr align 1 %28, ptr align 1 @__const._ZL6func_1v.l_3718, i64 9, i1 false)
  %188 = getelementptr inbounds [9 x [8 x [3 x ptr]]], ptr %29, i64 0, i64 0
  %189 = getelementptr inbounds [8 x [3 x ptr]], ptr %188, i64 0, i64 0
  %190 = getelementptr inbounds [3 x ptr], ptr %189, i64 0, i64 0
  store ptr %27, ptr %190, align 8
  %191 = getelementptr inbounds ptr, ptr %190, i64 1
  store ptr %27, ptr %191, align 8
  %192 = getelementptr inbounds ptr, ptr %191, i64 1
  store ptr %27, ptr %192, align 8
  %193 = getelementptr inbounds [3 x ptr], ptr %189, i64 1
  %194 = getelementptr inbounds [3 x ptr], ptr %193, i64 0, i64 0
  store ptr null, ptr %194, align 8
  %195 = getelementptr inbounds ptr, ptr %194, i64 1
  store ptr @_ZL6g_1810, ptr %195, align 8
  %196 = getelementptr inbounds ptr, ptr %195, i64 1
  store ptr %27, ptr %196, align 8
  %197 = getelementptr inbounds [3 x ptr], ptr %193, i64 1
  %198 = getelementptr inbounds [3 x ptr], ptr %197, i64 0, i64 0
  store ptr @_ZL6g_1810, ptr %198, align 8
  %199 = getelementptr inbounds ptr, ptr %198, i64 1
  store ptr %27, ptr %199, align 8
  %200 = getelementptr inbounds ptr, ptr %199, i64 1
  store ptr %27, ptr %200, align 8
  %201 = getelementptr inbounds [3 x ptr], ptr %197, i64 1
  %202 = getelementptr inbounds [3 x ptr], ptr %201, i64 0, i64 0
  store ptr %27, ptr %202, align 8
  %203 = getelementptr inbounds ptr, ptr %202, i64 1
  store ptr null, ptr %203, align 8
  %204 = getelementptr inbounds ptr, ptr %203, i64 1
  store ptr @_ZL6g_1810, ptr %204, align 8
  %205 = getelementptr inbounds [3 x ptr], ptr %201, i64 1
  %206 = getelementptr inbounds [3 x ptr], ptr %205, i64 0, i64 0
  call void @llvm.memcpy.p0.p0.i64(ptr align 8 %205, ptr align 8 @constinit, i64 24, i1 false)
  %207 = getelementptr inbounds [3 x ptr], ptr %205, i64 1
  %208 = getelementptr inbounds [3 x ptr], ptr %207, i64 0, i64 0
  store ptr @_ZL6g_1810, ptr %208, align 8
  %209 = getelementptr inbounds ptr, ptr %208, i64 1
  store ptr null, ptr %209, align 8
  %210 = getelementptr inbounds ptr, ptr %209, i64 1
  store ptr %27, ptr %210, align 8
  %211 = getelementptr inbounds [3 x ptr], ptr %207, i64 1
  %212 = getelementptr inbounds [3 x ptr], ptr %211, i64 0, i64 0
  store ptr @_ZL6g_1810, ptr %212, align 8
  %213 = getelementptr inbounds ptr, ptr %212, i64 1
  store ptr %27, ptr %213, align 8
  %214 = getelementptr inbounds ptr, ptr %213, i64 1
  store ptr @_ZL6g_1810, ptr %214, align 8
  %215 = getelementptr inbounds [3 x ptr], ptr %211, i64 1
  %216 = getelementptr inbounds [3 x ptr], ptr %215, i64 0, i64 0
  store ptr null, ptr %216, align 8
  %217 = getelementptr inbounds ptr, ptr %216, i64 1
  store ptr @_ZL6g_1810, ptr %217, align 8
  %218 = getelementptr inbounds ptr, ptr %217, i64 1
  store ptr %27, ptr %218, align 8
  %219 = getelementptr inbounds [8 x [3 x ptr]], ptr %188, i64 1
  %220 = getelementptr inbounds [8 x [3 x ptr]], ptr %219, i64 0, i64 0
  %221 = getelementptr inbounds [3 x ptr], ptr %220, i64 0, i64 0
  store ptr @_ZL6g_1810, ptr %221, align 8
  %222 = getelementptr inbounds ptr, ptr %221, i64 1
  store ptr null, ptr %222, align 8
  %223 = getelementptr inbounds ptr, ptr %222, i64 1
  store ptr %27, ptr %223, align 8
  %224 = getelementptr inbounds [3 x ptr], ptr %220, i64 1
  %225 = getelementptr inbounds [3 x ptr], ptr %224, i64 0, i64 0
  store ptr @_ZL6g_1810, ptr %225, align 8
  %226 = getelementptr inbounds ptr, ptr %225, i64 1
  store ptr %27, ptr %226, align 8
  %227 = getelementptr inbounds ptr, ptr %226, i64 1
  store ptr %27, ptr %227, align 8
  %228 = getelementptr inbounds [3 x ptr], ptr %224, i64 1
  %229 = getelementptr inbounds [3 x ptr], ptr %228, i64 0, i64 0
  store ptr null, ptr %229, align 8
  %230 = getelementptr inbounds ptr, ptr %229, i64 1
  store ptr %27, ptr %230, align 8
  %231 = getelementptr inbounds ptr, ptr %230, i64 1
  store ptr null, ptr %231, align 8
  %232 = getelementptr inbounds [3 x ptr], ptr %228, i64 1
  %233 = getelementptr inbounds [3 x ptr], ptr %232, i64 0, i64 0
  store ptr %27, ptr %233, align 8
  %234 = getelementptr inbounds ptr, ptr %233, i64 1
  store ptr %27, ptr %234, align 8
  %235 = getelementptr inbounds ptr, ptr %234, i64 1
  store ptr null, ptr %235, align 8
  %236 = getelementptr inbounds [3 x ptr], ptr %232, i64 1
  %237 = getelementptr inbounds [3 x ptr], ptr %236, i64 0, i64 0
  call void @llvm.memcpy.p0.p0.i64(ptr align 8 %236, ptr align 8 @constinit.206, i64 24, i1 false)
  %238 = getelementptr inbounds [3 x ptr], ptr %236, i64 1
  %239 = getelementptr inbounds [3 x ptr], ptr %238, i64 0, i64 0
  store ptr %27, ptr %239, align 8
  %240 = getelementptr inbounds ptr, ptr %239, i64 1
  store ptr %27, ptr %240, align 8
  %241 = getelementptr inbounds ptr, ptr %240, i64 1
  store ptr %27, ptr %241, align 8
  %242 = getelementptr inbounds [3 x ptr], ptr %238, i64 1
  %243 = getelementptr inbounds [3 x ptr], ptr %242, i64 0, i64 0
  store ptr %27, ptr %243, align 8
  %244 = getelementptr inbounds ptr, ptr %243, i64 1
  store ptr null, ptr %244, align 8
  %245 = getelementptr inbounds ptr, ptr %244, i64 1
  store ptr @_ZL6g_1810, ptr %245, align 8
  %246 = getelementptr inbounds [3 x ptr], ptr %242, i64 1
  %247 = getelementptr inbounds [3 x ptr], ptr %246, i64 0, i64 0
  store ptr null, ptr %247, align 8
  %248 = getelementptr inbounds ptr, ptr %247, i64 1
  store ptr %27, ptr %248, align 8
  %249 = getelementptr inbounds ptr, ptr %248, i64 1
  store ptr %27, ptr %249, align 8
  %250 = getelementptr inbounds [8 x [3 x ptr]], ptr %219, i64 1
  %251 = getelementptr inbounds [8 x [3 x ptr]], ptr %250, i64 0, i64 0
  %252 = getelementptr inbounds [3 x ptr], ptr %251, i64 0, i64 0
  store ptr %27, ptr %252, align 8
  %253 = getelementptr inbounds ptr, ptr %252, i64 1
  store ptr %27, ptr %253, align 8
  %254 = getelementptr inbounds ptr, ptr %253, i64 1
  store ptr @_ZL6g_1810, ptr %254, align 8
  %255 = getelementptr inbounds [3 x ptr], ptr %251, i64 1
  %256 = getelementptr inbounds [3 x ptr], ptr %255, i64 0, i64 0
  store ptr @_ZL6g_1810, ptr %256, align 8
  %257 = getelementptr inbounds ptr, ptr %256, i64 1
  store ptr %27, ptr %257, align 8
  %258 = getelementptr inbounds ptr, ptr %257, i64 1
  store ptr %27, ptr %258, align 8
  %259 = getelementptr inbounds [3 x ptr], ptr %255, i64 1
  %260 = getelementptr inbounds [3 x ptr], ptr %259, i64 0, i64 0
  store ptr @_ZL6g_1810, ptr %260, align 8
  %261 = getelementptr inbounds ptr, ptr %260, i64 1
  store ptr null, ptr %261, align 8
  %262 = getelementptr inbounds ptr, ptr %261, i64 1
  store ptr %27, ptr %262, align 8
  %263 = getelementptr inbounds [3 x ptr], ptr %259, i64 1
  %264 = getelementptr inbounds [3 x ptr], ptr %263, i64 0, i64 0
  store ptr %27, ptr %264, align 8
  %265 = getelementptr inbounds ptr, ptr %264, i64 1
  store ptr %27, ptr %265, align 8
  %266 = getelementptr inbounds ptr, ptr %265, i64 1
  store ptr %27, ptr %266, align 8
  %267 = getelementptr inbounds [3 x ptr], ptr %263, i64 1
  %268 = getelementptr inbounds [3 x ptr], ptr %267, i64 0, i64 0
  call void @llvm.memcpy.p0.p0.i64(ptr align 8 %267, ptr align 8 @constinit.207, i64 24, i1 false)
  %269 = getelementptr inbounds [3 x ptr], ptr %267, i64 1
  %270 = getelementptr inbounds [3 x ptr], ptr %269, i64 0, i64 0
  store ptr @_ZL6g_1810, ptr %270, align 8
  %271 = getelementptr inbounds ptr, ptr %270, i64 1
  store ptr %27, ptr %271, align 8
  %272 = getelementptr inbounds ptr, ptr %271, i64 1
  store ptr %27, ptr %272, align 8
  %273 = getelementptr inbounds [3 x ptr], ptr %269, i64 1
  %274 = getelementptr inbounds [3 x ptr], ptr %273, i64 0, i64 0
  store ptr %27, ptr %274, align 8
  %275 = getelementptr inbounds ptr, ptr %274, i64 1
  store ptr %27, ptr %275, align 8
  %276 = getelementptr inbounds ptr, ptr %275, i64 1
  store ptr @_ZL6g_1810, ptr %276, align 8
  %277 = getelementptr inbounds [3 x ptr], ptr %273, i64 1
  %278 = getelementptr inbounds [3 x ptr], ptr %277, i64 0, i64 0
  store ptr %27, ptr %278, align 8
  %279 = getelementptr inbounds ptr, ptr %278, i64 1
  store ptr %27, ptr %279, align 8
  %280 = getelementptr inbounds ptr, ptr %279, i64 1
  store ptr null, ptr %280, align 8
  %281 = getelementptr inbounds [8 x [3 x ptr]], ptr %250, i64 1
  %282 = getelementptr inbounds [8 x [3 x ptr]], ptr %281, i64 0, i64 0
  %283 = getelementptr inbounds [3 x ptr], ptr %282, i64 0, i64 0
  store ptr %27, ptr %283, align 8
  %284 = getelementptr inbounds ptr, ptr %283, i64 1
  store ptr null, ptr %284, align 8
  %285 = getelementptr inbounds ptr, ptr %284, i64 1
  store ptr %27, ptr %285, align 8
  %286 = getelementptr inbounds [3 x ptr], ptr %282, i64 1
  %287 = getelementptr inbounds [3 x ptr], ptr %286, i64 0, i64 0
  store ptr %27, ptr %287, align 8
  %288 = getelementptr inbounds ptr, ptr %287, i64 1
  store ptr %27, ptr %288, align 8
  %289 = getelementptr inbounds ptr, ptr %288, i64 1
  store ptr @_ZL6g_1810, ptr %289, align 8
  %290 = getelementptr inbounds [3 x ptr], ptr %286, i64 1
  %291 = getelementptr inbounds [3 x ptr], ptr %290, i64 0, i64 0
  store ptr @_ZL6g_1810, ptr %291, align 8
  %292 = getelementptr inbounds ptr, ptr %291, i64 1
  store ptr null, ptr %292, align 8
  %293 = getelementptr inbounds ptr, ptr %292, i64 1
  store ptr %27, ptr %293, align 8
  %294 = getelementptr inbounds [3 x ptr], ptr %290, i64 1
  %295 = getelementptr inbounds [3 x ptr], ptr %294, i64 0, i64 0
  store ptr @_ZL6g_1810, ptr %295, align 8
  %296 = getelementptr inbounds ptr, ptr %295, i64 1
  store ptr %27, ptr %296, align 8
  %297 = getelementptr inbounds ptr, ptr %296, i64 1
  store ptr %27, ptr %297, align 8
  %298 = getelementptr inbounds [3 x ptr], ptr %294, i64 1
  %299 = getelementptr inbounds [3 x ptr], ptr %298, i64 0, i64 0
  store ptr null, ptr %299, align 8
  %300 = getelementptr inbounds ptr, ptr %299, i64 1
  store ptr %27, ptr %300, align 8
  %301 = getelementptr inbounds ptr, ptr %300, i64 1
  store ptr null, ptr %301, align 8
  %302 = getelementptr inbounds [3 x ptr], ptr %298, i64 1
  %303 = getelementptr inbounds [3 x ptr], ptr %302, i64 0, i64 0
  store ptr %27, ptr %303, align 8
  %304 = getelementptr inbounds ptr, ptr %303, i64 1
  store ptr %27, ptr %304, align 8
  %305 = getelementptr inbounds ptr, ptr %304, i64 1
  store ptr null, ptr %305, align 8
  %306 = getelementptr inbounds [3 x ptr], ptr %302, i64 1
  %307 = getelementptr inbounds [3 x ptr], ptr %306, i64 0, i64 0
  call void @llvm.memcpy.p0.p0.i64(ptr align 8 %306, ptr align 8 @constinit.208, i64 24, i1 false)
  %308 = getelementptr inbounds [3 x ptr], ptr %306, i64 1
  %309 = getelementptr inbounds [3 x ptr], ptr %308, i64 0, i64 0
  store ptr %27, ptr %309, align 8
  %310 = getelementptr inbounds ptr, ptr %309, i64 1
  store ptr %27, ptr %310, align 8
  %311 = getelementptr inbounds ptr, ptr %310, i64 1
  store ptr %27, ptr %311, align 8
  %312 = getelementptr inbounds [8 x [3 x ptr]], ptr %281, i64 1
  %313 = getelementptr inbounds [8 x [3 x ptr]], ptr %312, i64 0, i64 0
  %314 = getelementptr inbounds [3 x ptr], ptr %313, i64 0, i64 0
  store ptr %27, ptr %314, align 8
  %315 = getelementptr inbounds ptr, ptr %314, i64 1
  store ptr null, ptr %315, align 8
  %316 = getelementptr inbounds ptr, ptr %315, i64 1
  store ptr @_ZL6g_1810, ptr %316, align 8
  %317 = getelementptr inbounds [3 x ptr], ptr %313, i64 1
  %318 = getelementptr inbounds [3 x ptr], ptr %317, i64 0, i64 0
  store ptr null, ptr %318, align 8
  %319 = getelementptr inbounds ptr, ptr %318, i64 1
  store ptr %27, ptr %319, align 8
  %320 = getelementptr inbounds ptr, ptr %319, i64 1
  store ptr %27, ptr %320, align 8
  %321 = getelementptr inbounds [3 x ptr], ptr %317, i64 1
  %322 = getelementptr inbounds [3 x ptr], ptr %321, i64 0, i64 0
  store ptr %27, ptr %322, align 8
  %323 = getelementptr inbounds ptr, ptr %322, i64 1
  store ptr %27, ptr %323, align 8
  %324 = getelementptr inbounds ptr, ptr %323, i64 1
  store ptr @_ZL6g_1810, ptr %324, align 8
  %325 = getelementptr inbounds [3 x ptr], ptr %321, i64 1
  %326 = getelementptr inbounds [3 x ptr], ptr %325, i64 0, i64 0
  store ptr @_ZL6g_1810, ptr %326, align 8
  %327 = getelementptr inbounds ptr, ptr %326, i64 1
  store ptr %27, ptr %327, align 8
  %328 = getelementptr inbounds ptr, ptr %327, i64 1
  store ptr %27, ptr %328, align 8
  %329 = getelementptr inbounds [3 x ptr], ptr %325, i64 1
  %330 = getelementptr inbounds [3 x ptr], ptr %329, i64 0, i64 0
  store ptr @_ZL6g_1810, ptr %330, align 8
  %331 = getelementptr inbounds ptr, ptr %330, i64 1
  store ptr null, ptr %331, align 8
  %332 = getelementptr inbounds ptr, ptr %331, i64 1
  store ptr %27, ptr %332, align 8
  %333 = getelementptr inbounds [3 x ptr], ptr %329, i64 1
  %334 = getelementptr inbounds [3 x ptr], ptr %333, i64 0, i64 0
  store ptr %27, ptr %334, align 8
  %335 = getelementptr inbounds ptr, ptr %334, i64 1
  store ptr %27, ptr %335, align 8
  %336 = getelementptr inbounds ptr, ptr %335, i64 1
  store ptr %27, ptr %336, align 8
  %337 = getelementptr inbounds [3 x ptr], ptr %333, i64 1
  %338 = getelementptr inbounds [3 x ptr], ptr %337, i64 0, i64 0
  call void @llvm.memcpy.p0.p0.i64(ptr align 8 %337, ptr align 8 @constinit.209, i64 24, i1 false)
  %339 = getelementptr inbounds [3 x ptr], ptr %337, i64 1
  %340 = getelementptr inbounds [3 x ptr], ptr %339, i64 0, i64 0
  store ptr @_ZL6g_1810, ptr %340, align 8
  %341 = getelementptr inbounds ptr, ptr %340, i64 1
  store ptr %27, ptr %341, align 8
  %342 = getelementptr inbounds ptr, ptr %341, i64 1
  store ptr %27, ptr %342, align 8
  %343 = getelementptr inbounds [8 x [3 x ptr]], ptr %312, i64 1
  %344 = getelementptr inbounds [8 x [3 x ptr]], ptr %343, i64 0, i64 0
  %345 = getelementptr inbounds [3 x ptr], ptr %344, i64 0, i64 0
  store ptr %27, ptr %345, align 8
  %346 = getelementptr inbounds ptr, ptr %345, i64 1
  store ptr %27, ptr %346, align 8
  %347 = getelementptr inbounds ptr, ptr %346, i64 1
  store ptr @_ZL6g_1810, ptr %347, align 8
  %348 = getelementptr inbounds [3 x ptr], ptr %344, i64 1
  %349 = getelementptr inbounds [3 x ptr], ptr %348, i64 0, i64 0
  store ptr %27, ptr %349, align 8
  %350 = getelementptr inbounds ptr, ptr %349, i64 1
  store ptr %27, ptr %350, align 8
  %351 = getelementptr inbounds ptr, ptr %350, i64 1
  store ptr null, ptr %351, align 8
  %352 = getelementptr inbounds [3 x ptr], ptr %348, i64 1
  %353 = getelementptr inbounds [3 x ptr], ptr %352, i64 0, i64 0
  store ptr %27, ptr %353, align 8
  %354 = getelementptr inbounds ptr, ptr %353, i64 1
  store ptr null, ptr %354, align 8
  %355 = getelementptr inbounds ptr, ptr %354, i64 1
  store ptr %27, ptr %355, align 8
  %356 = getelementptr inbounds [3 x ptr], ptr %352, i64 1
  %357 = getelementptr inbounds [3 x ptr], ptr %356, i64 0, i64 0
  store ptr %27, ptr %357, align 8
  %358 = getelementptr inbounds ptr, ptr %357, i64 1
  store ptr %27, ptr %358, align 8
  %359 = getelementptr inbounds ptr, ptr %358, i64 1
  store ptr @_ZL6g_1810, ptr %359, align 8
  %360 = getelementptr inbounds [3 x ptr], ptr %356, i64 1
  %361 = getelementptr inbounds [3 x ptr], ptr %360, i64 0, i64 0
  store ptr @_ZL6g_1810, ptr %361, align 8
  %362 = getelementptr inbounds ptr, ptr %361, i64 1
  store ptr null, ptr %362, align 8
  %363 = getelementptr inbounds ptr, ptr %362, i64 1
  store ptr %27, ptr %363, align 8
  %364 = getelementptr inbounds [3 x ptr], ptr %360, i64 1
  %365 = getelementptr inbounds [3 x ptr], ptr %364, i64 0, i64 0
  store ptr @_ZL6g_1810, ptr %365, align 8
  %366 = getelementptr inbounds ptr, ptr %365, i64 1
  store ptr %27, ptr %366, align 8
  %367 = getelementptr inbounds ptr, ptr %366, i64 1
  store ptr %27, ptr %367, align 8
  %368 = getelementptr inbounds [3 x ptr], ptr %364, i64 1
  %369 = getelementptr inbounds [3 x ptr], ptr %368, i64 0, i64 0
  store ptr null, ptr %369, align 8
  %370 = getelementptr inbounds ptr, ptr %369, i64 1
  store ptr %27, ptr %370, align 8
  %371 = getelementptr inbounds ptr, ptr %370, i64 1
  store ptr null, ptr %371, align 8
  %372 = getelementptr inbounds [3 x ptr], ptr %368, i64 1
  %373 = getelementptr inbounds [3 x ptr], ptr %372, i64 0, i64 0
  store ptr %27, ptr %373, align 8
  %374 = getelementptr inbounds ptr, ptr %373, i64 1
  store ptr %27, ptr %374, align 8
  %375 = getelementptr inbounds ptr, ptr %374, i64 1
  store ptr null, ptr %375, align 8
  %376 = getelementptr inbounds [8 x [3 x ptr]], ptr %343, i64 1
  %377 = getelementptr inbounds [8 x [3 x ptr]], ptr %376, i64 0, i64 0
  %378 = getelementptr inbounds [3 x ptr], ptr %377, i64 0, i64 0
  call void @llvm.memcpy.p0.p0.i64(ptr align 8 %377, ptr align 8 @constinit.210, i64 24, i1 false)
  %379 = getelementptr inbounds [3 x ptr], ptr %377, i64 1
  %380 = getelementptr inbounds [3 x ptr], ptr %379, i64 0, i64 0
  store ptr %27, ptr %380, align 8
  %381 = getelementptr inbounds ptr, ptr %380, i64 1
  store ptr %27, ptr %381, align 8
  %382 = getelementptr inbounds ptr, ptr %381, i64 1
  store ptr %27, ptr %382, align 8
  %383 = getelementptr inbounds [3 x ptr], ptr %379, i64 1
  %384 = getelementptr inbounds [3 x ptr], ptr %383, i64 0, i64 0
  store ptr %27, ptr %384, align 8
  %385 = getelementptr inbounds ptr, ptr %384, i64 1
  store ptr null, ptr %385, align 8
  %386 = getelementptr inbounds ptr, ptr %385, i64 1
  store ptr @_ZL6g_1810, ptr %386, align 8
  %387 = getelementptr inbounds [3 x ptr], ptr %383, i64 1
  %388 = getelementptr inbounds [3 x ptr], ptr %387, i64 0, i64 0
  store ptr null, ptr %388, align 8
  %389 = getelementptr inbounds ptr, ptr %388, i64 1
  store ptr %27, ptr %389, align 8
  %390 = getelementptr inbounds ptr, ptr %389, i64 1
  store ptr %27, ptr %390, align 8
  %391 = getelementptr inbounds [3 x ptr], ptr %387, i64 1
  %392 = getelementptr inbounds [3 x ptr], ptr %391, i64 0, i64 0
  store ptr %27, ptr %392, align 8
  %393 = getelementptr inbounds ptr, ptr %392, i64 1
  store ptr %27, ptr %393, align 8
  %394 = getelementptr inbounds ptr, ptr %393, i64 1
  store ptr @_ZL6g_1810, ptr %394, align 8
  %395 = getelementptr inbounds [3 x ptr], ptr %391, i64 1
  %396 = getelementptr inbounds [3 x ptr], ptr %395, i64 0, i64 0
  store ptr @_ZL6g_1810, ptr %396, align 8
  %397 = getelementptr inbounds ptr, ptr %396, i64 1
  store ptr %27, ptr %397, align 8
  %398 = getelementptr inbounds ptr, ptr %397, i64 1
  store ptr %27, ptr %398, align 8
  %399 = getelementptr inbounds [3 x ptr], ptr %395, i64 1
  %400 = getelementptr inbounds [3 x ptr], ptr %399, i64 0, i64 0
  store ptr @_ZL6g_1810, ptr %400, align 8
  %401 = getelementptr inbounds ptr, ptr %400, i64 1
  store ptr null, ptr %401, align 8
  %402 = getelementptr inbounds ptr, ptr %401, i64 1
  store ptr %27, ptr %402, align 8
  %403 = getelementptr inbounds [3 x ptr], ptr %399, i64 1
  %404 = getelementptr inbounds [3 x ptr], ptr %403, i64 0, i64 0
  store ptr %27, ptr %404, align 8
  %405 = getelementptr inbounds ptr, ptr %404, i64 1
  store ptr %27, ptr %405, align 8
  %406 = getelementptr inbounds ptr, ptr %405, i64 1
  store ptr %27, ptr %406, align 8
  %407 = getelementptr inbounds [8 x [3 x ptr]], ptr %376, i64 1
  %408 = getelementptr inbounds [8 x [3 x ptr]], ptr %407, i64 0, i64 0
  %409 = getelementptr inbounds [3 x ptr], ptr %408, i64 0, i64 0
  call void @llvm.memcpy.p0.p0.i64(ptr align 8 %408, ptr align 8 @constinit.211, i64 24, i1 false)
  %410 = getelementptr inbounds [3 x ptr], ptr %408, i64 1
  %411 = getelementptr inbounds [3 x ptr], ptr %410, i64 0, i64 0
  store ptr @_ZL6g_1810, ptr %411, align 8
  %412 = getelementptr inbounds ptr, ptr %411, i64 1
  store ptr %27, ptr %412, align 8
  %413 = getelementptr inbounds ptr, ptr %412, i64 1
  store ptr %27, ptr %413, align 8
  %414 = getelementptr inbounds [3 x ptr], ptr %410, i64 1
  %415 = getelementptr inbounds [3 x ptr], ptr %414, i64 0, i64 0
  store ptr %27, ptr %415, align 8
  %416 = getelementptr inbounds ptr, ptr %415, i64 1
  store ptr %27, ptr %416, align 8
  %417 = getelementptr inbounds ptr, ptr %416, i64 1
  store ptr @_ZL6g_1810, ptr %417, align 8
  %418 = getelementptr inbounds [3 x ptr], ptr %414, i64 1
  %419 = getelementptr inbounds [3 x ptr], ptr %418, i64 0, i64 0
  store ptr %27, ptr %419, align 8
  %420 = getelementptr inbounds ptr, ptr %419, i64 1
  store ptr %27, ptr %420, align 8
  %421 = getelementptr inbounds ptr, ptr %420, i64 1
  store ptr null, ptr %421, align 8
  %422 = getelementptr inbounds [3 x ptr], ptr %418, i64 1
  %423 = getelementptr inbounds [3 x ptr], ptr %422, i64 0, i64 0
  store ptr %27, ptr %423, align 8
  %424 = getelementptr inbounds ptr, ptr %423, i64 1
  store ptr null, ptr %424, align 8
  %425 = getelementptr inbounds ptr, ptr %424, i64 1
  store ptr %27, ptr %425, align 8
  %426 = getelementptr inbounds [3 x ptr], ptr %422, i64 1
  %427 = getelementptr inbounds [3 x ptr], ptr %426, i64 0, i64 0
  store ptr %27, ptr %427, align 8
  %428 = getelementptr inbounds ptr, ptr %427, i64 1
  store ptr %27, ptr %428, align 8
  %429 = getelementptr inbounds ptr, ptr %428, i64 1
  store ptr @_ZL6g_1810, ptr %429, align 8
  %430 = getelementptr inbounds [3 x ptr], ptr %426, i64 1
  %431 = getelementptr inbounds [3 x ptr], ptr %430, i64 0, i64 0
  store ptr @_ZL6g_1810, ptr %431, align 8
  %432 = getelementptr inbounds ptr, ptr %431, i64 1
  store ptr null, ptr %432, align 8
  %433 = getelementptr inbounds ptr, ptr %432, i64 1
  store ptr %27, ptr %433, align 8
  %434 = getelementptr inbounds [3 x ptr], ptr %430, i64 1
  %435 = getelementptr inbounds [3 x ptr], ptr %434, i64 0, i64 0
  store ptr @_ZL6g_1810, ptr %435, align 8
  %436 = getelementptr inbounds ptr, ptr %435, i64 1
  store ptr %27, ptr %436, align 8
  %437 = getelementptr inbounds ptr, ptr %436, i64 1
  store ptr %27, ptr %437, align 8
  %438 = getelementptr inbounds [8 x [3 x ptr]], ptr %407, i64 1
  %439 = getelementptr inbounds [8 x [3 x ptr]], ptr %438, i64 0, i64 0
  %440 = getelementptr inbounds [3 x ptr], ptr %439, i64 0, i64 0
  store ptr null, ptr %440, align 8
  %441 = getelementptr inbounds ptr, ptr %440, i64 1
  store ptr %27, ptr %441, align 8
  %442 = getelementptr inbounds ptr, ptr %441, i64 1
  store ptr null, ptr %442, align 8
  %443 = getelementptr inbounds [3 x ptr], ptr %439, i64 1
  %444 = getelementptr inbounds [3 x ptr], ptr %443, i64 0, i64 0
  store ptr %27, ptr %444, align 8
  %445 = getelementptr inbounds ptr, ptr %444, i64 1
  store ptr %27, ptr %445, align 8
  %446 = getelementptr inbounds ptr, ptr %445, i64 1
  store ptr null, ptr %446, align 8
  %447 = getelementptr inbounds [3 x ptr], ptr %443, i64 1
  %448 = getelementptr inbounds [3 x ptr], ptr %447, i64 0, i64 0
  call void @llvm.memcpy.p0.p0.i64(ptr align 8 %447, ptr align 8 @constinit.212, i64 24, i1 false)
  %449 = getelementptr inbounds [3 x ptr], ptr %447, i64 1
  %450 = getelementptr inbounds [3 x ptr], ptr %449, i64 0, i64 0
  store ptr %27, ptr %450, align 8
  %451 = getelementptr inbounds ptr, ptr %450, i64 1
  store ptr %27, ptr %451, align 8
  %452 = getelementptr inbounds ptr, ptr %451, i64 1
  store ptr %27, ptr %452, align 8
  %453 = getelementptr inbounds [3 x ptr], ptr %449, i64 1
  %454 = getelementptr inbounds [3 x ptr], ptr %453, i64 0, i64 0
  store ptr %27, ptr %454, align 8
  %455 = getelementptr inbounds ptr, ptr %454, i64 1
  store ptr null, ptr %455, align 8
  %456 = getelementptr inbounds ptr, ptr %455, i64 1
  store ptr @_ZL6g_1810, ptr %456, align 8
  %457 = getelementptr inbounds [3 x ptr], ptr %453, i64 1
  %458 = getelementptr inbounds [3 x ptr], ptr %457, i64 0, i64 0
  store ptr null, ptr %458, align 8
  %459 = getelementptr inbounds ptr, ptr %458, i64 1
  store ptr %27, ptr %459, align 8
  %460 = getelementptr inbounds ptr, ptr %459, i64 1
  store ptr %27, ptr %460, align 8
  %461 = getelementptr inbounds [3 x ptr], ptr %457, i64 1
  %462 = getelementptr inbounds [3 x ptr], ptr %461, i64 0, i64 0
  store ptr %27, ptr %462, align 8
  %463 = getelementptr inbounds ptr, ptr %462, i64 1
  store ptr %27, ptr %463, align 8
  %464 = getelementptr inbounds ptr, ptr %463, i64 1
  store ptr @_ZL6g_1810, ptr %464, align 8
  %465 = getelementptr inbounds [3 x ptr], ptr %461, i64 1
  %466 = getelementptr inbounds [3 x ptr], ptr %465, i64 0, i64 0
  store ptr @_ZL6g_1810, ptr %466, align 8
  %467 = getelementptr inbounds ptr, ptr %466, i64 1
  store ptr %27, ptr %467, align 8
  %468 = getelementptr inbounds ptr, ptr %467, i64 1
  store ptr %27, ptr %468, align 8
  store i32 1, ptr %30, align 4
  store ptr @_ZL6g_2178, ptr %31, align 8
  store i32 -1, ptr %32, align 4
  %469 = getelementptr inbounds [5 x [2 x i32]], ptr %11, i64 0, i64 1
  %470 = getelementptr inbounds [2 x i32], ptr %469, i64 0, i64 1
  store ptr %470, ptr %17, align 8
  br label %471

471:                                              ; preds = %187
  %472 = load i32, ptr @_ZL6g_2236, align 4
  %473 = add nsw i32 %472, 1
  store i32 %473, ptr @_ZL6g_2236, align 4
  br label %184, !llvm.loop !70

474:                                              ; preds = %184
  %475 = load ptr, ptr %17, align 8
  %476 = load i32, ptr %475, align 4
  %477 = call noundef i32 @_ZL28safe_lshift_func_int32_t_s_uij(i32 noundef %476, i32 noundef 6)
  %478 = trunc i32 %477 to i16
  %479 = call noundef signext i16 @_ZL31safe_unary_minus_func_int16_t_ss(i16 noundef signext %478)
  %480 = sext i16 %479 to i32
  %481 = getelementptr inbounds [4 x ptr], ptr %21, i64 0, i64 2
  %482 = load ptr, ptr %481, align 16
  %483 = getelementptr inbounds [9 x [7 x [3 x ptr]]], ptr %20, i64 0, i64 3
  %484 = getelementptr inbounds [7 x [3 x ptr]], ptr %483, i64 0, i64 3
  %485 = getelementptr inbounds [3 x ptr], ptr %484, i64 0, i64 2
  %486 = icmp eq ptr %482, %485
  br i1 %486, label %487, label %513

487:                                              ; preds = %474
  %488 = load ptr, ptr %6, align 8
  %489 = load ptr, ptr %488, align 8
  %490 = load ptr, ptr %489, align 8
  %491 = load ptr, ptr %490, align 8
  store i64 1028089872881922533, ptr %491, align 8
  %492 = load ptr, ptr %17, align 8
  %493 = load ptr, ptr @_ZL6g_2643, align 8
  %494 = load ptr, ptr %493, align 8
  store i64 -6630131004112854607, ptr %494, align 8
  %495 = call noundef i64 @_ZL28safe_rshift_func_int64_t_s_sli(i64 noundef 1028089872881922533, i32 noundef -846421583)
  %496 = load ptr, ptr %17, align 8
  %497 = load i32, ptr %496, align 4
  %498 = icmp slt i32 0, %497
  %499 = zext i1 %498 to i32
  %500 = load i32, ptr @_ZL6g_2843, align 4
  %501 = icmp ne i32 %499, %500
  %502 = zext i1 %501 to i64
  %503 = or i64 %495, %502
  %504 = trunc i64 %503 to i8
  %505 = call noundef zeroext i8 @_ZL28safe_rshift_func_uint8_t_u_uhj(i8 noundef zeroext %504, i32 noundef 1)
  %506 = getelementptr inbounds [6 x i32], ptr %22, i64 0, i64 5
  %507 = load i32, ptr %506, align 4
  %508 = sext i32 %507 to i64
  %509 = icmp eq i64 4, %508
  %510 = zext i1 %509 to i32
  %511 = call noundef i64 @_ZL29safe_lshift_func_uint64_t_u_umj(i64 noundef -7, i32 noundef %510)
  store i64 %511, ptr @_ZL6g_3743, align 8
  %512 = icmp ne i64 %511, 0
  br label %513

513:                                              ; preds = %487, %474
  %514 = phi i1 [ false, %474 ], [ %512, %487 ]
  %515 = zext i1 %514 to i64
  %516 = load i64, ptr %14, align 8
  %517 = icmp ule i64 %515, %516
  %518 = zext i1 %517 to i32
  %519 = icmp slt i32 %480, %518
  %520 = zext i1 %519 to i32
  %521 = load ptr, ptr %17, align 8
  store i32 %520, ptr %521, align 4
  br label %522

522:                                              ; preds = %513
  %523 = load i32, ptr @_ZL6g_2406, align 4
  %524 = add nsw i32 %523, 1
  store i32 %524, ptr @_ZL6g_2406, align 4
  br label %153, !llvm.loop !71

525:                                              ; preds = %153
  %526 = load i8, ptr @_ZL6g_3338, align 1
  store i8 %526, ptr %1, align 1
  br label %527

527:                                              ; preds = %525, %144
  %528 = load i8, ptr %1, align 1
  ret i8 %528
}

; Function Attrs: mustprogress noinline nounwind optnone sspstrong uwtable
define internal void @_ZL15transparent_crcmPci(i64 noundef %0, ptr noundef %1, i32 noundef %2) #2 {
  %4 = alloca i64, align 8
  %5 = alloca ptr, align 8
  %6 = alloca i32, align 4
  store i64 %0, ptr %4, align 8
  store ptr %1, ptr %5, align 8
  store i32 %2, ptr %6, align 4
  %7 = load i64, ptr %4, align 8
  call void @_ZL12crc32_8bytesm(i64 noundef %7)
  %8 = load i32, ptr %6, align 4
  %9 = icmp ne i32 %8, 0
  br i1 %9, label %10, label %16

10:                                               ; preds = %3
  %11 = load ptr, ptr %5, align 8
  %12 = load i32, ptr @_ZL13crc32_context, align 4
  %13 = zext i32 %12 to i64
  %14 = xor i64 %13, 4294967295
  %15 = call i32 (ptr, ...) @printf(ptr noundef @.str.216, ptr noundef %11, i64 noundef %14)
  br label %16

16:                                               ; preds = %10, %3
  ret void
}

declare i32 @printf(ptr noundef, ...) #3

; Function Attrs: mustprogress noinline nounwind optnone sspstrong uwtable
define internal void @_ZL17platform_main_endji(i32 noundef %0, i32 noundef %1) #2 {
  %3 = alloca i32, align 4
  %4 = alloca i32, align 4
  store i32 %0, ptr %3, align 4
  store i32 %1, ptr %4, align 4
  %5 = load i32, ptr %3, align 4
  %6 = call i32 (ptr, ...) @printf(ptr noundef @.str.217, i32 noundef %5)
  ret void
}

; Function Attrs: nocallback nofree nounwind willreturn memory(argmem: readwrite)
declare void @llvm.memcpy.p0.p0.i64(ptr noalias nocapture writeonly, ptr noalias nocapture readonly, i64, i1 immarg) #4

; Function Attrs: nocallback nofree nounwind willreturn memory(argmem: write)
declare void @llvm.memset.p0.i64(ptr nocapture writeonly, i8, i64, i1 immarg) #5

; Function Attrs: mustprogress noinline nounwind optnone sspstrong uwtable
define internal noundef signext i8 @_ZL24safe_sub_func_int8_t_s_saa(i8 noundef signext %0, i8 noundef signext %1) #2 {
  %3 = alloca i8, align 1
  %4 = alloca i8, align 1
  store i8 %0, ptr %3, align 1
  store i8 %1, ptr %4, align 1
  %5 = load i8, ptr %3, align 1
  %6 = sext i8 %5 to i32
  %7 = load i8, ptr %4, align 1
  %8 = sext i8 %7 to i32
  %9 = sub nsw i32 %6, %8
  %10 = trunc i32 %9 to i8
  ret i8 %10
}

; Function Attrs: mustprogress noinline nounwind optnone sspstrong uwtable
define internal noundef i32 @_ZL29safe_rshift_func_uint32_t_u_ujj(i32 noundef %0, i32 noundef %1) #2 {
  %3 = alloca i32, align 4
  %4 = alloca i32, align 4
  store i32 %0, ptr %3, align 4
  store i32 %1, ptr %4, align 4
  %5 = load i32, ptr %4, align 4
  %6 = icmp uge i32 %5, 32
  br i1 %6, label %7, label %9

7:                                                ; preds = %2
  %8 = load i32, ptr %3, align 4
  br label %13

9:                                                ; preds = %2
  %10 = load i32, ptr %3, align 4
  %11 = load i32, ptr %4, align 4
  %12 = lshr i32 %10, %11
  br label %13

13:                                               ; preds = %9, %7
  %14 = phi i32 [ %8, %7 ], [ %12, %9 ]
  ret i32 %14
}

; Function Attrs: mustprogress noinline nounwind optnone sspstrong uwtable
define internal noundef zeroext i16 @_ZL26safe_mod_func_uint16_t_u_utt(i16 noundef zeroext %0, i16 noundef zeroext %1) #2 {
  %3 = alloca i16, align 2
  %4 = alloca i16, align 2
  store i16 %0, ptr %3, align 2
  store i16 %1, ptr %4, align 2
  %5 = load i16, ptr %4, align 2
  %6 = zext i16 %5 to i32
  %7 = icmp eq i32 %6, 0
  br i1 %7, label %8, label %11

8:                                                ; preds = %2
  %9 = load i16, ptr %3, align 2
  %10 = zext i16 %9 to i32
  br label %17

11:                                               ; preds = %2
  %12 = load i16, ptr %3, align 2
  %13 = zext i16 %12 to i32
  %14 = load i16, ptr %4, align 2
  %15 = zext i16 %14 to i32
  %16 = srem i32 %13, %15
  br label %17

17:                                               ; preds = %11, %8
  %18 = phi i32 [ %10, %8 ], [ %16, %11 ]
  %19 = trunc i32 %18 to i16
  ret i16 %19
}

; Function Attrs: mustprogress noinline nounwind optnone sspstrong uwtable
define internal noundef signext i8 @_ZL7func_10i(i32 noundef %0) #2 {
  %2 = alloca i32, align 4
  %3 = alloca i8, align 1
  %4 = alloca [4 x [9 x i8]], align 16
  %5 = alloca [10 x [5 x [5 x i32]]], align 16
  %6 = alloca i32, align 4
  %7 = alloca [6 x [10 x ptr]], align 16
  %8 = alloca i16, align 2
  %9 = alloca i16, align 2
  %10 = alloca i8, align 1
  %11 = alloca ptr, align 8
  %12 = alloca ptr, align 8
  %13 = alloca ptr, align 8
  %14 = alloca i32, align 4
  %15 = alloca i32, align 4
  %16 = alloca ptr, align 8
  %17 = alloca ptr, align 8
  %18 = alloca ptr, align 8
  %19 = alloca [8 x [9 x i32]], align 16
  %20 = alloca i32, align 4
  %21 = alloca ptr, align 8
  %22 = alloca [8 x i8], align 1
  %23 = alloca [8 x i16], align 16
  %24 = alloca i64, align 8
  %25 = alloca ptr, align 8
  %26 = alloca [4 x i32], align 16
  %27 = alloca i32, align 4
  %28 = alloca ptr, align 8
  %29 = alloca ptr, align 8
  %30 = alloca i32, align 4
  %31 = alloca ptr, align 8
  %32 = alloca i64, align 8
  %33 = alloca [6 x [4 x [2 x ptr]]], align 16
  %34 = alloca ptr, align 8
  %35 = alloca i32, align 4
  %36 = alloca i64, align 8
  %37 = alloca ptr, align 8
  %38 = alloca ptr, align 8
  %39 = alloca i16, align 2
  %40 = alloca [5 x i32], align 16
  %41 = alloca i64, align 8
  %42 = alloca i8, align 1
  %43 = alloca [8 x i32], align 16
  %44 = alloca [6 x [6 x i16]], align 16
  %45 = alloca i64, align 8
  %46 = alloca [2 x [2 x [9 x i16]]], align 16
  %47 = alloca ptr, align 8
  %48 = alloca [3 x [3 x [3 x ptr]]], align 16
  %49 = alloca [10 x i16], align 16
  %50 = alloca [3 x [6 x i64]], align 16
  %51 = alloca [10 x i64], align 16
  %52 = alloca ptr, align 8
  %53 = alloca [10 x ptr], align 16
  %54 = alloca i64, align 8
  %55 = alloca i16, align 2
  %56 = alloca i64, align 8
  %57 = alloca i16, align 2
  %58 = alloca i16, align 2
  %59 = alloca ptr, align 8
  %60 = alloca ptr, align 8
  %61 = alloca [9 x [6 x [4 x ptr]]], align 16
  %62 = alloca [3 x i32], align 4
  %63 = alloca i64, align 8
  %64 = alloca i8, align 1
  %65 = alloca i32, align 4
  %66 = alloca i32, align 4
  %67 = alloca [3 x [5 x i64]], align 16
  %68 = alloca ptr, align 8
  %69 = alloca i32, align 4
  %70 = alloca i32, align 4
  %71 = alloca i32, align 4
  store i32 %0, ptr %2, align 4
  store i8 30, ptr %3, align 1
  call void @llvm.memcpy.p0.p0.i64(ptr align 16 %4, ptr align 16 @__const._ZL7func_10i.l_1253, i64 36, i1 false)
  call void @llvm.memcpy.p0.p0.i64(ptr align 16 %5, ptr align 16 @__const._ZL7func_10i.l_1260, i64 1000, i1 false)
  store i32 -1, ptr %6, align 4
  call void @llvm.memcpy.p0.p0.i64(ptr align 16 %7, ptr align 16 @__const._ZL7func_10i.l_1293, i64 480, i1 false)
  store i16 1, ptr %8, align 2
  store i16 -4, ptr %9, align 2
  store i8 4, ptr %10, align 1
  store ptr @_ZL5g_786, ptr %11, align 8
  store ptr %11, ptr %12, align 8
  store ptr %12, ptr %13, align 8
  store i32 -1040430112, ptr %14, align 4
  store i32 -3, ptr %15, align 4
  store ptr getelementptr inbounds ([8 x i32], ptr @_ZL5g_113, i64 0, i64 7), ptr %16, align 8
  store ptr @_ZL6g_1000, ptr %17, align 8
  store ptr %17, ptr %18, align 8
  call void @llvm.memcpy.p0.p0.i64(ptr align 16 %19, ptr align 16 @__const._ZL7func_10i.l_1462, i64 288, i1 false)
  store i32 -331005083, ptr %20, align 4
  store ptr getelementptr inbounds ([5 x i8], ptr @_ZL4g_43, i64 0, i64 4), ptr %21, align 8
  call void @llvm.memcpy.p0.p0.i64(ptr align 1 %22, ptr align 1 @__const._ZL7func_10i.l_1532, i64 8, i1 false)
  call void @llvm.memcpy.p0.p0.i64(ptr align 16 %23, ptr align 16 @__const._ZL7func_10i.l_1533, i64 16, i1 false)
  store i64 -1, ptr %24, align 8
  store ptr %6, ptr %25, align 8
  store i32 0, ptr %27, align 4
  %72 = getelementptr inbounds [8 x [9 x i32]], ptr %19, i64 0, i64 2
  %73 = getelementptr inbounds [9 x i32], ptr %72, i64 0, i64 4
  store ptr %73, ptr %28, align 8
  store ptr @_ZL5g_482, ptr %29, align 8
  store i32 0, ptr %30, align 4
  store ptr @_ZL6g_1811, ptr %31, align 8
  store i64 3950363801574707954, ptr %32, align 8
  %74 = getelementptr inbounds [6 x [4 x [2 x ptr]]], ptr %33, i64 0, i64 0
  %75 = getelementptr inbounds [4 x [2 x ptr]], ptr %74, i64 0, i64 0
  %76 = getelementptr inbounds [2 x ptr], ptr %75, i64 0, i64 0
  store ptr %9, ptr %76, align 8
  %77 = getelementptr inbounds ptr, ptr %76, i64 1
  store ptr getelementptr inbounds ([9 x i16], ptr getelementptr inbounds ([6 x [1 x [9 x i16]]], ptr @_ZL5g_172, i64 0, i64 4), i64 0, i64 3), ptr %77, align 8
  %78 = getelementptr inbounds [2 x ptr], ptr %75, i64 1
  %79 = getelementptr inbounds [2 x ptr], ptr %78, i64 0, i64 0
  store ptr null, ptr %79, align 8
  %80 = getelementptr inbounds ptr, ptr %79, i64 1
  store ptr @_ZL4g_93, ptr %80, align 8
  %81 = getelementptr inbounds [2 x ptr], ptr %78, i64 1
  %82 = getelementptr inbounds [2 x ptr], ptr %81, i64 0, i64 0
  store ptr getelementptr inbounds ([9 x i16], ptr getelementptr inbounds ([6 x [1 x [9 x i16]]], ptr @_ZL5g_172, i64 0, i64 4), i64 0, i64 3), ptr %82, align 8
  %83 = getelementptr inbounds ptr, ptr %82, i64 1
  store ptr @_ZL4g_93, ptr %83, align 8
  %84 = getelementptr inbounds [2 x ptr], ptr %81, i64 1
  %85 = getelementptr inbounds [2 x ptr], ptr %84, i64 0, i64 0
  store ptr null, ptr %85, align 8
  %86 = getelementptr inbounds ptr, ptr %85, i64 1
  store ptr getelementptr inbounds ([9 x i16], ptr getelementptr inbounds ([6 x [1 x [9 x i16]]], ptr @_ZL5g_172, i64 0, i64 4), i64 0, i64 3), ptr %86, align 8
  %87 = getelementptr inbounds [4 x [2 x ptr]], ptr %74, i64 1
  %88 = getelementptr inbounds [4 x [2 x ptr]], ptr %87, i64 0, i64 0
  %89 = getelementptr inbounds [2 x ptr], ptr %88, i64 0, i64 0
  store ptr %9, ptr %89, align 8
  %90 = getelementptr inbounds ptr, ptr %89, i64 1
  store ptr %9, ptr %90, align 8
  %91 = getelementptr inbounds [2 x ptr], ptr %88, i64 1
  %92 = getelementptr inbounds [2 x ptr], ptr %91, i64 0, i64 0
  store ptr %9, ptr %92, align 8
  %93 = getelementptr inbounds ptr, ptr %92, i64 1
  store ptr getelementptr inbounds ([9 x i16], ptr getelementptr inbounds ([6 x [1 x [9 x i16]]], ptr @_ZL5g_172, i64 0, i64 4), i64 0, i64 3), ptr %93, align 8
  %94 = getelementptr inbounds [2 x ptr], ptr %91, i64 1
  %95 = getelementptr inbounds [2 x ptr], ptr %94, i64 0, i64 0
  store ptr null, ptr %95, align 8
  %96 = getelementptr inbounds ptr, ptr %95, i64 1
  store ptr @_ZL4g_93, ptr %96, align 8
  %97 = getelementptr inbounds [2 x ptr], ptr %94, i64 1
  %98 = getelementptr inbounds [2 x ptr], ptr %97, i64 0, i64 0
  store ptr getelementptr inbounds ([9 x i16], ptr getelementptr inbounds ([6 x [1 x [9 x i16]]], ptr @_ZL5g_172, i64 0, i64 4), i64 0, i64 3), ptr %98, align 8
  %99 = getelementptr inbounds ptr, ptr %98, i64 1
  store ptr @_ZL4g_93, ptr %99, align 8
  %100 = getelementptr inbounds [4 x [2 x ptr]], ptr %87, i64 1
  %101 = getelementptr inbounds [4 x [2 x ptr]], ptr %100, i64 0, i64 0
  %102 = getelementptr inbounds [2 x ptr], ptr %101, i64 0, i64 0
  store ptr null, ptr %102, align 8
  %103 = getelementptr inbounds ptr, ptr %102, i64 1
  store ptr getelementptr inbounds ([9 x i16], ptr getelementptr inbounds ([6 x [1 x [9 x i16]]], ptr @_ZL5g_172, i64 0, i64 4), i64 0, i64 3), ptr %103, align 8
  %104 = getelementptr inbounds [2 x ptr], ptr %101, i64 1
  %105 = getelementptr inbounds [2 x ptr], ptr %104, i64 0, i64 0
  store ptr %9, ptr %105, align 8
  %106 = getelementptr inbounds ptr, ptr %105, i64 1
  store ptr %9, ptr %106, align 8
  %107 = getelementptr inbounds [2 x ptr], ptr %104, i64 1
  %108 = getelementptr inbounds [2 x ptr], ptr %107, i64 0, i64 0
  store ptr %9, ptr %108, align 8
  %109 = getelementptr inbounds ptr, ptr %108, i64 1
  store ptr getelementptr inbounds ([9 x i16], ptr getelementptr inbounds ([6 x [1 x [9 x i16]]], ptr @_ZL5g_172, i64 0, i64 4), i64 0, i64 3), ptr %109, align 8
  %110 = getelementptr inbounds [2 x ptr], ptr %107, i64 1
  %111 = getelementptr inbounds [2 x ptr], ptr %110, i64 0, i64 0
  store ptr null, ptr %111, align 8
  %112 = getelementptr inbounds ptr, ptr %111, i64 1
  store ptr @_ZL4g_93, ptr %112, align 8
  %113 = getelementptr inbounds [4 x [2 x ptr]], ptr %100, i64 1
  %114 = getelementptr inbounds [4 x [2 x ptr]], ptr %113, i64 0, i64 0
  %115 = getelementptr inbounds [2 x ptr], ptr %114, i64 0, i64 0
  store ptr getelementptr inbounds ([9 x i16], ptr getelementptr inbounds ([6 x [1 x [9 x i16]]], ptr @_ZL5g_172, i64 0, i64 4), i64 0, i64 3), ptr %115, align 8
  %116 = getelementptr inbounds ptr, ptr %115, i64 1
  store ptr @_ZL4g_93, ptr %116, align 8
  %117 = getelementptr inbounds [2 x ptr], ptr %114, i64 1
  %118 = getelementptr inbounds [2 x ptr], ptr %117, i64 0, i64 0
  store ptr null, ptr %118, align 8
  %119 = getelementptr inbounds ptr, ptr %118, i64 1
  store ptr getelementptr inbounds ([9 x i16], ptr getelementptr inbounds ([6 x [1 x [9 x i16]]], ptr @_ZL5g_172, i64 0, i64 4), i64 0, i64 3), ptr %119, align 8
  %120 = getelementptr inbounds [2 x ptr], ptr %117, i64 1
  %121 = getelementptr inbounds [2 x ptr], ptr %120, i64 0, i64 0
  store ptr %9, ptr %121, align 8
  %122 = getelementptr inbounds ptr, ptr %121, i64 1
  store ptr %9, ptr %122, align 8
  %123 = getelementptr inbounds [2 x ptr], ptr %120, i64 1
  %124 = getelementptr inbounds [2 x ptr], ptr %123, i64 0, i64 0
  store ptr %9, ptr %124, align 8
  %125 = getelementptr inbounds ptr, ptr %124, i64 1
  store ptr getelementptr inbounds ([9 x i16], ptr getelementptr inbounds ([6 x [1 x [9 x i16]]], ptr @_ZL5g_172, i64 0, i64 4), i64 0, i64 3), ptr %125, align 8
  %126 = getelementptr inbounds [4 x [2 x ptr]], ptr %113, i64 1
  %127 = getelementptr inbounds [4 x [2 x ptr]], ptr %126, i64 0, i64 0
  %128 = getelementptr inbounds [2 x ptr], ptr %127, i64 0, i64 0
  store ptr null, ptr %128, align 8
  %129 = getelementptr inbounds ptr, ptr %128, i64 1
  store ptr @_ZL4g_93, ptr %129, align 8
  %130 = getelementptr inbounds [2 x ptr], ptr %127, i64 1
  %131 = getelementptr inbounds [2 x ptr], ptr %130, i64 0, i64 0
  store ptr getelementptr inbounds ([9 x i16], ptr getelementptr inbounds ([6 x [1 x [9 x i16]]], ptr @_ZL5g_172, i64 0, i64 4), i64 0, i64 3), ptr %131, align 8
  %132 = getelementptr inbounds ptr, ptr %131, i64 1
  store ptr @_ZL4g_93, ptr %132, align 8
  %133 = getelementptr inbounds [2 x ptr], ptr %130, i64 1
  %134 = getelementptr inbounds [2 x ptr], ptr %133, i64 0, i64 0
  store ptr null, ptr %134, align 8
  %135 = getelementptr inbounds ptr, ptr %134, i64 1
  store ptr getelementptr inbounds ([9 x i16], ptr getelementptr inbounds ([6 x [1 x [9 x i16]]], ptr @_ZL5g_172, i64 0, i64 4), i64 0, i64 3), ptr %135, align 8
  %136 = getelementptr inbounds [2 x ptr], ptr %133, i64 1
  %137 = getelementptr inbounds [2 x ptr], ptr %136, i64 0, i64 0
  store ptr %9, ptr %137, align 8
  %138 = getelementptr inbounds ptr, ptr %137, i64 1
  store ptr %9, ptr %138, align 8
  %139 = getelementptr inbounds [4 x [2 x ptr]], ptr %126, i64 1
  %140 = getelementptr inbounds [4 x [2 x ptr]], ptr %139, i64 0, i64 0
  %141 = getelementptr inbounds [2 x ptr], ptr %140, i64 0, i64 0
  store ptr %9, ptr %141, align 8
  %142 = getelementptr inbounds ptr, ptr %141, i64 1
  store ptr getelementptr inbounds ([9 x i16], ptr getelementptr inbounds ([6 x [1 x [9 x i16]]], ptr @_ZL5g_172, i64 0, i64 4), i64 0, i64 3), ptr %142, align 8
  %143 = getelementptr inbounds [2 x ptr], ptr %140, i64 1
  %144 = getelementptr inbounds [2 x ptr], ptr %143, i64 0, i64 0
  store ptr null, ptr %144, align 8
  %145 = getelementptr inbounds ptr, ptr %144, i64 1
  store ptr @_ZL4g_93, ptr %145, align 8
  %146 = getelementptr inbounds [2 x ptr], ptr %143, i64 1
  %147 = getelementptr inbounds [2 x ptr], ptr %146, i64 0, i64 0
  store ptr getelementptr inbounds ([9 x i16], ptr getelementptr inbounds ([6 x [1 x [9 x i16]]], ptr @_ZL5g_172, i64 0, i64 4), i64 0, i64 3), ptr %147, align 8
  %148 = getelementptr inbounds ptr, ptr %147, i64 1
  store ptr @_ZL4g_93, ptr %148, align 8
  %149 = getelementptr inbounds [2 x ptr], ptr %146, i64 1
  %150 = getelementptr inbounds [2 x ptr], ptr %149, i64 0, i64 0
  store ptr null, ptr %150, align 8
  %151 = getelementptr inbounds ptr, ptr %150, i64 1
  store ptr getelementptr inbounds ([9 x i16], ptr getelementptr inbounds ([6 x [1 x [9 x i16]]], ptr @_ZL5g_172, i64 0, i64 4), i64 0, i64 3), ptr %151, align 8
  %152 = getelementptr inbounds [6 x [4 x [2 x ptr]]], ptr %33, i64 0, i64 0
  %153 = getelementptr inbounds [4 x [2 x ptr]], ptr %152, i64 0, i64 0
  %154 = getelementptr inbounds [2 x ptr], ptr %153, i64 0, i64 0
  store ptr %154, ptr %34, align 8
  store i32 -1527645559, ptr %35, align 4
  store i64 3492017885770941914, ptr %36, align 8
  store ptr null, ptr %37, align 8
  store ptr @_ZL5g_118, ptr %38, align 8
  store i16 1254, ptr %39, align 2
  call void @llvm.memset.p0.i64(ptr align 16 %40, i8 0, i64 20, i1 false)
  store i64 -1, ptr %41, align 8
  store i8 8, ptr %42, align 1
  call void @llvm.memcpy.p0.p0.i64(ptr align 16 %43, ptr align 16 @__const._ZL7func_10i.l_2205, i64 32, i1 false)
  call void @llvm.memcpy.p0.p0.i64(ptr align 16 %44, ptr align 16 @__const._ZL7func_10i.l_2318, i64 72, i1 false)
  store i64 3185028329024954807, ptr %45, align 8
  store ptr %31, ptr %47, align 8
  call void @llvm.memcpy.p0.p0.i64(ptr align 16 %48, ptr align 16 @__const._ZL7func_10i.l_2369, i64 216, i1 false)
  call void @llvm.memcpy.p0.p0.i64(ptr align 16 %49, ptr align 16 @__const._ZL7func_10i.l_2370, i64 20, i1 false)
  call void @llvm.memcpy.p0.p0.i64(ptr align 16 %50, ptr align 16 @__const._ZL7func_10i.l_2476, i64 144, i1 false)
  call void @llvm.memset.p0.i64(ptr align 16 %51, i8 0, i64 80, i1 false)
  %155 = getelementptr inbounds [10 x i64], ptr %51, i32 0, i32 0
  store i64 1, ptr %155, align 16
  %156 = getelementptr inbounds [10 x i64], ptr %51, i32 0, i32 2
  store i64 1, ptr %156, align 16
  %157 = getelementptr inbounds [10 x i64], ptr %51, i32 0, i32 4
  store i64 1, ptr %157, align 16
  %158 = getelementptr inbounds [10 x i64], ptr %51, i32 0, i32 6
  store i64 1, ptr %158, align 16
  %159 = getelementptr inbounds [10 x i64], ptr %51, i32 0, i32 8
  store i64 1, ptr %159, align 16
  store ptr @_ZL6g_2490, ptr %52, align 8
  %160 = getelementptr inbounds [10 x ptr], ptr %53, i64 0, i64 0
  store ptr %52, ptr %160, align 8
  %161 = getelementptr inbounds ptr, ptr %160, i64 1
  store ptr %52, ptr %161, align 8
  %162 = getelementptr inbounds ptr, ptr %161, i64 1
  store ptr %52, ptr %162, align 8
  %163 = getelementptr inbounds ptr, ptr %162, i64 1
  store ptr %52, ptr %163, align 8
  %164 = getelementptr inbounds ptr, ptr %163, i64 1
  store ptr %52, ptr %164, align 8
  %165 = getelementptr inbounds ptr, ptr %164, i64 1
  store ptr %52, ptr %165, align 8
  %166 = getelementptr inbounds ptr, ptr %165, i64 1
  store ptr %52, ptr %166, align 8
  %167 = getelementptr inbounds ptr, ptr %166, i64 1
  store ptr %52, ptr %167, align 8
  %168 = getelementptr inbounds ptr, ptr %167, i64 1
  store ptr %52, ptr %168, align 8
  %169 = getelementptr inbounds ptr, ptr %168, i64 1
  store ptr %52, ptr %169, align 8
  store i64 1, ptr %54, align 8
  store i16 1, ptr %55, align 2
  store i64 -882171742450853574, ptr %56, align 8
  store i16 1, ptr %57, align 2
  store i16 -31261, ptr %58, align 2
  store ptr %37, ptr %59, align 8
  store ptr %59, ptr %60, align 8
  %170 = getelementptr inbounds [9 x [6 x [4 x ptr]]], ptr %61, i64 0, i64 0
  %171 = getelementptr inbounds [6 x [4 x ptr]], ptr %170, i64 0, i64 0
  %172 = getelementptr inbounds [4 x ptr], ptr %171, i64 0, i64 0
  store ptr %60, ptr %172, align 8
  %173 = getelementptr inbounds ptr, ptr %172, i64 1
  store ptr null, ptr %173, align 8
  %174 = getelementptr inbounds ptr, ptr %173, i64 1
  store ptr %60, ptr %174, align 8
  %175 = getelementptr inbounds ptr, ptr %174, i64 1
  store ptr %60, ptr %175, align 8
  %176 = getelementptr inbounds [4 x ptr], ptr %171, i64 1
  %177 = getelementptr inbounds [4 x ptr], ptr %176, i64 0, i64 0
  store ptr %60, ptr %177, align 8
  %178 = getelementptr inbounds ptr, ptr %177, i64 1
  store ptr %60, ptr %178, align 8
  %179 = getelementptr inbounds ptr, ptr %178, i64 1
  store ptr %60, ptr %179, align 8
  %180 = getelementptr inbounds ptr, ptr %179, i64 1
  store ptr %60, ptr %180, align 8
  %181 = getelementptr inbounds [4 x ptr], ptr %176, i64 1
  %182 = getelementptr inbounds [4 x ptr], ptr %181, i64 0, i64 0
  store ptr %60, ptr %182, align 8
  %183 = getelementptr inbounds ptr, ptr %182, i64 1
  store ptr %60, ptr %183, align 8
  %184 = getelementptr inbounds ptr, ptr %183, i64 1
  store ptr %60, ptr %184, align 8
  %185 = getelementptr inbounds ptr, ptr %184, i64 1
  store ptr %60, ptr %185, align 8
  %186 = getelementptr inbounds [4 x ptr], ptr %181, i64 1
  %187 = getelementptr inbounds [4 x ptr], ptr %186, i64 0, i64 0
  store ptr null, ptr %187, align 8
  %188 = getelementptr inbounds ptr, ptr %187, i64 1
  store ptr null, ptr %188, align 8
  %189 = getelementptr inbounds ptr, ptr %188, i64 1
  store ptr %60, ptr %189, align 8
  %190 = getelementptr inbounds ptr, ptr %189, i64 1
  store ptr %60, ptr %190, align 8
  %191 = getelementptr inbounds [4 x ptr], ptr %186, i64 1
  %192 = getelementptr inbounds [4 x ptr], ptr %191, i64 0, i64 0
  store ptr %60, ptr %192, align 8
  %193 = getelementptr inbounds ptr, ptr %192, i64 1
  store ptr %60, ptr %193, align 8
  %194 = getelementptr inbounds ptr, ptr %193, i64 1
  store ptr %60, ptr %194, align 8
  %195 = getelementptr inbounds ptr, ptr %194, i64 1
  store ptr null, ptr %195, align 8
  %196 = getelementptr inbounds [4 x ptr], ptr %191, i64 1
  %197 = getelementptr inbounds [4 x ptr], ptr %196, i64 0, i64 0
  store ptr %60, ptr %197, align 8
  %198 = getelementptr inbounds ptr, ptr %197, i64 1
  store ptr %60, ptr %198, align 8
  %199 = getelementptr inbounds ptr, ptr %198, i64 1
  store ptr %60, ptr %199, align 8
  %200 = getelementptr inbounds ptr, ptr %199, i64 1
  store ptr %60, ptr %200, align 8
  %201 = getelementptr inbounds [6 x [4 x ptr]], ptr %170, i64 1
  %202 = getelementptr inbounds [6 x [4 x ptr]], ptr %201, i64 0, i64 0
  %203 = getelementptr inbounds [4 x ptr], ptr %202, i64 0, i64 0
  store ptr %60, ptr %203, align 8
  %204 = getelementptr inbounds ptr, ptr %203, i64 1
  store ptr %60, ptr %204, align 8
  %205 = getelementptr inbounds ptr, ptr %204, i64 1
  store ptr %60, ptr %205, align 8
  %206 = getelementptr inbounds ptr, ptr %205, i64 1
  store ptr %60, ptr %206, align 8
  %207 = getelementptr inbounds [4 x ptr], ptr %202, i64 1
  %208 = getelementptr inbounds [4 x ptr], ptr %207, i64 0, i64 0
  store ptr %60, ptr %208, align 8
  %209 = getelementptr inbounds ptr, ptr %208, i64 1
  store ptr %60, ptr %209, align 8
  %210 = getelementptr inbounds ptr, ptr %209, i64 1
  store ptr %60, ptr %210, align 8
  %211 = getelementptr inbounds ptr, ptr %210, i64 1
  store ptr %60, ptr %211, align 8
  %212 = getelementptr inbounds [4 x ptr], ptr %207, i64 1
  %213 = getelementptr inbounds [4 x ptr], ptr %212, i64 0, i64 0
  store ptr null, ptr %213, align 8
  %214 = getelementptr inbounds ptr, ptr %213, i64 1
  store ptr %60, ptr %214, align 8
  %215 = getelementptr inbounds ptr, ptr %214, i64 1
  store ptr %60, ptr %215, align 8
  %216 = getelementptr inbounds ptr, ptr %215, i64 1
  store ptr %60, ptr %216, align 8
  %217 = getelementptr inbounds [4 x ptr], ptr %212, i64 1
  %218 = getelementptr inbounds [4 x ptr], ptr %217, i64 0, i64 0
  store ptr %60, ptr %218, align 8
  %219 = getelementptr inbounds ptr, ptr %218, i64 1
  store ptr %60, ptr %219, align 8
  %220 = getelementptr inbounds ptr, ptr %219, i64 1
  store ptr %60, ptr %220, align 8
  %221 = getelementptr inbounds ptr, ptr %220, i64 1
  store ptr %60, ptr %221, align 8
  %222 = getelementptr inbounds [4 x ptr], ptr %217, i64 1
  %223 = getelementptr inbounds [4 x ptr], ptr %222, i64 0, i64 0
  store ptr %60, ptr %223, align 8
  %224 = getelementptr inbounds ptr, ptr %223, i64 1
  store ptr %60, ptr %224, align 8
  %225 = getelementptr inbounds ptr, ptr %224, i64 1
  store ptr %60, ptr %225, align 8
  %226 = getelementptr inbounds ptr, ptr %225, i64 1
  store ptr %60, ptr %226, align 8
  %227 = getelementptr inbounds [4 x ptr], ptr %222, i64 1
  %228 = getelementptr inbounds [4 x ptr], ptr %227, i64 0, i64 0
  store ptr %60, ptr %228, align 8
  %229 = getelementptr inbounds ptr, ptr %228, i64 1
  store ptr %60, ptr %229, align 8
  %230 = getelementptr inbounds ptr, ptr %229, i64 1
  store ptr %60, ptr %230, align 8
  %231 = getelementptr inbounds ptr, ptr %230, i64 1
  store ptr %60, ptr %231, align 8
  %232 = getelementptr inbounds [6 x [4 x ptr]], ptr %201, i64 1
  %233 = getelementptr inbounds [6 x [4 x ptr]], ptr %232, i64 0, i64 0
  %234 = getelementptr inbounds [4 x ptr], ptr %233, i64 0, i64 0
  store ptr %60, ptr %234, align 8
  %235 = getelementptr inbounds ptr, ptr %234, i64 1
  store ptr %60, ptr %235, align 8
  %236 = getelementptr inbounds ptr, ptr %235, i64 1
  store ptr %60, ptr %236, align 8
  %237 = getelementptr inbounds ptr, ptr %236, i64 1
  store ptr %60, ptr %237, align 8
  %238 = getelementptr inbounds [4 x ptr], ptr %233, i64 1
  %239 = getelementptr inbounds [4 x ptr], ptr %238, i64 0, i64 0
  store ptr %60, ptr %239, align 8
  %240 = getelementptr inbounds ptr, ptr %239, i64 1
  store ptr %60, ptr %240, align 8
  %241 = getelementptr inbounds ptr, ptr %240, i64 1
  store ptr %60, ptr %241, align 8
  %242 = getelementptr inbounds ptr, ptr %241, i64 1
  store ptr null, ptr %242, align 8
  %243 = getelementptr inbounds [4 x ptr], ptr %238, i64 1
  %244 = getelementptr inbounds [4 x ptr], ptr %243, i64 0, i64 0
  store ptr %60, ptr %244, align 8
  %245 = getelementptr inbounds ptr, ptr %244, i64 1
  store ptr %60, ptr %245, align 8
  %246 = getelementptr inbounds ptr, ptr %245, i64 1
  store ptr %60, ptr %246, align 8
  %247 = getelementptr inbounds ptr, ptr %246, i64 1
  store ptr %60, ptr %247, align 8
  %248 = getelementptr inbounds [4 x ptr], ptr %243, i64 1
  %249 = getelementptr inbounds [4 x ptr], ptr %248, i64 0, i64 0
  store ptr %60, ptr %249, align 8
  %250 = getelementptr inbounds ptr, ptr %249, i64 1
  store ptr null, ptr %250, align 8
  %251 = getelementptr inbounds ptr, ptr %250, i64 1
  store ptr %60, ptr %251, align 8
  %252 = getelementptr inbounds ptr, ptr %251, i64 1
  store ptr %60, ptr %252, align 8
  %253 = getelementptr inbounds [4 x ptr], ptr %248, i64 1
  %254 = getelementptr inbounds [4 x ptr], ptr %253, i64 0, i64 0
  store ptr %60, ptr %254, align 8
  %255 = getelementptr inbounds ptr, ptr %254, i64 1
  store ptr %60, ptr %255, align 8
  %256 = getelementptr inbounds ptr, ptr %255, i64 1
  store ptr %60, ptr %256, align 8
  %257 = getelementptr inbounds ptr, ptr %256, i64 1
  store ptr %60, ptr %257, align 8
  %258 = getelementptr inbounds [4 x ptr], ptr %253, i64 1
  %259 = getelementptr inbounds [4 x ptr], ptr %258, i64 0, i64 0
  store ptr %60, ptr %259, align 8
  %260 = getelementptr inbounds ptr, ptr %259, i64 1
  store ptr %60, ptr %260, align 8
  %261 = getelementptr inbounds ptr, ptr %260, i64 1
  store ptr %60, ptr %261, align 8
  %262 = getelementptr inbounds ptr, ptr %261, i64 1
  store ptr %60, ptr %262, align 8
  %263 = getelementptr inbounds [6 x [4 x ptr]], ptr %232, i64 1
  %264 = getelementptr inbounds [6 x [4 x ptr]], ptr %263, i64 0, i64 0
  %265 = getelementptr inbounds [4 x ptr], ptr %264, i64 0, i64 0
  store ptr null, ptr %265, align 8
  %266 = getelementptr inbounds ptr, ptr %265, i64 1
  store ptr null, ptr %266, align 8
  %267 = getelementptr inbounds ptr, ptr %266, i64 1
  store ptr %60, ptr %267, align 8
  %268 = getelementptr inbounds ptr, ptr %267, i64 1
  store ptr %60, ptr %268, align 8
  %269 = getelementptr inbounds [4 x ptr], ptr %264, i64 1
  %270 = getelementptr inbounds [4 x ptr], ptr %269, i64 0, i64 0
  store ptr %60, ptr %270, align 8
  %271 = getelementptr inbounds ptr, ptr %270, i64 1
  store ptr %60, ptr %271, align 8
  %272 = getelementptr inbounds ptr, ptr %271, i64 1
  store ptr %60, ptr %272, align 8
  %273 = getelementptr inbounds ptr, ptr %272, i64 1
  store ptr null, ptr %273, align 8
  %274 = getelementptr inbounds [4 x ptr], ptr %269, i64 1
  %275 = getelementptr inbounds [4 x ptr], ptr %274, i64 0, i64 0
  store ptr %60, ptr %275, align 8
  %276 = getelementptr inbounds ptr, ptr %275, i64 1
  store ptr %60, ptr %276, align 8
  %277 = getelementptr inbounds ptr, ptr %276, i64 1
  store ptr %60, ptr %277, align 8
  %278 = getelementptr inbounds ptr, ptr %277, i64 1
  store ptr %60, ptr %278, align 8
  %279 = getelementptr inbounds [4 x ptr], ptr %274, i64 1
  %280 = getelementptr inbounds [4 x ptr], ptr %279, i64 0, i64 0
  store ptr %60, ptr %280, align 8
  %281 = getelementptr inbounds ptr, ptr %280, i64 1
  store ptr %60, ptr %281, align 8
  %282 = getelementptr inbounds ptr, ptr %281, i64 1
  store ptr %60, ptr %282, align 8
  %283 = getelementptr inbounds ptr, ptr %282, i64 1
  store ptr %60, ptr %283, align 8
  %284 = getelementptr inbounds [4 x ptr], ptr %279, i64 1
  %285 = getelementptr inbounds [4 x ptr], ptr %284, i64 0, i64 0
  store ptr %60, ptr %285, align 8
  %286 = getelementptr inbounds ptr, ptr %285, i64 1
  store ptr %60, ptr %286, align 8
  %287 = getelementptr inbounds ptr, ptr %286, i64 1
  store ptr %60, ptr %287, align 8
  %288 = getelementptr inbounds ptr, ptr %287, i64 1
  store ptr %60, ptr %288, align 8
  %289 = getelementptr inbounds [4 x ptr], ptr %284, i64 1
  %290 = getelementptr inbounds [4 x ptr], ptr %289, i64 0, i64 0
  store ptr null, ptr %290, align 8
  %291 = getelementptr inbounds ptr, ptr %290, i64 1
  store ptr %60, ptr %291, align 8
  %292 = getelementptr inbounds ptr, ptr %291, i64 1
  store ptr %60, ptr %292, align 8
  %293 = getelementptr inbounds ptr, ptr %292, i64 1
  store ptr %60, ptr %293, align 8
  %294 = getelementptr inbounds [6 x [4 x ptr]], ptr %263, i64 1
  %295 = getelementptr inbounds [6 x [4 x ptr]], ptr %294, i64 0, i64 0
  %296 = getelementptr inbounds [4 x ptr], ptr %295, i64 0, i64 0
  store ptr %60, ptr %296, align 8
  %297 = getelementptr inbounds ptr, ptr %296, i64 1
  store ptr %60, ptr %297, align 8
  %298 = getelementptr inbounds ptr, ptr %297, i64 1
  store ptr %60, ptr %298, align 8
  %299 = getelementptr inbounds ptr, ptr %298, i64 1
  store ptr %60, ptr %299, align 8
  %300 = getelementptr inbounds [4 x ptr], ptr %295, i64 1
  %301 = getelementptr inbounds [4 x ptr], ptr %300, i64 0, i64 0
  store ptr %60, ptr %301, align 8
  %302 = getelementptr inbounds ptr, ptr %301, i64 1
  store ptr %60, ptr %302, align 8
  %303 = getelementptr inbounds ptr, ptr %302, i64 1
  store ptr %60, ptr %303, align 8
  %304 = getelementptr inbounds ptr, ptr %303, i64 1
  store ptr %60, ptr %304, align 8
  %305 = getelementptr inbounds [4 x ptr], ptr %300, i64 1
  %306 = getelementptr inbounds [4 x ptr], ptr %305, i64 0, i64 0
  store ptr %60, ptr %306, align 8
  %307 = getelementptr inbounds ptr, ptr %306, i64 1
  store ptr %60, ptr %307, align 8
  %308 = getelementptr inbounds ptr, ptr %307, i64 1
  store ptr %60, ptr %308, align 8
  %309 = getelementptr inbounds ptr, ptr %308, i64 1
  store ptr %60, ptr %309, align 8
  %310 = getelementptr inbounds [4 x ptr], ptr %305, i64 1
  %311 = getelementptr inbounds [4 x ptr], ptr %310, i64 0, i64 0
  store ptr %60, ptr %311, align 8
  %312 = getelementptr inbounds ptr, ptr %311, i64 1
  store ptr %60, ptr %312, align 8
  %313 = getelementptr inbounds ptr, ptr %312, i64 1
  store ptr %60, ptr %313, align 8
  %314 = getelementptr inbounds ptr, ptr %313, i64 1
  store ptr %60, ptr %314, align 8
  %315 = getelementptr inbounds [4 x ptr], ptr %310, i64 1
  %316 = getelementptr inbounds [4 x ptr], ptr %315, i64 0, i64 0
  store ptr %60, ptr %316, align 8
  %317 = getelementptr inbounds ptr, ptr %316, i64 1
  store ptr %60, ptr %317, align 8
  %318 = getelementptr inbounds ptr, ptr %317, i64 1
  store ptr %60, ptr %318, align 8
  %319 = getelementptr inbounds ptr, ptr %318, i64 1
  store ptr null, ptr %319, align 8
  %320 = getelementptr inbounds [4 x ptr], ptr %315, i64 1
  %321 = getelementptr inbounds [4 x ptr], ptr %320, i64 0, i64 0
  store ptr %60, ptr %321, align 8
  %322 = getelementptr inbounds ptr, ptr %321, i64 1
  store ptr %60, ptr %322, align 8
  %323 = getelementptr inbounds ptr, ptr %322, i64 1
  store ptr %60, ptr %323, align 8
  %324 = getelementptr inbounds ptr, ptr %323, i64 1
  store ptr %60, ptr %324, align 8
  %325 = getelementptr inbounds [6 x [4 x ptr]], ptr %294, i64 1
  %326 = getelementptr inbounds [6 x [4 x ptr]], ptr %325, i64 0, i64 0
  %327 = getelementptr inbounds [4 x ptr], ptr %326, i64 0, i64 0
  store ptr %60, ptr %327, align 8
  %328 = getelementptr inbounds ptr, ptr %327, i64 1
  store ptr null, ptr %328, align 8
  %329 = getelementptr inbounds ptr, ptr %328, i64 1
  store ptr %60, ptr %329, align 8
  %330 = getelementptr inbounds ptr, ptr %329, i64 1
  store ptr %60, ptr %330, align 8
  %331 = getelementptr inbounds [4 x ptr], ptr %326, i64 1
  %332 = getelementptr inbounds [4 x ptr], ptr %331, i64 0, i64 0
  store ptr %60, ptr %332, align 8
  %333 = getelementptr inbounds ptr, ptr %332, i64 1
  store ptr %60, ptr %333, align 8
  %334 = getelementptr inbounds ptr, ptr %333, i64 1
  store ptr %60, ptr %334, align 8
  %335 = getelementptr inbounds ptr, ptr %334, i64 1
  store ptr %60, ptr %335, align 8
  %336 = getelementptr inbounds [4 x ptr], ptr %331, i64 1
  %337 = getelementptr inbounds [4 x ptr], ptr %336, i64 0, i64 0
  store ptr %60, ptr %337, align 8
  %338 = getelementptr inbounds ptr, ptr %337, i64 1
  store ptr %60, ptr %338, align 8
  %339 = getelementptr inbounds ptr, ptr %338, i64 1
  store ptr %60, ptr %339, align 8
  %340 = getelementptr inbounds ptr, ptr %339, i64 1
  store ptr %60, ptr %340, align 8
  %341 = getelementptr inbounds [4 x ptr], ptr %336, i64 1
  %342 = getelementptr inbounds [4 x ptr], ptr %341, i64 0, i64 0
  store ptr null, ptr %342, align 8
  %343 = getelementptr inbounds ptr, ptr %342, i64 1
  store ptr null, ptr %343, align 8
  %344 = getelementptr inbounds ptr, ptr %343, i64 1
  store ptr %60, ptr %344, align 8
  %345 = getelementptr inbounds ptr, ptr %344, i64 1
  store ptr %60, ptr %345, align 8
  %346 = getelementptr inbounds [4 x ptr], ptr %341, i64 1
  %347 = getelementptr inbounds [4 x ptr], ptr %346, i64 0, i64 0
  store ptr %60, ptr %347, align 8
  %348 = getelementptr inbounds ptr, ptr %347, i64 1
  store ptr %60, ptr %348, align 8
  %349 = getelementptr inbounds ptr, ptr %348, i64 1
  store ptr %60, ptr %349, align 8
  %350 = getelementptr inbounds ptr, ptr %349, i64 1
  store ptr null, ptr %350, align 8
  %351 = getelementptr inbounds [4 x ptr], ptr %346, i64 1
  %352 = getelementptr inbounds [4 x ptr], ptr %351, i64 0, i64 0
  store ptr %60, ptr %352, align 8
  %353 = getelementptr inbounds ptr, ptr %352, i64 1
  store ptr %60, ptr %353, align 8
  %354 = getelementptr inbounds ptr, ptr %353, i64 1
  store ptr %60, ptr %354, align 8
  %355 = getelementptr inbounds ptr, ptr %354, i64 1
  store ptr %60, ptr %355, align 8
  %356 = getelementptr inbounds [6 x [4 x ptr]], ptr %325, i64 1
  %357 = getelementptr inbounds [6 x [4 x ptr]], ptr %356, i64 0, i64 0
  %358 = getelementptr inbounds [4 x ptr], ptr %357, i64 0, i64 0
  store ptr %60, ptr %358, align 8
  %359 = getelementptr inbounds ptr, ptr %358, i64 1
  store ptr %60, ptr %359, align 8
  %360 = getelementptr inbounds ptr, ptr %359, i64 1
  store ptr %60, ptr %360, align 8
  %361 = getelementptr inbounds ptr, ptr %360, i64 1
  store ptr %60, ptr %361, align 8
  %362 = getelementptr inbounds [4 x ptr], ptr %357, i64 1
  %363 = getelementptr inbounds [4 x ptr], ptr %362, i64 0, i64 0
  store ptr %60, ptr %363, align 8
  %364 = getelementptr inbounds ptr, ptr %363, i64 1
  store ptr %60, ptr %364, align 8
  %365 = getelementptr inbounds ptr, ptr %364, i64 1
  store ptr %60, ptr %365, align 8
  %366 = getelementptr inbounds ptr, ptr %365, i64 1
  store ptr %60, ptr %366, align 8
  %367 = getelementptr inbounds [4 x ptr], ptr %362, i64 1
  %368 = getelementptr inbounds [4 x ptr], ptr %367, i64 0, i64 0
  store ptr null, ptr %368, align 8
  %369 = getelementptr inbounds ptr, ptr %368, i64 1
  store ptr %60, ptr %369, align 8
  %370 = getelementptr inbounds ptr, ptr %369, i64 1
  store ptr %60, ptr %370, align 8
  %371 = getelementptr inbounds ptr, ptr %370, i64 1
  store ptr %60, ptr %371, align 8
  %372 = getelementptr inbounds [4 x ptr], ptr %367, i64 1
  %373 = getelementptr inbounds [4 x ptr], ptr %372, i64 0, i64 0
  store ptr %60, ptr %373, align 8
  %374 = getelementptr inbounds ptr, ptr %373, i64 1
  store ptr %60, ptr %374, align 8
  %375 = getelementptr inbounds ptr, ptr %374, i64 1
  store ptr %60, ptr %375, align 8
  %376 = getelementptr inbounds ptr, ptr %375, i64 1
  store ptr null, ptr %376, align 8
  %377 = getelementptr inbounds [4 x ptr], ptr %372, i64 1
  %378 = getelementptr inbounds [4 x ptr], ptr %377, i64 0, i64 0
  store ptr %60, ptr %378, align 8
  %379 = getelementptr inbounds ptr, ptr %378, i64 1
  store ptr %60, ptr %379, align 8
  %380 = getelementptr inbounds ptr, ptr %379, i64 1
  store ptr %60, ptr %380, align 8
  %381 = getelementptr inbounds ptr, ptr %380, i64 1
  store ptr %60, ptr %381, align 8
  %382 = getelementptr inbounds [4 x ptr], ptr %377, i64 1
  %383 = getelementptr inbounds [4 x ptr], ptr %382, i64 0, i64 0
  store ptr %60, ptr %383, align 8
  %384 = getelementptr inbounds ptr, ptr %383, i64 1
  store ptr %60, ptr %384, align 8
  %385 = getelementptr inbounds ptr, ptr %384, i64 1
  store ptr %60, ptr %385, align 8
  %386 = getelementptr inbounds ptr, ptr %385, i64 1
  store ptr null, ptr %386, align 8
  %387 = getelementptr inbounds [6 x [4 x ptr]], ptr %356, i64 1
  %388 = getelementptr inbounds [6 x [4 x ptr]], ptr %387, i64 0, i64 0
  %389 = getelementptr inbounds [4 x ptr], ptr %388, i64 0, i64 0
  store ptr %60, ptr %389, align 8
  %390 = getelementptr inbounds ptr, ptr %389, i64 1
  store ptr %60, ptr %390, align 8
  %391 = getelementptr inbounds ptr, ptr %390, i64 1
  store ptr %60, ptr %391, align 8
  %392 = getelementptr inbounds ptr, ptr %391, i64 1
  store ptr %60, ptr %392, align 8
  %393 = getelementptr inbounds [4 x ptr], ptr %388, i64 1
  %394 = getelementptr inbounds [4 x ptr], ptr %393, i64 0, i64 0
  store ptr %60, ptr %394, align 8
  %395 = getelementptr inbounds ptr, ptr %394, i64 1
  store ptr %60, ptr %395, align 8
  %396 = getelementptr inbounds ptr, ptr %395, i64 1
  store ptr %60, ptr %396, align 8
  %397 = getelementptr inbounds ptr, ptr %396, i64 1
  store ptr %60, ptr %397, align 8
  %398 = getelementptr inbounds [4 x ptr], ptr %393, i64 1
  %399 = getelementptr inbounds [4 x ptr], ptr %398, i64 0, i64 0
  store ptr %60, ptr %399, align 8
  %400 = getelementptr inbounds ptr, ptr %399, i64 1
  store ptr %60, ptr %400, align 8
  %401 = getelementptr inbounds ptr, ptr %400, i64 1
  store ptr %60, ptr %401, align 8
  %402 = getelementptr inbounds ptr, ptr %401, i64 1
  store ptr null, ptr %402, align 8
  %403 = getelementptr inbounds [4 x ptr], ptr %398, i64 1
