; ModuleID = 'cpp/diriter.cpp'
source_filename = "cpp/diriter.cpp"
target datalayout = "e-m:e-p270:32:32-p271:32:32-p272:64:64-i64:64-f80:128-n8:16:32:64-S128"
target triple = "x86_64-pc-linux-gnu"

%"class.std::ios_base::Init" = type { i8 }
%"class.std::basic_ostream" = type { i32 (...)**, %"class.std::basic_ios" }
%"class.std::basic_ios" = type { %"class.std::ios_base", %"class.std::basic_ostream"*, i8, i8, %"class.std::basic_streambuf"*, %"class.std::ctype"*, %"class.std::num_put"*, %"class.std::num_get"* }
%"class.std::ios_base" = type { i32 (...)**, i64, i64, i32, i32, i32, %"struct.std::ios_base::_Callback_list"*, %"struct.std::ios_base::_Words", [8 x %"struct.std::ios_base::_Words"], i32, %"struct.std::ios_base::_Words"*, %"class.std::locale" }
%"struct.std::ios_base::_Callback_list" = type { %"struct.std::ios_base::_Callback_list"*, void (i32, %"class.std::ios_base"*, i32)*, i32, i32 }
%"struct.std::ios_base::_Words" = type { i8*, i64 }
%"class.std::locale" = type { %"class.std::locale::_Impl"* }
%"class.std::locale::_Impl" = type { i32, %"class.std::locale::facet"**, i64, %"class.std::locale::facet"**, i8** }
%"class.std::locale::facet" = type <{ i32 (...)**, i32, [4 x i8] }>
%"class.std::basic_streambuf" = type { i32 (...)**, i8*, i8*, i8*, i8*, i8*, i8*, %"class.std::locale" }
%"class.std::ctype" = type <{ %"class.std::locale::facet.base", [4 x i8], %struct.__locale_struct*, i8, [7 x i8], i32*, i32*, i16*, i8, [256 x i8], [256 x i8], i8, [6 x i8] }>
%"class.std::locale::facet.base" = type <{ i32 (...)**, i32 }>
%struct.__locale_struct = type { [13 x %struct.__locale_data*], i16*, i32*, i32*, [13 x i8*] }
%struct.__locale_data = type opaque
%"class.std::num_put" = type { %"class.std::locale::facet.base", [4 x i8] }
%"class.std::num_get" = type { %"class.std::locale::facet.base", [4 x i8] }
%"class.std::filesystem::__cxx11::path" = type { %"class.std::__cxx11::basic_string", %"struct.std::filesystem::__cxx11::path::_List" }
%"class.std::__cxx11::basic_string" = type { %"struct.std::__cxx11::basic_string<char>::_Alloc_hider", i64, %union.anon }
%"struct.std::__cxx11::basic_string<char>::_Alloc_hider" = type { i8* }
%union.anon = type { i64, [8 x i8] }
%"struct.std::filesystem::__cxx11::path::_List" = type { %"class.std::unique_ptr" }
%"class.std::unique_ptr" = type { %"struct.std::__uniq_ptr_data" }
%"struct.std::__uniq_ptr_data" = type { %"class.std::__uniq_ptr_impl" }
%"class.std::__uniq_ptr_impl" = type { %"class.std::tuple" }
%"class.std::tuple" = type { %"struct.std::_Tuple_impl" }
%"struct.std::_Tuple_impl" = type { %"struct.std::_Head_base.1" }
%"struct.std::_Head_base.1" = type { %"struct.std::filesystem::__cxx11::path::_List::_Impl"* }
%"struct.std::filesystem::__cxx11::path::_List::_Impl" = type opaque
%"class.std::filesystem::__cxx11::directory_iterator" = type { %"class.std::__shared_ptr" }
%"class.std::__shared_ptr" = type { %"struct.std::filesystem::__cxx11::_Dir"*, %"class.std::__shared_count" }
%"struct.std::filesystem::__cxx11::_Dir" = type opaque
%"class.std::__shared_count" = type { %"class.std::_Sp_counted_base"* }
%"class.std::_Sp_counted_base" = type { i32 (...)**, i32, i32 }
%"class.std::error_code" = type { i32, %"class.std::_V2::error_category"* }
%"class.std::_V2::error_category" = type { i32 (...)** }
%"struct.std::filesystem::__cxx11::path::_List::_Impl_deleter" = type { i8 }
%"class.std::filesystem::__cxx11::directory_entry" = type <{ %"class.std::filesystem::__cxx11::path", i8, [7 x i8] }>
%"class.std::basic_string_view" = type { i64, i8* }
%"class.std::allocator" = type { i8 }
%"struct.std::__false_type" = type { i8 }
%"struct.std::forward_iterator_tag" = type { i8 }
%"struct.std::__detail::_Quoted_string" = type <{ %"class.std::__cxx11::basic_string"*, i8, i8, [6 x i8] }>
%"class.std::__cxx11::basic_ostringstream" = type { %"class.std::basic_ostream.base", %"class.std::__cxx11::basic_stringbuf", %"class.std::basic_ios" }
%"class.std::basic_ostream.base" = type { i32 (...)** }
%"class.std::__cxx11::basic_stringbuf" = type { %"class.std::basic_streambuf", i32, %"class.std::__cxx11::basic_string" }
%"class.__gnu_cxx::__normal_iterator" = type { i8* }
%"struct.std::less.3" = type { i8 }

$_ZNSt10filesystem7__cxx114pathC2IA2_cS1_EERKT_NS1_6formatE = comdat any

$_ZNSt10filesystem7__cxx11lsIcSt11char_traitsIcEEERSt13basic_ostreamIT_T0_ES8_RKNS0_4pathE = comdat any

$_ZNSt8__detaillsIcSt11char_traitsIcERKNSt7__cxx1112basic_stringIcS2_SaIcEEEEERSt13basic_ostreamIT_T0_ESD_RKNS_14_Quoted_stringIT1_SA_EE = comdat any

$_ZNSt7__cxx1112basic_stringIcSt11char_traitsIcESaIcEE10_M_replaceEmmPKcm = comdat any

$_ZNSt7__cxx1112basic_stringIcSt11char_traitsIcESaIcEE9_M_mutateEmmPKcm = comdat any

$_ZNSt7__cxx1112basic_stringIcSt11char_traitsIcESaIcEE9_M_assignERKS4_ = comdat any

@_ZStL8__ioinit = internal global %"class.std::ios_base::Init" zeroinitializer, align 1, !dbg !0
@__dso_handle = external hidden global i8
@.str = private unnamed_addr constant [2 x i8] c"/\00", align 1
@_ZSt4cerr = external global %"class.std::basic_ostream", align 8
@.str.1 = private unnamed_addr constant [3 x i8] c": \00", align 1
@__libc_single_threaded = external local_unnamed_addr global i8, align 1
@.str.3 = private unnamed_addr constant [24 x i8] c"basic_string::_M_create\00", align 1
@_ZTVNSt7__cxx1119basic_ostringstreamIcSt11char_traitsIcESaIcEEE = external unnamed_addr constant { [5 x i8*], [5 x i8*] }, align 8
@_ZTTNSt7__cxx1119basic_ostringstreamIcSt11char_traitsIcESaIcEEE = external unnamed_addr constant [4 x i8*], align 8
@_ZTVSt9basic_iosIcSt11char_traitsIcEE = external unnamed_addr constant { [4 x i8*] }, align 8
@_ZTVNSt7__cxx1115basic_stringbufIcSt11char_traitsIcESaIcEEE = external unnamed_addr constant { [16 x i8*] }, align 8
@_ZTVSt15basic_streambufIcSt11char_traitsIcEE = external unnamed_addr constant { [16 x i8*] }, align 8
@.str.5 = private unnamed_addr constant [25 x i8] c"basic_string::_M_replace\00", align 1
@llvm.global_ctors = appending global [1 x { i32, void ()*, i8* }] [{ i32, void ()*, i8* } { i32 65535, void ()* @_GLOBAL__sub_I_diriter.cpp, i8* null }]
@.str.5 = private unnamed_addr constant [25 x i8] c"basic_string::_M_replace\00", align 1
@.str.dbgp = private unnamed_addr constant [6 x i8] c"[%p]\n\00", align 1

declare void @_ZNSt8ios_base4InitC1Ev(%"class.std::ios_base::Init"* noundef nonnull align 1 dereferenceable(1)) unnamed_addr #0

; Function Attrs: nounwind
declare void @_ZNSt8ios_base4InitD1Ev(%"class.std::ios_base::Init"* noundef nonnull align 1 dereferenceable(1)) unnamed_addr #1

; Function Attrs: nofree nounwind
declare i32 @__cxa_atexit(void (i8*)*, i8*, i8*) local_unnamed_addr #2

; Function Attrs: norecurse nounwind uwtable
define dso_local noundef i32 @main() local_unnamed_addr #3 !dbg !3268 {
  %1 = alloca i8, align 1
  %2 = alloca %"class.std::filesystem::__cxx11::path", align 8
  %3 = alloca %"class.std::filesystem::__cxx11::directory_iterator", align 8
  %4 = alloca %"class.std::filesystem::__cxx11::directory_iterator", align 8
  %5 = bitcast %"class.std::filesystem::__cxx11::path"* %2 to i8*, !dbg !3278
  call void @_ZNSt10filesystem7__cxx114pathC2IA2_cS1_EERKT_NS1_6formatE(%"class.std::filesystem::__cxx11::path"* noundef nonnull align 8 dereferenceable(40) %2, [2 x i8]* noundef nonnull align 1 dereferenceable(2) @.str, i8 noundef zeroext 2), !dbg !3279
  %6 = bitcast %"class.std::filesystem::__cxx11::directory_iterator"* %3 to i8*, !dbg !3281
  call void @_ZNSt10filesystem7__cxx1118directory_iteratorC2ERKNS0_4pathENS_17directory_optionsEPSt10error_code(%"class.std::filesystem::__cxx11::directory_iterator"* noundef nonnull align 8 dereferenceable(16) %3, %"class.std::filesystem::__cxx11::path"* noundef nonnull align 8 dereferenceable(40) %2, i8 noundef zeroext 0, %"class.std::error_code"* noundef null) #16, !dbg !3289
  %7 = bitcast %"class.std::filesystem::__cxx11::directory_iterator"* %4 to i8*, !dbg !3291
  %8 = getelementptr inbounds %"class.std::filesystem::__cxx11::directory_iterator", %"class.std::filesystem::__cxx11::directory_iterator"* %3, i64 0, i32 0, i32 0, !dbg !3305
  %9 = load %"struct.std::filesystem::__cxx11::_Dir"*, %"struct.std::filesystem::__cxx11::_Dir"** %8, align 8, !dbg !3305, !tbaa !3306
  %10 = getelementptr inbounds %"class.std::filesystem::__cxx11::directory_iterator", %"class.std::filesystem::__cxx11::directory_iterator"* %3, i64 0, i32 0, i32 1, i32 0, !dbg !3326
  %11 = load %"class.std::_Sp_counted_base"*, %"class.std::_Sp_counted_base"** %10, align 8, !dbg !3326, !tbaa !3327
  %12 = icmp eq %"class.std::_Sp_counted_base"* %11, null, !dbg !3328
  br i1 %12, label %74, label %13, !dbg !3331

13:                                               ; preds = %0
  %14 = getelementptr inbounds %"class.std::_Sp_counted_base", %"class.std::_Sp_counted_base"* %11, i64 0, i32 1, !dbg !3341
  %15 = load i8, i8* @__libc_single_threaded, align 1, !dbg !3354, !tbaa !3358
  %16 = icmp eq i8 %15, 0, !dbg !3354
  br i1 %16, label %22, label %17, !dbg !3359

17:                                               ; preds = %13
  %18 = load i32, i32* %14, align 8, !dbg !3366, !tbaa !3367
  %19 = add nsw i32 %18, 1, !dbg !3366
  store i32 %19, i32* %14, align 8, !dbg !3366, !tbaa !3367
  %20 = getelementptr inbounds %"class.std::filesystem::__cxx11::directory_iterator", %"class.std::filesystem::__cxx11::directory_iterator"* %4, i64 0, i32 0, i32 0, !dbg !3381
  store %"struct.std::filesystem::__cxx11::_Dir"* %9, %"struct.std::filesystem::__cxx11::_Dir"** %20, align 8, !dbg !3381, !tbaa !3306, !alias.scope !3382
  %21 = getelementptr inbounds %"class.std::filesystem::__cxx11::directory_iterator", %"class.std::filesystem::__cxx11::directory_iterator"* %4, i64 0, i32 0, i32 1, i32 0, !dbg !3390
  store %"class.std::_Sp_counted_base"* %11, %"class.std::_Sp_counted_base"** %21, align 8, !dbg !3399, !tbaa !3327, !alias.scope !3382
  br label %28, !dbg !3423

22:                                               ; preds = %13
  %23 = atomicrmw volatile add i32* %14, i32 1 acq_rel, align 4, !dbg !3434
  %24 = load %"class.std::_Sp_counted_base"*, %"class.std::_Sp_counted_base"** %10, align 8, !dbg !3435, !tbaa !3327
  %25 = getelementptr inbounds %"class.std::filesystem::__cxx11::directory_iterator", %"class.std::filesystem::__cxx11::directory_iterator"* %4, i64 0, i32 0, i32 0, !dbg !3381
  store %"struct.std::filesystem::__cxx11::_Dir"* %9, %"struct.std::filesystem::__cxx11::_Dir"** %25, align 8, !dbg !3381, !tbaa !3306, !alias.scope !3382
  %26 = getelementptr inbounds %"class.std::filesystem::__cxx11::directory_iterator", %"class.std::filesystem::__cxx11::directory_iterator"* %4, i64 0, i32 0, i32 1, i32 0, !dbg !3390
  store %"class.std::_Sp_counted_base"* %11, %"class.std::_Sp_counted_base"** %26, align 8, !dbg !3399, !tbaa !3327, !alias.scope !3382
  %27 = icmp eq %"class.std::_Sp_counted_base"* %24, null, !dbg !3436
  br i1 %27, label %72, label %28, !dbg !3423

28:                                               ; preds = %17, %22
  %29 = phi %"class.std::_Sp_counted_base"** [ %21, %17 ], [ %26, %22 ]
  %30 = phi %"class.std::_Sp_counted_base"* [ %11, %17 ], [ %24, %22 ]
  %31 = getelementptr inbounds %"class.std::_Sp_counted_base", %"class.std::_Sp_counted_base"* %30, i64 0, i32 1, !dbg !3439
  %32 = load i8, i8* @__libc_single_threaded, align 1, !dbg !3442, !tbaa !3358
  %33 = icmp eq i8 %32, 0, !dbg !3442
  br i1 %33, label %37, label %34, !dbg !3444

34:                                               ; preds = %28
  %35 = load i32, i32* %31, align 8, !dbg !3447, !tbaa !3367
  %36 = add nsw i32 %35, 1, !dbg !3447
  store i32 %36, i32* %31, align 8, !dbg !3447, !tbaa !3367
  br label %41, !dbg !3485

37:                                               ; preds = %28
  %38 = atomicrmw volatile add i32* %31, i32 1 acq_rel, align 4, !dbg !3488
  %39 = load i8, i8* @__libc_single_threaded, align 1, !dbg !3489, !tbaa !3358
  %40 = icmp eq i8 %39, 0, !dbg !3489
  br i1 %40, label %44, label %41, !dbg !3485

41:                                               ; preds = %34, %37
  %42 = load i32, i32* %31, align 8, !dbg !3499, !tbaa !3367
  %43 = add nsw i32 %42, -1, !dbg !3500
  store i32 %43, i32* %31, align 8, !dbg !3500, !tbaa !3367
  br label %46, !dbg !3501

44:                                               ; preds = %37
  %45 = atomicrmw volatile add i32* %31, i32 -1 acq_rel, align 4, !dbg !3510
  br label %46, !dbg !3511

46:                                               ; preds = %44, %41
  %47 = phi i32 [ %42, %41 ], [ %45, %44 ], !dbg !3512
  %48 = icmp eq i32 %47, 1, !dbg !3513
  br i1 %48, label %49, label %69, !dbg !3514

49:                                               ; preds = %46
  %50 = bitcast %"class.std::_Sp_counted_base"* %30 to void (%"class.std::_Sp_counted_base"*)***, !dbg !3515
  %51 = load void (%"class.std::_Sp_counted_base"*)**, void (%"class.std::_Sp_counted_base"*)*** %50, align 8, !dbg !3515, !tbaa !3517
  %52 = getelementptr inbounds void (%"class.std::_Sp_counted_base"*)*, void (%"class.std::_Sp_counted_base"*)** %51, i64 2, !dbg !3515
  %53 = load void (%"class.std::_Sp_counted_base"*)*, void (%"class.std::_Sp_counted_base"*)** %52, align 8, !dbg !3515
  call void %53(%"class.std::_Sp_counted_base"* noundef nonnull align 8 dereferenceable(16) %30) #16, !dbg !3515
  %54 = getelementptr inbounds %"class.std::_Sp_counted_base", %"class.std::_Sp_counted_base"* %30, i64 0, i32 2, !dbg !3519
  %55 = load i8, i8* @__libc_single_threaded, align 1, !dbg !3523, !tbaa !3358
  %56 = icmp eq i8 %55, 0, !dbg !3523
  br i1 %56, label %60, label %57, !dbg !3525

57:                                               ; preds = %49
  %58 = load i32, i32* %54, align 4, !dbg !3528, !tbaa !3367
  %59 = add nsw i32 %58, -1, !dbg !3529
  store i32 %59, i32* %54, align 4, !dbg !3529, !tbaa !3367
  br label %62, !dbg !3530

60:                                               ; preds = %49
  %61 = atomicrmw volatile add i32* %54, i32 -1 acq_rel, align 4, !dbg !3533
  br label %62, !dbg !3534

62:                                               ; preds = %60, %57
  %63 = phi i32 [ %58, %57 ], [ %61, %60 ], !dbg !3535
  %64 = icmp eq i32 %63, 1, !dbg !3536
  br i1 %64, label %65, label %69, !dbg !3537

65:                                               ; preds = %62
  %66 = load void (%"class.std::_Sp_counted_base"*)**, void (%"class.std::_Sp_counted_base"*)*** %50, align 8, !dbg !3538, !tbaa !3517
  %67 = getelementptr inbounds void (%"class.std::_Sp_counted_base"*)*, void (%"class.std::_Sp_counted_base"*)** %66, i64 3, !dbg !3538
  %68 = load void (%"class.std::_Sp_counted_base"*)*, void (%"class.std::_Sp_counted_base"*)** %67, align 8, !dbg !3538
  call void %68(%"class.std::_Sp_counted_base"* noundef nonnull align 8 dereferenceable(16) %30) #16, !dbg !3538
  br label %69, !dbg !3540

69:                                               ; preds = %46, %62, %65
  %70 = load %"class.std::_Sp_counted_base"*, %"class.std::_Sp_counted_base"** %29, align 8, !dbg !3541, !tbaa !3327
  %71 = icmp eq %"class.std::_Sp_counted_base"* %70, null, !dbg !3575
  br i1 %71, label %74, label %72, !dbg !3291

72:                                               ; preds = %22, %69
  %73 = phi %"class.std::_Sp_counted_base"** [ %29, %69 ], [ %26, %22 ]
  br label %124, !dbg !3576

74:                                               ; preds = %124, %0, %69
  %75 = load %"class.std::_Sp_counted_base"*, %"class.std::_Sp_counted_base"** %10, align 8, !dbg !3583, !tbaa !3327
  %76 = icmp eq %"class.std::_Sp_counted_base"* %75, null, !dbg !3584
  br i1 %76, label %109, label %77, !dbg !3585

77:                                               ; preds = %74
  %78 = getelementptr inbounds %"class.std::_Sp_counted_base", %"class.std::_Sp_counted_base"* %75, i64 0, i32 1, !dbg !3588
  %79 = load i8, i8* @__libc_single_threaded, align 1, !dbg !3591, !tbaa !3358
  %80 = icmp eq i8 %79, 0, !dbg !3591
  br i1 %80, label %84, label %81, !dbg !3593

81:                                               ; preds = %77
  %82 = load i32, i32* %78, align 8, !dbg !3596, !tbaa !3367
  %83 = add nsw i32 %82, -1, !dbg !3597
  store i32 %83, i32* %78, align 8, !dbg !3597, !tbaa !3367
  br label %86, !dbg !3598

84:                                               ; preds = %77
  %85 = atomicrmw volatile add i32* %78, i32 -1 acq_rel, align 4, !dbg !3601
  br label %86, !dbg !3602

86:                                               ; preds = %84, %81
  %87 = phi i32 [ %82, %81 ], [ %85, %84 ], !dbg !3603
  %88 = icmp eq i32 %87, 1, !dbg !3604
  br i1 %88, label %89, label %109, !dbg !3605

89:                                               ; preds = %86
  %90 = bitcast %"class.std::_Sp_counted_base"* %75 to void (%"class.std::_Sp_counted_base"*)***, !dbg !3606
  %91 = load void (%"class.std::_Sp_counted_base"*)**, void (%"class.std::_Sp_counted_base"*)*** %90, align 8, !dbg !3606, !tbaa !3517
  %92 = getelementptr inbounds void (%"class.std::_Sp_counted_base"*)*, void (%"class.std::_Sp_counted_base"*)** %91, i64 2, !dbg !3606
  %93 = load void (%"class.std::_Sp_counted_base"*)*, void (%"class.std::_Sp_counted_base"*)** %92, align 8, !dbg !3606
  call void %93(%"class.std::_Sp_counted_base"* noundef nonnull align 8 dereferenceable(16) %75) #16, !dbg !3606
  %94 = getelementptr inbounds %"class.std::_Sp_counted_base", %"class.std::_Sp_counted_base"* %75, i64 0, i32 2, !dbg !3607
  %95 = load i8, i8* @__libc_single_threaded, align 1, !dbg !3610, !tbaa !3358
  %96 = icmp eq i8 %95, 0, !dbg !3610
  br i1 %96, label %100, label %97, !dbg !3612

97:                                               ; preds = %89
  %98 = load i32, i32* %94, align 4, !dbg !3615, !tbaa !3367
  %99 = add nsw i32 %98, -1, !dbg !3616
  store i32 %99, i32* %94, align 4, !dbg !3616, !tbaa !3367
  br label %102, !dbg !3617

100:                                              ; preds = %89
  %101 = atomicrmw volatile add i32* %94, i32 -1 acq_rel, align 4, !dbg !3620
  br label %102, !dbg !3621

102:                                              ; preds = %100, %97
  %103 = phi i32 [ %98, %97 ], [ %101, %100 ], !dbg !3622
  %104 = icmp eq i32 %103, 1, !dbg !3623
  br i1 %104, label %105, label %109, !dbg !3624

105:                                              ; preds = %102
  %106 = load void (%"class.std::_Sp_counted_base"*)**, void (%"class.std::_Sp_counted_base"*)*** %90, align 8, !dbg !3625, !tbaa !3517
  %107 = getelementptr inbounds void (%"class.std::_Sp_counted_base"*)*, void (%"class.std::_Sp_counted_base"*)** %106, i64 3, !dbg !3625
  %108 = load void (%"class.std::_Sp_counted_base"*)*, void (%"class.std::_Sp_counted_base"*)** %107, align 8, !dbg !3625
  call void %108(%"class.std::_Sp_counted_base"* noundef nonnull align 8 dereferenceable(16) %75) #16, !dbg !3625
  br label %109, !dbg !3626

109:                                              ; preds = %74, %86, %102, %105
  %110 = getelementptr inbounds %"class.std::filesystem::__cxx11::path", %"class.std::filesystem::__cxx11::path"* %2, i64 0, i32 1, !dbg !3633
  %111 = getelementptr inbounds %"struct.std::filesystem::__cxx11::path::_List", %"struct.std::filesystem::__cxx11::path::_List"* %110, i64 0, i32 0, i32 0, i32 0, i32 0, i32 0, i32 0, i32 0, !dbg !3694
  %112 = load %"struct.std::filesystem::__cxx11::path::_List::_Impl"*, %"struct.std::filesystem::__cxx11::path::_List::_Impl"** %111, align 8, !dbg !3696, !tbaa !3698
  %113 = icmp eq %"struct.std::filesystem::__cxx11::path::_List::_Impl"* %112, null, !dbg !3699
  br i1 %113, label %116, label %114, !dbg !3700

114:                                              ; preds = %109
  %115 = bitcast %"struct.std::filesystem::__cxx11::path::_List"* %110 to %"struct.std::filesystem::__cxx11::path::_List::_Impl_deleter"*, !dbg !3727
  call void @_ZNKSt10filesystem7__cxx114path5_List13_Impl_deleterclEPNS2_5_ImplE(%"struct.std::filesystem::__cxx11::path::_List::_Impl_deleter"* noundef nonnull align 1 dereferenceable(1) %115, %"struct.std::filesystem::__cxx11::path::_List::_Impl"* noundef nonnull %112) #16, !dbg !3745
  br label %116, !dbg !3745

116:                                              ; preds = %114, %109
  store %"struct.std::filesystem::__cxx11::path::_List::_Impl"* null, %"struct.std::filesystem::__cxx11::path::_List::_Impl"** %111, align 8, !dbg !3746, !tbaa !3698
  %117 = getelementptr inbounds %"class.std::filesystem::__cxx11::path", %"class.std::filesystem::__cxx11::path"* %2, i64 0, i32 0, i32 0, i32 0, !dbg !3770
  %118 = load i8*, i8** %117, align 8, !dbg !3770, !tbaa !3771
  %119 = getelementptr inbounds %"class.std::filesystem::__cxx11::path", %"class.std::filesystem::__cxx11::path"* %2, i64 0, i32 0, i32 2, !dbg !3780
  %120 = bitcast %union.anon* %119 to i8*, !dbg !3781
  %121 = icmp eq i8* %118, %120, !dbg !3782
  br i1 %121, label %123, label %122, !dbg !3783

122:                                              ; preds = %116
  call void @_ZdlPv(i8* noundef %118) #16, !dbg !3815
  br label %123, !dbg !3816

123:                                              ; preds = %116, %122
  ret i32 0, !dbg !3817

124:                                              ; preds = %72, %124
  %125 = phi i32 [ %127, %124 ], [ 0, %72 ]
  %126 = call noundef nonnull align 8 dereferenceable(41) %"class.std::filesystem::__cxx11::directory_entry"* @_ZNKSt10filesystem7__cxx1118directory_iteratordeEv(%"class.std::filesystem::__cxx11::directory_iterator"* noundef nonnull align 8 dereferenceable(16) %4) #16, !dbg !3818
  %127 = add nuw nsw i32 %125, 1, !dbg !3820
  %128 = call noundef nonnull align 8 dereferenceable(8) %"class.std::basic_ostream"* @_ZNSolsEi(%"class.std::basic_ostream"* noundef nonnull align 8 dereferenceable(8) @_ZSt4cerr, i32 noundef %125) #16, !dbg !3822
  %129 = call noundef nonnull align 8 dereferenceable(8) %"class.std::basic_ostream"* @_ZSt16__ostream_insertIcSt11char_traitsIcEERSt13basic_ostreamIT_T0_ES6_PKS3_l(%"class.std::basic_ostream"* noundef nonnull align 8 dereferenceable(8) %128, i8* noundef nonnull getelementptr inbounds ([3 x i8], [3 x i8]* @.str.1, i64 0, i64 0), i64 noundef 2) #16, !dbg !3832
  %130 = getelementptr inbounds %"class.std::filesystem::__cxx11::directory_entry", %"class.std::filesystem::__cxx11::directory_entry"* %126, i64 0, i32 0, !dbg !3843
  %131 = call noundef nonnull align 8 dereferenceable(8) %"class.std::basic_ostream"* @_ZNSt10filesystem7__cxx11lsIcSt11char_traitsIcEEERSt13basic_ostreamIT_T0_ES8_RKNS0_4pathE(%"class.std::basic_ostream"* noundef nonnull align 8 dereferenceable(8) %128, %"class.std::filesystem::__cxx11::path"* noundef nonnull align 8 dereferenceable(40) %130), !dbg !3844
  store i8 10, i8* %1, align 1, !tbaa !3358
  %132 = call noundef nonnull align 8 dereferenceable(8) %"class.std::basic_ostream"* @_ZSt16__ostream_insertIcSt11char_traitsIcEERSt13basic_ostreamIT_T0_ES6_PKS3_l(%"class.std::basic_ostream"* noundef nonnull align 8 dereferenceable(8) %131, i8* noundef nonnull %1, i64 noundef 1) #16, !dbg !3853
  %133 = call noundef nonnull align 8 dereferenceable(16) %"class.std::filesystem::__cxx11::directory_iterator"* @_ZNSt10filesystem7__cxx1118directory_iteratorppEv(%"class.std::filesystem::__cxx11::directory_iterator"* noundef nonnull align 8 dereferenceable(16) %4) #16, !dbg !3291
  %134 = load %"class.std::_Sp_counted_base"*, %"class.std::_Sp_counted_base"** %73, align 8, !dbg !3541, !tbaa !3327
  %135 = icmp eq %"class.std::_Sp_counted_base"* %134, null, !dbg !3575
  br i1 %135, label %74, label %124, !dbg !3291, !llvm.loop !3855
}

; Function Attrs: argmemonly mustprogress nofree nosync nounwind willreturn
declare void @llvm.lifetime.start.p0i8(i64 immarg, i8* nocapture) #4

; Function Attrs: mustprogress nofree nosync nounwind readnone speculatable willreturn
declare void @llvm.dbg.declare(metadata, metadata, metadata) #5

; Function Attrs: nounwind uwtable
define linkonce_odr dso_local void @_ZNSt10filesystem7__cxx114pathC2IA2_cS1_EERKT_NS1_6formatE(%"class.std::filesystem::__cxx11::path"* noundef nonnull align 8 dereferenceable(40) %0, [2 x i8]* noundef nonnull align 1 dereferenceable(2) %1, i8 noundef zeroext %2) unnamed_addr #6 comdat align 2 !dbg !3857 {
  %4 = getelementptr inbounds [2 x i8], [2 x i8]* %1, i64 0, i64 0, !dbg !3883
  %5 = tail call i64 @strlen(i8* noundef nonnull dereferenceable(1) %4) #16, !dbg !3897
  %6 = getelementptr inbounds %"class.std::filesystem::__cxx11::path", %"class.std::filesystem::__cxx11::path"* %0, i64 0, i32 0, i32 2, !dbg !3931
  %7 = bitcast %"class.std::filesystem::__cxx11::path"* %0 to %union.anon**, !dbg !3940
  store %union.anon* %6, %union.anon** %7, align 8, !dbg !3940, !tbaa !3941
  %8 = icmp ugt i64 %5, 15, !dbg !3989
  br i1 %8, label %11, label %9, !dbg !3991

9:                                                ; preds = %3
  %10 = bitcast %union.anon* %6 to i8*, !dbg !3991
  br label %22, !dbg !3991

11:                                               ; preds = %3
  %12 = icmp slt i64 %5, 0, !dbg !4000
  br i1 %12, label %13, label %14, !dbg !4002

13:                                               ; preds = %11
  tail call void @_ZSt20__throw_length_errorPKc(i8* noundef getelementptr inbounds ([24 x i8], [24 x i8]* @.str.3, i64 0, i64 0)) #17, !dbg !4003
  unreachable, !dbg !4003

14:                                               ; preds = %11
  %15 = add nuw i64 %5, 1, !dbg !4004
  %16 = icmp slt i64 %15, 0, !dbg !4024
  br i1 %16, label %17, label %18, !dbg !4026, !prof !4027

17:                                               ; preds = %14
  tail call void @_ZSt17__throw_bad_allocv() #17, !dbg !4028
  unreachable, !dbg !4028

18:                                               ; preds = %14
  %19 = tail call noalias noundef nonnull i8* @_Znwm(i64 noundef %15) #18, !dbg !4030
  ;;
  %_err = load %struct._IO_FILE*, %struct._IO_FILE** @stderr, align 8
  call i32 (%struct._IO_FILE*, i8*, ...) @fprintf(%struct._IO_FILE* noundef %_err, i8* @.str.dbgp, i32 noundef %19)
  %20 = getelementptr inbounds %"class.std::filesystem::__cxx11::path", %"class.std::filesystem::__cxx11::path"* %0, i64 0, i32 0, i32 0, i32 0, !dbg !4037
  store i8* %19, i8** %20, align 8, !dbg !4038, !tbaa !3771
  %21 = getelementptr inbounds %"class.std::filesystem::__cxx11::path", %"class.std::filesystem::__cxx11::path"* %0, i64 0, i32 0, i32 2, i32 0, !dbg !4045
  store i64 %5, i64* %21, align 8, !dbg !4046, !tbaa !3358
  br label %22, !dbg !4047

22:                                               ; preds = %18, %9
  %23 = phi i8* [ %10, %9 ], [ %19, %18 ]
  switch i64 %5, label %26 [
    i64 1, label %24
    i64 0, label %27
  ], !dbg !4064

24:                                               ; preds = %22
  %25 = load i8, i8* %4, align 1, !dbg !4072, !tbaa !3358
  store i8 %25, i8* %23, align 1, !dbg !4073, !tbaa !3358
  br label %27, !dbg !4074

26:                                               ; preds = %22
  tail call void @llvm.memcpy.p0i8.p0i8.i64(i8* nonnull align 1 %23, i8* nonnull align 1 %4, i64 %5, i1 false) #16, !dbg !4075
  br label %27, !dbg !4082

27:                                               ; preds = %22, %24, %26
  %28 = getelementptr inbounds %"class.std::filesystem::__cxx11::path", %"class.std::filesystem::__cxx11::path"* %0, i64 0, i32 0, i32 1, !dbg !4095
  store i64 %5, i64* %28, align 8, !dbg !4096, !tbaa !4097
  %29 = getelementptr inbounds i8, i8* %23, i64 %5, !dbg !4098
  store i8 0, i8* %29, align 1, !dbg !4101, !tbaa !3358
  %30 = getelementptr inbounds %"class.std::filesystem::__cxx11::path", %"class.std::filesystem::__cxx11::path"* %0, i64 0, i32 1, !dbg !4102
  tail call void @_ZNSt10filesystem7__cxx114path5_ListC1Ev(%"struct.std::filesystem::__cxx11::path::_List"* noundef nonnull align 8 dereferenceable(8) %30) #16, !dbg !4102
  tail call void @_ZNSt10filesystem7__cxx114path14_M_split_cmptsEv(%"class.std::filesystem::__cxx11::path"* noundef nonnull align 8 dereferenceable(40) %0) #16, !dbg !4103
  ret void, !dbg !4105
}

; Function Attrs: nounwind
declare noundef nonnull align 8 dereferenceable(41) %"class.std::filesystem::__cxx11::directory_entry"* @_ZNKSt10filesystem7__cxx1118directory_iteratordeEv(%"class.std::filesystem::__cxx11::directory_iterator"* noundef nonnull align 8 dereferenceable(16)) local_unnamed_addr #1

; Function Attrs: nounwind uwtable
define linkonce_odr dso_local noundef nonnull align 8 dereferenceable(8) %"class.std::basic_ostream"* @_ZNSt10filesystem7__cxx11lsIcSt11char_traitsIcEEERSt13basic_ostreamIT_T0_ES8_RKNS0_4pathE(%"class.std::basic_ostream"* noundef nonnull align 8 dereferenceable(8) %0, %"class.std::filesystem::__cxx11::path"* noundef nonnull align 8 dereferenceable(40) %1) local_unnamed_addr #6 comdat !dbg !4106 {
  %3 = alloca { %"class.std::__cxx11::basic_string"*, i64 }, align 8
  %4 = bitcast { %"class.std::__cxx11::basic_string"*, i64 }* %3 to %"struct.std::__detail::_Quoted_string"*
  %5 = alloca %"class.std::__cxx11::basic_string", align 8
  %6 = bitcast { %"class.std::__cxx11::basic_string"*, i64 }* %3 to i8*, !dbg !4113
  %7 = bitcast %"class.std::__cxx11::basic_string"* %5 to i8*, !dbg !4114
  tail call void @llvm.experimental.noalias.scope.decl(metadata !4115), !dbg !4118
  %8 = getelementptr inbounds %"class.std::filesystem::__cxx11::path", %"class.std::filesystem::__cxx11::path"* %1, i64 0, i32 0, i32 0, i32 0, !dbg !4139
  %9 = load i8*, i8** %8, align 8, !dbg !4139, !tbaa !3771, !noalias !4115
  %10 = getelementptr inbounds %"class.std::filesystem::__cxx11::path", %"class.std::filesystem::__cxx11::path"* %1, i64 0, i32 0, i32 1, !dbg !4145
  %11 = load i64, i64* %10, align 8, !dbg !4145, !tbaa !4097, !noalias !4115
  %12 = getelementptr inbounds %"class.std::__cxx11::basic_string", %"class.std::__cxx11::basic_string"* %5, i64 0, i32 2, !dbg !4150
  %13 = bitcast %"class.std::__cxx11::basic_string"* %5 to %union.anon**, !dbg !4153
  store %union.anon* %12, %union.anon** %13, align 8, !dbg !4153, !tbaa !3941, !alias.scope !4115
  %14 = icmp ugt i64 %11, 15, !dbg !4162
  br i1 %14, label %17, label %15, !dbg !4163

15:                                               ; preds = %2
  %16 = bitcast %union.anon* %12 to i8*, !dbg !4163
  br label %28, !dbg !4163

17:                                               ; preds = %2
  %18 = icmp slt i64 %11, 0, !dbg !4166
  br i1 %18, label %19, label %20, !dbg !4167

19:                                               ; preds = %17
  call void @_ZSt20__throw_length_errorPKc(i8* noundef getelementptr inbounds ([24 x i8], [24 x i8]* @.str.3, i64 0, i64 0)) #17, !dbg !4168
  unreachable, !dbg !4168

20:                                               ; preds = %17
  %21 = add nuw i64 %11, 1, !dbg !4169
  %22 = icmp slt i64 %21, 0, !dbg !4176
  br i1 %22, label %23, label %24, !dbg !4177, !prof !4027

23:                                               ; preds = %20
  call void @_ZSt17__throw_bad_allocv() #17, !dbg !4178
  unreachable, !dbg !4178

24:                                               ; preds = %20
  %25 = call noalias noundef nonnull i8* @_Znwm(i64 noundef %21) #18, !dbg !4179
  ;;
  %_err = load %struct._IO_FILE*, %struct._IO_FILE** @stderr, align 8
  call i32 (%struct._IO_FILE*, i8*, ...) @fprintf(%struct._IO_FILE* noundef %_err, i8* @.str.dbgp, i32 noundef %25)
  %26 = getelementptr inbounds %"class.std::__cxx11::basic_string", %"class.std::__cxx11::basic_string"* %5, i64 0, i32 0, i32 0, !dbg !4182
  store i8* %25, i8** %26, align 8, !dbg !4183, !tbaa !3771, !alias.scope !4115
  %27 = getelementptr inbounds %"class.std::__cxx11::basic_string", %"class.std::__cxx11::basic_string"* %5, i64 0, i32 2, i32 0, !dbg !4186
  store i64 %11, i64* %27, align 8, !dbg !4187, !tbaa !3358, !alias.scope !4115
  br label %28, !dbg !4188

28:                                               ; preds = %24, %15
  %29 = phi i8* [ %16, %15 ], [ %25, %24 ]
  switch i64 %11, label %32 [
    i64 1, label %30
    i64 0, label %33
  ], !dbg !4193

30:                                               ; preds = %28
  %31 = load i8, i8* %9, align 1, !dbg !4196, !tbaa !3358
  store i8 %31, i8* %29, align 1, !dbg !4197, !tbaa !3358
  br label %33, !dbg !4198

32:                                               ; preds = %28
  call void @llvm.memcpy.p0i8.p0i8.i64(i8* nonnull align 1 %29, i8* align 1 %9, i64 %11, i1 false) #16, !dbg !4199
  br label %33, !dbg !4201

33:                                               ; preds = %28, %30, %32
  %34 = getelementptr inbounds %"class.std::__cxx11::basic_string", %"class.std::__cxx11::basic_string"* %5, i64 0, i32 1, !dbg !4206
  store i64 %11, i64* %34, align 8, !dbg !4207, !tbaa !4097, !alias.scope !4115
  %35 = getelementptr inbounds i8, i8* %29, i64 %11, !dbg !4208
  store i8 0, i8* %35, align 1, !dbg !4211, !tbaa !3358
  %36 = getelementptr inbounds { %"class.std::__cxx11::basic_string"*, i64 }, { %"class.std::__cxx11::basic_string"*, i64 }* %3, i64 0, i32 0, !dbg !4113
  store %"class.std::__cxx11::basic_string"* %5, %"class.std::__cxx11::basic_string"** %36, align 8, !dbg !4113
  %37 = getelementptr inbounds { %"class.std::__cxx11::basic_string"*, i64 }, { %"class.std::__cxx11::basic_string"*, i64 }* %3, i64 0, i32 1, !dbg !4113
  store i64 23586, i64* %37, align 8, !dbg !4113
  %38 = call noundef nonnull align 8 dereferenceable(8) %"class.std::basic_ostream"* @_ZNSt8__detaillsIcSt11char_traitsIcERKNSt7__cxx1112basic_stringIcS2_SaIcEEEEERSt13basic_ostreamIT_T0_ESD_RKNS_14_Quoted_stringIT1_SA_EE(%"class.std::basic_ostream"* noundef nonnull align 8 dereferenceable(8) %0, %"struct.std::__detail::_Quoted_string"* noundef nonnull align 8 dereferenceable(10) %4), !dbg !4212
  %39 = getelementptr inbounds %"class.std::__cxx11::basic_string", %"class.std::__cxx11::basic_string"* %5, i64 0, i32 0, i32 0, !dbg !4221
  %40 = load i8*, i8** %39, align 8, !dbg !4221, !tbaa !3771
  %41 = bitcast %union.anon* %12 to i8*, !dbg !4224
  %42 = icmp eq i8* %40, %41, !dbg !4225
  br i1 %42, label %44, label %43, !dbg !4226

43:                                               ; preds = %33
  call void @_ZdlPv(i8* noundef %40) #16, !dbg !4237
  br label %44, !dbg !4238

44:                                               ; preds = %33, %43
  ret %"class.std::basic_ostream"* %0, !dbg !4240
}

declare noundef nonnull align 8 dereferenceable(8) %"class.std::basic_ostream"* @_ZNSolsEi(%"class.std::basic_ostream"* noundef nonnull align 8 dereferenceable(8), i32 noundef) local_unnamed_addr #0

; Function Attrs: argmemonly mustprogress nofree nosync nounwind willreturn
declare void @llvm.lifetime.end.p0i8(i64 immarg, i8* nocapture) #4

declare noundef nonnull align 8 dereferenceable(16) %"class.std::filesystem::__cxx11::directory_iterator"* @_ZNSt10filesystem7__cxx1118directory_iteratorppEv(%"class.std::filesystem::__cxx11::directory_iterator"* noundef nonnull align 8 dereferenceable(16)) local_unnamed_addr #0

declare void @_ZNSt10filesystem7__cxx1118directory_iteratorC2ERKNS0_4pathENS_17directory_optionsEPSt10error_code(%"class.std::filesystem::__cxx11::directory_iterator"* noundef nonnull align 8 dereferenceable(16), %"class.std::filesystem::__cxx11::path"* noundef nonnull align 8 dereferenceable(40), i8 noundef zeroext, %"class.std::error_code"* noundef) unnamed_addr #0

; Function Attrs: argmemonly mustprogress nofree nounwind willreturn writeonly
declare void @llvm.memset.p0i8.i64(i8* nocapture writeonly, i8, i64, i1 immarg) #7

; Function Attrs: nounwind
declare void @_ZNKSt10filesystem7__cxx114path5_List13_Impl_deleterclEPNS2_5_ImplE(%"struct.std::filesystem::__cxx11::path::_List::_Impl_deleter"* noundef nonnull align 1 dereferenceable(1), %"struct.std::filesystem::__cxx11::path::_List::_Impl"* noundef) local_unnamed_addr #1

; Function Attrs: nobuiltin nounwind
declare !dbg !4241 void @_ZdlPv(i8* noundef) local_unnamed_addr #8

declare void @_ZNSt10filesystem7__cxx114path5_ListC1Ev(%"struct.std::filesystem::__cxx11::path::_List"* noundef nonnull align 8 dereferenceable(8)) unnamed_addr #0

declare void @_ZNSt10filesystem7__cxx114path14_M_split_cmptsEv(%"class.std::filesystem::__cxx11::path"* noundef nonnull align 8 dereferenceable(40)) local_unnamed_addr #0

; Function Attrs: argmemonly mustprogress nofree nounwind willreturn
declare void @llvm.memcpy.p0i8.p0i8.i64(i8* noalias nocapture writeonly, i8* noalias nocapture readonly, i64, i1 immarg) #9

; Function Attrs: argmemonly mustprogress nofree nounwind readonly willreturn
declare i64 @strlen(i8* nocapture noundef) local_unnamed_addr #10

; Function Attrs: noreturn
declare void @_ZSt20__throw_length_errorPKc(i8* noundef) local_unnamed_addr #11

; Function Attrs: noreturn
declare void @_ZSt17__throw_bad_allocv() local_unnamed_addr #11

; Function Attrs: nobuiltin allocsize(0)
declare !dbg !4242 noundef nonnull i8* @_Znwm(i64 noundef) local_unnamed_addr #12

declare noundef nonnull align 8 dereferenceable(8) %"class.std::basic_ostream"* @_ZSt16__ostream_insertIcSt11char_traitsIcEERSt13basic_ostreamIT_T0_ES6_PKS3_l(%"class.std::basic_ostream"* noundef nonnull align 8 dereferenceable(8), i8* noundef, i64 noundef) local_unnamed_addr #0

; Function Attrs: nounwind uwtable
define linkonce_odr dso_local noundef nonnull align 8 dereferenceable(8) %"class.std::basic_ostream"* @_ZNSt8__detaillsIcSt11char_traitsIcERKNSt7__cxx1112basic_stringIcS2_SaIcEEEEERSt13basic_ostreamIT_T0_ESD_RKNS_14_Quoted_stringIT1_SA_EE(%"class.std::basic_ostream"* noundef nonnull align 8 dereferenceable(8) %0, %"struct.std::__detail::_Quoted_string"* noundef nonnull align 8 dereferenceable(10) %1) local_unnamed_addr #6 comdat !dbg !4245 {
  %3 = alloca i8, align 1
  %4 = alloca i8, align 1
  %5 = alloca i8, align 1
  %6 = alloca i8, align 1
  %7 = alloca %"class.std::__cxx11::basic_ostringstream", align 8
  %8 = alloca %"class.std::__cxx11::basic_string", align 8
  %9 = bitcast %"class.std::__cxx11::basic_ostringstream"* %7 to i8*, !dbg !4262
  %10 = getelementptr inbounds %"class.std::__cxx11::basic_ostringstream", %"class.std::__cxx11::basic_ostringstream"* %7, i64 0, i32 2, !dbg !4270
  %11 = getelementptr inbounds %"class.std::basic_ios", %"class.std::basic_ios"* %10, i64 0, i32 0, !dbg !4277
  call void @_ZNSt8ios_baseC2Ev(%"class.std::ios_base"* noundef nonnull align 8 dereferenceable(216) %11) #16, !dbg !4278
  %12 = getelementptr inbounds %"class.std::basic_ios", %"class.std::basic_ios"* %10, i64 0, i32 0, i32 0, !dbg !4277
  store i32 (...)** bitcast (i8** getelementptr inbounds ({ [4 x i8*] }, { [4 x i8*] }* @_ZTVSt9basic_iosIcSt11char_traitsIcEE, i64 0, inrange i32 0, i64 2) to i32 (...)**), i32 (...)*** %12, align 8, !dbg !4277, !tbaa !3517
  %13 = getelementptr inbounds %"class.std::__cxx11::basic_ostringstream", %"class.std::__cxx11::basic_ostringstream"* %7, i64 0, i32 2, i32 1, !dbg !4279
  store %"class.std::basic_ostream"* null, %"class.std::basic_ostream"** %13, align 8, !dbg !4279, !tbaa !4280
  %14 = getelementptr inbounds %"class.std::__cxx11::basic_ostringstream", %"class.std::__cxx11::basic_ostringstream"* %7, i64 0, i32 2, i32 2, !dbg !4283
  store i8 0, i8* %14, align 8, !dbg !4283, !tbaa !4284
  %15 = getelementptr inbounds %"class.std::__cxx11::basic_ostringstream", %"class.std::__cxx11::basic_ostringstream"* %7, i64 0, i32 2, i32 3, !dbg !4285
  store i8 0, i8* %15, align 1, !dbg !4285, !tbaa !4286
  %16 = getelementptr inbounds %"class.std::__cxx11::basic_ostringstream", %"class.std::__cxx11::basic_ostringstream"* %7, i64 0, i32 2, i32 4, !dbg !4287
  %17 = bitcast %"class.std::basic_streambuf"** %16 to i8*, !dbg !4288
  call void @llvm.memset.p0i8.i64(i8* noundef nonnull align 8 dereferenceable(32) %17, i8 0, i64 32, i1 false) #16, !dbg !4287
  %18 = load i32 (...)**, i32 (...)*** bitcast (i8** getelementptr inbounds ([4 x i8*], [4 x i8*]* @_ZTTNSt7__cxx1119basic_ostringstreamIcSt11char_traitsIcESaIcEEE, i64 0, i64 1) to i32 (...)***), align 8, !dbg !4296
  %19 = getelementptr inbounds %"class.std::__cxx11::basic_ostringstream", %"class.std::__cxx11::basic_ostringstream"* %7, i64 0, i32 0, i32 0, !dbg !4296
  store i32 (...)** %18, i32 (...)*** %19, align 8, !dbg !4296, !tbaa !3517
  %20 = load i32 (...)**, i32 (...)*** bitcast (i8** getelementptr inbounds ([4 x i8*], [4 x i8*]* @_ZTTNSt7__cxx1119basic_ostringstreamIcSt11char_traitsIcESaIcEEE, i64 0, i64 2) to i32 (...)***), align 8, !dbg !4296
  %21 = bitcast %"class.std::__cxx11::basic_ostringstream"* %7 to i8**, !dbg !4296
  %22 = getelementptr i32 (...)*, i32 (...)** %18, i64 -3, !dbg !4296
  %23 = bitcast i32 (...)** %22 to i64*, !dbg !4296
  %24 = load i64, i64* %23, align 8, !dbg !4296
  %25 = getelementptr inbounds i8, i8* %9, i64 %24, !dbg !4296
  %26 = bitcast i8* %25 to i32 (...)***, !dbg !4296
  store i32 (...)** %20, i32 (...)*** %26, align 8, !dbg !4296, !tbaa !3517
  %27 = load i8*, i8** %21, align 8, !dbg !4297, !tbaa !3517
  %28 = getelementptr i8, i8* %27, i64 -24, !dbg !4297
  %29 = bitcast i8* %28 to i64*, !dbg !4297
  %30 = load i64, i64* %29, align 8, !dbg !4297
  %31 = getelementptr inbounds i8, i8* %9, i64 %30, !dbg !4297
  %32 = bitcast i8* %31 to %"class.std::basic_ios"*, !dbg !4297
  call void @_ZNSt9basic_iosIcSt11char_traitsIcEE4initEPSt15basic_streambufIcS1_E(%"class.std::basic_ios"* noundef nonnull align 8 dereferenceable(264) %32, %"class.std::basic_streambuf"* noundef null) #16, !dbg !4297
  store i32 (...)** bitcast (i8** getelementptr inbounds ({ [5 x i8*], [5 x i8*] }, { [5 x i8*], [5 x i8*] }* @_ZTVNSt7__cxx1119basic_ostringstreamIcSt11char_traitsIcESaIcEEE, i64 0, inrange i32 0, i64 3) to i32 (...)**), i32 (...)*** %19, align 8, !dbg !4270, !tbaa !3517
  store i32 (...)** bitcast (i8** getelementptr inbounds ({ [5 x i8*], [5 x i8*] }, { [5 x i8*], [5 x i8*] }* @_ZTVNSt7__cxx1119basic_ostringstreamIcSt11char_traitsIcESaIcEEE, i64 0, inrange i32 1, i64 3) to i32 (...)**), i32 (...)*** %12, align 8, !dbg !4270, !tbaa !3517
  %33 = getelementptr inbounds %"class.std::__cxx11::basic_ostringstream", %"class.std::__cxx11::basic_ostringstream"* %7, i64 0, i32 1, !dbg !4299
  %34 = getelementptr inbounds %"class.std::__cxx11::basic_stringbuf", %"class.std::__cxx11::basic_stringbuf"* %33, i64 0, i32 0, i32 0, !dbg !4312
  store i32 (...)** bitcast (i8** getelementptr inbounds ({ [16 x i8*] }, { [16 x i8*] }* @_ZTVSt15basic_streambufIcSt11char_traitsIcEE, i64 0, inrange i32 0, i64 2) to i32 (...)**), i32 (...)*** %34, align 8, !dbg !4312, !tbaa !3517
  %35 = getelementptr inbounds %"class.std::__cxx11::basic_ostringstream", %"class.std::__cxx11::basic_ostringstream"* %7, i64 0, i32 1, i32 0, i32 1, !dbg !4313
  %36 = getelementptr inbounds %"class.std::__cxx11::basic_ostringstream", %"class.std::__cxx11::basic_ostringstream"* %7, i64 0, i32 1, i32 0, i32 7, !dbg !4314
  %37 = bitcast i8** %35 to i8*, !dbg !4315
  call void @llvm.memset.p0i8.i64(i8* noundef nonnull align 8 dereferenceable(48) %37, i8 0, i64 48, i1 false) #16, !dbg !4316
  call void @_ZNSt6localeC1Ev(%"class.std::locale"* noundef nonnull align 8 dereferenceable(8) %36) #16, !dbg !4315
  store i32 (...)** bitcast (i8** getelementptr inbounds ({ [16 x i8*] }, { [16 x i8*] }* @_ZTVNSt7__cxx1115basic_stringbufIcSt11char_traitsIcESaIcEEE, i64 0, inrange i32 0, i64 2) to i32 (...)**), i32 (...)*** %34, align 8, !dbg !4317, !tbaa !3517
  %38 = getelementptr inbounds %"class.std::__cxx11::basic_ostringstream", %"class.std::__cxx11::basic_ostringstream"* %7, i64 0, i32 1, i32 1, !dbg !4318
  store i32 16, i32* %38, align 8, !dbg !4318, !tbaa !4319
  %39 = getelementptr inbounds %"class.std::__cxx11::basic_ostringstream", %"class.std::__cxx11::basic_ostringstream"* %7, i64 0, i32 1, i32 2, !dbg !4322
  %40 = getelementptr inbounds %"class.std::__cxx11::basic_ostringstream", %"class.std::__cxx11::basic_ostringstream"* %7, i64 0, i32 1, i32 2, i32 2, !dbg !4330
  %41 = bitcast %"class.std::__cxx11::basic_string"* %39 to %union.anon**, !dbg !4338
  store %union.anon* %40, %union.anon** %41, align 8, !dbg !4338, !tbaa !3941
  %42 = getelementptr inbounds %"class.std::__cxx11::basic_ostringstream", %"class.std::__cxx11::basic_ostringstream"* %7, i64 0, i32 1, i32 2, i32 1, !dbg !4344
  store i64 0, i64* %42, align 8, !dbg !4345, !tbaa !4097
  %43 = bitcast %union.anon* %40 to i8*, !dbg !4348
  store i8 0, i8* %43, align 8, !dbg !4351, !tbaa !3358
  %44 = load i8*, i8** %21, align 8, !dbg !4352, !tbaa !3517
  %45 = getelementptr i8, i8* %44, i64 -24, !dbg !4352
  %46 = bitcast i8* %45 to i64*, !dbg !4352
  %47 = load i64, i64* %46, align 8, !dbg !4352
  %48 = getelementptr inbounds i8, i8* %9, i64 %47, !dbg !4352
  %49 = bitcast i8* %48 to %"class.std::basic_ios"*, !dbg !4352
  %50 = getelementptr inbounds %"class.std::__cxx11::basic_stringbuf", %"class.std::__cxx11::basic_stringbuf"* %33, i64 0, i32 0, !dbg !4354
  call void @_ZNSt9basic_iosIcSt11char_traitsIcEE4initEPSt15basic_streambufIcS1_E(%"class.std::basic_ios"* noundef nonnull align 8 dereferenceable(264) %49, %"class.std::basic_streambuf"* noundef nonnull %50) #16, !dbg !4352
  %51 = bitcast %"class.std::__cxx11::basic_ostringstream"* %7 to %"class.std::basic_ostream"*, !dbg !4355
  %52 = getelementptr inbounds %"struct.std::__detail::_Quoted_string", %"struct.std::__detail::_Quoted_string"* %1, i64 0, i32 1, !dbg !4356
  %53 = load i8, i8* %52, align 8, !dbg !4356, !tbaa !4357
  store i8 %53, i8* %6, align 1, !tbaa !3358
  %54 = call noundef nonnull align 8 dereferenceable(8) %"class.std::basic_ostream"* @_ZSt16__ostream_insertIcSt11char_traitsIcEERSt13basic_ostreamIT_T0_ES6_PKS3_l(%"class.std::basic_ostream"* noundef nonnull align 8 dereferenceable(8) %51, i8* noundef nonnull %6, i64 noundef 1) #16, !dbg !4361
  %55 = getelementptr inbounds %"struct.std::__detail::_Quoted_string", %"struct.std::__detail::_Quoted_string"* %1, i64 0, i32 0, !dbg !4363
  %56 = load %"class.std::__cxx11::basic_string"*, %"class.std::__cxx11::basic_string"** %55, align 8, !dbg !4363, !tbaa !4364
  %57 = getelementptr inbounds %"class.std::__cxx11::basic_string", %"class.std::__cxx11::basic_string"* %56, i64 0, i32 0, i32 0, !dbg !4373
  %58 = load i8*, i8** %57, align 8, !dbg !4373, !tbaa !3771
  %59 = getelementptr inbounds %"class.std::__cxx11::basic_string", %"class.std::__cxx11::basic_string"* %56, i64 0, i32 1, !dbg !4386
  %60 = load i64, i64* %59, align 8, !dbg !4386, !tbaa !4097
  %61 = getelementptr inbounds i8, i8* %58, i64 %60, !dbg !4387
  %62 = icmp eq i64 %60, 0, !dbg !4400
  br i1 %62, label %65, label %63, !dbg !4401

63:                                               ; preds = %2
  %64 = getelementptr inbounds %"struct.std::__detail::_Quoted_string", %"struct.std::__detail::_Quoted_string"* %1, i64 0, i32 2
  br label %113, !dbg !4401

65:                                               ; preds = %123, %2
  %66 = load i8, i8* %52, align 8, !dbg !4402, !tbaa !4357
  store i8 %66, i8* %5, align 1, !tbaa !3358
  %67 = call noundef nonnull align 8 dereferenceable(8) %"class.std::basic_ostream"* @_ZSt16__ostream_insertIcSt11char_traitsIcEERSt13basic_ostreamIT_T0_ES6_PKS3_l(%"class.std::basic_ostream"* noundef nonnull align 8 dereferenceable(8) %51, i8* noundef nonnull %5, i64 noundef 1) #16, !dbg !4405
  %68 = bitcast %"class.std::__cxx11::basic_string"* %8 to i8*, !dbg !4407
  call void @llvm.experimental.noalias.scope.decl(metadata !4408), !dbg !4411
  call void @llvm.experimental.noalias.scope.decl(metadata !4418) #16, !dbg !4421
  %69 = getelementptr inbounds %"class.std::__cxx11::basic_string", %"class.std::__cxx11::basic_string"* %8, i64 0, i32 2, !dbg !4439
  %70 = bitcast %"class.std::__cxx11::basic_string"* %8 to %union.anon**, !dbg !4442
  store %union.anon* %69, %union.anon** %70, align 8, !dbg !4442, !tbaa !3941, !alias.scope !4443
  %71 = getelementptr inbounds %"class.std::__cxx11::basic_string", %"class.std::__cxx11::basic_string"* %8, i64 0, i32 1, !dbg !4449
  store i64 0, i64* %71, align 8, !dbg !4450, !tbaa !4097, !alias.scope !4443
  %72 = bitcast %union.anon* %69 to i8*, !dbg !4453
  store i8 0, i8* %72, align 8, !dbg !4456, !tbaa !3358, !alias.scope !4443
  %73 = getelementptr inbounds %"class.std::__cxx11::basic_ostringstream", %"class.std::__cxx11::basic_ostringstream"* %7, i64 0, i32 1, i32 0, i32 5, !dbg !4472
  %74 = load i8*, i8** %73, align 8, !dbg !4472, !tbaa !4473, !noalias !4443
  %75 = icmp eq i8* %74, null, !dbg !4477
  %76 = getelementptr inbounds %"class.std::__cxx11::basic_ostringstream", %"class.std::__cxx11::basic_ostringstream"* %7, i64 0, i32 1, i32 0, i32 3, !dbg !4478
  %77 = load i8*, i8** %76, align 8, !dbg !4478, !noalias !4443
  %78 = icmp ugt i8* %74, %77, !dbg !4478
  %79 = select i1 %78, i8* %74, i8* %77, !dbg !4478
  %80 = icmp eq i8* %79, null, !dbg !4480
  %81 = select i1 %75, i1 true, i1 %80, !dbg !4480
  br i1 %81, label %89, label %82, !dbg !4481

82:                                               ; preds = %65
  %83 = getelementptr inbounds %"class.std::__cxx11::basic_ostringstream", %"class.std::__cxx11::basic_ostringstream"* %7, i64 0, i32 1, i32 0, i32 4, !dbg !4487
  %84 = load i8*, i8** %83, align 8, !dbg !4487, !tbaa !4488, !noalias !4443
  %85 = ptrtoint i8* %79 to i64, !dbg !4519
  %86 = ptrtoint i8* %84 to i64, !dbg !4519
  %87 = sub i64 %85, %86, !dbg !4519
  %88 = call noundef nonnull align 8 dereferenceable(32) %"class.std::__cxx11::basic_string"* @_ZNSt7__cxx1112basic_stringIcSt11char_traitsIcESaIcEE10_M_replaceEmmPKcm(%"class.std::__cxx11::basic_string"* noundef nonnull align 8 dereferenceable(32) %8, i64 noundef 0, i64 noundef 0, i8* noundef %84, i64 noundef %87) #16, !dbg !4520
  br label %90, !dbg !4521

89:                                               ; preds = %65
  call void @_ZNSt7__cxx1112basic_stringIcSt11char_traitsIcESaIcEE9_M_assignERKS4_(%"class.std::__cxx11::basic_string"* noundef nonnull align 8 dereferenceable(32) %8, %"class.std::__cxx11::basic_string"* noundef nonnull align 8 dereferenceable(32) %39) #16, !dbg !4534
  br label %90

90:                                               ; preds = %82, %89
  %91 = getelementptr inbounds %"class.std::__cxx11::basic_string", %"class.std::__cxx11::basic_string"* %8, i64 0, i32 0, i32 0, !dbg !4550
  %92 = load i8*, i8** %91, align 8, !dbg !4550, !tbaa !3771
  %93 = load i64, i64* %71, align 8, !dbg !4553, !tbaa !4097
  %94 = call noundef nonnull align 8 dereferenceable(8) %"class.std::basic_ostream"* @_ZSt16__ostream_insertIcSt11char_traitsIcEERSt13basic_ostreamIT_T0_ES6_PKS3_l(%"class.std::basic_ostream"* noundef nonnull align 8 dereferenceable(8) %0, i8* noundef %92, i64 noundef %93) #16, !dbg !4554
  %95 = load i8*, i8** %91, align 8, !dbg !4563, !tbaa !3771
  %96 = icmp eq i8* %95, %72, !dbg !4564
  br i1 %96, label %98, label %97, !dbg !4565

97:                                               ; preds = %90
  call void @_ZdlPv(i8* noundef %95) #16, !dbg !4576
  br label %98, !dbg !4577

98:                                               ; preds = %90, %97
  %99 = load i32 (...)**, i32 (...)*** bitcast ([4 x i8*]* @_ZTTNSt7__cxx1119basic_ostringstreamIcSt11char_traitsIcESaIcEEE to i32 (...)***), align 8, !dbg !4590
  store i32 (...)** %99, i32 (...)*** %19, align 8, !dbg !4590, !tbaa !3517
  %100 = load i32 (...)**, i32 (...)*** bitcast (i8** getelementptr inbounds ([4 x i8*], [4 x i8*]* @_ZTTNSt7__cxx1119basic_ostringstreamIcSt11char_traitsIcESaIcEEE, i64 0, i64 3) to i32 (...)***), align 8, !dbg !4590
  %101 = getelementptr i32 (...)*, i32 (...)** %99, i64 -3, !dbg !4590
  %102 = bitcast i32 (...)** %101 to i64*, !dbg !4590
  %103 = load i64, i64* %102, align 8, !dbg !4590
  %104 = getelementptr inbounds i8, i8* %9, i64 %103, !dbg !4590
  %105 = bitcast i8* %104 to i32 (...)***, !dbg !4590
  store i32 (...)** %100, i32 (...)*** %105, align 8, !dbg !4590, !tbaa !3517
  %106 = getelementptr inbounds %"class.std::__cxx11::basic_ostringstream", %"class.std::__cxx11::basic_ostringstream"* %7, i64 0, i32 1, i32 0, i32 0, !dbg !4598
  store i32 (...)** bitcast (i8** getelementptr inbounds ({ [16 x i8*] }, { [16 x i8*] }* @_ZTVNSt7__cxx1115basic_stringbufIcSt11char_traitsIcESaIcEEE, i64 0, inrange i32 0, i64 2) to i32 (...)**), i32 (...)*** %106, align 8, !dbg !4598, !tbaa !3517
  %107 = getelementptr inbounds %"class.std::__cxx11::basic_ostringstream", %"class.std::__cxx11::basic_ostringstream"* %7, i64 0, i32 1, i32 2, i32 0, i32 0, !dbg !4608
  %108 = load i8*, i8** %107, align 8, !dbg !4608, !tbaa !3771
  %109 = icmp eq i8* %108, %43, !dbg !4609
  br i1 %109, label %111, label %110, !dbg !4610

110:                                              ; preds = %98
  call void @_ZdlPv(i8* noundef %108) #16, !dbg !4621
  br label %111, !dbg !4622

111:                                              ; preds = %98, %110
  store i32 (...)** bitcast (i8** getelementptr inbounds ({ [16 x i8*] }, { [16 x i8*] }* @_ZTVSt15basic_streambufIcSt11char_traitsIcEE, i64 0, inrange i32 0, i64 2) to i32 (...)**), i32 (...)*** %106, align 8, !dbg !4628, !tbaa !3517
  call void @_ZNSt6localeD1Ev(%"class.std::locale"* noundef nonnull align 8 dereferenceable(8) %36) #16, !dbg !4629
  %112 = getelementptr inbounds %"class.std::__cxx11::basic_ostringstream", %"class.std::__cxx11::basic_ostringstream"* %7, i64 0, i32 2, i32 0, !dbg !4636
  call void @_ZNSt8ios_baseD2Ev(%"class.std::ios_base"* noundef nonnull align 8 dereferenceable(216) %112) #16, !dbg !4636
  ret %"class.std::basic_ostream"* %94, !dbg !4638

113:                                              ; preds = %63, %123
  %114 = phi i8* [ %58, %63 ], [ %125, %123 ]
  %115 = load i8, i8* %114, align 1, !dbg !4639, !tbaa !3358
  %116 = load i8, i8* %52, align 8, !dbg !4641, !tbaa !4357
  %117 = icmp eq i8 %115, %116, !dbg !4644
  %118 = load i8, i8* %64, align 1
  %119 = icmp eq i8 %115, %118
  %120 = select i1 %117, i1 true, i1 %119, !dbg !4645
  br i1 %120, label %121, label %123, !dbg !4645

121:                                              ; preds = %113
  store i8 %118, i8* %4, align 1, !tbaa !3358
  %122 = call noundef nonnull align 8 dereferenceable(8) %"class.std::basic_ostream"* @_ZSt16__ostream_insertIcSt11char_traitsIcEERSt13basic_ostreamIT_T0_ES6_PKS3_l(%"class.std::basic_ostream"* noundef nonnull align 8 dereferenceable(8) %51, i8* noundef nonnull %4, i64 noundef 1) #16, !dbg !4648
  br label %123, !dbg !4650

123:                                              ; preds = %113, %121
  store i8 %115, i8* %3, align 1, !tbaa !3358
  %124 = call noundef nonnull align 8 dereferenceable(8) %"class.std::basic_ostream"* @_ZSt16__ostream_insertIcSt11char_traitsIcEERSt13basic_ostreamIT_T0_ES6_PKS3_l(%"class.std::basic_ostream"* noundef nonnull align 8 dereferenceable(8) %51, i8* noundef nonnull %3, i64 noundef 1) #16, !dbg !4653
  %125 = getelementptr inbounds i8, i8* %114, i64 1, !dbg !4661
  %126 = icmp eq i8* %125, %61, !dbg !4400
  br i1 %126, label %65, label %113, !dbg !4401, !llvm.loop !4662
}

declare void @_ZNSt9basic_iosIcSt11char_traitsIcEE4initEPSt15basic_streambufIcS1_E(%"class.std::basic_ios"* noundef nonnull align 8 dereferenceable(264), %"class.std::basic_streambuf"* noundef) local_unnamed_addr #0

; Function Attrs: nounwind
declare void @_ZNSt8ios_baseC2Ev(%"class.std::ios_base"* noundef nonnull align 8 dereferenceable(216)) unnamed_addr #1

; Function Attrs: nounwind
declare void @_ZNSt6localeC1Ev(%"class.std::locale"* noundef nonnull align 8 dereferenceable(8)) unnamed_addr #1

; Function Attrs: mustprogress nounwind uwtable
define linkonce_odr dso_local noundef nonnull align 8 dereferenceable(32) %"class.std::__cxx11::basic_string"* @_ZNSt7__cxx1112basic_stringIcSt11char_traitsIcESaIcEE10_M_replaceEmmPKcm(%"class.std::__cxx11::basic_string"* noundef nonnull align 8 dereferenceable(32) %0, i64 noundef %1, i64 noundef %2, i8* noundef %3, i64 noundef %4) local_unnamed_addr #13 comdat align 2 !dbg !4665 {
  %6 = getelementptr inbounds %"class.std::__cxx11::basic_string", %"class.std::__cxx11::basic_string"* %0, i64 0, i32 1, !dbg !4700
  %7 = load i64, i64* %6, align 8, !dbg !4700, !tbaa !4097
  %8 = add i64 %2, 9223372036854775807, !dbg !4701
  %9 = sub i64 %8, %7, !dbg !4702
  %10 = icmp ult i64 %9, %4, !dbg !4703
  br i1 %10, label %11, label %12, !dbg !4704

11:                                               ; preds = %5
  tail call void @_ZSt20__throw_length_errorPKc(i8* noundef getelementptr inbounds ([25 x i8], [25 x i8]* @.str.5, i64 0, i64 0)) #17, !dbg !4705
  unreachable, !dbg !4705

12:                                               ; preds = %5
  %13 = sub i64 %4, %2, !dbg !4708
  %14 = add i64 %13, %7, !dbg !4709
  %15 = getelementptr inbounds %"class.std::__cxx11::basic_string", %"class.std::__cxx11::basic_string"* %0, i64 0, i32 0, i32 0, !dbg !4719
  %16 = load i8*, i8** %15, align 8, !dbg !4719, !tbaa !3771
  %17 = getelementptr inbounds %"class.std::__cxx11::basic_string", %"class.std::__cxx11::basic_string"* %0, i64 0, i32 2, !dbg !4722
  %18 = bitcast %union.anon* %17 to i8*, !dbg !4723
  %19 = icmp eq i8* %16, %18, !dbg !4724
  %20 = getelementptr inbounds %"class.std::__cxx11::basic_string", %"class.std::__cxx11::basic_string"* %0, i64 0, i32 2, i32 0, !dbg !4725
  %21 = load i64, i64* %20, align 8, !dbg !4725
  %22 = select i1 %19, i64 15, i64 %21, !dbg !4725
  %23 = icmp ugt i64 %14, %22, !dbg !4726
  br i1 %23, label %104, label %24, !dbg !4727

24:                                               ; preds = %12
  %25 = getelementptr inbounds i8, i8* %16, i64 %1, !dbg !4730
  %26 = add i64 %2, %1, !dbg !4732
  %27 = sub i64 %7, %26, !dbg !4732
  %28 = icmp ugt i8* %16, %3, !dbg !4765
  %29 = getelementptr inbounds i8, i8* %16, i64 %7, !dbg !4766
  %30 = icmp ult i8* %29, %3, !dbg !4766
  %31 = select i1 %28, i1 true, i1 %30, !dbg !4766
  br i1 %31, label %32, label %47, !dbg !4767

32:                                               ; preds = %24
  %33 = icmp eq i64 %27, 0, !dbg !4768
  %34 = icmp eq i64 %4, %2
  %35 = or i1 %34, %33, !dbg !4771
  br i1 %35, label %43, label %36, !dbg !4771

36:                                               ; preds = %32
  %37 = getelementptr inbounds i8, i8* %25, i64 %4, !dbg !4772
  %38 = getelementptr inbounds i8, i8* %25, i64 %2, !dbg !4773
  %39 = icmp eq i64 %27, 1, !dbg !4781
  br i1 %39, label %40, label %42, !dbg !4781

40:                                               ; preds = %36
  %41 = load i8, i8* %38, align 1, !dbg !4785, !tbaa !3358
  store i8 %41, i8* %37, align 1, !dbg !4786, !tbaa !3358
  br label %43, !dbg !4787

42:                                               ; preds = %36
  tail call void @llvm.memmove.p0i8.p0i8.i64(i8* align 1 %37, i8* align 1 %38, i64 %27, i1 false) #16, !dbg !4788
  br label %43, !dbg !4795

43:                                               ; preds = %42, %40, %32
  switch i64 %4, label %46 [
    i64 0, label %105
    i64 1, label %44
  ], !dbg !4796

44:                                               ; preds = %43
  %45 = load i8, i8* %3, align 1, !dbg !4801, !tbaa !3358
  store i8 %45, i8* %25, align 1, !dbg !4802, !tbaa !3358
  br label %105, !dbg !4803

46:                                               ; preds = %43
  tail call void @llvm.memcpy.p0i8.p0i8.i64(i8* align 1 %25, i8* align 1 %3, i64 %4, i1 false) #16, !dbg !4804
  br label %105, !dbg !4806

47:                                               ; preds = %24
  %48 = icmp ugt i64 %4, %2
  %49 = add i64 %4, -1, !dbg !4807
  %50 = icmp ult i64 %49, %2, !dbg !4807
  br i1 %50, label %51, label %56, !dbg !4807

51:                                               ; preds = %47
  %52 = icmp eq i64 %4, 1, !dbg !4811
  br i1 %52, label %53, label %55, !dbg !4811

53:                                               ; preds = %51
  %54 = load i8, i8* %3, align 1, !dbg !4814, !tbaa !3358
  store i8 %54, i8* %25, align 1, !dbg !4815, !tbaa !3358
  br label %56, !dbg !4816

55:                                               ; preds = %51
  tail call void @llvm.memmove.p0i8.p0i8.i64(i8* align 1 %25, i8* align 1 %3, i64 %4, i1 false) #16, !dbg !4817
  br label %56, !dbg !4819

56:                                               ; preds = %55, %53, %47
  %57 = icmp eq i64 %27, 0, !dbg !4820
  %58 = icmp eq i64 %4, %2
  %59 = or i1 %58, %57, !dbg !4822
  br i1 %59, label %67, label %60, !dbg !4822

60:                                               ; preds = %56
  %61 = getelementptr inbounds i8, i8* %25, i64 %4, !dbg !4823
  %62 = getelementptr inbounds i8, i8* %25, i64 %2, !dbg !4824
  %63 = icmp eq i64 %27, 1, !dbg !4827
  br i1 %63, label %64, label %66, !dbg !4827

64:                                               ; preds = %60
  %65 = load i8, i8* %62, align 1, !dbg !4830, !tbaa !3358
  store i8 %65, i8* %61, align 1, !dbg !4831, !tbaa !3358
  br label %67, !dbg !4832

66:                                               ; preds = %60
  tail call void @llvm.memmove.p0i8.p0i8.i64(i8* align 1 %61, i8* align 1 %62, i64 %27, i1 false) #16, !dbg !4833
  br label %67, !dbg !4835

67:                                               ; preds = %66, %64, %56
  br i1 %48, label %68, label %105, !dbg !4836

68:                                               ; preds = %67
  %69 = getelementptr inbounds i8, i8* %3, i64 %4, !dbg !4837
  %70 = getelementptr inbounds i8, i8* %25, i64 %2, !dbg !4838
  %71 = icmp ugt i8* %69, %70, !dbg !4839
  br i1 %71, label %77, label %72, !dbg !4840

72:                                               ; preds = %68
  %73 = icmp eq i64 %4, 1, !dbg !4843
  br i1 %73, label %74, label %76, !dbg !4843

74:                                               ; preds = %72
  %75 = load i8, i8* %3, align 1, !dbg !4846, !tbaa !3358
  store i8 %75, i8* %25, align 1, !dbg !4847, !tbaa !3358
  br label %105, !dbg !4848

76:                                               ; preds = %72
  tail call void @llvm.memmove.p0i8.p0i8.i64(i8* align 1 %25, i8* align 1 %3, i64 %4, i1 false) #16, !dbg !4849
  br label %105, !dbg !4851

77:                                               ; preds = %68
  %78 = icmp ugt i8* %70, %3, !dbg !4852
  br i1 %78, label %90, label %79, !dbg !4853

79:                                               ; preds = %77
  %80 = ptrtoint i8* %3 to i64, !dbg !4854
  %81 = ptrtoint i8* %25 to i64, !dbg !4854
  %82 = add i64 %80, %4, !dbg !4855
  %83 = add i64 %81, %2, !dbg !4855
  %84 = sub i64 %82, %83, !dbg !4855
  %85 = getelementptr inbounds i8, i8* %25, i64 %84, !dbg !4857
  %86 = icmp eq i64 %4, 1, !dbg !4860
  br i1 %86, label %87, label %89, !dbg !4860

87:                                               ; preds = %79
  %88 = load i8, i8* %85, align 1, !dbg !4863, !tbaa !3358
  store i8 %88, i8* %25, align 1, !dbg !4864, !tbaa !3358
  br label %105, !dbg !4865

89:                                               ; preds = %79
  tail call void @llvm.memcpy.p0i8.p0i8.i64(i8* align 1 %25, i8* align 1 %85, i64 %4, i1 false) #16, !dbg !4866
  br label %105, !dbg !4868

90:                                               ; preds = %77
  %91 = ptrtoint i8* %70 to i64, !dbg !4869
  %92 = ptrtoint i8* %3 to i64, !dbg !4869
  %93 = sub i64 %91, %92, !dbg !4869
  switch i64 %93, label %96 [
    i64 1, label %94
    i64 0, label %97
  ], !dbg !4873

94:                                               ; preds = %90
  %95 = load i8, i8* %3, align 1, !dbg !4876, !tbaa !3358
  store i8 %95, i8* %25, align 1, !dbg !4877, !tbaa !3358
  br label %97, !dbg !4878

96:                                               ; preds = %90
  tail call void @llvm.memmove.p0i8.p0i8.i64(i8* align 1 %25, i8* align 1 %3, i64 %93, i1 false) #16, !dbg !4879
  br label %97, !dbg !4881

97:                                               ; preds = %90, %94, %96
  %98 = getelementptr inbounds i8, i8* %25, i64 %93, !dbg !4882
  %99 = getelementptr inbounds i8, i8* %25, i64 %4, !dbg !4883
  %100 = sub i64 %4, %93, !dbg !4884
  switch i64 %100, label %103 [
    i64 1, label %101
    i64 0, label %105
  ], !dbg !4887

101:                                              ; preds = %97
  %102 = load i8, i8* %99, align 1, !dbg !4890, !tbaa !3358
  store i8 %102, i8* %98, align 1, !dbg !4891, !tbaa !3358
  br label %105, !dbg !4892

103:                                              ; preds = %97
  tail call void @llvm.memcpy.p0i8.p0i8.i64(i8* align 1 %98, i8* nonnull align 1 %99, i64 %100, i1 false) #16, !dbg !4893
  br label %105, !dbg !4895

104:                                              ; preds = %12
  tail call void @_ZNSt7__cxx1112basic_stringIcSt11char_traitsIcESaIcEE9_M_mutateEmmPKcm(%"class.std::__cxx11::basic_string"* noundef nonnull align 8 dereferenceable(32) %0, i64 noundef %1, i64 noundef %2, i8* noundef %3, i64 noundef %4), !dbg !4896
  br label %105

105:                                              ; preds = %43, %103, %101, %97, %89, %87, %76, %74, %46, %44, %67, %104
  store i64 %14, i64* %6, align 8, !dbg !4901, !tbaa !4097
  %106 = load i8*, i8** %15, align 8, !dbg !4904, !tbaa !3771
  %107 = getelementptr inbounds i8, i8* %106, i64 %14, !dbg !4905
  store i8 0, i8* %107, align 1, !dbg !4908, !tbaa !3358
  ret %"class.std::__cxx11::basic_string"* %0, !dbg !4909
}

; Function Attrs: mustprogress nounwind uwtable
define linkonce_odr dso_local void @_ZNSt7__cxx1112basic_stringIcSt11char_traitsIcESaIcEE9_M_mutateEmmPKcm(%"class.std::__cxx11::basic_string"* noundef nonnull align 8 dereferenceable(32) %0, i64 noundef %1, i64 noundef %2, i8* noundef %3, i64 noundef %4) local_unnamed_addr #13 comdat align 2 !dbg !4910 {
  %6 = getelementptr inbounds %"class.std::__cxx11::basic_string", %"class.std::__cxx11::basic_string"* %0, i64 0, i32 1, !dbg !4923
  %7 = load i64, i64* %6, align 8, !dbg !4923, !tbaa !4097
  %8 = add i64 %2, %1, !dbg !4924
  %9 = sub i64 %7, %8, !dbg !4924
  %10 = sub i64 %4, %2, !dbg !4927
  %11 = add i64 %10, %7, !dbg !4928
  %12 = getelementptr inbounds %"class.std::__cxx11::basic_string", %"class.std::__cxx11::basic_string"* %0, i64 0, i32 0, i32 0, !dbg !4935
  %13 = load i8*, i8** %12, align 8, !dbg !4935, !tbaa !3771
  %14 = getelementptr inbounds %"class.std::__cxx11::basic_string", %"class.std::__cxx11::basic_string"* %0, i64 0, i32 2, !dbg !4938
  %15 = bitcast %union.anon* %14 to i8*, !dbg !4939
  %16 = icmp eq i8* %13, %15, !dbg !4940
  %17 = getelementptr inbounds %"class.std::__cxx11::basic_string", %"class.std::__cxx11::basic_string"* %0, i64 0, i32 2, i32 0, !dbg !4941
  %18 = load i64, i64* %17, align 8, !dbg !4941
  %19 = select i1 %16, i64 15, i64 %18, !dbg !4941
  %20 = icmp slt i64 %11, 0, !dbg !4944
  br i1 %20, label %21, label %22, !dbg !4945

21:                                               ; preds = %5
  tail call void @_ZSt20__throw_length_errorPKc(i8* noundef getelementptr inbounds ([24 x i8], [24 x i8]* @.str.3, i64 0, i64 0)) #17, !dbg !4946
  unreachable, !dbg !4946

22:                                               ; preds = %5
  %23 = icmp ugt i64 %11, %19, !dbg !4947
  br i1 %23, label %24, label %30, !dbg !4949

24:                                               ; preds = %22
  %25 = shl i64 %19, 1, !dbg !4950
  %26 = icmp ult i64 %11, %25, !dbg !4951
  br i1 %26, label %27, label %30, !dbg !4952

27:                                               ; preds = %24
  %28 = icmp ult i64 %25, 9223372036854775807, !dbg !4953
  %29 = select i1 %28, i64 %25, i64 9223372036854775807, !dbg !4953
  br label %30, !dbg !4953

30:                                               ; preds = %27, %24, %22
  %31 = phi i64 [ %29, %27 ], [ %11, %24 ], [ %11, %22 ], !dbg !4920
  %32 = add nuw i64 %31, 1, !dbg !4955
  %33 = icmp slt i64 %32, 0, !dbg !4962
  br i1 %33, label %34, label %35, !dbg !4963, !prof !4027

34:                                               ; preds = %30
  tail call void @_ZSt17__throw_bad_allocv() #17, !dbg !4964
  unreachable, !dbg !4964

35:                                               ; preds = %30
  %36 = tail call noalias noundef nonnull i8* @_Znwm(i64 noundef %32) #18, !dbg !4965
  ;;
  %_err = load %struct._IO_FILE*, %struct._IO_FILE** @stderr, align 8
  call i32 (%struct._IO_FILE*, i8*, ...) @fprintf(%struct._IO_FILE* noundef %_err, i8* @.str.dbgp, i32 noundef %36)
  %37 = icmp eq i64 %1, 0, !dbg !4966
  br i1 %37, label %44, label %38, !dbg !4968

38:                                               ; preds = %35
  %39 = load i8*, i8** %12, align 8, !dbg !4971, !tbaa !3771
  %40 = icmp eq i64 %1, 1, !dbg !4974
  br i1 %40, label %41, label %43, !dbg !4974

41:                                               ; preds = %38
  %42 = load i8, i8* %39, align 1, !dbg !4977, !tbaa !3358
  store i8 %42, i8* %36, align 1, !dbg !4978, !tbaa !3358
  br label %44, !dbg !4979

43:                                               ; preds = %38
  tail call void @llvm.memcpy.p0i8.p0i8.i64(i8* nonnull align 1 %36, i8* align 1 %39, i64 %1, i1 false) #16, !dbg !4980
  br label %44, !dbg !4982

44:                                               ; preds = %43, %41, %35
  %45 = icmp ne i8* %3, null, !dbg !4983
  %46 = icmp ne i64 %4, 0
  %47 = and i1 %45, %46, !dbg !4985
  br i1 %47, label %48, label %54, !dbg !4985

48:                                               ; preds = %44
  %49 = getelementptr inbounds i8, i8* %36, i64 %1, !dbg !4986
  %50 = icmp eq i64 %4, 1, !dbg !4989
  br i1 %50, label %51, label %53, !dbg !4989

51:                                               ; preds = %48
  %52 = load i8, i8* %3, align 1, !dbg !4992, !tbaa !3358
  store i8 %52, i8* %49, align 1, !dbg !4993, !tbaa !3358
  br label %54, !dbg !4994

53:                                               ; preds = %48
  tail call void @llvm.memcpy.p0i8.p0i8.i64(i8* nonnull align 1 %49, i8* nonnull align 1 %3, i64 %4, i1 false) #16, !dbg !4995
  br label %54, !dbg !4997

54:                                               ; preds = %53, %51, %44
  %55 = icmp eq i64 %9, 0, !dbg !4998
  br i1 %55, label %56, label %58, !dbg !5000

56:                                               ; preds = %54
  %57 = load i8*, i8** %12, align 8, !dbg !5001, !tbaa !3771
  br label %68, !dbg !5000

58:                                               ; preds = %54
  %59 = getelementptr inbounds i8, i8* %36, i64 %1, !dbg !5005
  %60 = getelementptr inbounds i8, i8* %59, i64 %4, !dbg !5006
  %61 = load i8*, i8** %12, align 8, !dbg !5009, !tbaa !3771
  %62 = getelementptr inbounds i8, i8* %61, i64 %1, !dbg !5010
  %63 = getelementptr inbounds i8, i8* %62, i64 %2, !dbg !5011
  %64 = icmp eq i64 %9, 1, !dbg !5014
  br i1 %64, label %65, label %67, !dbg !5014

65:                                               ; preds = %58
  %66 = load i8, i8* %63, align 1, !dbg !5017, !tbaa !3358
  store i8 %66, i8* %60, align 1, !dbg !5018, !tbaa !3358
  br label %68, !dbg !5019

67:                                               ; preds = %58
  tail call void @llvm.memcpy.p0i8.p0i8.i64(i8* nonnull align 1 %60, i8* align 1 %63, i64 %9, i1 false) #16, !dbg !5020
  br label %68, !dbg !5022

68:                                               ; preds = %56, %67, %65
  %69 = phi i8* [ %57, %56 ], [ %61, %67 ], [ %61, %65 ], !dbg !5001
  %70 = icmp eq i8* %69, %15, !dbg !5028
  br i1 %70, label %72, label %71, !dbg !5029

71:                                               ; preds = %68
  tail call void @_ZdlPv(i8* noundef %69) #16, !dbg !5040
  br label %72, !dbg !5041

72:                                               ; preds = %68, %71
  store i8* %36, i8** %12, align 8, !dbg !5044, !tbaa !3771
  store i64 %31, i64* %17, align 8, !dbg !5047, !tbaa !3358
  ret void, !dbg !5048
}

; Function Attrs: argmemonly mustprogress nofree nounwind willreturn
declare void @llvm.memmove.p0i8.p0i8.i64(i8* nocapture writeonly, i8* nocapture readonly, i64, i1 immarg) #9

; Function Attrs: mustprogress nounwind uwtable
define linkonce_odr dso_local void @_ZNSt7__cxx1112basic_stringIcSt11char_traitsIcESaIcEE9_M_assignERKS4_(%"class.std::__cxx11::basic_string"* noundef nonnull align 8 dereferenceable(32) %0, %"class.std::__cxx11::basic_string"* noundef nonnull align 8 dereferenceable(32) %1) local_unnamed_addr #13 comdat align 2 !dbg !5049 {
  %3 = icmp eq %"class.std::__cxx11::basic_string"* %0, %1, !dbg !5062
  br i1 %3, label %52, label %4, !dbg !5063

4:                                                ; preds = %2
  %5 = getelementptr inbounds %"class.std::__cxx11::basic_string", %"class.std::__cxx11::basic_string"* %1, i64 0, i32 1, !dbg !5066
  %6 = load i64, i64* %5, align 8, !dbg !5066, !tbaa !4097
  %7 = getelementptr inbounds %"class.std::__cxx11::basic_string", %"class.std::__cxx11::basic_string"* %0, i64 0, i32 0, i32 0, !dbg !5074
  %8 = load i8*, i8** %7, align 8, !dbg !5074, !tbaa !3771
  %9 = getelementptr inbounds %"class.std::__cxx11::basic_string", %"class.std::__cxx11::basic_string"* %0, i64 0, i32 2, !dbg !5077
  %10 = bitcast %union.anon* %9 to i8*, !dbg !5078
  %11 = icmp eq i8* %8, %10, !dbg !5079
  %12 = getelementptr inbounds %"class.std::__cxx11::basic_string", %"class.std::__cxx11::basic_string"* %0, i64 0, i32 2, i32 0, !dbg !5080
  %13 = load i64, i64* %12, align 8, !dbg !5080
  %14 = select i1 %11, i64 15, i64 %13, !dbg !5080
  %15 = icmp ugt i64 %6, %14, !dbg !5081
  br i1 %15, label %16, label %34, !dbg !5082

16:                                               ; preds = %4
  %17 = icmp slt i64 %6, 0, !dbg !5086
  br i1 %17, label %18, label %19, !dbg !5087

18:                                               ; preds = %16
  tail call void @_ZSt20__throw_length_errorPKc(i8* noundef getelementptr inbounds ([24 x i8], [24 x i8]* @.str.3, i64 0, i64 0)) #17, !dbg !5088
  unreachable, !dbg !5088

19:                                               ; preds = %16
  %20 = shl i64 %14, 1, !dbg !5089
  %21 = icmp ult i64 %6, %20, !dbg !5090
  %22 = icmp ult i64 %20, 9223372036854775807, !dbg !5091
  %23 = select i1 %22, i64 %20, i64 9223372036854775807, !dbg !5091
  %24 = select i1 %21, i64 %23, i64 %6, !dbg !5091
  %25 = add nuw i64 %24, 1, !dbg !5092
  %26 = icmp slt i64 %25, 0, !dbg !5099
  br i1 %26, label %27, label %28, !dbg !5100, !prof !4027

27:                                               ; preds = %19
  tail call void @_ZSt17__throw_bad_allocv() #17, !dbg !5101
  unreachable, !dbg !5101

28:                                               ; preds = %19
  %29 = tail call noalias noundef nonnull i8* @_Znwm(i64 noundef %25) #18, !dbg !5102
  ;;
  %_err = load %struct._IO_FILE*, %struct._IO_FILE** @stderr, align 8
  call i32 (%struct._IO_FILE*, i8*, ...) @fprintf(%struct._IO_FILE* noundef %_err, i8* @.str.dbgp, i32 noundef %29)
  %30 = load i8*, i8** %7, align 8, !dbg !5109, !tbaa !3771
  %31 = icmp eq i8* %30, %10, !dbg !5112
  br i1 %31, label %33, label %32, !dbg !5113

32:                                               ; preds = %28
  tail call void @_ZdlPv(i8* noundef %30) #16, !dbg !5124
  br label %33, !dbg !5125

33:                                               ; preds = %32, %28
  store i8* %29, i8** %7, align 8, !dbg !5128, !tbaa !3771
  store i64 %24, i64* %12, align 8, !dbg !5131, !tbaa !3358
  br label %38, !dbg !5132

34:                                               ; preds = %4
  %35 = icmp eq i64 %6, 0, !dbg !5133
  br i1 %35, label %36, label %38, !dbg !5132

36:                                               ; preds = %34
  %37 = getelementptr inbounds %"class.std::__cxx11::basic_string", %"class.std::__cxx11::basic_string"* %0, i64 0, i32 1, !dbg !5139
  store i64 0, i64* %37, align 8, !dbg !5140, !tbaa !4097
  br label %50, !dbg !5132

38:                                               ; preds = %33, %34
  %39 = phi i8* [ %29, %33 ], [ %8, %34 ], !dbg !5145
  %40 = getelementptr inbounds %"class.std::__cxx11::basic_string", %"class.std::__cxx11::basic_string"* %1, i64 0, i32 0, i32 0, !dbg !5150
  %41 = load i8*, i8** %40, align 8, !dbg !5150, !tbaa !3771
  %42 = icmp eq i64 %6, 1, !dbg !5153
  br i1 %42, label %43, label %45, !dbg !5153

43:                                               ; preds = %38
  %44 = load i8, i8* %41, align 1, !dbg !5156, !tbaa !3358
  store i8 %44, i8* %39, align 1, !dbg !5157, !tbaa !3358
  br label %46, !dbg !5158

45:                                               ; preds = %38
  tail call void @llvm.memcpy.p0i8.p0i8.i64(i8* align 1 %39, i8* align 1 %41, i64 %6, i1 false) #16, !dbg !5159
  br label %46, !dbg !5161

46:                                               ; preds = %43, %45
  %47 = getelementptr inbounds %"class.std::__cxx11::basic_string", %"class.std::__cxx11::basic_string"* %0, i64 0, i32 1, !dbg !5166
  store i64 %6, i64* %47, align 8, !dbg !5167, !tbaa !4097
  %48 = load i8*, i8** %7, align 8, !dbg !5170, !tbaa !3771
  %49 = getelementptr inbounds i8, i8* %48, i64 %6, !dbg !5171
  br label %50, !dbg !5174

50:                                               ; preds = %36, %46
  %51 = phi i8* [ %49, %46 ], [ %8, %36 ]
  store i8 0, i8* %51, align 1, !dbg !5067, !tbaa !3358
  br label %52, !dbg !5175

52:                                               ; preds = %50, %2
  ret void, !dbg !5175
}

; Function Attrs: nounwind
declare void @_ZNSt6localeD1Ev(%"class.std::locale"* noundef nonnull align 8 dereferenceable(8)) unnamed_addr #1

; Function Attrs: nounwind
declare void @_ZNSt8ios_baseD2Ev(%"class.std::ios_base"* noundef nonnull align 8 dereferenceable(216)) unnamed_addr #1

; Function Attrs: nounwind uwtable
define internal void @_GLOBAL__sub_I_diriter.cpp() #6 section ".text.startup" !dbg !5176 {
  tail call void @_ZNSt8ios_base4InitC1Ev(%"class.std::ios_base::Init"* noundef nonnull align 1 dereferenceable(1) @_ZStL8__ioinit) #16, !dbg !5178
  %1 = tail call i32 @__cxa_atexit(void (i8*)* bitcast (void (%"class.std::ios_base::Init"*)* @_ZNSt8ios_base4InitD1Ev to void (i8*)*), i8* getelementptr inbounds (%"class.std::ios_base::Init", %"class.std::ios_base::Init"* @_ZStL8__ioinit, i64 0, i32 0), i8* nonnull @__dso_handle) #16, !dbg !5182
  ret void
}

; Function Attrs: nofree nosync nounwind readnone speculatable willreturn
declare void @llvm.dbg.value(metadata, metadata, metadata) #14

; Function Attrs: inaccessiblememonly nofree nosync nounwind willreturn
declare void @llvm.experimental.noalias.scope.decl(metadata) #15

attributes #0 = { "frame-pointer"="none" "no-trapping-math"="true" "stack-protector-buffer-size"="8" "target-cpu"="x86-64" "target-features"="+cx8,+fxsr,+mmx,+sse,+sse2,+x87" "tune-cpu"="generic" }
attributes #1 = { nounwind "frame-pointer"="none" "no-trapping-math"="true" "stack-protector-buffer-size"="8" "target-cpu"="x86-64" "target-features"="+cx8,+fxsr,+mmx,+sse,+sse2,+x87" "tune-cpu"="generic" }
attributes #2 = { nofree nounwind }
attributes #3 = { norecurse nounwind uwtable "frame-pointer"="none" "min-legal-vector-width"="0" "no-trapping-math"="true" "stack-protector-buffer-size"="8" "target-cpu"="x86-64" "target-features"="+cx8,+fxsr,+mmx,+sse,+sse2,+x87" "tune-cpu"="generic" }
attributes #4 = { argmemonly mustprogress nofree nosync nounwind willreturn }
attributes #5 = { mustprogress nofree nosync nounwind readnone speculatable willreturn }
attributes #6 = { nounwind uwtable "frame-pointer"="none" "min-legal-vector-width"="0" "no-trapping-math"="true" "stack-protector-buffer-size"="8" "target-cpu"="x86-64" "target-features"="+cx8,+fxsr,+mmx,+sse,+sse2,+x87" "tune-cpu"="generic" }
attributes #7 = { argmemonly mustprogress nofree nounwind willreturn writeonly }
attributes #8 = { nobuiltin nounwind "frame-pointer"="none" "no-trapping-math"="true" "stack-protector-buffer-size"="8" "target-cpu"="x86-64" "target-features"="+cx8,+fxsr,+mmx,+sse,+sse2,+x87" "tune-cpu"="generic" }
attributes #9 = { argmemonly mustprogress nofree nounwind willreturn }
attributes #10 = { argmemonly mustprogress nofree nounwind readonly willreturn "frame-pointer"="none" "no-trapping-math"="true" "stack-protector-buffer-size"="8" "target-cpu"="x86-64" "target-features"="+cx8,+fxsr,+mmx,+sse,+sse2,+x87" "tune-cpu"="generic" }
attributes #11 = { noreturn "frame-pointer"="none" "no-trapping-math"="true" "stack-protector-buffer-size"="8" "target-cpu"="x86-64" "target-features"="+cx8,+fxsr,+mmx,+sse,+sse2,+x87" "tune-cpu"="generic" }
attributes #12 = { nobuiltin allocsize(0) "frame-pointer"="none" "no-trapping-math"="true" "stack-protector-buffer-size"="8" "target-cpu"="x86-64" "target-features"="+cx8,+fxsr,+mmx,+sse,+sse2,+x87" "tune-cpu"="generic" }
attributes #13 = { mustprogress nounwind uwtable "frame-pointer"="none" "min-legal-vector-width"="0" "no-trapping-math"="true" "stack-protector-buffer-size"="8" "target-cpu"="x86-64" "target-features"="+cx8,+fxsr,+mmx,+sse,+sse2,+x87" "tune-cpu"="generic" }
attributes #14 = { nofree nosync nounwind readnone speculatable willreturn }
attributes #15 = { inaccessiblememonly nofree nosync nounwind willreturn }
attributes #16 = { nounwind }
attributes #17 = { noreturn nounwind }
attributes #18 = { nounwind allocsize(0) }

!llvm.dbg.cu = !{!7}
!llvm.linker.options = !{}
!llvm.module.flags = !{!3261, !3262, !3263, !3264, !3265, !3266}
!llvm.ident = !{!3267}

!0 = !DIGlobalVariableExpression(var: !1, expr: !DIExpression())
!1 = distinct !DIGlobalVariable(name: "__ioinit", linkageName: "_ZStL8__ioinit", scope: !2, file: !3, line: 74, type: !4, isLocal: true, isDefinition: true)
!2 = !DINamespace(name: "std", scope: null)
!3 = !DIFile(filename: "/usr/bin/../lib/gcc/x86_64-linux-gnu/11/../../../../include/c++/11/iostream", directory: "")
!4 = !DICompositeType(tag: DW_TAG_class_type, name: "Init", scope: !6, file: !5, line: 626, size: 8, flags: DIFlagFwdDecl | DIFlagNonTrivial, identifier: "_ZTSNSt8ios_base4InitE")
!5 = !DIFile(filename: "/usr/bin/../lib/gcc/x86_64-linux-gnu/11/../../../../include/c++/11/bits/ios_base.h", directory: "")
!6 = !DICompositeType(tag: DW_TAG_class_type, name: "ios_base", scope: !2, file: !5, line: 228, size: 1728, flags: DIFlagFwdDecl | DIFlagNonTrivial, identifier: "_ZTSSt8ios_base")
!7 = distinct !DICompileUnit(language: DW_LANG_C_plus_plus_14, file: !8, producer: "Ubuntu clang version 14.0.0-1ubuntu1", isOptimized: true, runtimeVersion: 0, emissionKind: FullDebug, enums: !9, retainedTypes: !1181, globals: !2307, imports: !2308, splitDebugInlining: false, nameTableKind: None)
!8 = !DIFile(filename: "cpp/diriter.cpp", directory: "/home/kai/src/ll2x", checksumkind: CSK_MD5, checksum: "7f328fa04e74e18b2360e3b4d6b886c7")
!9 = !{!10, !18, !26, !1053, !1152, !1155, !1164, !1175}
!10 = !DICompositeType(tag: DW_TAG_enumeration_type, name: "_Lock_policy", scope: !12, file: !11, line: 49, baseType: !13, size: 32, elements: !14, identifier: "_ZTSN9__gnu_cxx12_Lock_policyE")
!11 = !DIFile(filename: "/usr/bin/../lib/gcc/x86_64-linux-gnu/11/../../../../include/c++/11/ext/concurrence.h", directory: "")
!12 = !DINamespace(name: "__gnu_cxx", scope: null)
!13 = !DIBasicType(name: "unsigned int", size: 32, encoding: DW_ATE_unsigned)
!14 = !{!15, !16, !17}
!15 = !DIEnumerator(name: "_S_single", value: 0, isUnsigned: true)
!16 = !DIEnumerator(name: "_S_mutex", value: 1, isUnsigned: true)
!17 = !DIEnumerator(name: "_S_atomic", value: 2, isUnsigned: true)
!18 = !DICompositeType(tag: DW_TAG_enumeration_type, name: "directory_options", scope: !20, file: !19, line: 263, baseType: !21, size: 8, flags: DIFlagEnumClass, elements: !22, identifier: "_ZTSNSt10filesystem17directory_optionsE")
!19 = !DIFile(filename: "/usr/bin/../lib/gcc/x86_64-linux-gnu/11/../../../../include/c++/11/bits/fs_fwd.h", directory: "", checksumkind: CSK_MD5, checksum: "473ddbab2f988f5606e2f88d815cf1db")
!20 = !DINamespace(name: "filesystem", scope: !2)
!21 = !DIBasicType(name: "unsigned char", size: 8, encoding: DW_ATE_unsigned_char)
!22 = !{!23, !24, !25}
!23 = !DIEnumerator(name: "none", value: 0, isUnsigned: true)
!24 = !DIEnumerator(name: "follow_directory_symlink", value: 1, isUnsigned: true)
!25 = !DIEnumerator(name: "skip_permission_denied", value: 2, isUnsigned: true)
!26 = !DICompositeType(tag: DW_TAG_enumeration_type, name: "format", scope: !28, file: !27, line: 266, baseType: !21, size: 8, elements: !1148, identifier: "_ZTSNSt10filesystem7__cxx114path6formatE")
!27 = !DIFile(filename: "/usr/bin/../lib/gcc/x86_64-linux-gnu/11/../../../../include/c++/11/bits/fs_path.h", directory: "", checksumkind: CSK_MD5, checksum: "8877eb003169ec54e3ef21d88efdadbc")
!28 = distinct !DICompositeType(tag: DW_TAG_class_type, name: "path", scope: !29, file: !27, line: 248, size: 320, flags: DIFlagTypePassByReference | DIFlagNonTrivial, elements: !30, identifier: "_ZTSNSt10filesystem7__cxx114pathE")
!29 = !DINamespace(name: "__cxx11", scope: !20, exportSymbols: true)
!30 = !{!31, !35, !907, !909, !913, !918, !922, !926, !927, !931, !934, !937, !938, !939, !940, !945, !949, !952, !955, !956, !959, !960, !961, !962, !965, !969, !972, !975, !980, !985, !990, !995, !1000, !1001, !1002, !1003, !1004, !1005, !1008, !1011, !1014, !1017, !1020, !1021, !1022, !1023, !1024, !1025, !1026, !1027, !1030, !1031, !1032, !1033, !1034, !1035, !1036, !1037, !1038, !1039, !1040, !1041, !1044, !1045, !1049, !1050, !1059, !1062, !1063, !1131, !1134, !1141, !1144, !1145}
!31 = !DIDerivedType(tag: DW_TAG_member, name: "preferred_separator", scope: !28, file: !27, line: 261, baseType: !32, flags: DIFlagPublic | DIFlagStaticMember, extraData: i8 47)
!32 = !DIDerivedType(tag: DW_TAG_const_type, baseType: !33)
!33 = !DIDerivedType(tag: DW_TAG_typedef, name: "value_type", scope: !28, file: !27, line: 259, baseType: !34)
!34 = !DIBasicType(name: "char", size: 8, encoding: DW_ATE_signed_char)
!35 = !DIDerivedType(tag: DW_TAG_member, name: "_M_pathname", scope: !28, file: !27, line: 637, baseType: !36, size: 256)
!36 = !DIDerivedType(tag: DW_TAG_typedef, name: "string_type", scope: !28, file: !27, line: 263, baseType: !37)
!37 = distinct !DICompositeType(tag: DW_TAG_class_type, name: "basic_string<char, std::char_traits<char>, std::allocator<char> >", scope: !39, file: !38, line: 85, size: 256, flags: DIFlagTypePassByReference | DIFlagNonTrivial, elements: !40, templateParams: !906, identifier: "_ZTSNSt7__cxx1112basic_stringIcSt11char_traitsIcESaIcEEE")
!38 = !DIFile(filename: "/usr/bin/../lib/gcc/x86_64-linux-gnu/11/../../../../include/c++/11/bits/basic_string.h", directory: "")
!39 = !DINamespace(name: "__cxx11", scope: !2, exportSymbols: true)
!40 = !{!41, !151, !172, !173, !181, !390, !401, !404, !407, !412, !415, !421, !422, !423, !426, !430, !433, !434, !437, !438, !442, !447, !450, !453, !456, !459, !462, !463, !466, !528, !586, !589, !592, !595, !599, !602, !605, !606, !609, !610, !613, !616, !619, !622, !626, !631, !634, !637, !638, !642, !645, !648, !651, !654, !657, !660, !663, !664, !665, !670, !675, !676, !677, !678, !679, !680, !681, !684, !685, !686, !687, !688, !689, !690, !691, !692, !693, !694, !703, !709, !710, !711, !714, !717, !718, !719, !720, !721, !722, !723, !724, !727, !730, !731, !734, !735, !738, !739, !740, !741, !742, !743, !744, !745, !748, !751, !754, !757, !760, !763, !766, !770, !773, !776, !779, !780, !783, !786, !789, !792, !795, !798, !801, !804, !807, !810, !813, !816, !819, !822, !823, !826, !827, !830, !833, !836, !837, !840, !843, !846, !849, !852, !855, !856, !857, !858, !859, !860, !861, !862, !863, !864, !865, !866, !867, !868, !869, !870, !871, !872, !873, !874, !875, !878, !881, !884, !887, !890, !893, !896, !899, !902, !903, !904, !905}
!41 = !DIDerivedType(tag: DW_TAG_member, name: "npos", scope: !37, file: !38, line: 109, baseType: !42, flags: DIFlagPublic | DIFlagStaticMember, extraData: i64 -1)
!42 = !DIDerivedType(tag: DW_TAG_const_type, baseType: !43)
!43 = !DIDerivedType(tag: DW_TAG_typedef, name: "size_type", scope: !37, file: !38, line: 96, baseType: !44)
!44 = !DIDerivedType(tag: DW_TAG_typedef, name: "size_type", scope: !46, file: !45, line: 59, baseType: !128)
!45 = !DIFile(filename: "/usr/bin/../lib/gcc/x86_64-linux-gnu/11/../../../../include/c++/11/ext/alloc_traits.h", directory: "")
!46 = distinct !DICompositeType(tag: DW_TAG_structure_type, name: "__alloc_traits<std::allocator<char>, char>", scope: !12, file: !45, line: 48, size: 8, flags: DIFlagTypePassByValue, elements: !47, templateParams: !150, identifier: "_ZTSN9__gnu_cxx14__alloc_traitsISaIcEcEE")
!47 = !{!48, !136, !139, !142, !146, !147, !148, !149}
!48 = !DIDerivedType(tag: DW_TAG_inheritance, scope: !46, baseType: !49, extraData: i32 0)
!49 = distinct !DICompositeType(tag: DW_TAG_structure_type, name: "allocator_traits<std::allocator<char> >", scope: !2, file: !50, line: 411, size: 8, flags: DIFlagTypePassByValue, elements: !51, templateParams: !134, identifier: "_ZTSSt16allocator_traitsISaIcEE")
!50 = !DIFile(filename: "/usr/bin/../lib/gcc/x86_64-linux-gnu/11/../../../../include/c++/11/bits/alloc_traits.h", directory: "", checksumkind: CSK_MD5, checksum: "58570f452bb65bce7518e3bf3b7a6e72")
!51 = !{!52, !118, !122, !125, !131}
!52 = !DISubprogram(name: "allocate", linkageName: "_ZNSt16allocator_traitsISaIcEE8allocateERS0_m", scope: !49, file: !50, line: 463, type: !53, scopeLine: 463, flags: DIFlagPrototyped | DIFlagStaticMember, spFlags: DISPFlagOptimized)
!53 = !DISubroutineType(types: !54)
!54 = !{!55, !57, !117}
!55 = !DIDerivedType(tag: DW_TAG_typedef, name: "pointer", scope: !49, file: !50, line: 420, baseType: !56)
!56 = !DIDerivedType(tag: DW_TAG_pointer_type, baseType: !34, size: 64)
!57 = !DIDerivedType(tag: DW_TAG_reference_type, baseType: !58, size: 64)
!58 = !DIDerivedType(tag: DW_TAG_typedef, name: "allocator_type", scope: !49, file: !50, line: 414, baseType: !59)
!59 = distinct !DICompositeType(tag: DW_TAG_class_type, name: "allocator<char>", scope: !2, file: !60, line: 261, size: 8, flags: DIFlagTypePassByReference | DIFlagNonTrivial, elements: !61, templateParams: !115, identifier: "_ZTSSaIcE")
!60 = !DIFile(filename: "/usr/bin/../lib/gcc/x86_64-linux-gnu/11/../../../../include/c++/11/bits/allocator.h", directory: "", checksumkind: CSK_MD5, checksum: "73bb75b771508fea2005b03d4edcd63f")
!61 = !{!62, !95, !99, !104, !108, !109, !112}
!62 = !DIDerivedType(tag: DW_TAG_inheritance, scope: !59, baseType: !63, flags: DIFlagPublic, extraData: i32 0)
!63 = !DIDerivedType(tag: DW_TAG_typedef, name: "__allocator_base<char>", scope: !2, file: !64, line: 48, baseType: !65)
!64 = !DIFile(filename: "/usr/bin/../lib/gcc/x86_64-linux-gnu/11/../../../../include/x86_64-linux-gnu/c++/11/bits/c++allocator.h", directory: "", checksumkind: CSK_MD5, checksum: "fcdcf111c9228da351f93cd81039e6d6")
!65 = distinct !DICompositeType(tag: DW_TAG_class_type, name: "new_allocator<char>", scope: !12, file: !66, line: 55, size: 8, flags: DIFlagTypePassByReference | DIFlagNonTrivial, elements: !67, templateParams: !93, identifier: "_ZTSN9__gnu_cxx13new_allocatorIcEE")
!66 = !DIFile(filename: "/usr/bin/../lib/gcc/x86_64-linux-gnu/11/../../../../include/c++/11/ext/new_allocator.h", directory: "", checksumkind: CSK_MD5, checksum: "4493add5a3fa57e0ec30b90cd4e81c11")
!67 = !{!68, !72, !77, !86, !89}
!68 = !DISubprogram(name: "new_allocator", scope: !65, file: !66, line: 79, type: !69, scopeLine: 79, flags: DIFlagPublic | DIFlagPrototyped, spFlags: DISPFlagOptimized)
!69 = !DISubroutineType(types: !70)
!70 = !{null, !71}
!71 = !DIDerivedType(tag: DW_TAG_pointer_type, baseType: !65, size: 64, flags: DIFlagArtificial | DIFlagObjectPointer)
!72 = !DISubprogram(name: "new_allocator", scope: !65, file: !66, line: 82, type: !73, scopeLine: 82, flags: DIFlagPublic | DIFlagPrototyped, spFlags: DISPFlagOptimized)
!73 = !DISubroutineType(types: !74)
!74 = !{null, !71, !75}
!75 = !DIDerivedType(tag: DW_TAG_reference_type, baseType: !76, size: 64)
!76 = !DIDerivedType(tag: DW_TAG_const_type, baseType: !65)
!77 = !DISubprogram(name: "allocate", linkageName: "_ZN9__gnu_cxx13new_allocatorIcE8allocateEmPKv", scope: !65, file: !66, line: 103, type: !78, scopeLine: 103, flags: DIFlagPublic | DIFlagPrototyped, spFlags: DISPFlagOptimized)
!78 = !DISubroutineType(types: !79)
!79 = !{!56, !71, !80, !84}
!80 = !DIDerivedType(tag: DW_TAG_typedef, name: "size_type", file: !66, line: 59, baseType: !81)
!81 = !DIDerivedType(tag: DW_TAG_typedef, name: "size_t", scope: !2, file: !82, line: 280, baseType: !83)
!82 = !DIFile(filename: "/usr/bin/../lib/gcc/x86_64-linux-gnu/11/../../../../include/x86_64-linux-gnu/c++/11/bits/c++config.h", directory: "", checksumkind: CSK_MD5, checksum: "b580bd6c81b6bfb6402fbc5dbb4852dd")
!83 = !DIBasicType(name: "unsigned long", size: 64, encoding: DW_ATE_unsigned)
!84 = !DIDerivedType(tag: DW_TAG_pointer_type, baseType: !85, size: 64)
!85 = !DIDerivedType(tag: DW_TAG_const_type, baseType: null)
!86 = !DISubprogram(name: "deallocate", linkageName: "_ZN9__gnu_cxx13new_allocatorIcE10deallocateEPcm", scope: !65, file: !66, line: 132, type: !87, scopeLine: 132, flags: DIFlagPublic | DIFlagPrototyped, spFlags: DISPFlagOptimized)
!87 = !DISubroutineType(types: !88)
!88 = !{null, !71, !56, !80}
!89 = !DISubprogram(name: "_M_max_size", linkageName: "_ZNK9__gnu_cxx13new_allocatorIcE11_M_max_sizeEv", scope: !65, file: !66, line: 197, type: !90, scopeLine: 197, flags: DIFlagPrototyped, spFlags: DISPFlagOptimized)
!90 = !DISubroutineType(types: !91)
!91 = !{!80, !92}
!92 = !DIDerivedType(tag: DW_TAG_pointer_type, baseType: !76, size: 64, flags: DIFlagArtificial | DIFlagObjectPointer)
!93 = !{!94}
!94 = !DITemplateTypeParameter(name: "_Tp", type: !34)
!95 = !DISubprogram(name: "allocator", scope: !59, file: !60, line: 156, type: !96, scopeLine: 156, flags: DIFlagPublic | DIFlagPrototyped, spFlags: DISPFlagOptimized)
!96 = !DISubroutineType(types: !97)
!97 = !{null, !98}
!98 = !DIDerivedType(tag: DW_TAG_pointer_type, baseType: !59, size: 64, flags: DIFlagArtificial | DIFlagObjectPointer)
!99 = !DISubprogram(name: "allocator", scope: !59, file: !60, line: 159, type: !100, scopeLine: 159, flags: DIFlagPublic | DIFlagPrototyped, spFlags: DISPFlagOptimized)
!100 = !DISubroutineType(types: !101)
!101 = !{null, !98, !102}
!102 = !DIDerivedType(tag: DW_TAG_reference_type, baseType: !103, size: 64)
!103 = !DIDerivedType(tag: DW_TAG_const_type, baseType: !59)
!104 = !DISubprogram(name: "operator=", linkageName: "_ZNSaIcEaSERKS_", scope: !59, file: !60, line: 164, type: !105, scopeLine: 164, flags: DIFlagPublic | DIFlagPrototyped, spFlags: DISPFlagOptimized)
!105 = !DISubroutineType(types: !106)
!106 = !{!107, !98, !102}
!107 = !DIDerivedType(tag: DW_TAG_reference_type, baseType: !59, size: 64)
!108 = !DISubprogram(name: "~allocator", scope: !59, file: !60, line: 174, type: !96, scopeLine: 174, flags: DIFlagPublic | DIFlagPrototyped, spFlags: DISPFlagOptimized)
!109 = !DISubprogram(name: "allocate", linkageName: "_ZNSaIcE8allocateEm", scope: !59, file: !60, line: 179, type: !110, scopeLine: 179, flags: DIFlagPublic | DIFlagPrototyped, spFlags: DISPFlagOptimized)
!110 = !DISubroutineType(types: !111)
!111 = !{!56, !98, !81}
!112 = !DISubprogram(name: "deallocate", linkageName: "_ZNSaIcE10deallocateEPcm", scope: !59, file: !60, line: 190, type: !113, scopeLine: 190, flags: DIFlagPublic | DIFlagPrototyped, spFlags: DISPFlagOptimized)
!113 = !DISubroutineType(types: !114)
!114 = !{null, !98, !56, !81}
!115 = !{!116}
!116 = !DITemplateTypeParameter(type: !34)
!117 = !DIDerivedType(tag: DW_TAG_typedef, name: "size_type", file: !50, line: 435, baseType: !81)
!118 = !DISubprogram(name: "allocate", linkageName: "_ZNSt16allocator_traitsISaIcEE8allocateERS0_mPKv", scope: !49, file: !50, line: 477, type: !119, scopeLine: 477, flags: DIFlagPrototyped | DIFlagStaticMember, spFlags: DISPFlagOptimized)
!119 = !DISubroutineType(types: !120)
!120 = !{!55, !57, !117, !121}
!121 = !DIDerivedType(tag: DW_TAG_typedef, name: "const_void_pointer", file: !50, line: 429, baseType: !84)
!122 = !DISubprogram(name: "deallocate", linkageName: "_ZNSt16allocator_traitsISaIcEE10deallocateERS0_Pcm", scope: !49, file: !50, line: 495, type: !123, scopeLine: 495, flags: DIFlagPrototyped | DIFlagStaticMember, spFlags: DISPFlagOptimized)
!123 = !DISubroutineType(types: !124)
!124 = !{null, !57, !55, !117}
!125 = !DISubprogram(name: "max_size", linkageName: "_ZNSt16allocator_traitsISaIcEE8max_sizeERKS0_", scope: !49, file: !50, line: 547, type: !126, scopeLine: 547, flags: DIFlagPrototyped | DIFlagStaticMember, spFlags: DISPFlagOptimized)
!126 = !DISubroutineType(types: !127)
!127 = !{!128, !129}
!128 = !DIDerivedType(tag: DW_TAG_typedef, name: "size_type", scope: !49, file: !50, line: 435, baseType: !81)
!129 = !DIDerivedType(tag: DW_TAG_reference_type, baseType: !130, size: 64)
!130 = !DIDerivedType(tag: DW_TAG_const_type, baseType: !58)
!131 = !DISubprogram(name: "select_on_container_copy_construction", linkageName: "_ZNSt16allocator_traitsISaIcEE37select_on_container_copy_constructionERKS0_", scope: !49, file: !50, line: 562, type: !132, scopeLine: 562, flags: DIFlagPrototyped | DIFlagStaticMember, spFlags: DISPFlagOptimized)
!132 = !DISubroutineType(types: !133)
!133 = !{!58, !129}
!134 = !{!135}
!135 = !DITemplateTypeParameter(name: "_Alloc", type: !59)
!136 = !DISubprogram(name: "_S_select_on_copy", linkageName: "_ZN9__gnu_cxx14__alloc_traitsISaIcEcE17_S_select_on_copyERKS1_", scope: !46, file: !45, line: 97, type: !137, scopeLine: 97, flags: DIFlagPrototyped | DIFlagStaticMember, spFlags: DISPFlagOptimized)
!137 = !DISubroutineType(types: !138)
!138 = !{!59, !102}
!139 = !DISubprogram(name: "_S_on_swap", linkageName: "_ZN9__gnu_cxx14__alloc_traitsISaIcEcE10_S_on_swapERS1_S3_", scope: !46, file: !45, line: 100, type: !140, scopeLine: 100, flags: DIFlagPrototyped | DIFlagStaticMember, spFlags: DISPFlagOptimized)
!140 = !DISubroutineType(types: !141)
!141 = !{null, !107, !107}
!142 = !DISubprogram(name: "_S_propagate_on_copy_assign", linkageName: "_ZN9__gnu_cxx14__alloc_traitsISaIcEcE27_S_propagate_on_copy_assignEv", scope: !46, file: !45, line: 103, type: !143, scopeLine: 103, flags: DIFlagPrototyped | DIFlagStaticMember, spFlags: DISPFlagOptimized)
!143 = !DISubroutineType(types: !144)
!144 = !{!145}
!145 = !DIBasicType(name: "bool", size: 8, encoding: DW_ATE_boolean)
!146 = !DISubprogram(name: "_S_propagate_on_move_assign", linkageName: "_ZN9__gnu_cxx14__alloc_traitsISaIcEcE27_S_propagate_on_move_assignEv", scope: !46, file: !45, line: 106, type: !143, scopeLine: 106, flags: DIFlagPrototyped | DIFlagStaticMember, spFlags: DISPFlagOptimized)
!147 = !DISubprogram(name: "_S_propagate_on_swap", linkageName: "_ZN9__gnu_cxx14__alloc_traitsISaIcEcE20_S_propagate_on_swapEv", scope: !46, file: !45, line: 109, type: !143, scopeLine: 109, flags: DIFlagPrototyped | DIFlagStaticMember, spFlags: DISPFlagOptimized)
!148 = !DISubprogram(name: "_S_always_equal", linkageName: "_ZN9__gnu_cxx14__alloc_traitsISaIcEcE15_S_always_equalEv", scope: !46, file: !45, line: 112, type: !143, scopeLine: 112, flags: DIFlagPrototyped | DIFlagStaticMember, spFlags: DISPFlagOptimized)
!149 = !DISubprogram(name: "_S_nothrow_move", linkageName: "_ZN9__gnu_cxx14__alloc_traitsISaIcEcE15_S_nothrow_moveEv", scope: !46, file: !45, line: 115, type: !143, scopeLine: 115, flags: DIFlagPrototyped | DIFlagStaticMember, spFlags: DISPFlagOptimized)
!150 = !{!135, !116}
!151 = !DIDerivedType(tag: DW_TAG_member, name: "_M_dataplus", scope: !37, file: !38, line: 174, baseType: !152, size: 64)
!152 = distinct !DICompositeType(tag: DW_TAG_structure_type, name: "_Alloc_hider", scope: !37, file: !38, line: 158, size: 64, flags: DIFlagTypePassByReference | DIFlagNonTrivial, elements: !153, identifier: "_ZTSNSt7__cxx1112basic_stringIcSt11char_traitsIcESaIcEE12_Alloc_hiderE")
!153 = !{!154, !161, !164, !168}
!154 = !DIDerivedType(tag: DW_TAG_inheritance, scope: !152, baseType: !155, extraData: i32 0)
!155 = !DIDerivedType(tag: DW_TAG_typedef, name: "allocator_type", scope: !37, file: !38, line: 95, baseType: !156)
!156 = !DIDerivedType(tag: DW_TAG_typedef, name: "_Char_alloc_type", scope: !37, file: !38, line: 88, baseType: !157)
!157 = !DIDerivedType(tag: DW_TAG_typedef, name: "other", scope: !158, file: !45, line: 120, baseType: !160)
!158 = distinct !DICompositeType(tag: DW_TAG_structure_type, name: "rebind<char>", scope: !46, file: !45, line: 119, size: 8, flags: DIFlagTypePassByValue, elements: !159, templateParams: !93, identifier: "_ZTSN9__gnu_cxx14__alloc_traitsISaIcEcE6rebindIcEE")
!159 = !{}
!160 = !DIDerivedType(tag: DW_TAG_typedef, name: "rebind_alloc<char>", scope: !49, file: !50, line: 450, baseType: !59)
!161 = !DIDerivedType(tag: DW_TAG_member, name: "_M_p", scope: !152, file: !38, line: 171, baseType: !162, size: 64)
!162 = !DIDerivedType(tag: DW_TAG_typedef, name: "pointer", scope: !37, file: !38, line: 100, baseType: !163)
!163 = !DIDerivedType(tag: DW_TAG_typedef, name: "pointer", scope: !46, file: !45, line: 57, baseType: !55)
!164 = !DISubprogram(name: "_Alloc_hider", scope: !152, file: !38, line: 164, type: !165, scopeLine: 164, flags: DIFlagPrototyped, spFlags: DISPFlagOptimized)
!165 = !DISubroutineType(types: !166)
!166 = !{null, !167, !162, !102}
!167 = !DIDerivedType(tag: DW_TAG_pointer_type, baseType: !152, size: 64, flags: DIFlagArtificial | DIFlagObjectPointer)
!168 = !DISubprogram(name: "_Alloc_hider", scope: !152, file: !38, line: 167, type: !169, scopeLine: 167, flags: DIFlagPrototyped, spFlags: DISPFlagOptimized)
!169 = !DISubroutineType(types: !170)
!170 = !{null, !167, !162, !171}
!171 = !DIDerivedType(tag: DW_TAG_rvalue_reference_type, baseType: !59, size: 64)
!172 = !DIDerivedType(tag: DW_TAG_member, name: "_M_string_length", scope: !37, file: !38, line: 175, baseType: !43, size: 64, offset: 64)
!173 = !DIDerivedType(tag: DW_TAG_member, scope: !37, file: !38, line: 179, baseType: !174, size: 128, offset: 128)
!174 = distinct !DICompositeType(tag: DW_TAG_union_type, scope: !37, file: !38, line: 179, size: 128, flags: DIFlagExportSymbols | DIFlagTypePassByValue, elements: !175, identifier: "_ZTSNSt7__cxx1112basic_stringIcSt11char_traitsIcESaIcEEUt0_E")
!175 = !{!176, !180}
!176 = !DIDerivedType(tag: DW_TAG_member, name: "_M_local_buf", scope: !174, file: !38, line: 181, baseType: !177, size: 128)
!177 = !DICompositeType(tag: DW_TAG_array_type, baseType: !34, size: 128, elements: !178)
!178 = !{!179}
!179 = !DISubrange(count: 16)
!180 = !DIDerivedType(tag: DW_TAG_member, name: "_M_allocated_capacity", scope: !174, file: !38, line: 182, baseType: !43, size: 64)
!181 = !DISubprogram(name: "_S_to_string_view", linkageName: "_ZNSt7__cxx1112basic_stringIcSt11char_traitsIcESaIcEE17_S_to_string_viewESt17basic_string_viewIcS2_E", scope: !37, file: !38, line: 133, type: !182, scopeLine: 133, flags: DIFlagPrototyped | DIFlagStaticMember, spFlags: DISPFlagOptimized)
!182 = !DISubroutineType(types: !183)
!183 = !{!184, !184}
!184 = !DIDerivedType(tag: DW_TAG_typedef, name: "__sv_type", scope: !37, file: !38, line: 122, baseType: !185)
!185 = distinct !DICompositeType(tag: DW_TAG_class_type, name: "basic_string_view<char, std::char_traits<char> >", scope: !2, file: !186, line: 98, size: 128, flags: DIFlagTypePassByValue | DIFlagNonTrivial, elements: !187, templateParams: !336, identifier: "_ZTSSt17basic_string_viewIcSt11char_traitsIcEE")
!186 = !DIFile(filename: "/usr/bin/../lib/gcc/x86_64-linux-gnu/11/../../../../include/c++/11/string_view", directory: "")
!187 = !{!188, !191, !192, !195, !199, !204, !207, !210, !214, !222, !223, !224, !225, !231, !232, !233, !234, !237, !238, !239, !242, !247, !248, !251, !252, !256, !259, !260, !263, !267, !270, !274, !277, !280, !283, !286, !289, !292, !295, !298, !299, !300, !301, !304, !307, !310, !313, !314, !315, !316, !317, !318, !319, !320, !321, !322, !323, !324, !325, !326, !327, !328, !329, !330, !331, !332, !333}
!188 = !DIDerivedType(tag: DW_TAG_member, name: "npos", scope: !185, file: !186, line: 119, baseType: !189, flags: DIFlagPublic | DIFlagStaticMember)
!189 = !DIDerivedType(tag: DW_TAG_const_type, baseType: !190)
!190 = !DIDerivedType(tag: DW_TAG_typedef, name: "size_type", file: !186, line: 117, baseType: !81)
!191 = !DIDerivedType(tag: DW_TAG_member, name: "_M_len", scope: !185, file: !186, line: 511, baseType: !81, size: 64)
!192 = !DIDerivedType(tag: DW_TAG_member, name: "_M_str", scope: !185, file: !186, line: 512, baseType: !193, size: 64, offset: 64)
!193 = !DIDerivedType(tag: DW_TAG_pointer_type, baseType: !194, size: 64)
!194 = !DIDerivedType(tag: DW_TAG_const_type, baseType: !34)
!195 = !DISubprogram(name: "basic_string_view", scope: !185, file: !186, line: 124, type: !196, scopeLine: 124, flags: DIFlagPublic | DIFlagPrototyped, spFlags: DISPFlagOptimized)
!196 = !DISubroutineType(types: !197)
!197 = !{null, !198}
!198 = !DIDerivedType(tag: DW_TAG_pointer_type, baseType: !185, size: 64, flags: DIFlagArtificial | DIFlagObjectPointer)
!199 = !DISubprogram(name: "basic_string_view", scope: !185, file: !186, line: 128, type: !200, scopeLine: 128, flags: DIFlagPublic | DIFlagPrototyped, spFlags: DISPFlagOptimized)
!200 = !DISubroutineType(types: !201)
!201 = !{null, !198, !202}
!202 = !DIDerivedType(tag: DW_TAG_reference_type, baseType: !203, size: 64)
!203 = !DIDerivedType(tag: DW_TAG_const_type, baseType: !185)
!204 = !DISubprogram(name: "basic_string_view", scope: !185, file: !186, line: 131, type: !205, scopeLine: 131, flags: DIFlagPublic | DIFlagPrototyped, spFlags: DISPFlagOptimized)
!205 = !DISubroutineType(types: !206)
!206 = !{null, !198, !193}
!207 = !DISubprogram(name: "basic_string_view", scope: !185, file: !186, line: 137, type: !208, scopeLine: 137, flags: DIFlagPublic | DIFlagPrototyped, spFlags: DISPFlagOptimized)
!208 = !DISubroutineType(types: !209)
!209 = !{null, !198, !193, !190}
!210 = !DISubprogram(name: "operator=", linkageName: "_ZNSt17basic_string_viewIcSt11char_traitsIcEEaSERKS2_", scope: !185, file: !186, line: 172, type: !211, scopeLine: 172, flags: DIFlagPublic | DIFlagPrototyped, spFlags: DISPFlagOptimized)
!211 = !DISubroutineType(types: !212)
!212 = !{!213, !198, !202}
!213 = !DIDerivedType(tag: DW_TAG_reference_type, baseType: !185, size: 64)
!214 = !DISubprogram(name: "begin", linkageName: "_ZNKSt17basic_string_viewIcSt11char_traitsIcEE5beginEv", scope: !185, file: !186, line: 177, type: !215, scopeLine: 177, flags: DIFlagPublic | DIFlagPrototyped, spFlags: DISPFlagOptimized)
!215 = !DISubroutineType(types: !216)
!216 = !{!217, !221}
!217 = !DIDerivedType(tag: DW_TAG_typedef, name: "const_iterator", scope: !185, file: !186, line: 113, baseType: !218)
!218 = !DIDerivedType(tag: DW_TAG_pointer_type, baseType: !219, size: 64)
!219 = !DIDerivedType(tag: DW_TAG_const_type, baseType: !220)
!220 = !DIDerivedType(tag: DW_TAG_typedef, name: "value_type", scope: !185, file: !186, line: 108, baseType: !34)
!221 = !DIDerivedType(tag: DW_TAG_pointer_type, baseType: !203, size: 64, flags: DIFlagArtificial | DIFlagObjectPointer)
!222 = !DISubprogram(name: "end", linkageName: "_ZNKSt17basic_string_viewIcSt11char_traitsIcEE3endEv", scope: !185, file: !186, line: 181, type: !215, scopeLine: 181, flags: DIFlagPublic | DIFlagPrototyped, spFlags: DISPFlagOptimized)
!223 = !DISubprogram(name: "cbegin", linkageName: "_ZNKSt17basic_string_viewIcSt11char_traitsIcEE6cbeginEv", scope: !185, file: !186, line: 185, type: !215, scopeLine: 185, flags: DIFlagPublic | DIFlagPrototyped, spFlags: DISPFlagOptimized)
!224 = !DISubprogram(name: "cend", linkageName: "_ZNKSt17basic_string_viewIcSt11char_traitsIcEE4cendEv", scope: !185, file: !186, line: 189, type: !215, scopeLine: 189, flags: DIFlagPublic | DIFlagPrototyped, spFlags: DISPFlagOptimized)
!225 = !DISubprogram(name: "rbegin", linkageName: "_ZNKSt17basic_string_viewIcSt11char_traitsIcEE6rbeginEv", scope: !185, file: !186, line: 193, type: !226, scopeLine: 193, flags: DIFlagPublic | DIFlagPrototyped, spFlags: DISPFlagOptimized)
!226 = !DISubroutineType(types: !227)
!227 = !{!228, !221}
!228 = !DIDerivedType(tag: DW_TAG_typedef, name: "const_reverse_iterator", scope: !185, file: !186, line: 115, baseType: !229)
!229 = !DICompositeType(tag: DW_TAG_class_type, name: "reverse_iterator<const char *>", scope: !2, file: !230, line: 127, flags: DIFlagFwdDecl | DIFlagNonTrivial, identifier: "_ZTSSt16reverse_iteratorIPKcE")
!230 = !DIFile(filename: "/usr/bin/../lib/gcc/x86_64-linux-gnu/11/../../../../include/c++/11/bits/stl_iterator.h", directory: "", checksumkind: CSK_MD5, checksum: "43ad7d2b85ae23c8eccc761a6b4418f9")
!231 = !DISubprogram(name: "rend", linkageName: "_ZNKSt17basic_string_viewIcSt11char_traitsIcEE4rendEv", scope: !185, file: !186, line: 197, type: !226, scopeLine: 197, flags: DIFlagPublic | DIFlagPrototyped, spFlags: DISPFlagOptimized)
!232 = !DISubprogram(name: "crbegin", linkageName: "_ZNKSt17basic_string_viewIcSt11char_traitsIcEE7crbeginEv", scope: !185, file: !186, line: 201, type: !226, scopeLine: 201, flags: DIFlagPublic | DIFlagPrototyped, spFlags: DISPFlagOptimized)
!233 = !DISubprogram(name: "crend", linkageName: "_ZNKSt17basic_string_viewIcSt11char_traitsIcEE5crendEv", scope: !185, file: !186, line: 205, type: !226, scopeLine: 205, flags: DIFlagPublic | DIFlagPrototyped, spFlags: DISPFlagOptimized)
!234 = !DISubprogram(name: "size", linkageName: "_ZNKSt17basic_string_viewIcSt11char_traitsIcEE4sizeEv", scope: !185, file: !186, line: 211, type: !235, scopeLine: 211, flags: DIFlagPublic | DIFlagPrototyped, spFlags: DISPFlagOptimized)
!235 = !DISubroutineType(types: !236)
!236 = !{!190, !221}
!237 = !DISubprogram(name: "length", linkageName: "_ZNKSt17basic_string_viewIcSt11char_traitsIcEE6lengthEv", scope: !185, file: !186, line: 215, type: !235, scopeLine: 215, flags: DIFlagPublic | DIFlagPrototyped, spFlags: DISPFlagOptimized)
!238 = !DISubprogram(name: "max_size", linkageName: "_ZNKSt17basic_string_viewIcSt11char_traitsIcEE8max_sizeEv", scope: !185, file: !186, line: 219, type: !235, scopeLine: 219, flags: DIFlagPublic | DIFlagPrototyped, spFlags: DISPFlagOptimized)
!239 = !DISubprogram(name: "empty", linkageName: "_ZNKSt17basic_string_viewIcSt11char_traitsIcEE5emptyEv", scope: !185, file: !186, line: 226, type: !240, scopeLine: 226, flags: DIFlagPublic | DIFlagPrototyped, spFlags: DISPFlagOptimized)
!240 = !DISubroutineType(types: !241)
!241 = !{!145, !221}
!242 = !DISubprogram(name: "operator[]", linkageName: "_ZNKSt17basic_string_viewIcSt11char_traitsIcEEixEm", scope: !185, file: !186, line: 232, type: !243, scopeLine: 232, flags: DIFlagPublic | DIFlagPrototyped, spFlags: DISPFlagOptimized)
!243 = !DISubroutineType(types: !244)
!244 = !{!245, !221, !190}
!245 = !DIDerivedType(tag: DW_TAG_typedef, name: "const_reference", scope: !185, file: !186, line: 112, baseType: !246)
!246 = !DIDerivedType(tag: DW_TAG_reference_type, baseType: !219, size: 64)
!247 = !DISubprogram(name: "at", linkageName: "_ZNKSt17basic_string_viewIcSt11char_traitsIcEE2atEm", scope: !185, file: !186, line: 239, type: !243, scopeLine: 239, flags: DIFlagPublic | DIFlagPrototyped, spFlags: DISPFlagOptimized)
!248 = !DISubprogram(name: "front", linkageName: "_ZNKSt17basic_string_viewIcSt11char_traitsIcEE5frontEv", scope: !185, file: !186, line: 249, type: !249, scopeLine: 249, flags: DIFlagPublic | DIFlagPrototyped, spFlags: DISPFlagOptimized)
!249 = !DISubroutineType(types: !250)
!250 = !{!245, !221}
!251 = !DISubprogram(name: "back", linkageName: "_ZNKSt17basic_string_viewIcSt11char_traitsIcEE4backEv", scope: !185, file: !186, line: 256, type: !249, scopeLine: 256, flags: DIFlagPublic | DIFlagPrototyped, spFlags: DISPFlagOptimized)
!252 = !DISubprogram(name: "data", linkageName: "_ZNKSt17basic_string_viewIcSt11char_traitsIcEE4dataEv", scope: !185, file: !186, line: 263, type: !253, scopeLine: 263, flags: DIFlagPublic | DIFlagPrototyped, spFlags: DISPFlagOptimized)
!253 = !DISubroutineType(types: !254)
!254 = !{!255, !221}
!255 = !DIDerivedType(tag: DW_TAG_typedef, name: "const_pointer", scope: !185, file: !186, line: 110, baseType: !218)
!256 = !DISubprogram(name: "remove_prefix", linkageName: "_ZNSt17basic_string_viewIcSt11char_traitsIcEE13remove_prefixEm", scope: !185, file: !186, line: 269, type: !257, scopeLine: 269, flags: DIFlagPublic | DIFlagPrototyped, spFlags: DISPFlagOptimized)
!257 = !DISubroutineType(types: !258)
!258 = !{null, !198, !190}
!259 = !DISubprogram(name: "remove_suffix", linkageName: "_ZNSt17basic_string_viewIcSt11char_traitsIcEE13remove_suffixEm", scope: !185, file: !186, line: 277, type: !257, scopeLine: 277, flags: DIFlagPublic | DIFlagPrototyped, spFlags: DISPFlagOptimized)
!260 = !DISubprogram(name: "swap", linkageName: "_ZNSt17basic_string_viewIcSt11char_traitsIcEE4swapERS2_", scope: !185, file: !186, line: 281, type: !261, scopeLine: 281, flags: DIFlagPublic | DIFlagPrototyped, spFlags: DISPFlagOptimized)
!261 = !DISubroutineType(types: !262)
!262 = !{null, !198, !213}
!263 = !DISubprogram(name: "copy", linkageName: "_ZNKSt17basic_string_viewIcSt11char_traitsIcEE4copyEPcmm", scope: !185, file: !186, line: 292, type: !264, scopeLine: 292, flags: DIFlagPublic | DIFlagPrototyped, spFlags: DISPFlagOptimized)
!264 = !DISubroutineType(types: !265)
!265 = !{!266, !221, !56, !190, !190}
!266 = !DIDerivedType(tag: DW_TAG_typedef, name: "size_type", scope: !185, file: !186, line: 117, baseType: !81)
!267 = !DISubprogram(name: "substr", linkageName: "_ZNKSt17basic_string_viewIcSt11char_traitsIcEE6substrEmm", scope: !185, file: !186, line: 304, type: !268, scopeLine: 304, flags: DIFlagPublic | DIFlagPrototyped, spFlags: DISPFlagOptimized)
!268 = !DISubroutineType(types: !269)
!269 = !{!185, !221, !190, !190}
!270 = !DISubprogram(name: "compare", linkageName: "_ZNKSt17basic_string_viewIcSt11char_traitsIcEE7compareES2_", scope: !185, file: !186, line: 312, type: !271, scopeLine: 312, flags: DIFlagPublic | DIFlagPrototyped, spFlags: DISPFlagOptimized)
!271 = !DISubroutineType(types: !272)
!272 = !{!273, !221, !185}
!273 = !DIBasicType(name: "int", size: 32, encoding: DW_ATE_signed)
!274 = !DISubprogram(name: "compare", linkageName: "_ZNKSt17basic_string_viewIcSt11char_traitsIcEE7compareEmmS2_", scope: !185, file: !186, line: 322, type: !275, scopeLine: 322, flags: DIFlagPublic | DIFlagPrototyped, spFlags: DISPFlagOptimized)
!275 = !DISubroutineType(types: !276)
!276 = !{!273, !221, !190, !190, !185}
!277 = !DISubprogram(name: "compare", linkageName: "_ZNKSt17basic_string_viewIcSt11char_traitsIcEE7compareEmmS2_mm", scope: !185, file: !186, line: 326, type: !278, scopeLine: 326, flags: DIFlagPublic | DIFlagPrototyped, spFlags: DISPFlagOptimized)
!278 = !DISubroutineType(types: !279)
!279 = !{!273, !221, !190, !190, !185, !190, !190}
!280 = !DISubprogram(name: "compare", linkageName: "_ZNKSt17basic_string_viewIcSt11char_traitsIcEE7compareEPKc", scope: !185, file: !186, line: 333, type: !281, scopeLine: 333, flags: DIFlagPublic | DIFlagPrototyped, spFlags: DISPFlagOptimized)
!281 = !DISubroutineType(types: !282)
!282 = !{!273, !221, !193}
!283 = !DISubprogram(name: "compare", linkageName: "_ZNKSt17basic_string_viewIcSt11char_traitsIcEE7compareEmmPKc", scope: !185, file: !186, line: 337, type: !284, scopeLine: 337, flags: DIFlagPublic | DIFlagPrototyped, spFlags: DISPFlagOptimized)
!284 = !DISubroutineType(types: !285)
!285 = !{!273, !221, !190, !190, !193}
!286 = !DISubprogram(name: "compare", linkageName: "_ZNKSt17basic_string_viewIcSt11char_traitsIcEE7compareEmmPKcm", scope: !185, file: !186, line: 341, type: !287, scopeLine: 341, flags: DIFlagPublic | DIFlagPrototyped, spFlags: DISPFlagOptimized)
!287 = !DISubroutineType(types: !288)
!288 = !{!273, !221, !190, !190, !193, !190}
!289 = !DISubprogram(name: "starts_with", linkageName: "_ZNKSt17basic_string_viewIcSt11char_traitsIcEE11starts_withES2_", scope: !185, file: !186, line: 351, type: !290, scopeLine: 351, flags: DIFlagPublic | DIFlagPrototyped, spFlags: DISPFlagOptimized)
!290 = !DISubroutineType(types: !291)
!291 = !{!145, !221, !185}
!292 = !DISubprogram(name: "starts_with", linkageName: "_ZNKSt17basic_string_viewIcSt11char_traitsIcEE11starts_withEc", scope: !185, file: !186, line: 355, type: !293, scopeLine: 355, flags: DIFlagPublic | DIFlagPrototyped, spFlags: DISPFlagOptimized)
!293 = !DISubroutineType(types: !294)
!294 = !{!145, !221, !34}
!295 = !DISubprogram(name: "starts_with", linkageName: "_ZNKSt17basic_string_viewIcSt11char_traitsIcEE11starts_withEPKc", scope: !185, file: !186, line: 359, type: !296, scopeLine: 359, flags: DIFlagPublic | DIFlagPrototyped, spFlags: DISPFlagOptimized)
!296 = !DISubroutineType(types: !297)
!297 = !{!145, !221, !193}
!298 = !DISubprogram(name: "ends_with", linkageName: "_ZNKSt17basic_string_viewIcSt11char_traitsIcEE9ends_withES2_", scope: !185, file: !186, line: 363, type: !290, scopeLine: 363, flags: DIFlagPublic | DIFlagPrototyped, spFlags: DISPFlagOptimized)
!299 = !DISubprogram(name: "ends_with", linkageName: "_ZNKSt17basic_string_viewIcSt11char_traitsIcEE9ends_withEc", scope: !185, file: !186, line: 372, type: !293, scopeLine: 372, flags: DIFlagPublic | DIFlagPrototyped, spFlags: DISPFlagOptimized)
!300 = !DISubprogram(name: "ends_with", linkageName: "_ZNKSt17basic_string_viewIcSt11char_traitsIcEE9ends_withEPKc", scope: !185, file: !186, line: 376, type: !296, scopeLine: 376, flags: DIFlagPublic | DIFlagPrototyped, spFlags: DISPFlagOptimized)
!301 = !DISubprogram(name: "find", linkageName: "_ZNKSt17basic_string_viewIcSt11char_traitsIcEE4findES2_m", scope: !185, file: !186, line: 398, type: !302, scopeLine: 398, flags: DIFlagPublic | DIFlagPrototyped, spFlags: DISPFlagOptimized)
!302 = !DISubroutineType(types: !303)
!303 = !{!266, !221, !185, !190}
!304 = !DISubprogram(name: "find", linkageName: "_ZNKSt17basic_string_viewIcSt11char_traitsIcEE4findEcm", scope: !185, file: !186, line: 402, type: !305, scopeLine: 402, flags: DIFlagPublic | DIFlagPrototyped, spFlags: DISPFlagOptimized)
!305 = !DISubroutineType(types: !306)
!306 = !{!266, !221, !34, !190}
!307 = !DISubprogram(name: "find", linkageName: "_ZNKSt17basic_string_viewIcSt11char_traitsIcEE4findEPKcmm", scope: !185, file: !186, line: 405, type: !308, scopeLine: 405, flags: DIFlagPublic | DIFlagPrototyped, spFlags: DISPFlagOptimized)
!308 = !DISubroutineType(types: !309)
!309 = !{!266, !221, !193, !190, !190}
!310 = !DISubprogram(name: "find", linkageName: "_ZNKSt17basic_string_viewIcSt11char_traitsIcEE4findEPKcm", scope: !185, file: !186, line: 408, type: !311, scopeLine: 408, flags: DIFlagPublic | DIFlagPrototyped, spFlags: DISPFlagOptimized)
!311 = !DISubroutineType(types: !312)
!312 = !{!266, !221, !193, !190}
!313 = !DISubprogram(name: "rfind", linkageName: "_ZNKSt17basic_string_viewIcSt11char_traitsIcEE5rfindES2_m", scope: !185, file: !186, line: 412, type: !302, scopeLine: 412, flags: DIFlagPublic | DIFlagPrototyped, spFlags: DISPFlagOptimized)
!314 = !DISubprogram(name: "rfind", linkageName: "_ZNKSt17basic_string_viewIcSt11char_traitsIcEE5rfindEcm", scope: !185, file: !186, line: 416, type: !305, scopeLine: 416, flags: DIFlagPublic | DIFlagPrototyped, spFlags: DISPFlagOptimized)
!315 = !DISubprogram(name: "rfind", linkageName: "_ZNKSt17basic_string_viewIcSt11char_traitsIcEE5rfindEPKcmm", scope: !185, file: !186, line: 419, type: !308, scopeLine: 419, flags: DIFlagPublic | DIFlagPrototyped, spFlags: DISPFlagOptimized)
!316 = !DISubprogram(name: "rfind", linkageName: "_ZNKSt17basic_string_viewIcSt11char_traitsIcEE5rfindEPKcm", scope: !185, file: !186, line: 422, type: !311, scopeLine: 422, flags: DIFlagPublic | DIFlagPrototyped, spFlags: DISPFlagOptimized)
!317 = !DISubprogram(name: "find_first_of", linkageName: "_ZNKSt17basic_string_viewIcSt11char_traitsIcEE13find_first_ofES2_m", scope: !185, file: !186, line: 426, type: !302, scopeLine: 426, flags: DIFlagPublic | DIFlagPrototyped, spFlags: DISPFlagOptimized)
!318 = !DISubprogram(name: "find_first_of", linkageName: "_ZNKSt17basic_string_viewIcSt11char_traitsIcEE13find_first_ofEcm", scope: !185, file: !186, line: 430, type: !305, scopeLine: 430, flags: DIFlagPublic | DIFlagPrototyped, spFlags: DISPFlagOptimized)
!319 = !DISubprogram(name: "find_first_of", linkageName: "_ZNKSt17basic_string_viewIcSt11char_traitsIcEE13find_first_ofEPKcmm", scope: !185, file: !186, line: 434, type: !308, scopeLine: 434, flags: DIFlagPublic | DIFlagPrototyped, spFlags: DISPFlagOptimized)
!320 = !DISubprogram(name: "find_first_of", linkageName: "_ZNKSt17basic_string_viewIcSt11char_traitsIcEE13find_first_ofEPKcm", scope: !185, file: !186, line: 438, type: !311, scopeLine: 438, flags: DIFlagPublic | DIFlagPrototyped, spFlags: DISPFlagOptimized)
!321 = !DISubprogram(name: "find_last_of", linkageName: "_ZNKSt17basic_string_viewIcSt11char_traitsIcEE12find_last_ofES2_m", scope: !185, file: !186, line: 442, type: !302, scopeLine: 442, flags: DIFlagPublic | DIFlagPrototyped, spFlags: DISPFlagOptimized)
!322 = !DISubprogram(name: "find_last_of", linkageName: "_ZNKSt17basic_string_viewIcSt11char_traitsIcEE12find_last_ofEcm", scope: !185, file: !186, line: 447, type: !305, scopeLine: 447, flags: DIFlagPublic | DIFlagPrototyped, spFlags: DISPFlagOptimized)
!323 = !DISubprogram(name: "find_last_of", linkageName: "_ZNKSt17basic_string_viewIcSt11char_traitsIcEE12find_last_ofEPKcmm", scope: !185, file: !186, line: 451, type: !308, scopeLine: 451, flags: DIFlagPublic | DIFlagPrototyped, spFlags: DISPFlagOptimized)
!324 = !DISubprogram(name: "find_last_of", linkageName: "_ZNKSt17basic_string_viewIcSt11char_traitsIcEE12find_last_ofEPKcm", scope: !185, file: !186, line: 455, type: !311, scopeLine: 455, flags: DIFlagPublic | DIFlagPrototyped, spFlags: DISPFlagOptimized)
!325 = !DISubprogram(name: "find_first_not_of", linkageName: "_ZNKSt17basic_string_viewIcSt11char_traitsIcEE17find_first_not_ofES2_m", scope: !185, file: !186, line: 459, type: !302, scopeLine: 459, flags: DIFlagPublic | DIFlagPrototyped, spFlags: DISPFlagOptimized)
!326 = !DISubprogram(name: "find_first_not_of", linkageName: "_ZNKSt17basic_string_viewIcSt11char_traitsIcEE17find_first_not_ofEcm", scope: !185, file: !186, line: 464, type: !305, scopeLine: 464, flags: DIFlagPublic | DIFlagPrototyped, spFlags: DISPFlagOptimized)
!327 = !DISubprogram(name: "find_first_not_of", linkageName: "_ZNKSt17basic_string_viewIcSt11char_traitsIcEE17find_first_not_ofEPKcmm", scope: !185, file: !186, line: 467, type: !308, scopeLine: 467, flags: DIFlagPublic | DIFlagPrototyped, spFlags: DISPFlagOptimized)
!328 = !DISubprogram(name: "find_first_not_of", linkageName: "_ZNKSt17basic_string_viewIcSt11char_traitsIcEE17find_first_not_ofEPKcm", scope: !185, file: !186, line: 471, type: !311, scopeLine: 471, flags: DIFlagPublic | DIFlagPrototyped, spFlags: DISPFlagOptimized)
!329 = !DISubprogram(name: "find_last_not_of", linkageName: "_ZNKSt17basic_string_viewIcSt11char_traitsIcEE16find_last_not_ofES2_m", scope: !185, file: !186, line: 478, type: !302, scopeLine: 478, flags: DIFlagPublic | DIFlagPrototyped, spFlags: DISPFlagOptimized)
!330 = !DISubprogram(name: "find_last_not_of", linkageName: "_ZNKSt17basic_string_viewIcSt11char_traitsIcEE16find_last_not_ofEcm", scope: !185, file: !186, line: 483, type: !305, scopeLine: 483, flags: DIFlagPublic | DIFlagPrototyped, spFlags: DISPFlagOptimized)
!331 = !DISubprogram(name: "find_last_not_of", linkageName: "_ZNKSt17basic_string_viewIcSt11char_traitsIcEE16find_last_not_ofEPKcmm", scope: !185, file: !186, line: 486, type: !308, scopeLine: 486, flags: DIFlagPublic | DIFlagPrototyped, spFlags: DISPFlagOptimized)
!332 = !DISubprogram(name: "find_last_not_of", linkageName: "_ZNKSt17basic_string_viewIcSt11char_traitsIcEE16find_last_not_ofEPKcm", scope: !185, file: !186, line: 490, type: !311, scopeLine: 490, flags: DIFlagPublic | DIFlagPrototyped, spFlags: DISPFlagOptimized)
!333 = !DISubprogram(name: "_S_compare", linkageName: "_ZNSt17basic_string_viewIcSt11char_traitsIcEE10_S_compareEmm", scope: !185, file: !186, line: 500, type: !334, scopeLine: 500, flags: DIFlagPrototyped | DIFlagStaticMember, spFlags: DISPFlagOptimized)
!334 = !DISubroutineType(types: !335)
!335 = !{!273, !190, !190}
!336 = !{!337, !338}
!337 = !DITemplateTypeParameter(name: "_CharT", type: !34)
!338 = !DITemplateTypeParameter(name: "_Traits", type: !339)
!339 = distinct !DICompositeType(tag: DW_TAG_structure_type, name: "char_traits<char>", scope: !2, file: !340, line: 344, size: 8, flags: DIFlagTypePassByValue, elements: !341, templateParams: !389, identifier: "_ZTSSt11char_traitsIcE")
!340 = !DIFile(filename: "/usr/bin/../lib/gcc/x86_64-linux-gnu/11/../../../../include/c++/11/bits/char_traits.h", directory: "")
!341 = !{!342, !349, !352, !353, !357, !360, !363, !367, !368, !371, !377, !380, !383, !386}
!342 = !DISubprogram(name: "assign", linkageName: "_ZNSt11char_traitsIcE6assignERcRKc", scope: !339, file: !340, line: 356, type: !343, scopeLine: 356, flags: DIFlagPrototyped | DIFlagStaticMember, spFlags: DISPFlagOptimized)
!343 = !DISubroutineType(types: !344)
!344 = !{null, !345, !347}
!345 = !DIDerivedType(tag: DW_TAG_reference_type, baseType: !346, size: 64)
!346 = !DIDerivedType(tag: DW_TAG_typedef, name: "char_type", scope: !339, file: !340, line: 346, baseType: !34)
!347 = !DIDerivedType(tag: DW_TAG_reference_type, baseType: !348, size: 64)
!348 = !DIDerivedType(tag: DW_TAG_const_type, baseType: !346)
!349 = !DISubprogram(name: "eq", linkageName: "_ZNSt11char_traitsIcE2eqERKcS2_", scope: !339, file: !340, line: 360, type: !350, scopeLine: 360, flags: DIFlagPrototyped | DIFlagStaticMember, spFlags: DISPFlagOptimized)
!350 = !DISubroutineType(types: !351)
!351 = !{!145, !347, !347}
!352 = !DISubprogram(name: "lt", linkageName: "_ZNSt11char_traitsIcE2ltERKcS2_", scope: !339, file: !340, line: 364, type: !350, scopeLine: 364, flags: DIFlagPrototyped | DIFlagStaticMember, spFlags: DISPFlagOptimized)
!353 = !DISubprogram(name: "compare", linkageName: "_ZNSt11char_traitsIcE7compareEPKcS2_m", scope: !339, file: !340, line: 372, type: !354, scopeLine: 372, flags: DIFlagPrototyped | DIFlagStaticMember, spFlags: DISPFlagOptimized)
!354 = !DISubroutineType(types: !355)
!355 = !{!273, !356, !356, !81}
!356 = !DIDerivedType(tag: DW_TAG_pointer_type, baseType: !348, size: 64)
!357 = !DISubprogram(name: "length", linkageName: "_ZNSt11char_traitsIcE6lengthEPKc", scope: !339, file: !340, line: 393, type: !358, scopeLine: 393, flags: DIFlagPrototyped | DIFlagStaticMember, spFlags: DISPFlagOptimized)
!358 = !DISubroutineType(types: !359)
!359 = !{!81, !356}
!360 = !DISubprogram(name: "find", linkageName: "_ZNSt11char_traitsIcE4findEPKcmRS1_", scope: !339, file: !340, line: 403, type: !361, scopeLine: 403, flags: DIFlagPrototyped | DIFlagStaticMember, spFlags: DISPFlagOptimized)
!361 = !DISubroutineType(types: !362)
!362 = !{!356, !356, !81, !347}
!363 = !DISubprogram(name: "move", linkageName: "_ZNSt11char_traitsIcE4moveEPcPKcm", scope: !339, file: !340, line: 417, type: !364, scopeLine: 417, flags: DIFlagPrototyped | DIFlagStaticMember, spFlags: DISPFlagOptimized)
!364 = !DISubroutineType(types: !365)
!365 = !{!366, !366, !356, !81}
!366 = !DIDerivedType(tag: DW_TAG_pointer_type, baseType: !346, size: 64)
!367 = !DISubprogram(name: "copy", linkageName: "_ZNSt11char_traitsIcE4copyEPcPKcm", scope: !339, file: !340, line: 429, type: !364, scopeLine: 429, flags: DIFlagPrototyped | DIFlagStaticMember, spFlags: DISPFlagOptimized)
!368 = !DISubprogram(name: "assign", linkageName: "_ZNSt11char_traitsIcE6assignEPcmc", scope: !339, file: !340, line: 441, type: !369, scopeLine: 441, flags: DIFlagPrototyped | DIFlagStaticMember, spFlags: DISPFlagOptimized)
!369 = !DISubroutineType(types: !370)
!370 = !{!366, !366, !81, !346}
!371 = !DISubprogram(name: "to_char_type", linkageName: "_ZNSt11char_traitsIcE12to_char_typeERKi", scope: !339, file: !340, line: 453, type: !372, scopeLine: 453, flags: DIFlagPrototyped | DIFlagStaticMember, spFlags: DISPFlagOptimized)
!372 = !DISubroutineType(types: !373)
!373 = !{!346, !374}
!374 = !DIDerivedType(tag: DW_TAG_reference_type, baseType: !375, size: 64)
!375 = !DIDerivedType(tag: DW_TAG_const_type, baseType: !376)
!376 = !DIDerivedType(tag: DW_TAG_typedef, name: "int_type", scope: !339, file: !340, line: 347, baseType: !273)
!377 = !DISubprogram(name: "to_int_type", linkageName: "_ZNSt11char_traitsIcE11to_int_typeERKc", scope: !339, file: !340, line: 459, type: !378, scopeLine: 459, flags: DIFlagPrototyped | DIFlagStaticMember, spFlags: DISPFlagOptimized)
!378 = !DISubroutineType(types: !379)
!379 = !{!376, !347}
!380 = !DISubprogram(name: "eq_int_type", linkageName: "_ZNSt11char_traitsIcE11eq_int_typeERKiS2_", scope: !339, file: !340, line: 463, type: !381, scopeLine: 463, flags: DIFlagPrototyped | DIFlagStaticMember, spFlags: DISPFlagOptimized)
!381 = !DISubroutineType(types: !382)
!382 = !{!145, !374, !374}
!383 = !DISubprogram(name: "eof", linkageName: "_ZNSt11char_traitsIcE3eofEv", scope: !339, file: !340, line: 467, type: !384, scopeLine: 467, flags: DIFlagPrototyped | DIFlagStaticMember, spFlags: DISPFlagOptimized)
!384 = !DISubroutineType(types: !385)
!385 = !{!376}
!386 = !DISubprogram(name: "not_eof", linkageName: "_ZNSt11char_traitsIcE7not_eofERKi", scope: !339, file: !340, line: 471, type: !387, scopeLine: 471, flags: DIFlagPrototyped | DIFlagStaticMember, spFlags: DISPFlagOptimized)
!387 = !DISubroutineType(types: !388)
!388 = !{!376, !374}
!389 = !{!337}
!390 = !DISubprogram(name: "basic_string", scope: !37, file: !38, line: 153, type: !391, scopeLine: 153, flags: DIFlagExplicit | DIFlagPrototyped, spFlags: DISPFlagOptimized)
!391 = !DISubroutineType(types: !392)
!392 = !{null, !393, !394, !102}
!393 = !DIDerivedType(tag: DW_TAG_pointer_type, baseType: !37, size: 64, flags: DIFlagArtificial | DIFlagObjectPointer)
!394 = distinct !DICompositeType(tag: DW_TAG_structure_type, name: "__sv_wrapper", scope: !37, file: !38, line: 140, size: 128, flags: DIFlagTypePassByValue | DIFlagNonTrivial, elements: !395, identifier: "_ZTSNSt7__cxx1112basic_stringIcSt11char_traitsIcESaIcEE12__sv_wrapperE")
!395 = !{!396, !397}
!396 = !DIDerivedType(tag: DW_TAG_member, name: "_M_sv", scope: !394, file: !38, line: 143, baseType: !184, size: 128)
!397 = !DISubprogram(name: "__sv_wrapper", scope: !394, file: !38, line: 142, type: !398, scopeLine: 142, flags: DIFlagExplicit | DIFlagPrototyped, spFlags: DISPFlagOptimized)
!398 = !DISubroutineType(types: !399)
!399 = !{null, !400, !184}
!400 = !DIDerivedType(tag: DW_TAG_pointer_type, baseType: !394, size: 64, flags: DIFlagArtificial | DIFlagObjectPointer)
!401 = !DISubprogram(name: "_M_data", linkageName: "_ZNSt7__cxx1112basic_stringIcSt11char_traitsIcESaIcEE7_M_dataEPc", scope: !37, file: !38, line: 186, type: !402, scopeLine: 186, flags: DIFlagPrototyped, spFlags: DISPFlagOptimized)
!402 = !DISubroutineType(types: !403)
!403 = !{null, !393, !162}
!404 = !DISubprogram(name: "_M_length", linkageName: "_ZNSt7__cxx1112basic_stringIcSt11char_traitsIcESaIcEE9_M_lengthEm", scope: !37, file: !38, line: 190, type: !405, scopeLine: 190, flags: DIFlagPrototyped, spFlags: DISPFlagOptimized)
!405 = !DISubroutineType(types: !406)
!406 = !{null, !393, !43}
!407 = !DISubprogram(name: "_M_data", linkageName: "_ZNKSt7__cxx1112basic_stringIcSt11char_traitsIcESaIcEE7_M_dataEv", scope: !37, file: !38, line: 194, type: !408, scopeLine: 194, flags: DIFlagPrototyped, spFlags: DISPFlagOptimized)
!408 = !DISubroutineType(types: !409)
!409 = !{!162, !410}
!410 = !DIDerivedType(tag: DW_TAG_pointer_type, baseType: !411, size: 64, flags: DIFlagArtificial | DIFlagObjectPointer)
!411 = !DIDerivedType(tag: DW_TAG_const_type, baseType: !37)
!412 = !DISubprogram(name: "_M_local_data", linkageName: "_ZNSt7__cxx1112basic_stringIcSt11char_traitsIcESaIcEE13_M_local_dataEv", scope: !37, file: !38, line: 198, type: !413, scopeLine: 198, flags: DIFlagPrototyped, spFlags: DISPFlagOptimized)
!413 = !DISubroutineType(types: !414)
!414 = !{!162, !393}
!415 = !DISubprogram(name: "_M_local_data", linkageName: "_ZNKSt7__cxx1112basic_stringIcSt11char_traitsIcESaIcEE13_M_local_dataEv", scope: !37, file: !38, line: 208, type: !416, scopeLine: 208, flags: DIFlagPrototyped, spFlags: DISPFlagOptimized)
!416 = !DISubroutineType(types: !417)
!417 = !{!418, !410}
!418 = !DIDerivedType(tag: DW_TAG_typedef, name: "const_pointer", scope: !37, file: !38, line: 101, baseType: !419)
!419 = !DIDerivedType(tag: DW_TAG_typedef, name: "const_pointer", scope: !46, file: !45, line: 58, baseType: !420)
!420 = !DIDerivedType(tag: DW_TAG_typedef, name: "const_pointer", scope: !49, file: !50, line: 423, baseType: !193)
!421 = !DISubprogram(name: "_M_capacity", linkageName: "_ZNSt7__cxx1112basic_stringIcSt11char_traitsIcESaIcEE11_M_capacityEm", scope: !37, file: !38, line: 218, type: !405, scopeLine: 218, flags: DIFlagPrototyped, spFlags: DISPFlagOptimized)
!422 = !DISubprogram(name: "_M_set_length", linkageName: "_ZNSt7__cxx1112basic_stringIcSt11char_traitsIcESaIcEE13_M_set_lengthEm", scope: !37, file: !38, line: 222, type: !405, scopeLine: 222, flags: DIFlagPrototyped, spFlags: DISPFlagOptimized)
!423 = !DISubprogram(name: "_M_is_local", linkageName: "_ZNKSt7__cxx1112basic_stringIcSt11char_traitsIcESaIcEE11_M_is_localEv", scope: !37, file: !38, line: 229, type: !424, scopeLine: 229, flags: DIFlagPrototyped, spFlags: DISPFlagOptimized)
!424 = !DISubroutineType(types: !425)
!425 = !{!145, !410}
!426 = !DISubprogram(name: "_M_create", linkageName: "_ZNSt7__cxx1112basic_stringIcSt11char_traitsIcESaIcEE9_M_createERmm", scope: !37, file: !38, line: 234, type: !427, scopeLine: 234, flags: DIFlagPrototyped, spFlags: DISPFlagOptimized)
!427 = !DISubroutineType(types: !428)
!428 = !{!162, !393, !429, !43}
!429 = !DIDerivedType(tag: DW_TAG_reference_type, baseType: !43, size: 64)
!430 = !DISubprogram(name: "_M_dispose", linkageName: "_ZNSt7__cxx1112basic_stringIcSt11char_traitsIcESaIcEE10_M_disposeEv", scope: !37, file: !38, line: 237, type: !431, scopeLine: 237, flags: DIFlagPrototyped, spFlags: DISPFlagOptimized)
!431 = !DISubroutineType(types: !432)
!432 = !{null, !393}
!433 = !DISubprogram(name: "_M_destroy", linkageName: "_ZNSt7__cxx1112basic_stringIcSt11char_traitsIcESaIcEE10_M_destroyEm", scope: !37, file: !38, line: 244, type: !405, scopeLine: 244, flags: DIFlagPrototyped, spFlags: DISPFlagOptimized)
!434 = !DISubprogram(name: "_M_construct_aux_2", linkageName: "_ZNSt7__cxx1112basic_stringIcSt11char_traitsIcESaIcEE18_M_construct_aux_2Emc", scope: !37, file: !38, line: 266, type: !435, scopeLine: 266, flags: DIFlagPrototyped, spFlags: DISPFlagOptimized)
!435 = !DISubroutineType(types: !436)
!436 = !{null, !393, !43, !34}
!437 = !DISubprogram(name: "_M_construct", linkageName: "_ZNSt7__cxx1112basic_stringIcSt11char_traitsIcESaIcEE12_M_constructEmc", scope: !37, file: !38, line: 291, type: !435, scopeLine: 291, flags: DIFlagPrototyped, spFlags: DISPFlagOptimized)
!438 = !DISubprogram(name: "_M_get_allocator", linkageName: "_ZNSt7__cxx1112basic_stringIcSt11char_traitsIcESaIcEE16_M_get_allocatorEv", scope: !37, file: !38, line: 294, type: !439, scopeLine: 294, flags: DIFlagPrototyped, spFlags: DISPFlagOptimized)
!439 = !DISubroutineType(types: !440)
!440 = !{!441, !393}
!441 = !DIDerivedType(tag: DW_TAG_reference_type, baseType: !155, size: 64)
!442 = !DISubprogram(name: "_M_get_allocator", linkageName: "_ZNKSt7__cxx1112basic_stringIcSt11char_traitsIcESaIcEE16_M_get_allocatorEv", scope: !37, file: !38, line: 298, type: !443, scopeLine: 298, flags: DIFlagPrototyped, spFlags: DISPFlagOptimized)
!443 = !DISubroutineType(types: !444)
!444 = !{!445, !410}
!445 = !DIDerivedType(tag: DW_TAG_reference_type, baseType: !446, size: 64)
!446 = !DIDerivedType(tag: DW_TAG_const_type, baseType: !155)
!447 = !DISubprogram(name: "_M_check", linkageName: "_ZNKSt7__cxx1112basic_stringIcSt11char_traitsIcESaIcEE8_M_checkEmPKc", scope: !37, file: !38, line: 318, type: !448, scopeLine: 318, flags: DIFlagPrototyped, spFlags: DISPFlagOptimized)
!448 = !DISubroutineType(types: !449)
!449 = !{!43, !410, !43, !193}
!450 = !DISubprogram(name: "_M_check_length", linkageName: "_ZNKSt7__cxx1112basic_stringIcSt11char_traitsIcESaIcEE15_M_check_lengthEmmPKc", scope: !37, file: !38, line: 328, type: !451, scopeLine: 328, flags: DIFlagPrototyped, spFlags: DISPFlagOptimized)
!451 = !DISubroutineType(types: !452)
!452 = !{null, !410, !43, !43, !193}
!453 = !DISubprogram(name: "_M_limit", linkageName: "_ZNKSt7__cxx1112basic_stringIcSt11char_traitsIcESaIcEE8_M_limitEmm", scope: !37, file: !38, line: 337, type: !454, scopeLine: 337, flags: DIFlagPrototyped, spFlags: DISPFlagOptimized)
!454 = !DISubroutineType(types: !455)
!455 = !{!43, !410, !43, !43}
!456 = !DISubprogram(name: "_M_disjunct", linkageName: "_ZNKSt7__cxx1112basic_stringIcSt11char_traitsIcESaIcEE11_M_disjunctEPKc", scope: !37, file: !38, line: 345, type: !457, scopeLine: 345, flags: DIFlagPrototyped, spFlags: DISPFlagOptimized)
!457 = !DISubroutineType(types: !458)
!458 = !{!145, !410, !193}
!459 = !DISubprogram(name: "_S_copy", linkageName: "_ZNSt7__cxx1112basic_stringIcSt11char_traitsIcESaIcEE7_S_copyEPcPKcm", scope: !37, file: !38, line: 354, type: !460, scopeLine: 354, flags: DIFlagPrototyped | DIFlagStaticMember, spFlags: DISPFlagOptimized)
!460 = !DISubroutineType(types: !461)
!461 = !{null, !56, !193, !43}
!462 = !DISubprogram(name: "_S_move", linkageName: "_ZNSt7__cxx1112basic_stringIcSt11char_traitsIcESaIcEE7_S_moveEPcPKcm", scope: !37, file: !38, line: 363, type: !460, scopeLine: 363, flags: DIFlagPrototyped | DIFlagStaticMember, spFlags: DISPFlagOptimized)
!463 = !DISubprogram(name: "_S_assign", linkageName: "_ZNSt7__cxx1112basic_stringIcSt11char_traitsIcESaIcEE9_S_assignEPcmc", scope: !37, file: !38, line: 372, type: !464, scopeLine: 372, flags: DIFlagPrototyped | DIFlagStaticMember, spFlags: DISPFlagOptimized)
!464 = !DISubroutineType(types: !465)
!465 = !{null, !56, !43, !34}
!466 = !DISubprogram(name: "_S_copy_chars", linkageName: "_ZNSt7__cxx1112basic_stringIcSt11char_traitsIcESaIcEE13_S_copy_charsEPcN9__gnu_cxx17__normal_iteratorIS5_S4_EES8_", scope: !37, file: !38, line: 391, type: !467, scopeLine: 391, flags: DIFlagPrototyped | DIFlagStaticMember, spFlags: DISPFlagOptimized)
!467 = !DISubroutineType(types: !468)
!468 = !{null, !56, !469, !469}
!469 = !DIDerivedType(tag: DW_TAG_typedef, name: "iterator", scope: !37, file: !38, line: 102, baseType: !470)
!470 = distinct !DICompositeType(tag: DW_TAG_class_type, name: "__normal_iterator<char *, std::__cxx11::basic_string<char, std::char_traits<char>, std::allocator<char> > >", scope: !12, file: !230, line: 987, size: 64, flags: DIFlagTypePassByValue | DIFlagNonTrivial, elements: !471, templateParams: !526, identifier: "_ZTSN9__gnu_cxx17__normal_iteratorIPcNSt7__cxx1112basic_stringIcSt11char_traitsIcESaIcEEEEE")
!471 = !{!472, !473, !477, !482, !494, !499, !503, !506, !507, !508, !515, !518, !521, !522, !523}
!472 = !DIDerivedType(tag: DW_TAG_member, name: "_M_current", scope: !470, file: !230, line: 990, baseType: !56, size: 64, flags: DIFlagProtected)
!473 = !DISubprogram(name: "__normal_iterator", scope: !470, file: !230, line: 1006, type: !474, scopeLine: 1006, flags: DIFlagPublic | DIFlagPrototyped, spFlags: DISPFlagOptimized)
!474 = !DISubroutineType(types: !475)
!475 = !{null, !476}
!476 = !DIDerivedType(tag: DW_TAG_pointer_type, baseType: !470, size: 64, flags: DIFlagArtificial | DIFlagObjectPointer)
!477 = !DISubprogram(name: "__normal_iterator", scope: !470, file: !230, line: 1010, type: !478, scopeLine: 1010, flags: DIFlagPublic | DIFlagExplicit | DIFlagPrototyped, spFlags: DISPFlagOptimized)
!478 = !DISubroutineType(types: !479)
!479 = !{null, !476, !480}
!480 = !DIDerivedType(tag: DW_TAG_reference_type, baseType: !481, size: 64)
!481 = !DIDerivedType(tag: DW_TAG_const_type, baseType: !56)
!482 = !DISubprogram(name: "operator*", linkageName: "_ZNK9__gnu_cxx17__normal_iteratorIPcNSt7__cxx1112basic_stringIcSt11char_traitsIcESaIcEEEEdeEv", scope: !470, file: !230, line: 1025, type: !483, scopeLine: 1025, flags: DIFlagPublic | DIFlagPrototyped, spFlags: DISPFlagOptimized)
!483 = !DISubroutineType(types: !484)
!484 = !{!485, !492}
!485 = !DIDerivedType(tag: DW_TAG_typedef, name: "reference", scope: !470, file: !230, line: 999, baseType: !486)
!486 = !DIDerivedType(tag: DW_TAG_typedef, name: "reference", scope: !488, file: !487, line: 205, baseType: !491)
!487 = !DIFile(filename: "/usr/bin/../lib/gcc/x86_64-linux-gnu/11/../../../../include/c++/11/bits/stl_iterator_base_types.h", directory: "")
!488 = distinct !DICompositeType(tag: DW_TAG_structure_type, name: "iterator_traits<char *>", scope: !2, file: !487, line: 198, size: 8, flags: DIFlagTypePassByValue, elements: !159, templateParams: !489, identifier: "_ZTSSt15iterator_traitsIPcE")
!489 = !{!490}
!490 = !DITemplateTypeParameter(name: "_Iterator", type: !56)
!491 = !DIDerivedType(tag: DW_TAG_reference_type, baseType: !34, size: 64)
!492 = !DIDerivedType(tag: DW_TAG_pointer_type, baseType: !493, size: 64, flags: DIFlagArtificial | DIFlagObjectPointer)
!493 = !DIDerivedType(tag: DW_TAG_const_type, baseType: !470)
!494 = !DISubprogram(name: "operator->", linkageName: "_ZNK9__gnu_cxx17__normal_iteratorIPcNSt7__cxx1112basic_stringIcSt11char_traitsIcESaIcEEEEptEv", scope: !470, file: !230, line: 1030, type: !495, scopeLine: 1030, flags: DIFlagPublic | DIFlagPrototyped, spFlags: DISPFlagOptimized)
!495 = !DISubroutineType(types: !496)
!496 = !{!497, !492}
!497 = !DIDerivedType(tag: DW_TAG_typedef, name: "pointer", scope: !470, file: !230, line: 1000, baseType: !498)
!498 = !DIDerivedType(tag: DW_TAG_typedef, name: "pointer", scope: !488, file: !487, line: 204, baseType: !56)
!499 = !DISubprogram(name: "operator++", linkageName: "_ZN9__gnu_cxx17__normal_iteratorIPcNSt7__cxx1112basic_stringIcSt11char_traitsIcESaIcEEEEppEv", scope: !470, file: !230, line: 1035, type: !500, scopeLine: 1035, flags: DIFlagPublic | DIFlagPrototyped, spFlags: DISPFlagOptimized)
!500 = !DISubroutineType(types: !501)
!501 = !{!502, !476}
!502 = !DIDerivedType(tag: DW_TAG_reference_type, baseType: !470, size: 64)
!503 = !DISubprogram(name: "operator++", linkageName: "_ZN9__gnu_cxx17__normal_iteratorIPcNSt7__cxx1112basic_stringIcSt11char_traitsIcESaIcEEEEppEi", scope: !470, file: !230, line: 1043, type: !504, scopeLine: 1043, flags: DIFlagPublic | DIFlagPrototyped, spFlags: DISPFlagOptimized)
!504 = !DISubroutineType(types: !505)
!505 = !{!470, !476, !273}
!506 = !DISubprogram(name: "operator--", linkageName: "_ZN9__gnu_cxx17__normal_iteratorIPcNSt7__cxx1112basic_stringIcSt11char_traitsIcESaIcEEEEmmEv", scope: !470, file: !230, line: 1049, type: !500, scopeLine: 1049, flags: DIFlagPublic | DIFlagPrototyped, spFlags: DISPFlagOptimized)
!507 = !DISubprogram(name: "operator--", linkageName: "_ZN9__gnu_cxx17__normal_iteratorIPcNSt7__cxx1112basic_stringIcSt11char_traitsIcESaIcEEEEmmEi", scope: !470, file: !230, line: 1057, type: !504, scopeLine: 1057, flags: DIFlagPublic | DIFlagPrototyped, spFlags: DISPFlagOptimized)
!508 = !DISubprogram(name: "operator[]", linkageName: "_ZNK9__gnu_cxx17__normal_iteratorIPcNSt7__cxx1112basic_stringIcSt11char_traitsIcESaIcEEEEixEl", scope: !470, file: !230, line: 1063, type: !509, scopeLine: 1063, flags: DIFlagPublic | DIFlagPrototyped, spFlags: DISPFlagOptimized)
!509 = !DISubroutineType(types: !510)
!510 = !{!485, !492, !511}
!511 = !DIDerivedType(tag: DW_TAG_typedef, name: "difference_type", scope: !470, file: !230, line: 998, baseType: !512)
!512 = !DIDerivedType(tag: DW_TAG_typedef, name: "difference_type", scope: !488, file: !487, line: 203, baseType: !513)
!513 = !DIDerivedType(tag: DW_TAG_typedef, name: "ptrdiff_t", scope: !2, file: !82, line: 281, baseType: !514)
!514 = !DIBasicType(name: "long", size: 64, encoding: DW_ATE_signed)
!515 = !DISubprogram(name: "operator+=", linkageName: "_ZN9__gnu_cxx17__normal_iteratorIPcNSt7__cxx1112basic_stringIcSt11char_traitsIcESaIcEEEEpLEl", scope: !470, file: !230, line: 1068, type: !516, scopeLine: 1068, flags: DIFlagPublic | DIFlagPrototyped, spFlags: DISPFlagOptimized)
!516 = !DISubroutineType(types: !517)
!517 = !{!502, !476, !511}
!518 = !DISubprogram(name: "operator+", linkageName: "_ZNK9__gnu_cxx17__normal_iteratorIPcNSt7__cxx1112basic_stringIcSt11char_traitsIcESaIcEEEEplEl", scope: !470, file: !230, line: 1073, type: !519, scopeLine: 1073, flags: DIFlagPublic | DIFlagPrototyped, spFlags: DISPFlagOptimized)
!519 = !DISubroutineType(types: !520)
!520 = !{!470, !492, !511}
!521 = !DISubprogram(name: "operator-=", linkageName: "_ZN9__gnu_cxx17__normal_iteratorIPcNSt7__cxx1112basic_stringIcSt11char_traitsIcESaIcEEEEmIEl", scope: !470, file: !230, line: 1078, type: !516, scopeLine: 1078, flags: DIFlagPublic | DIFlagPrototyped, spFlags: DISPFlagOptimized)
!522 = !DISubprogram(name: "operator-", linkageName: "_ZNK9__gnu_cxx17__normal_iteratorIPcNSt7__cxx1112basic_stringIcSt11char_traitsIcESaIcEEEEmiEl", scope: !470, file: !230, line: 1083, type: !519, scopeLine: 1083, flags: DIFlagPublic | DIFlagPrototyped, spFlags: DISPFlagOptimized)
!523 = !DISubprogram(name: "base", linkageName: "_ZNK9__gnu_cxx17__normal_iteratorIPcNSt7__cxx1112basic_stringIcSt11char_traitsIcESaIcEEEE4baseEv", scope: !470, file: !230, line: 1088, type: !524, scopeLine: 1088, flags: DIFlagPublic | DIFlagPrototyped, spFlags: DISPFlagOptimized)
!524 = !DISubroutineType(types: !525)
!525 = !{!480, !492}
!526 = !{!490, !527}
!527 = !DITemplateTypeParameter(name: "_Container", type: !37)
!528 = !DISubprogram(name: "_S_copy_chars", linkageName: "_ZNSt7__cxx1112basic_stringIcSt11char_traitsIcESaIcEE13_S_copy_charsEPcN9__gnu_cxx17__normal_iteratorIPKcS4_EESA_", scope: !37, file: !38, line: 395, type: !529, scopeLine: 395, flags: DIFlagPrototyped | DIFlagStaticMember, spFlags: DISPFlagOptimized)
!529 = !DISubroutineType(types: !530)
!530 = !{null, !56, !531, !531}
!531 = !DIDerivedType(tag: DW_TAG_typedef, name: "const_iterator", scope: !37, file: !38, line: 104, baseType: !532)
!532 = distinct !DICompositeType(tag: DW_TAG_class_type, name: "__normal_iterator<const char *, std::__cxx11::basic_string<char, std::char_traits<char>, std::allocator<char> > >", scope: !12, file: !230, line: 987, size: 64, flags: DIFlagTypePassByValue | DIFlagNonTrivial, elements: !533, templateParams: !585, identifier: "_ZTSN9__gnu_cxx17__normal_iteratorIPKcNSt7__cxx1112basic_stringIcSt11char_traitsIcESaIcEEEEE")
!533 = !{!534, !535, !539, !544, !555, !560, !564, !567, !568, !569, !574, !577, !580, !581, !582}
!534 = !DIDerivedType(tag: DW_TAG_member, name: "_M_current", scope: !532, file: !230, line: 990, baseType: !193, size: 64, flags: DIFlagProtected)
!535 = !DISubprogram(name: "__normal_iterator", scope: !532, file: !230, line: 1006, type: !536, scopeLine: 1006, flags: DIFlagPublic | DIFlagPrototyped, spFlags: DISPFlagOptimized)
!536 = !DISubroutineType(types: !537)
!537 = !{null, !538}
!538 = !DIDerivedType(tag: DW_TAG_pointer_type, baseType: !532, size: 64, flags: DIFlagArtificial | DIFlagObjectPointer)
!539 = !DISubprogram(name: "__normal_iterator", scope: !532, file: !230, line: 1010, type: !540, scopeLine: 1010, flags: DIFlagPublic | DIFlagExplicit | DIFlagPrototyped, spFlags: DISPFlagOptimized)
!540 = !DISubroutineType(types: !541)
!541 = !{null, !538, !542}
!542 = !DIDerivedType(tag: DW_TAG_reference_type, baseType: !543, size: 64)
!543 = !DIDerivedType(tag: DW_TAG_const_type, baseType: !193)
!544 = !DISubprogram(name: "operator*", linkageName: "_ZNK9__gnu_cxx17__normal_iteratorIPKcNSt7__cxx1112basic_stringIcSt11char_traitsIcESaIcEEEEdeEv", scope: !532, file: !230, line: 1025, type: !545, scopeLine: 1025, flags: DIFlagPublic | DIFlagPrototyped, spFlags: DISPFlagOptimized)
!545 = !DISubroutineType(types: !546)
!546 = !{!547, !553}
!547 = !DIDerivedType(tag: DW_TAG_typedef, name: "reference", scope: !532, file: !230, line: 999, baseType: !548)
!548 = !DIDerivedType(tag: DW_TAG_typedef, name: "reference", scope: !549, file: !487, line: 205, baseType: !552)
!549 = distinct !DICompositeType(tag: DW_TAG_structure_type, name: "iterator_traits<const char *>", scope: !2, file: !487, line: 198, size: 8, flags: DIFlagTypePassByValue, elements: !159, templateParams: !550, identifier: "_ZTSSt15iterator_traitsIPKcE")
!550 = !{!551}
!551 = !DITemplateTypeParameter(name: "_Iterator", type: !193)
!552 = !DIDerivedType(tag: DW_TAG_reference_type, baseType: !194, size: 64)
!553 = !DIDerivedType(tag: DW_TAG_pointer_type, baseType: !554, size: 64, flags: DIFlagArtificial | DIFlagObjectPointer)
!554 = !DIDerivedType(tag: DW_TAG_const_type, baseType: !532)
!555 = !DISubprogram(name: "operator->", linkageName: "_ZNK9__gnu_cxx17__normal_iteratorIPKcNSt7__cxx1112basic_stringIcSt11char_traitsIcESaIcEEEEptEv", scope: !532, file: !230, line: 1030, type: !556, scopeLine: 1030, flags: DIFlagPublic | DIFlagPrototyped, spFlags: DISPFlagOptimized)
!556 = !DISubroutineType(types: !557)
!557 = !{!558, !553}
!558 = !DIDerivedType(tag: DW_TAG_typedef, name: "pointer", scope: !532, file: !230, line: 1000, baseType: !559)
!559 = !DIDerivedType(tag: DW_TAG_typedef, name: "pointer", scope: !549, file: !487, line: 204, baseType: !193)
!560 = !DISubprogram(name: "operator++", linkageName: "_ZN9__gnu_cxx17__normal_iteratorIPKcNSt7__cxx1112basic_stringIcSt11char_traitsIcESaIcEEEEppEv", scope: !532, file: !230, line: 1035, type: !561, scopeLine: 1035, flags: DIFlagPublic | DIFlagPrototyped, spFlags: DISPFlagOptimized)
!561 = !DISubroutineType(types: !562)
!562 = !{!563, !538}
!563 = !DIDerivedType(tag: DW_TAG_reference_type, baseType: !532, size: 64)
!564 = !DISubprogram(name: "operator++", linkageName: "_ZN9__gnu_cxx17__normal_iteratorIPKcNSt7__cxx1112basic_stringIcSt11char_traitsIcESaIcEEEEppEi", scope: !532, file: !230, line: 1043, type: !565, scopeLine: 1043, flags: DIFlagPublic | DIFlagPrototyped, spFlags: DISPFlagOptimized)
!565 = !DISubroutineType(types: !566)
!566 = !{!532, !538, !273}
!567 = !DISubprogram(name: "operator--", linkageName: "_ZN9__gnu_cxx17__normal_iteratorIPKcNSt7__cxx1112basic_stringIcSt11char_traitsIcESaIcEEEEmmEv", scope: !532, file: !230, line: 1049, type: !561, scopeLine: 1049, flags: DIFlagPublic | DIFlagPrototyped, spFlags: DISPFlagOptimized)
!568 = !DISubprogram(name: "operator--", linkageName: "_ZN9__gnu_cxx17__normal_iteratorIPKcNSt7__cxx1112basic_stringIcSt11char_traitsIcESaIcEEEEmmEi", scope: !532, file: !230, line: 1057, type: !565, scopeLine: 1057, flags: DIFlagPublic | DIFlagPrototyped, spFlags: DISPFlagOptimized)
!569 = !DISubprogram(name: "operator[]", linkageName: "_ZNK9__gnu_cxx17__normal_iteratorIPKcNSt7__cxx1112basic_stringIcSt11char_traitsIcESaIcEEEEixEl", scope: !532, file: !230, line: 1063, type: !570, scopeLine: 1063, flags: DIFlagPublic | DIFlagPrototyped, spFlags: DISPFlagOptimized)
!570 = !DISubroutineType(types: !571)
!571 = !{!547, !553, !572}
!572 = !DIDerivedType(tag: DW_TAG_typedef, name: "difference_type", scope: !532, file: !230, line: 998, baseType: !573)
!573 = !DIDerivedType(tag: DW_TAG_typedef, name: "difference_type", scope: !549, file: !487, line: 203, baseType: !513)
!574 = !DISubprogram(name: "operator+=", linkageName: "_ZN9__gnu_cxx17__normal_iteratorIPKcNSt7__cxx1112basic_stringIcSt11char_traitsIcESaIcEEEEpLEl", scope: !532, file: !230, line: 1068, type: !575, scopeLine: 1068, flags: DIFlagPublic | DIFlagPrototyped, spFlags: DISPFlagOptimized)
!575 = !DISubroutineType(types: !576)
!576 = !{!563, !538, !572}
!577 = !DISubprogram(name: "operator+", linkageName: "_ZNK9__gnu_cxx17__normal_iteratorIPKcNSt7__cxx1112basic_stringIcSt11char_traitsIcESaIcEEEEplEl", scope: !532, file: !230, line: 1073, type: !578, scopeLine: 1073, flags: DIFlagPublic | DIFlagPrototyped, spFlags: DISPFlagOptimized)
!578 = !DISubroutineType(types: !579)
!579 = !{!532, !553, !572}
!580 = !DISubprogram(name: "operator-=", linkageName: "_ZN9__gnu_cxx17__normal_iteratorIPKcNSt7__cxx1112basic_stringIcSt11char_traitsIcESaIcEEEEmIEl", scope: !532, file: !230, line: 1078, type: !575, scopeLine: 1078, flags: DIFlagPublic | DIFlagPrototyped, spFlags: DISPFlagOptimized)
!581 = !DISubprogram(name: "operator-", linkageName: "_ZNK9__gnu_cxx17__normal_iteratorIPKcNSt7__cxx1112basic_stringIcSt11char_traitsIcESaIcEEEEmiEl", scope: !532, file: !230, line: 1083, type: !578, scopeLine: 1083, flags: DIFlagPublic | DIFlagPrototyped, spFlags: DISPFlagOptimized)
!582 = !DISubprogram(name: "base", linkageName: "_ZNK9__gnu_cxx17__normal_iteratorIPKcNSt7__cxx1112basic_stringIcSt11char_traitsIcESaIcEEEE4baseEv", scope: !532, file: !230, line: 1088, type: !583, scopeLine: 1088, flags: DIFlagPublic | DIFlagPrototyped, spFlags: DISPFlagOptimized)
!583 = !DISubroutineType(types: !584)
!584 = !{!542, !553}
!585 = !{!551, !527}
!586 = !DISubprogram(name: "_S_copy_chars", linkageName: "_ZNSt7__cxx1112basic_stringIcSt11char_traitsIcESaIcEE13_S_copy_charsEPcS5_S5_", scope: !37, file: !38, line: 400, type: !587, scopeLine: 400, flags: DIFlagPrototyped | DIFlagStaticMember, spFlags: DISPFlagOptimized)
!587 = !DISubroutineType(types: !588)
!588 = !{null, !56, !56, !56}
!589 = !DISubprogram(name: "_S_copy_chars", linkageName: "_ZNSt7__cxx1112basic_stringIcSt11char_traitsIcESaIcEE13_S_copy_charsEPcPKcS7_", scope: !37, file: !38, line: 404, type: !590, scopeLine: 404, flags: DIFlagPrototyped | DIFlagStaticMember, spFlags: DISPFlagOptimized)
!590 = !DISubroutineType(types: !591)
!591 = !{null, !56, !193, !193}
!592 = !DISubprogram(name: "_S_compare", linkageName: "_ZNSt7__cxx1112basic_stringIcSt11char_traitsIcESaIcEE10_S_compareEmm", scope: !37, file: !38, line: 409, type: !593, scopeLine: 409, flags: DIFlagPrototyped | DIFlagStaticMember, spFlags: DISPFlagOptimized)
!593 = !DISubroutineType(types: !594)
!594 = !{!273, !43, !43}
!595 = !DISubprogram(name: "_M_assign", linkageName: "_ZNSt7__cxx1112basic_stringIcSt11char_traitsIcESaIcEE9_M_assignERKS4_", scope: !37, file: !38, line: 422, type: !596, scopeLine: 422, flags: DIFlagPrototyped, spFlags: DISPFlagOptimized)
!596 = !DISubroutineType(types: !597)
!597 = !{null, !393, !598}
!598 = !DIDerivedType(tag: DW_TAG_reference_type, baseType: !411, size: 64)
!599 = !DISubprogram(name: "_M_mutate", linkageName: "_ZNSt7__cxx1112basic_stringIcSt11char_traitsIcESaIcEE9_M_mutateEmmPKcm", scope: !37, file: !38, line: 425, type: !600, scopeLine: 425, flags: DIFlagPrototyped, spFlags: DISPFlagOptimized)
!600 = !DISubroutineType(types: !601)
!601 = !{null, !393, !43, !43, !193, !43}
!602 = !DISubprogram(name: "_M_erase", linkageName: "_ZNSt7__cxx1112basic_stringIcSt11char_traitsIcESaIcEE8_M_eraseEmm", scope: !37, file: !38, line: 429, type: !603, scopeLine: 429, flags: DIFlagPrototyped, spFlags: DISPFlagOptimized)
!603 = !DISubroutineType(types: !604)
!604 = !{null, !393, !43, !43}
!605 = !DISubprogram(name: "basic_string", scope: !37, file: !38, line: 439, type: !431, scopeLine: 439, flags: DIFlagPublic | DIFlagPrototyped, spFlags: DISPFlagOptimized)
!606 = !DISubprogram(name: "basic_string", scope: !37, file: !38, line: 448, type: !607, scopeLine: 448, flags: DIFlagPublic | DIFlagExplicit | DIFlagPrototyped, spFlags: DISPFlagOptimized)
!607 = !DISubroutineType(types: !608)
!608 = !{null, !393, !102}
!609 = !DISubprogram(name: "basic_string", scope: !37, file: !38, line: 456, type: !596, scopeLine: 456, flags: DIFlagPublic | DIFlagPrototyped, spFlags: DISPFlagOptimized)
!610 = !DISubprogram(name: "basic_string", scope: !37, file: !38, line: 469, type: !611, scopeLine: 469, flags: DIFlagPublic | DIFlagPrototyped, spFlags: DISPFlagOptimized)
!611 = !DISubroutineType(types: !612)
!612 = !{null, !393, !598, !43, !102}
!613 = !DISubprogram(name: "basic_string", scope: !37, file: !38, line: 484, type: !614, scopeLine: 484, flags: DIFlagPublic | DIFlagPrototyped, spFlags: DISPFlagOptimized)
!614 = !DISubroutineType(types: !615)
!615 = !{null, !393, !598, !43, !43}
!616 = !DISubprogram(name: "basic_string", scope: !37, file: !38, line: 500, type: !617, scopeLine: 500, flags: DIFlagPublic | DIFlagPrototyped, spFlags: DISPFlagOptimized)
!617 = !DISubroutineType(types: !618)
!618 = !{null, !393, !598, !43, !43, !102}
!619 = !DISubprogram(name: "basic_string", scope: !37, file: !38, line: 518, type: !620, scopeLine: 518, flags: DIFlagPublic | DIFlagPrototyped, spFlags: DISPFlagOptimized)
!620 = !DISubroutineType(types: !621)
!621 = !{null, !393, !193, !43, !102}
!622 = !DISubprogram(name: "basic_string", scope: !37, file: !38, line: 565, type: !623, scopeLine: 565, flags: DIFlagPublic | DIFlagPrototyped, spFlags: DISPFlagOptimized)
!623 = !DISubroutineType(types: !624)
!624 = !{null, !393, !625}
!625 = !DIDerivedType(tag: DW_TAG_rvalue_reference_type, baseType: !37, size: 64)
!626 = !DISubprogram(name: "basic_string", scope: !37, file: !38, line: 592, type: !627, scopeLine: 592, flags: DIFlagPublic | DIFlagPrototyped, spFlags: DISPFlagOptimized)
!627 = !DISubroutineType(types: !628)
!628 = !{null, !393, !629, !102}
!629 = !DICompositeType(tag: DW_TAG_class_type, name: "initializer_list<char>", scope: !2, file: !630, line: 47, size: 128, flags: DIFlagFwdDecl | DIFlagNonTrivial, identifier: "_ZTSSt16initializer_listIcE")
!630 = !DIFile(filename: "/usr/bin/../lib/gcc/x86_64-linux-gnu/11/../../../../include/c++/11/initializer_list", directory: "")
!631 = !DISubprogram(name: "basic_string", scope: !37, file: !38, line: 596, type: !632, scopeLine: 596, flags: DIFlagPublic | DIFlagPrototyped, spFlags: DISPFlagOptimized)
!632 = !DISubroutineType(types: !633)
!633 = !{null, !393, !598, !102}
!634 = !DISubprogram(name: "basic_string", scope: !37, file: !38, line: 600, type: !635, scopeLine: 600, flags: DIFlagPublic | DIFlagPrototyped, spFlags: DISPFlagOptimized)
!635 = !DISubroutineType(types: !636)
!636 = !{null, !393, !625, !102}
!637 = !DISubprogram(name: "~basic_string", scope: !37, file: !38, line: 671, type: !431, scopeLine: 671, flags: DIFlagPublic | DIFlagPrototyped, spFlags: DISPFlagOptimized)
!638 = !DISubprogram(name: "operator=", linkageName: "_ZNSt7__cxx1112basic_stringIcSt11char_traitsIcESaIcEEaSERKS4_", scope: !37, file: !38, line: 679, type: !639, scopeLine: 679, flags: DIFlagPublic | DIFlagPrototyped, spFlags: DISPFlagOptimized)
!639 = !DISubroutineType(types: !640)
!640 = !{!641, !393, !598}
!641 = !DIDerivedType(tag: DW_TAG_reference_type, baseType: !37, size: 64)
!642 = !DISubprogram(name: "operator=", linkageName: "_ZNSt7__cxx1112basic_stringIcSt11char_traitsIcESaIcEEaSEPKc", scope: !37, file: !38, line: 689, type: !643, scopeLine: 689, flags: DIFlagPublic | DIFlagPrototyped, spFlags: DISPFlagOptimized)
!643 = !DISubroutineType(types: !644)
!644 = !{!641, !393, !193}
!645 = !DISubprogram(name: "operator=", linkageName: "_ZNSt7__cxx1112basic_stringIcSt11char_traitsIcESaIcEEaSEc", scope: !37, file: !38, line: 700, type: !646, scopeLine: 700, flags: DIFlagPublic | DIFlagPrototyped, spFlags: DISPFlagOptimized)
!646 = !DISubroutineType(types: !647)
!647 = !{!641, !393, !34}
!648 = !DISubprogram(name: "operator=", linkageName: "_ZNSt7__cxx1112basic_stringIcSt11char_traitsIcESaIcEEaSEOS4_", scope: !37, file: !38, line: 717, type: !649, scopeLine: 717, flags: DIFlagPublic | DIFlagPrototyped, spFlags: DISPFlagOptimized)
!649 = !DISubroutineType(types: !650)
!650 = !{!641, !393, !625}
!651 = !DISubprogram(name: "operator=", linkageName: "_ZNSt7__cxx1112basic_stringIcSt11char_traitsIcESaIcEEaSESt16initializer_listIcE", scope: !37, file: !38, line: 785, type: !652, scopeLine: 785, flags: DIFlagPublic | DIFlagPrototyped, spFlags: DISPFlagOptimized)
!652 = !DISubroutineType(types: !653)
!653 = !{!641, !393, !629}
!654 = !DISubprogram(name: "operator basic_string_view", linkageName: "_ZNKSt7__cxx1112basic_stringIcSt11char_traitsIcESaIcEEcvSt17basic_string_viewIcS2_EEv", scope: !37, file: !38, line: 806, type: !655, scopeLine: 806, flags: DIFlagPublic | DIFlagPrototyped, spFlags: DISPFlagOptimized)
!655 = !DISubroutineType(types: !656)
!656 = !{!184, !410}
!657 = !DISubprogram(name: "begin", linkageName: "_ZNSt7__cxx1112basic_stringIcSt11char_traitsIcESaIcEE5beginEv", scope: !37, file: !38, line: 816, type: !658, scopeLine: 816, flags: DIFlagPublic | DIFlagPrototyped, spFlags: DISPFlagOptimized)
!658 = !DISubroutineType(types: !659)
!659 = !{!469, !393}
!660 = !DISubprogram(name: "begin", linkageName: "_ZNKSt7__cxx1112basic_stringIcSt11char_traitsIcESaIcEE5beginEv", scope: !37, file: !38, line: 824, type: !661, scopeLine: 824, flags: DIFlagPublic | DIFlagPrototyped, spFlags: DISPFlagOptimized)
!661 = !DISubroutineType(types: !662)
!662 = !{!531, !410}
!663 = !DISubprogram(name: "end", linkageName: "_ZNSt7__cxx1112basic_stringIcSt11char_traitsIcESaIcEE3endEv", scope: !37, file: !38, line: 832, type: !658, scopeLine: 832, flags: DIFlagPublic | DIFlagPrototyped, spFlags: DISPFlagOptimized)
!664 = !DISubprogram(name: "end", linkageName: "_ZNKSt7__cxx1112basic_stringIcSt11char_traitsIcESaIcEE3endEv", scope: !37, file: !38, line: 840, type: !661, scopeLine: 840, flags: DIFlagPublic | DIFlagPrototyped, spFlags: DISPFlagOptimized)
!665 = !DISubprogram(name: "rbegin", linkageName: "_ZNSt7__cxx1112basic_stringIcSt11char_traitsIcESaIcEE6rbeginEv", scope: !37, file: !38, line: 849, type: !666, scopeLine: 849, flags: DIFlagPublic | DIFlagPrototyped, spFlags: DISPFlagOptimized)
!666 = !DISubroutineType(types: !667)
!667 = !{!668, !393}
!668 = !DIDerivedType(tag: DW_TAG_typedef, name: "reverse_iterator", scope: !37, file: !38, line: 106, baseType: !669)
!669 = !DICompositeType(tag: DW_TAG_class_type, name: "reverse_iterator<__gnu_cxx::__normal_iterator<char *, std::__cxx11::basic_string<char, std::char_traits<char>, std::allocator<char> > > >", scope: !2, file: !230, line: 127, flags: DIFlagFwdDecl | DIFlagNonTrivial, identifier: "_ZTSSt16reverse_iteratorIN9__gnu_cxx17__normal_iteratorIPcNSt7__cxx1112basic_stringIcSt11char_traitsIcESaIcEEEEEE")
!670 = !DISubprogram(name: "rbegin", linkageName: "_ZNKSt7__cxx1112basic_stringIcSt11char_traitsIcESaIcEE6rbeginEv", scope: !37, file: !38, line: 858, type: !671, scopeLine: 858, flags: DIFlagPublic | DIFlagPrototyped, spFlags: DISPFlagOptimized)
!671 = !DISubroutineType(types: !672)
!672 = !{!673, !410}
!673 = !DIDerivedType(tag: DW_TAG_typedef, name: "const_reverse_iterator", scope: !37, file: !38, line: 105, baseType: !674)
!674 = !DICompositeType(tag: DW_TAG_class_type, name: "reverse_iterator<__gnu_cxx::__normal_iterator<const char *, std::__cxx11::basic_string<char, std::char_traits<char>, std::allocator<char> > > >", scope: !2, file: !230, line: 127, flags: DIFlagFwdDecl | DIFlagNonTrivial, identifier: "_ZTSSt16reverse_iteratorIN9__gnu_cxx17__normal_iteratorIPKcNSt7__cxx1112basic_stringIcSt11char_traitsIcESaIcEEEEEE")
!675 = !DISubprogram(name: "rend", linkageName: "_ZNSt7__cxx1112basic_stringIcSt11char_traitsIcESaIcEE4rendEv", scope: !37, file: !38, line: 867, type: !666, scopeLine: 867, flags: DIFlagPublic | DIFlagPrototyped, spFlags: DISPFlagOptimized)
!676 = !DISubprogram(name: "rend", linkageName: "_ZNKSt7__cxx1112basic_stringIcSt11char_traitsIcESaIcEE4rendEv", scope: !37, file: !38, line: 876, type: !671, scopeLine: 876, flags: DIFlagPublic | DIFlagPrototyped, spFlags: DISPFlagOptimized)
!677 = !DISubprogram(name: "cbegin", linkageName: "_ZNKSt7__cxx1112basic_stringIcSt11char_traitsIcESaIcEE6cbeginEv", scope: !37, file: !38, line: 885, type: !661, scopeLine: 885, flags: DIFlagPublic | DIFlagPrototyped, spFlags: DISPFlagOptimized)
!678 = !DISubprogram(name: "cend", linkageName: "_ZNKSt7__cxx1112basic_stringIcSt11char_traitsIcESaIcEE4cendEv", scope: !37, file: !38, line: 893, type: !661, scopeLine: 893, flags: DIFlagPublic | DIFlagPrototyped, spFlags: DISPFlagOptimized)
!679 = !DISubprogram(name: "crbegin", linkageName: "_ZNKSt7__cxx1112basic_stringIcSt11char_traitsIcESaIcEE7crbeginEv", scope: !37, file: !38, line: 902, type: !671, scopeLine: 902, flags: DIFlagPublic | DIFlagPrototyped, spFlags: DISPFlagOptimized)
!680 = !DISubprogram(name: "crend", linkageName: "_ZNKSt7__cxx1112basic_stringIcSt11char_traitsIcESaIcEE5crendEv", scope: !37, file: !38, line: 911, type: !671, scopeLine: 911, flags: DIFlagPublic | DIFlagPrototyped, spFlags: DISPFlagOptimized)
!681 = !DISubprogram(name: "size", linkageName: "_ZNKSt7__cxx1112basic_stringIcSt11char_traitsIcESaIcEE4sizeEv", scope: !37, file: !38, line: 920, type: !682, scopeLine: 920, flags: DIFlagPublic | DIFlagPrototyped, spFlags: DISPFlagOptimized)
!682 = !DISubroutineType(types: !683)
!683 = !{!43, !410}
!684 = !DISubprogram(name: "length", linkageName: "_ZNKSt7__cxx1112basic_stringIcSt11char_traitsIcESaIcEE6lengthEv", scope: !37, file: !38, line: 926, type: !682, scopeLine: 926, flags: DIFlagPublic | DIFlagPrototyped, spFlags: DISPFlagOptimized)
!685 = !DISubprogram(name: "max_size", linkageName: "_ZNKSt7__cxx1112basic_stringIcSt11char_traitsIcESaIcEE8max_sizeEv", scope: !37, file: !38, line: 931, type: !682, scopeLine: 931, flags: DIFlagPublic | DIFlagPrototyped, spFlags: DISPFlagOptimized)
!686 = !DISubprogram(name: "resize", linkageName: "_ZNSt7__cxx1112basic_stringIcSt11char_traitsIcESaIcEE6resizeEmc", scope: !37, file: !38, line: 945, type: !435, scopeLine: 945, flags: DIFlagPublic | DIFlagPrototyped, spFlags: DISPFlagOptimized)
!687 = !DISubprogram(name: "resize", linkageName: "_ZNSt7__cxx1112basic_stringIcSt11char_traitsIcESaIcEE6resizeEm", scope: !37, file: !38, line: 958, type: !405, scopeLine: 958, flags: DIFlagPublic | DIFlagPrototyped, spFlags: DISPFlagOptimized)
!688 = !DISubprogram(name: "shrink_to_fit", linkageName: "_ZNSt7__cxx1112basic_stringIcSt11char_traitsIcESaIcEE13shrink_to_fitEv", scope: !37, file: !38, line: 966, type: !431, scopeLine: 966, flags: DIFlagPublic | DIFlagPrototyped, spFlags: DISPFlagOptimized)
!689 = !DISubprogram(name: "capacity", linkageName: "_ZNKSt7__cxx1112basic_stringIcSt11char_traitsIcESaIcEE8capacityEv", scope: !37, file: !38, line: 976, type: !682, scopeLine: 976, flags: DIFlagPublic | DIFlagPrototyped, spFlags: DISPFlagOptimized)
!690 = !DISubprogram(name: "reserve", linkageName: "_ZNSt7__cxx1112basic_stringIcSt11char_traitsIcESaIcEE7reserveEm", scope: !37, file: !38, line: 1000, type: !405, scopeLine: 1000, flags: DIFlagPublic | DIFlagPrototyped, spFlags: DISPFlagOptimized)
!691 = !DISubprogram(name: "reserve", linkageName: "_ZNSt7__cxx1112basic_stringIcSt11char_traitsIcESaIcEE7reserveEv", scope: !37, file: !38, line: 1009, type: !431, scopeLine: 1009, flags: DIFlagPublic | DIFlagPrototyped, spFlags: DISPFlagOptimized)
!692 = !DISubprogram(name: "clear", linkageName: "_ZNSt7__cxx1112basic_stringIcSt11char_traitsIcESaIcEE5clearEv", scope: !37, file: !38, line: 1015, type: !431, scopeLine: 1015, flags: DIFlagPublic | DIFlagPrototyped, spFlags: DISPFlagOptimized)
!693 = !DISubprogram(name: "empty", linkageName: "_ZNKSt7__cxx1112basic_stringIcSt11char_traitsIcESaIcEE5emptyEv", scope: !37, file: !38, line: 1023, type: !424, scopeLine: 1023, flags: DIFlagPublic | DIFlagPrototyped, spFlags: DISPFlagOptimized)
!694 = !DISubprogram(name: "operator[]", linkageName: "_ZNKSt7__cxx1112basic_stringIcSt11char_traitsIcESaIcEEixEm", scope: !37, file: !38, line: 1038, type: !695, scopeLine: 1038, flags: DIFlagPublic | DIFlagPrototyped, spFlags: DISPFlagOptimized)
!695 = !DISubroutineType(types: !696)
!696 = !{!697, !410, !43}
!697 = !DIDerivedType(tag: DW_TAG_typedef, name: "const_reference", scope: !37, file: !38, line: 99, baseType: !698)
!698 = !DIDerivedType(tag: DW_TAG_typedef, name: "const_reference", scope: !46, file: !45, line: 63, baseType: !699)
!699 = !DIDerivedType(tag: DW_TAG_reference_type, baseType: !700, size: 64)
!700 = !DIDerivedType(tag: DW_TAG_const_type, baseType: !701)
!701 = !DIDerivedType(tag: DW_TAG_typedef, name: "value_type", scope: !46, file: !45, line: 56, baseType: !702)
!702 = !DIDerivedType(tag: DW_TAG_typedef, name: "value_type", scope: !49, file: !50, line: 417, baseType: !34)
!703 = !DISubprogram(name: "operator[]", linkageName: "_ZNSt7__cxx1112basic_stringIcSt11char_traitsIcESaIcEEixEm", scope: !37, file: !38, line: 1055, type: !704, scopeLine: 1055, flags: DIFlagPublic | DIFlagPrototyped, spFlags: DISPFlagOptimized)
!704 = !DISubroutineType(types: !705)
!705 = !{!706, !393, !43}
!706 = !DIDerivedType(tag: DW_TAG_typedef, name: "reference", scope: !37, file: !38, line: 98, baseType: !707)
!707 = !DIDerivedType(tag: DW_TAG_typedef, name: "reference", scope: !46, file: !45, line: 62, baseType: !708)
!708 = !DIDerivedType(tag: DW_TAG_reference_type, baseType: !701, size: 64)
!709 = !DISubprogram(name: "at", linkageName: "_ZNKSt7__cxx1112basic_stringIcSt11char_traitsIcESaIcEE2atEm", scope: !37, file: !38, line: 1076, type: !695, scopeLine: 1076, flags: DIFlagPublic | DIFlagPrototyped, spFlags: DISPFlagOptimized)
!710 = !DISubprogram(name: "at", linkageName: "_ZNSt7__cxx1112basic_stringIcSt11char_traitsIcESaIcEE2atEm", scope: !37, file: !38, line: 1097, type: !704, scopeLine: 1097, flags: DIFlagPublic | DIFlagPrototyped, spFlags: DISPFlagOptimized)
!711 = !DISubprogram(name: "front", linkageName: "_ZNSt7__cxx1112basic_stringIcSt11char_traitsIcESaIcEE5frontEv", scope: !37, file: !38, line: 1113, type: !712, scopeLine: 1113, flags: DIFlagPublic | DIFlagPrototyped, spFlags: DISPFlagOptimized)
!712 = !DISubroutineType(types: !713)
!713 = !{!706, !393}
!714 = !DISubprogram(name: "front", linkageName: "_ZNKSt7__cxx1112basic_stringIcSt11char_traitsIcESaIcEE5frontEv", scope: !37, file: !38, line: 1124, type: !715, scopeLine: 1124, flags: DIFlagPublic | DIFlagPrototyped, spFlags: DISPFlagOptimized)
!715 = !DISubroutineType(types: !716)
!716 = !{!697, !410}
!717 = !DISubprogram(name: "back", linkageName: "_ZNSt7__cxx1112basic_stringIcSt11char_traitsIcESaIcEE4backEv", scope: !37, file: !38, line: 1135, type: !712, scopeLine: 1135, flags: DIFlagPublic | DIFlagPrototyped, spFlags: DISPFlagOptimized)
!718 = !DISubprogram(name: "back", linkageName: "_ZNKSt7__cxx1112basic_stringIcSt11char_traitsIcESaIcEE4backEv", scope: !37, file: !38, line: 1146, type: !715, scopeLine: 1146, flags: DIFlagPublic | DIFlagPrototyped, spFlags: DISPFlagOptimized)
!719 = !DISubprogram(name: "operator+=", linkageName: "_ZNSt7__cxx1112basic_stringIcSt11char_traitsIcESaIcEEpLERKS4_", scope: !37, file: !38, line: 1160, type: !639, scopeLine: 1160, flags: DIFlagPublic | DIFlagPrototyped, spFlags: DISPFlagOptimized)
!720 = !DISubprogram(name: "operator+=", linkageName: "_ZNSt7__cxx1112basic_stringIcSt11char_traitsIcESaIcEEpLEPKc", scope: !37, file: !38, line: 1169, type: !643, scopeLine: 1169, flags: DIFlagPublic | DIFlagPrototyped, spFlags: DISPFlagOptimized)
!721 = !DISubprogram(name: "operator+=", linkageName: "_ZNSt7__cxx1112basic_stringIcSt11char_traitsIcESaIcEEpLEc", scope: !37, file: !38, line: 1178, type: !646, scopeLine: 1178, flags: DIFlagPublic | DIFlagPrototyped, spFlags: DISPFlagOptimized)
!722 = !DISubprogram(name: "operator+=", linkageName: "_ZNSt7__cxx1112basic_stringIcSt11char_traitsIcESaIcEEpLESt16initializer_listIcE", scope: !37, file: !38, line: 1191, type: !652, scopeLine: 1191, flags: DIFlagPublic | DIFlagPrototyped, spFlags: DISPFlagOptimized)
!723 = !DISubprogram(name: "append", linkageName: "_ZNSt7__cxx1112basic_stringIcSt11char_traitsIcESaIcEE6appendERKS4_", scope: !37, file: !38, line: 1213, type: !639, scopeLine: 1213, flags: DIFlagPublic | DIFlagPrototyped, spFlags: DISPFlagOptimized)
!724 = !DISubprogram(name: "append", linkageName: "_ZNSt7__cxx1112basic_stringIcSt11char_traitsIcESaIcEE6appendERKS4_mm", scope: !37, file: !38, line: 1230, type: !725, scopeLine: 1230, flags: DIFlagPublic | DIFlagPrototyped, spFlags: DISPFlagOptimized)
!725 = !DISubroutineType(types: !726)
!726 = !{!641, !393, !598, !43, !43}
!727 = !DISubprogram(name: "append", linkageName: "_ZNSt7__cxx1112basic_stringIcSt11char_traitsIcESaIcEE6appendEPKcm", scope: !37, file: !38, line: 1242, type: !728, scopeLine: 1242, flags: DIFlagPublic | DIFlagPrototyped, spFlags: DISPFlagOptimized)
!728 = !DISubroutineType(types: !729)
!729 = !{!641, !393, !193, !43}
!730 = !DISubprogram(name: "append", linkageName: "_ZNSt7__cxx1112basic_stringIcSt11char_traitsIcESaIcEE6appendEPKc", scope: !37, file: !38, line: 1255, type: !643, scopeLine: 1255, flags: DIFlagPublic | DIFlagPrototyped, spFlags: DISPFlagOptimized)
!731 = !DISubprogram(name: "append", linkageName: "_ZNSt7__cxx1112basic_stringIcSt11char_traitsIcESaIcEE6appendEmc", scope: !37, file: !38, line: 1272, type: !732, scopeLine: 1272, flags: DIFlagPublic | DIFlagPrototyped, spFlags: DISPFlagOptimized)
!732 = !DISubroutineType(types: !733)
!733 = !{!641, !393, !43, !34}
!734 = !DISubprogram(name: "append", linkageName: "_ZNSt7__cxx1112basic_stringIcSt11char_traitsIcESaIcEE6appendESt16initializer_listIcE", scope: !37, file: !38, line: 1282, type: !652, scopeLine: 1282, flags: DIFlagPublic | DIFlagPrototyped, spFlags: DISPFlagOptimized)
!735 = !DISubprogram(name: "push_back", linkageName: "_ZNSt7__cxx1112basic_stringIcSt11char_traitsIcESaIcEE9push_backEc", scope: !37, file: !38, line: 1341, type: !736, scopeLine: 1341, flags: DIFlagPublic | DIFlagPrototyped, spFlags: DISPFlagOptimized)
!736 = !DISubroutineType(types: !737)
!737 = !{null, !393, !34}
!738 = !DISubprogram(name: "assign", linkageName: "_ZNSt7__cxx1112basic_stringIcSt11char_traitsIcESaIcEE6assignERKS4_", scope: !37, file: !38, line: 1356, type: !639, scopeLine: 1356, flags: DIFlagPublic | DIFlagPrototyped, spFlags: DISPFlagOptimized)
!739 = !DISubprogram(name: "assign", linkageName: "_ZNSt7__cxx1112basic_stringIcSt11char_traitsIcESaIcEE6assignEOS4_", scope: !37, file: !38, line: 1401, type: !649, scopeLine: 1401, flags: DIFlagPublic | DIFlagPrototyped, spFlags: DISPFlagOptimized)
!740 = !DISubprogram(name: "assign", linkageName: "_ZNSt7__cxx1112basic_stringIcSt11char_traitsIcESaIcEE6assignERKS4_mm", scope: !37, file: !38, line: 1424, type: !725, scopeLine: 1424, flags: DIFlagPublic | DIFlagPrototyped, spFlags: DISPFlagOptimized)
!741 = !DISubprogram(name: "assign", linkageName: "_ZNSt7__cxx1112basic_stringIcSt11char_traitsIcESaIcEE6assignEPKcm", scope: !37, file: !38, line: 1440, type: !728, scopeLine: 1440, flags: DIFlagPublic | DIFlagPrototyped, spFlags: DISPFlagOptimized)
!742 = !DISubprogram(name: "assign", linkageName: "_ZNSt7__cxx1112basic_stringIcSt11char_traitsIcESaIcEE6assignEPKc", scope: !37, file: !38, line: 1456, type: !643, scopeLine: 1456, flags: DIFlagPublic | DIFlagPrototyped, spFlags: DISPFlagOptimized)
!743 = !DISubprogram(name: "assign", linkageName: "_ZNSt7__cxx1112basic_stringIcSt11char_traitsIcESaIcEE6assignEmc", scope: !37, file: !38, line: 1473, type: !732, scopeLine: 1473, flags: DIFlagPublic | DIFlagPrototyped, spFlags: DISPFlagOptimized)
!744 = !DISubprogram(name: "assign", linkageName: "_ZNSt7__cxx1112basic_stringIcSt11char_traitsIcESaIcEE6assignESt16initializer_listIcE", scope: !37, file: !38, line: 1501, type: !652, scopeLine: 1501, flags: DIFlagPublic | DIFlagPrototyped, spFlags: DISPFlagOptimized)
!745 = !DISubprogram(name: "insert", linkageName: "_ZNSt7__cxx1112basic_stringIcSt11char_traitsIcESaIcEE6insertEN9__gnu_cxx17__normal_iteratorIPKcS4_EEmc", scope: !37, file: !38, line: 1555, type: !746, scopeLine: 1555, flags: DIFlagPublic | DIFlagPrototyped, spFlags: DISPFlagOptimized)
!746 = !DISubroutineType(types: !747)
!747 = !{!469, !393, !531, !43, !34}
!748 = !DISubprogram(name: "insert", linkageName: "_ZNSt7__cxx1112basic_stringIcSt11char_traitsIcESaIcEE6insertEN9__gnu_cxx17__normal_iteratorIPKcS4_EESt16initializer_listIcE", scope: !37, file: !38, line: 1633, type: !749, scopeLine: 1633, flags: DIFlagPublic | DIFlagPrototyped, spFlags: DISPFlagOptimized)
!749 = !DISubroutineType(types: !750)
!750 = !{!469, !393, !531, !629}
!751 = !DISubprogram(name: "insert", linkageName: "_ZNSt7__cxx1112basic_stringIcSt11char_traitsIcESaIcEE6insertEmRKS4_", scope: !37, file: !38, line: 1660, type: !752, scopeLine: 1660, flags: DIFlagPublic | DIFlagPrototyped, spFlags: DISPFlagOptimized)
!752 = !DISubroutineType(types: !753)
!753 = !{!641, !393, !43, !598}
!754 = !DISubprogram(name: "insert", linkageName: "_ZNSt7__cxx1112basic_stringIcSt11char_traitsIcESaIcEE6insertEmRKS4_mm", scope: !37, file: !38, line: 1683, type: !755, scopeLine: 1683, flags: DIFlagPublic | DIFlagPrototyped, spFlags: DISPFlagOptimized)
!755 = !DISubroutineType(types: !756)
!756 = !{!641, !393, !43, !598, !43, !43}
!757 = !DISubprogram(name: "insert", linkageName: "_ZNSt7__cxx1112basic_stringIcSt11char_traitsIcESaIcEE6insertEmPKcm", scope: !37, file: !38, line: 1706, type: !758, scopeLine: 1706, flags: DIFlagPublic | DIFlagPrototyped, spFlags: DISPFlagOptimized)
!758 = !DISubroutineType(types: !759)
!759 = !{!641, !393, !43, !193, !43}
!760 = !DISubprogram(name: "insert", linkageName: "_ZNSt7__cxx1112basic_stringIcSt11char_traitsIcESaIcEE6insertEmPKc", scope: !37, file: !38, line: 1725, type: !761, scopeLine: 1725, flags: DIFlagPublic | DIFlagPrototyped, spFlags: DISPFlagOptimized)
!761 = !DISubroutineType(types: !762)
!762 = !{!641, !393, !43, !193}
!763 = !DISubprogram(name: "insert", linkageName: "_ZNSt7__cxx1112basic_stringIcSt11char_traitsIcESaIcEE6insertEmmc", scope: !37, file: !38, line: 1749, type: !764, scopeLine: 1749, flags: DIFlagPublic | DIFlagPrototyped, spFlags: DISPFlagOptimized)
!764 = !DISubroutineType(types: !765)
!765 = !{!641, !393, !43, !43, !34}
!766 = !DISubprogram(name: "insert", linkageName: "_ZNSt7__cxx1112basic_stringIcSt11char_traitsIcESaIcEE6insertEN9__gnu_cxx17__normal_iteratorIPKcS4_EEc", scope: !37, file: !38, line: 1767, type: !767, scopeLine: 1767, flags: DIFlagPublic | DIFlagPrototyped, spFlags: DISPFlagOptimized)
!767 = !DISubroutineType(types: !768)
!768 = !{!469, !393, !769, !34}
!769 = !DIDerivedType(tag: DW_TAG_typedef, name: "__const_iterator", scope: !37, file: !38, line: 116, baseType: !531)
!770 = !DISubprogram(name: "erase", linkageName: "_ZNSt7__cxx1112basic_stringIcSt11char_traitsIcESaIcEE5eraseEmm", scope: !37, file: !38, line: 1827, type: !771, scopeLine: 1827, flags: DIFlagPublic | DIFlagPrototyped, spFlags: DISPFlagOptimized)
!771 = !DISubroutineType(types: !772)
!772 = !{!641, !393, !43, !43}
!773 = !DISubprogram(name: "erase", linkageName: "_ZNSt7__cxx1112basic_stringIcSt11char_traitsIcESaIcEE5eraseEN9__gnu_cxx17__normal_iteratorIPKcS4_EE", scope: !37, file: !38, line: 1846, type: !774, scopeLine: 1846, flags: DIFlagPublic | DIFlagPrototyped, spFlags: DISPFlagOptimized)
!774 = !DISubroutineType(types: !775)
!775 = !{!469, !393, !769}
!776 = !DISubprogram(name: "erase", linkageName: "_ZNSt7__cxx1112basic_stringIcSt11char_traitsIcESaIcEE5eraseEN9__gnu_cxx17__normal_iteratorIPKcS4_EES9_", scope: !37, file: !38, line: 1865, type: !777, scopeLine: 1865, flags: DIFlagPublic | DIFlagPrototyped, spFlags: DISPFlagOptimized)
!777 = !DISubroutineType(types: !778)
!778 = !{!469, !393, !769, !769}
!779 = !DISubprogram(name: "pop_back", linkageName: "_ZNSt7__cxx1112basic_stringIcSt11char_traitsIcESaIcEE8pop_backEv", scope: !37, file: !38, line: 1884, type: !431, scopeLine: 1884, flags: DIFlagPublic | DIFlagPrototyped, spFlags: DISPFlagOptimized)
!780 = !DISubprogram(name: "replace", linkageName: "_ZNSt7__cxx1112basic_stringIcSt11char_traitsIcESaIcEE7replaceEmmRKS4_", scope: !37, file: !38, line: 1909, type: !781, scopeLine: 1909, flags: DIFlagPublic | DIFlagPrototyped, spFlags: DISPFlagOptimized)
!781 = !DISubroutineType(types: !782)
!782 = !{!641, !393, !43, !43, !598}
!783 = !DISubprogram(name: "replace", linkageName: "_ZNSt7__cxx1112basic_stringIcSt11char_traitsIcESaIcEE7replaceEmmRKS4_mm", scope: !37, file: !38, line: 1931, type: !784, scopeLine: 1931, flags: DIFlagPublic | DIFlagPrototyped, spFlags: DISPFlagOptimized)
!784 = !DISubroutineType(types: !785)
!785 = !{!641, !393, !43, !43, !598, !43, !43}
!786 = !DISubprogram(name: "replace", linkageName: "_ZNSt7__cxx1112basic_stringIcSt11char_traitsIcESaIcEE7replaceEmmPKcm", scope: !37, file: !38, line: 1956, type: !787, scopeLine: 1956, flags: DIFlagPublic | DIFlagPrototyped, spFlags: DISPFlagOptimized)
!787 = !DISubroutineType(types: !788)
!788 = !{!641, !393, !43, !43, !193, !43}
!789 = !DISubprogram(name: "replace", linkageName: "_ZNSt7__cxx1112basic_stringIcSt11char_traitsIcESaIcEE7replaceEmmPKc", scope: !37, file: !38, line: 1981, type: !790, scopeLine: 1981, flags: DIFlagPublic | DIFlagPrototyped, spFlags: DISPFlagOptimized)
!790 = !DISubroutineType(types: !791)
!791 = !{!641, !393, !43, !43, !193}
!792 = !DISubprogram(name: "replace", linkageName: "_ZNSt7__cxx1112basic_stringIcSt11char_traitsIcESaIcEE7replaceEmmmc", scope: !37, file: !38, line: 2005, type: !793, scopeLine: 2005, flags: DIFlagPublic | DIFlagPrototyped, spFlags: DISPFlagOptimized)
!793 = !DISubroutineType(types: !794)
!794 = !{!641, !393, !43, !43, !43, !34}
!795 = !DISubprogram(name: "replace", linkageName: "_ZNSt7__cxx1112basic_stringIcSt11char_traitsIcESaIcEE7replaceEN9__gnu_cxx17__normal_iteratorIPKcS4_EES9_RKS4_", scope: !37, file: !38, line: 2023, type: !796, scopeLine: 2023, flags: DIFlagPublic | DIFlagPrototyped, spFlags: DISPFlagOptimized)
!796 = !DISubroutineType(types: !797)
!797 = !{!641, !393, !769, !769, !598}
!798 = !DISubprogram(name: "replace", linkageName: "_ZNSt7__cxx1112basic_stringIcSt11char_traitsIcESaIcEE7replaceEN9__gnu_cxx17__normal_iteratorIPKcS4_EES9_S8_m", scope: !37, file: !38, line: 2043, type: !799, scopeLine: 2043, flags: DIFlagPublic | DIFlagPrototyped, spFlags: DISPFlagOptimized)
!799 = !DISubroutineType(types: !800)
!800 = !{!641, !393, !769, !769, !193, !43}
!801 = !DISubprogram(name: "replace", linkageName: "_ZNSt7__cxx1112basic_stringIcSt11char_traitsIcESaIcEE7replaceEN9__gnu_cxx17__normal_iteratorIPKcS4_EES9_S8_", scope: !37, file: !38, line: 2065, type: !802, scopeLine: 2065, flags: DIFlagPublic | DIFlagPrototyped, spFlags: DISPFlagOptimized)
!802 = !DISubroutineType(types: !803)
!803 = !{!641, !393, !769, !769, !193}
!804 = !DISubprogram(name: "replace", linkageName: "_ZNSt7__cxx1112basic_stringIcSt11char_traitsIcESaIcEE7replaceEN9__gnu_cxx17__normal_iteratorIPKcS4_EES9_mc", scope: !37, file: !38, line: 2086, type: !805, scopeLine: 2086, flags: DIFlagPublic | DIFlagPrototyped, spFlags: DISPFlagOptimized)
!805 = !DISubroutineType(types: !806)
!806 = !{!641, !393, !769, !769, !43, !34}
!807 = !DISubprogram(name: "replace", linkageName: "_ZNSt7__cxx1112basic_stringIcSt11char_traitsIcESaIcEE7replaceEN9__gnu_cxx17__normal_iteratorIPKcS4_EES9_PcSA_", scope: !37, file: !38, line: 2143, type: !808, scopeLine: 2143, flags: DIFlagPublic | DIFlagPrototyped, spFlags: DISPFlagOptimized)
!808 = !DISubroutineType(types: !809)
!809 = !{!641, !393, !769, !769, !56, !56}
!810 = !DISubprogram(name: "replace", linkageName: "_ZNSt7__cxx1112basic_stringIcSt11char_traitsIcESaIcEE7replaceEN9__gnu_cxx17__normal_iteratorIPKcS4_EES9_S8_S8_", scope: !37, file: !38, line: 2154, type: !811, scopeLine: 2154, flags: DIFlagPublic | DIFlagPrototyped, spFlags: DISPFlagOptimized)
!811 = !DISubroutineType(types: !812)
!812 = !{!641, !393, !769, !769, !193, !193}
!813 = !DISubprogram(name: "replace", linkageName: "_ZNSt7__cxx1112basic_stringIcSt11char_traitsIcESaIcEE7replaceEN9__gnu_cxx17__normal_iteratorIPKcS4_EES9_NS6_IPcS4_EESB_", scope: !37, file: !38, line: 2165, type: !814, scopeLine: 2165, flags: DIFlagPublic | DIFlagPrototyped, spFlags: DISPFlagOptimized)
!814 = !DISubroutineType(types: !815)
!815 = !{!641, !393, !769, !769, !469, !469}
!816 = !DISubprogram(name: "replace", linkageName: "_ZNSt7__cxx1112basic_stringIcSt11char_traitsIcESaIcEE7replaceEN9__gnu_cxx17__normal_iteratorIPKcS4_EES9_S9_S9_", scope: !37, file: !38, line: 2176, type: !817, scopeLine: 2176, flags: DIFlagPublic | DIFlagPrototyped, spFlags: DISPFlagOptimized)
!817 = !DISubroutineType(types: !818)
!818 = !{!641, !393, !769, !769, !531, !531}
!819 = !DISubprogram(name: "replace", linkageName: "_ZNSt7__cxx1112basic_stringIcSt11char_traitsIcESaIcEE7replaceEN9__gnu_cxx17__normal_iteratorIPKcS4_EES9_St16initializer_listIcE", scope: !37, file: !38, line: 2201, type: !820, scopeLine: 2201, flags: DIFlagPublic | DIFlagPrototyped, spFlags: DISPFlagOptimized)
!820 = !DISubroutineType(types: !821)
!821 = !{!641, !393, !531, !531, !629}
!822 = !DISubprogram(name: "_M_replace_aux", linkageName: "_ZNSt7__cxx1112basic_stringIcSt11char_traitsIcESaIcEE14_M_replace_auxEmmmc", scope: !37, file: !38, line: 2275, type: !793, scopeLine: 2275, flags: DIFlagPrototyped, spFlags: DISPFlagOptimized)
!823 = !DISubprogram(name: "_M_replace", linkageName: "_ZNSt7__cxx1112basic_stringIcSt11char_traitsIcESaIcEE10_M_replaceEmmPKcm", scope: !37, file: !38, line: 2279, type: !824, scopeLine: 2279, flags: DIFlagPrototyped, spFlags: DISPFlagOptimized)
!824 = !DISubroutineType(types: !825)
!825 = !{!641, !393, !43, !43, !193, !42}
!826 = !DISubprogram(name: "_M_append", linkageName: "_ZNSt7__cxx1112basic_stringIcSt11char_traitsIcESaIcEE9_M_appendEPKcm", scope: !37, file: !38, line: 2283, type: !728, scopeLine: 2283, flags: DIFlagPrototyped, spFlags: DISPFlagOptimized)
!827 = !DISubprogram(name: "copy", linkageName: "_ZNKSt7__cxx1112basic_stringIcSt11char_traitsIcESaIcEE4copyEPcmm", scope: !37, file: !38, line: 2300, type: !828, scopeLine: 2300, flags: DIFlagPublic | DIFlagPrototyped, spFlags: DISPFlagOptimized)
!828 = !DISubroutineType(types: !829)
!829 = !{!43, !410, !56, !43, !43}
!830 = !DISubprogram(name: "swap", linkageName: "_ZNSt7__cxx1112basic_stringIcSt11char_traitsIcESaIcEE4swapERS4_", scope: !37, file: !38, line: 2310, type: !831, scopeLine: 2310, flags: DIFlagPublic | DIFlagPrototyped, spFlags: DISPFlagOptimized)
!831 = !DISubroutineType(types: !832)
!832 = !{null, !393, !641}
!833 = !DISubprogram(name: "c_str", linkageName: "_ZNKSt7__cxx1112basic_stringIcSt11char_traitsIcESaIcEE5c_strEv", scope: !37, file: !38, line: 2320, type: !834, scopeLine: 2320, flags: DIFlagPublic | DIFlagPrototyped, spFlags: DISPFlagOptimized)
!834 = !DISubroutineType(types: !835)
!835 = !{!193, !410}
!836 = !DISubprogram(name: "data", linkageName: "_ZNKSt7__cxx1112basic_stringIcSt11char_traitsIcESaIcEE4dataEv", scope: !37, file: !38, line: 2332, type: !834, scopeLine: 2332, flags: DIFlagPublic | DIFlagPrototyped, spFlags: DISPFlagOptimized)
!837 = !DISubprogram(name: "data", linkageName: "_ZNSt7__cxx1112basic_stringIcSt11char_traitsIcESaIcEE4dataEv", scope: !37, file: !38, line: 2343, type: !838, scopeLine: 2343, flags: DIFlagPublic | DIFlagPrototyped, spFlags: DISPFlagOptimized)
!838 = !DISubroutineType(types: !839)
!839 = !{!56, !393}
!840 = !DISubprogram(name: "get_allocator", linkageName: "_ZNKSt7__cxx1112basic_stringIcSt11char_traitsIcESaIcEE13get_allocatorEv", scope: !37, file: !38, line: 2351, type: !841, scopeLine: 2351, flags: DIFlagPublic | DIFlagPrototyped, spFlags: DISPFlagOptimized)
!841 = !DISubroutineType(types: !842)
!842 = !{!155, !410}
!843 = !DISubprogram(name: "find", linkageName: "_ZNKSt7__cxx1112basic_stringIcSt11char_traitsIcESaIcEE4findEPKcmm", scope: !37, file: !38, line: 2367, type: !844, scopeLine: 2367, flags: DIFlagPublic | DIFlagPrototyped, spFlags: DISPFlagOptimized)
!844 = !DISubroutineType(types: !845)
!845 = !{!43, !410, !193, !43, !43}
!846 = !DISubprogram(name: "find", linkageName: "_ZNKSt7__cxx1112basic_stringIcSt11char_traitsIcESaIcEE4findERKS4_m", scope: !37, file: !38, line: 2381, type: !847, scopeLine: 2381, flags: DIFlagPublic | DIFlagPrototyped, spFlags: DISPFlagOptimized)
!847 = !DISubroutineType(types: !848)
!848 = !{!43, !410, !598, !43}
!849 = !DISubprogram(name: "find", linkageName: "_ZNKSt7__cxx1112basic_stringIcSt11char_traitsIcESaIcEE4findEPKcm", scope: !37, file: !38, line: 2413, type: !850, scopeLine: 2413, flags: DIFlagPublic | DIFlagPrototyped, spFlags: DISPFlagOptimized)
!850 = !DISubroutineType(types: !851)
!851 = !{!43, !410, !193, !43}
!852 = !DISubprogram(name: "find", linkageName: "_ZNKSt7__cxx1112basic_stringIcSt11char_traitsIcESaIcEE4findEcm", scope: !37, file: !38, line: 2430, type: !853, scopeLine: 2430, flags: DIFlagPublic | DIFlagPrototyped, spFlags: DISPFlagOptimized)
!853 = !DISubroutineType(types: !854)
!854 = !{!43, !410, !34, !43}
!855 = !DISubprogram(name: "rfind", linkageName: "_ZNKSt7__cxx1112basic_stringIcSt11char_traitsIcESaIcEE5rfindERKS4_m", scope: !37, file: !38, line: 2443, type: !847, scopeLine: 2443, flags: DIFlagPublic | DIFlagPrototyped, spFlags: DISPFlagOptimized)
!856 = !DISubprogram(name: "rfind", linkageName: "_ZNKSt7__cxx1112basic_stringIcSt11char_traitsIcESaIcEE5rfindEPKcmm", scope: !37, file: !38, line: 2477, type: !844, scopeLine: 2477, flags: DIFlagPublic | DIFlagPrototyped, spFlags: DISPFlagOptimized)
!857 = !DISubprogram(name: "rfind", linkageName: "_ZNKSt7__cxx1112basic_stringIcSt11char_traitsIcESaIcEE5rfindEPKcm", scope: !37, file: !38, line: 2491, type: !850, scopeLine: 2491, flags: DIFlagPublic | DIFlagPrototyped, spFlags: DISPFlagOptimized)
!858 = !DISubprogram(name: "rfind", linkageName: "_ZNKSt7__cxx1112basic_stringIcSt11char_traitsIcESaIcEE5rfindEcm", scope: !37, file: !38, line: 2508, type: !853, scopeLine: 2508, flags: DIFlagPublic | DIFlagPrototyped, spFlags: DISPFlagOptimized)
!859 = !DISubprogram(name: "find_first_of", linkageName: "_ZNKSt7__cxx1112basic_stringIcSt11char_traitsIcESaIcEE13find_first_ofERKS4_m", scope: !37, file: !38, line: 2522, type: !847, scopeLine: 2522, flags: DIFlagPublic | DIFlagPrototyped, spFlags: DISPFlagOptimized)
!860 = !DISubprogram(name: "find_first_of", linkageName: "_ZNKSt7__cxx1112basic_stringIcSt11char_traitsIcESaIcEE13find_first_ofEPKcmm", scope: !37, file: !38, line: 2557, type: !844, scopeLine: 2557, flags: DIFlagPublic | DIFlagPrototyped, spFlags: DISPFlagOptimized)
!861 = !DISubprogram(name: "find_first_of", linkageName: "_ZNKSt7__cxx1112basic_stringIcSt11char_traitsIcESaIcEE13find_first_ofEPKcm", scope: !37, file: !38, line: 2571, type: !850, scopeLine: 2571, flags: DIFlagPublic | DIFlagPrototyped, spFlags: DISPFlagOptimized)
!862 = !DISubprogram(name: "find_first_of", linkageName: "_ZNKSt7__cxx1112basic_stringIcSt11char_traitsIcESaIcEE13find_first_ofEcm", scope: !37, file: !38, line: 2591, type: !853, scopeLine: 2591, flags: DIFlagPublic | DIFlagPrototyped, spFlags: DISPFlagOptimized)
!863 = !DISubprogram(name: "find_last_of", linkageName: "_ZNKSt7__cxx1112basic_stringIcSt11char_traitsIcESaIcEE12find_last_ofERKS4_m", scope: !37, file: !38, line: 2606, type: !847, scopeLine: 2606, flags: DIFlagPublic | DIFlagPrototyped, spFlags: DISPFlagOptimized)
!864 = !DISubprogram(name: "find_last_of", linkageName: "_ZNKSt7__cxx1112basic_stringIcSt11char_traitsIcESaIcEE12find_last_ofEPKcmm", scope: !37, file: !38, line: 2641, type: !844, scopeLine: 2641, flags: DIFlagPublic | DIFlagPrototyped, spFlags: DISPFlagOptimized)
!865 = !DISubprogram(name: "find_last_of", linkageName: "_ZNKSt7__cxx1112basic_stringIcSt11char_traitsIcESaIcEE12find_last_ofEPKcm", scope: !37, file: !38, line: 2655, type: !850, scopeLine: 2655, flags: DIFlagPublic | DIFlagPrototyped, spFlags: DISPFlagOptimized)
!866 = !DISubprogram(name: "find_last_of", linkageName: "_ZNKSt7__cxx1112basic_stringIcSt11char_traitsIcESaIcEE12find_last_ofEcm", scope: !37, file: !38, line: 2675, type: !853, scopeLine: 2675, flags: DIFlagPublic | DIFlagPrototyped, spFlags: DISPFlagOptimized)
!867 = !DISubprogram(name: "find_first_not_of", linkageName: "_ZNKSt7__cxx1112basic_stringIcSt11char_traitsIcESaIcEE17find_first_not_ofERKS4_m", scope: !37, file: !38, line: 2689, type: !847, scopeLine: 2689, flags: DIFlagPublic | DIFlagPrototyped, spFlags: DISPFlagOptimized)
!868 = !DISubprogram(name: "find_first_not_of", linkageName: "_ZNKSt7__cxx1112basic_stringIcSt11char_traitsIcESaIcEE17find_first_not_ofEPKcmm", scope: !37, file: !38, line: 2724, type: !844, scopeLine: 2724, flags: DIFlagPublic | DIFlagPrototyped, spFlags: DISPFlagOptimized)
!869 = !DISubprogram(name: "find_first_not_of", linkageName: "_ZNKSt7__cxx1112basic_stringIcSt11char_traitsIcESaIcEE17find_first_not_ofEPKcm", scope: !37, file: !38, line: 2738, type: !850, scopeLine: 2738, flags: DIFlagPublic | DIFlagPrototyped, spFlags: DISPFlagOptimized)
!870 = !DISubprogram(name: "find_first_not_of", linkageName: "_ZNKSt7__cxx1112basic_stringIcSt11char_traitsIcESaIcEE17find_first_not_ofEcm", scope: !37, file: !38, line: 2756, type: !853, scopeLine: 2756, flags: DIFlagPublic | DIFlagPrototyped, spFlags: DISPFlagOptimized)
!871 = !DISubprogram(name: "find_last_not_of", linkageName: "_ZNKSt7__cxx1112basic_stringIcSt11char_traitsIcESaIcEE16find_last_not_ofERKS4_m", scope: !37, file: !38, line: 2771, type: !847, scopeLine: 2771, flags: DIFlagPublic | DIFlagPrototyped, spFlags: DISPFlagOptimized)
!872 = !DISubprogram(name: "find_last_not_of", linkageName: "_ZNKSt7__cxx1112basic_stringIcSt11char_traitsIcESaIcEE16find_last_not_ofEPKcmm", scope: !37, file: !38, line: 2806, type: !844, scopeLine: 2806, flags: DIFlagPublic | DIFlagPrototyped, spFlags: DISPFlagOptimized)
!873 = !DISubprogram(name: "find_last_not_of", linkageName: "_ZNKSt7__cxx1112basic_stringIcSt11char_traitsIcESaIcEE16find_last_not_ofEPKcm", scope: !37, file: !38, line: 2820, type: !850, scopeLine: 2820, flags: DIFlagPublic | DIFlagPrototyped, spFlags: DISPFlagOptimized)
!874 = !DISubprogram(name: "find_last_not_of", linkageName: "_ZNKSt7__cxx1112basic_stringIcSt11char_traitsIcESaIcEE16find_last_not_ofEcm", scope: !37, file: !38, line: 2838, type: !853, scopeLine: 2838, flags: DIFlagPublic | DIFlagPrototyped, spFlags: DISPFlagOptimized)
!875 = !DISubprogram(name: "substr", linkageName: "_ZNKSt7__cxx1112basic_stringIcSt11char_traitsIcESaIcEE6substrEmm", scope: !37, file: !38, line: 2854, type: !876, scopeLine: 2854, flags: DIFlagPublic | DIFlagPrototyped, spFlags: DISPFlagOptimized)
!876 = !DISubroutineType(types: !877)
!877 = !{!37, !410, !43, !43}
!878 = !DISubprogram(name: "compare", linkageName: "_ZNKSt7__cxx1112basic_stringIcSt11char_traitsIcESaIcEE7compareERKS4_", scope: !37, file: !38, line: 2873, type: !879, scopeLine: 2873, flags: DIFlagPublic | DIFlagPrototyped, spFlags: DISPFlagOptimized)
!879 = !DISubroutineType(types: !880)
!880 = !{!273, !410, !598}
!881 = !DISubprogram(name: "compare", linkageName: "_ZNKSt7__cxx1112basic_stringIcSt11char_traitsIcESaIcEE7compareEmmRKS4_", scope: !37, file: !38, line: 2966, type: !882, scopeLine: 2966, flags: DIFlagPublic | DIFlagPrototyped, spFlags: DISPFlagOptimized)
!882 = !DISubroutineType(types: !883)
!883 = !{!273, !410, !43, !43, !598}
!884 = !DISubprogram(name: "compare", linkageName: "_ZNKSt7__cxx1112basic_stringIcSt11char_traitsIcESaIcEE7compareEmmRKS4_mm", scope: !37, file: !38, line: 2992, type: !885, scopeLine: 2992, flags: DIFlagPublic | DIFlagPrototyped, spFlags: DISPFlagOptimized)
!885 = !DISubroutineType(types: !886)
!886 = !{!273, !410, !43, !43, !598, !43, !43}
!887 = !DISubprogram(name: "compare", linkageName: "_ZNKSt7__cxx1112basic_stringIcSt11char_traitsIcESaIcEE7compareEPKc", scope: !37, file: !38, line: 3010, type: !888, scopeLine: 3010, flags: DIFlagPublic | DIFlagPrototyped, spFlags: DISPFlagOptimized)
!888 = !DISubroutineType(types: !889)
!889 = !{!273, !410, !193}
!890 = !DISubprogram(name: "compare", linkageName: "_ZNKSt7__cxx1112basic_stringIcSt11char_traitsIcESaIcEE7compareEmmPKc", scope: !37, file: !38, line: 3034, type: !891, scopeLine: 3034, flags: DIFlagPublic | DIFlagPrototyped, spFlags: DISPFlagOptimized)
!891 = !DISubroutineType(types: !892)
!892 = !{!273, !410, !43, !43, !193}
!893 = !DISubprogram(name: "compare", linkageName: "_ZNKSt7__cxx1112basic_stringIcSt11char_traitsIcESaIcEE7compareEmmPKcm", scope: !37, file: !38, line: 3061, type: !894, scopeLine: 3061, flags: DIFlagPublic | DIFlagPrototyped, spFlags: DISPFlagOptimized)
!894 = !DISubroutineType(types: !895)
!895 = !{!273, !410, !43, !43, !193, !43}
!896 = !DISubprogram(name: "starts_with", linkageName: "_ZNKSt7__cxx1112basic_stringIcSt11char_traitsIcESaIcEE11starts_withESt17basic_string_viewIcS2_E", scope: !37, file: !38, line: 3066, type: !897, scopeLine: 3066, flags: DIFlagPublic | DIFlagPrototyped, spFlags: DISPFlagOptimized)
!897 = !DISubroutineType(types: !898)
!898 = !{!145, !410, !185}
!899 = !DISubprogram(name: "starts_with", linkageName: "_ZNKSt7__cxx1112basic_stringIcSt11char_traitsIcESaIcEE11starts_withEc", scope: !37, file: !38, line: 3070, type: !900, scopeLine: 3070, flags: DIFlagPublic | DIFlagPrototyped, spFlags: DISPFlagOptimized)
!900 = !DISubroutineType(types: !901)
!901 = !{!145, !410, !34}
!902 = !DISubprogram(name: "starts_with", linkageName: "_ZNKSt7__cxx1112basic_stringIcSt11char_traitsIcESaIcEE11starts_withEPKc", scope: !37, file: !38, line: 3074, type: !457, scopeLine: 3074, flags: DIFlagPublic | DIFlagPrototyped, spFlags: DISPFlagOptimized)
!903 = !DISubprogram(name: "ends_with", linkageName: "_ZNKSt7__cxx1112basic_stringIcSt11char_traitsIcESaIcEE9ends_withESt17basic_string_viewIcS2_E", scope: !37, file: !38, line: 3078, type: !897, scopeLine: 3078, flags: DIFlagPublic | DIFlagPrototyped, spFlags: DISPFlagOptimized)
!904 = !DISubprogram(name: "ends_with", linkageName: "_ZNKSt7__cxx1112basic_stringIcSt11char_traitsIcESaIcEE9ends_withEc", scope: !37, file: !38, line: 3082, type: !900, scopeLine: 3082, flags: DIFlagPublic | DIFlagPrototyped, spFlags: DISPFlagOptimized)
!905 = !DISubprogram(name: "ends_with", linkageName: "_ZNKSt7__cxx1112basic_stringIcSt11char_traitsIcESaIcEE9ends_withEPKc", scope: !37, file: !38, line: 3086, type: !457, scopeLine: 3086, flags: DIFlagPublic | DIFlagPrototyped, spFlags: DISPFlagOptimized)
!906 = !{!337, !338, !135}
!907 = !DIDerivedType(tag: DW_TAG_member, name: "_M_cmpts", scope: !28, file: !27, line: 689, baseType: !908, size: 64, offset: 256)
!908 = !DICompositeType(tag: DW_TAG_structure_type, name: "_List", scope: !28, file: !27, line: 641, size: 64, flags: DIFlagFwdDecl | DIFlagNonTrivial, identifier: "_ZTSNSt10filesystem7__cxx114path5_ListE")
!909 = !DISubprogram(name: "path", scope: !28, file: !27, line: 270, type: !910, scopeLine: 270, flags: DIFlagPublic | DIFlagPrototyped, spFlags: DISPFlagOptimized)
!910 = !DISubroutineType(types: !911)
!911 = !{null, !912}
!912 = !DIDerivedType(tag: DW_TAG_pointer_type, baseType: !28, size: 64, flags: DIFlagArtificial | DIFlagObjectPointer)
!913 = !DISubprogram(name: "path", scope: !28, file: !27, line: 272, type: !914, scopeLine: 272, flags: DIFlagPublic | DIFlagPrototyped, spFlags: DISPFlagOptimized)
!914 = !DISubroutineType(types: !915)
!915 = !{null, !912, !916}
!916 = !DIDerivedType(tag: DW_TAG_reference_type, baseType: !917, size: 64)
!917 = !DIDerivedType(tag: DW_TAG_const_type, baseType: !28)
!918 = !DISubprogram(name: "path", scope: !28, file: !27, line: 274, type: !919, scopeLine: 274, flags: DIFlagPublic | DIFlagPrototyped, spFlags: DISPFlagOptimized)
!919 = !DISubroutineType(types: !920)
!920 = !{null, !912, !921}
!921 = !DIDerivedType(tag: DW_TAG_rvalue_reference_type, baseType: !28, size: 64)
!922 = !DISubprogram(name: "path", scope: !28, file: !27, line: 282, type: !923, scopeLine: 282, flags: DIFlagPublic | DIFlagPrototyped, spFlags: DISPFlagOptimized)
!923 = !DISubroutineType(types: !924)
!924 = !{null, !912, !925, !26}
!925 = !DIDerivedType(tag: DW_TAG_rvalue_reference_type, baseType: !36, size: 64)
!926 = !DISubprogram(name: "~path", scope: !28, file: !27, line: 313, type: !910, scopeLine: 313, flags: DIFlagPublic | DIFlagPrototyped, spFlags: DISPFlagOptimized)
!927 = !DISubprogram(name: "operator=", linkageName: "_ZNSt10filesystem7__cxx114pathaSERKS1_", scope: !28, file: !27, line: 317, type: !928, scopeLine: 317, flags: DIFlagPublic | DIFlagPrototyped, spFlags: DISPFlagOptimized)
!928 = !DISubroutineType(types: !929)
!929 = !{!930, !912, !916}
!930 = !DIDerivedType(tag: DW_TAG_reference_type, baseType: !28, size: 64)
!931 = !DISubprogram(name: "operator=", linkageName: "_ZNSt10filesystem7__cxx114pathaSEOS1_", scope: !28, file: !27, line: 318, type: !932, scopeLine: 318, flags: DIFlagPublic | DIFlagPrototyped, spFlags: DISPFlagOptimized)
!932 = !DISubroutineType(types: !933)
!933 = !{!930, !912, !921}
!934 = !DISubprogram(name: "operator=", linkageName: "_ZNSt10filesystem7__cxx114pathaSEONSt7__cxx1112basic_stringIcSt11char_traitsIcESaIcEEE", scope: !28, file: !27, line: 319, type: !935, scopeLine: 319, flags: DIFlagPublic | DIFlagPrototyped, spFlags: DISPFlagOptimized)
!935 = !DISubroutineType(types: !936)
!936 = !{!930, !912, !925}
!937 = !DISubprogram(name: "assign", linkageName: "_ZNSt10filesystem7__cxx114path6assignEONSt7__cxx1112basic_stringIcSt11char_traitsIcESaIcEEE", scope: !28, file: !27, line: 320, type: !935, scopeLine: 320, flags: DIFlagPublic | DIFlagPrototyped, spFlags: DISPFlagOptimized)
!938 = !DISubprogram(name: "operator/=", linkageName: "_ZNSt10filesystem7__cxx114pathdVERKS1_", scope: !28, file: !27, line: 339, type: !928, scopeLine: 339, flags: DIFlagPublic | DIFlagPrototyped, spFlags: DISPFlagOptimized)
!939 = !DISubprogram(name: "operator+=", linkageName: "_ZNSt10filesystem7__cxx114pathpLERKS1_", scope: !28, file: !27, line: 367, type: !928, scopeLine: 367, flags: DIFlagPublic | DIFlagPrototyped, spFlags: DISPFlagOptimized)
!940 = !DISubprogram(name: "operator+=", linkageName: "_ZNSt10filesystem7__cxx114pathpLERKNSt7__cxx1112basic_stringIcSt11char_traitsIcESaIcEEE", scope: !28, file: !27, line: 368, type: !941, scopeLine: 368, flags: DIFlagPublic | DIFlagPrototyped, spFlags: DISPFlagOptimized)
!941 = !DISubroutineType(types: !942)
!942 = !{!930, !912, !943}
!943 = !DIDerivedType(tag: DW_TAG_reference_type, baseType: !944, size: 64)
!944 = !DIDerivedType(tag: DW_TAG_const_type, baseType: !36)
!945 = !DISubprogram(name: "operator+=", linkageName: "_ZNSt10filesystem7__cxx114pathpLEPKc", scope: !28, file: !27, line: 369, type: !946, scopeLine: 369, flags: DIFlagPublic | DIFlagPrototyped, spFlags: DISPFlagOptimized)
!946 = !DISubroutineType(types: !947)
!947 = !{!930, !912, !948}
!948 = !DIDerivedType(tag: DW_TAG_pointer_type, baseType: !32, size: 64)
!949 = !DISubprogram(name: "operator+=", linkageName: "_ZNSt10filesystem7__cxx114pathpLEc", scope: !28, file: !27, line: 370, type: !950, scopeLine: 370, flags: DIFlagPublic | DIFlagPrototyped, spFlags: DISPFlagOptimized)
!950 = !DISubroutineType(types: !951)
!951 = !{!930, !912, !33}
!952 = !DISubprogram(name: "operator+=", linkageName: "_ZNSt10filesystem7__cxx114pathpLESt17basic_string_viewIcSt11char_traitsIcEE", scope: !28, file: !27, line: 371, type: !953, scopeLine: 371, flags: DIFlagPublic | DIFlagPrototyped, spFlags: DISPFlagOptimized)
!953 = !DISubroutineType(types: !954)
!954 = !{!930, !912, !185}
!955 = !DISubprogram(name: "clear", linkageName: "_ZNSt10filesystem7__cxx114path5clearEv", scope: !28, file: !27, line: 399, type: !910, scopeLine: 399, flags: DIFlagPublic | DIFlagPrototyped, spFlags: DISPFlagOptimized)
!956 = !DISubprogram(name: "make_preferred", linkageName: "_ZNSt10filesystem7__cxx114path14make_preferredEv", scope: !28, file: !27, line: 401, type: !957, scopeLine: 401, flags: DIFlagPublic | DIFlagPrototyped, spFlags: DISPFlagOptimized)
!957 = !DISubroutineType(types: !958)
!958 = !{!930, !912}
!959 = !DISubprogram(name: "remove_filename", linkageName: "_ZNSt10filesystem7__cxx114path15remove_filenameEv", scope: !28, file: !27, line: 402, type: !957, scopeLine: 402, flags: DIFlagPublic | DIFlagPrototyped, spFlags: DISPFlagOptimized)
!960 = !DISubprogram(name: "replace_filename", linkageName: "_ZNSt10filesystem7__cxx114path16replace_filenameERKS1_", scope: !28, file: !27, line: 403, type: !928, scopeLine: 403, flags: DIFlagPublic | DIFlagPrototyped, spFlags: DISPFlagOptimized)
!961 = !DISubprogram(name: "replace_extension", linkageName: "_ZNSt10filesystem7__cxx114path17replace_extensionERKS1_", scope: !28, file: !27, line: 404, type: !928, scopeLine: 404, flags: DIFlagPublic | DIFlagPrototyped, spFlags: DISPFlagOptimized)
!962 = !DISubprogram(name: "swap", linkageName: "_ZNSt10filesystem7__cxx114path4swapERS1_", scope: !28, file: !27, line: 406, type: !963, scopeLine: 406, flags: DIFlagPublic | DIFlagPrototyped, spFlags: DISPFlagOptimized)
!963 = !DISubroutineType(types: !964)
!964 = !{null, !912, !930}
!965 = !DISubprogram(name: "native", linkageName: "_ZNKSt10filesystem7__cxx114path6nativeEv", scope: !28, file: !27, line: 410, type: !966, scopeLine: 410, flags: DIFlagPublic | DIFlagPrototyped, spFlags: DISPFlagOptimized)
!966 = !DISubroutineType(types: !967)
!967 = !{!943, !968}
!968 = !DIDerivedType(tag: DW_TAG_pointer_type, baseType: !917, size: 64, flags: DIFlagArtificial | DIFlagObjectPointer)
!969 = !DISubprogram(name: "c_str", linkageName: "_ZNKSt10filesystem7__cxx114path5c_strEv", scope: !28, file: !27, line: 411, type: !970, scopeLine: 411, flags: DIFlagPublic | DIFlagPrototyped, spFlags: DISPFlagOptimized)
!970 = !DISubroutineType(types: !971)
!971 = !{!948, !968}
!972 = !DISubprogram(name: "operator basic_string", linkageName: "_ZNKSt10filesystem7__cxx114pathcvNSt7__cxx1112basic_stringIcSt11char_traitsIcESaIcEEEEv", scope: !28, file: !27, line: 412, type: !973, scopeLine: 412, flags: DIFlagPublic | DIFlagPrototyped, spFlags: DISPFlagOptimized)
!973 = !DISubroutineType(types: !974)
!974 = !{!36, !968}
!975 = !DISubprogram(name: "string", linkageName: "_ZNKSt10filesystem7__cxx114path6stringEv", scope: !28, file: !27, line: 419, type: !976, scopeLine: 419, flags: DIFlagPublic | DIFlagPrototyped, spFlags: DISPFlagOptimized)
!976 = !DISubroutineType(types: !977)
!977 = !{!978, !968}
!978 = !DIDerivedType(tag: DW_TAG_typedef, name: "string", scope: !2, file: !979, line: 79, baseType: !37)
!979 = !DIFile(filename: "/usr/bin/../lib/gcc/x86_64-linux-gnu/11/../../../../include/c++/11/bits/stringfwd.h", directory: "")
!980 = !DISubprogram(name: "wstring", linkageName: "_ZNKSt10filesystem7__cxx114path7wstringEv", scope: !28, file: !27, line: 421, type: !981, scopeLine: 421, flags: DIFlagPublic | DIFlagPrototyped, spFlags: DISPFlagOptimized)
!981 = !DISubroutineType(types: !982)
!982 = !{!983, !968}
!983 = !DIDerivedType(tag: DW_TAG_typedef, name: "wstring", scope: !2, file: !979, line: 83, baseType: !984)
!984 = !DICompositeType(tag: DW_TAG_class_type, name: "basic_string<wchar_t, std::char_traits<wchar_t>, std::allocator<wchar_t> >", scope: !39, file: !38, line: 85, size: 256, flags: DIFlagFwdDecl | DIFlagNonTrivial, identifier: "_ZTSNSt7__cxx1112basic_stringIwSt11char_traitsIwESaIwEEE")
!985 = !DISubprogram(name: "u8string", linkageName: "_ZNKSt10filesystem7__cxx114path8u8stringB4__u8Ev", scope: !28, file: !27, line: 425, type: !986, scopeLine: 425, flags: DIFlagPublic | DIFlagPrototyped, spFlags: DISPFlagOptimized)
!986 = !DISubroutineType(types: !987)
!987 = !{!988, !968}
!988 = !DIDerivedType(tag: DW_TAG_typedef, name: "u8string", scope: !2, file: !979, line: 88, baseType: !989)
!989 = !DICompositeType(tag: DW_TAG_class_type, name: "basic_string<char8_t, std::char_traits<char8_t>, std::allocator<char8_t> >", scope: !39, file: !38, line: 85, size: 256, flags: DIFlagFwdDecl | DIFlagNonTrivial, identifier: "_ZTSNSt7__cxx1112basic_stringIDuSt11char_traitsIDuESaIDuEEE")
!990 = !DISubprogram(name: "u16string", linkageName: "_ZNKSt10filesystem7__cxx114path9u16stringEv", scope: !28, file: !27, line: 429, type: !991, scopeLine: 429, flags: DIFlagPublic | DIFlagPrototyped, spFlags: DISPFlagOptimized)
!991 = !DISubroutineType(types: !992)
!992 = !{!993, !968}
!993 = !DIDerivedType(tag: DW_TAG_typedef, name: "u16string", scope: !2, file: !979, line: 93, baseType: !994)
!994 = !DICompositeType(tag: DW_TAG_class_type, name: "basic_string<char16_t, std::char_traits<char16_t>, std::allocator<char16_t> >", scope: !39, file: !38, line: 85, size: 256, flags: DIFlagFwdDecl | DIFlagNonTrivial, identifier: "_ZTSNSt7__cxx1112basic_stringIDsSt11char_traitsIDsESaIDsEEE")
!995 = !DISubprogram(name: "u32string", linkageName: "_ZNKSt10filesystem7__cxx114path9u32stringEv", scope: !28, file: !27, line: 430, type: !996, scopeLine: 430, flags: DIFlagPublic | DIFlagPrototyped, spFlags: DISPFlagOptimized)
!996 = !DISubroutineType(types: !997)
!997 = !{!998, !968}
!998 = !DIDerivedType(tag: DW_TAG_typedef, name: "u32string", scope: !2, file: !979, line: 96, baseType: !999)
!999 = !DICompositeType(tag: DW_TAG_class_type, name: "basic_string<char32_t, std::char_traits<char32_t>, std::allocator<char32_t> >", scope: !39, file: !38, line: 85, size: 256, flags: DIFlagFwdDecl | DIFlagNonTrivial, identifier: "_ZTSNSt7__cxx1112basic_stringIDiSt11char_traitsIDiESaIDiEEE")
!1000 = !DISubprogram(name: "generic_string", linkageName: "_ZNKSt10filesystem7__cxx114path14generic_stringEv", scope: !28, file: !27, line: 438, type: !976, scopeLine: 438, flags: DIFlagPublic | DIFlagPrototyped, spFlags: DISPFlagOptimized)
!1001 = !DISubprogram(name: "generic_wstring", linkageName: "_ZNKSt10filesystem7__cxx114path15generic_wstringEv", scope: !28, file: !27, line: 440, type: !981, scopeLine: 440, flags: DIFlagPublic | DIFlagPrototyped, spFlags: DISPFlagOptimized)
!1002 = !DISubprogram(name: "generic_u8string", linkageName: "_ZNKSt10filesystem7__cxx114path16generic_u8stringB4__u8Ev", scope: !28, file: !27, line: 444, type: !986, scopeLine: 444, flags: DIFlagPublic | DIFlagPrototyped, spFlags: DISPFlagOptimized)
!1003 = !DISubprogram(name: "generic_u16string", linkageName: "_ZNKSt10filesystem7__cxx114path17generic_u16stringEv", scope: !28, file: !27, line: 448, type: !991, scopeLine: 448, flags: DIFlagPublic | DIFlagPrototyped, spFlags: DISPFlagOptimized)
!1004 = !DISubprogram(name: "generic_u32string", linkageName: "_ZNKSt10filesystem7__cxx114path17generic_u32stringEv", scope: !28, file: !27, line: 449, type: !996, scopeLine: 449, flags: DIFlagPublic | DIFlagPrototyped, spFlags: DISPFlagOptimized)
!1005 = !DISubprogram(name: "compare", linkageName: "_ZNKSt10filesystem7__cxx114path7compareERKS1_", scope: !28, file: !27, line: 453, type: !1006, scopeLine: 453, flags: DIFlagPublic | DIFlagPrototyped, spFlags: DISPFlagOptimized)
!1006 = !DISubroutineType(types: !1007)
!1007 = !{!273, !968, !916}
!1008 = !DISubprogram(name: "compare", linkageName: "_ZNKSt10filesystem7__cxx114path7compareERKNSt7__cxx1112basic_stringIcSt11char_traitsIcESaIcEEE", scope: !28, file: !27, line: 454, type: !1009, scopeLine: 454, flags: DIFlagPublic | DIFlagPrototyped, spFlags: DISPFlagOptimized)
!1009 = !DISubroutineType(types: !1010)
!1010 = !{!273, !968, !943}
!1011 = !DISubprogram(name: "compare", linkageName: "_ZNKSt10filesystem7__cxx114path7compareEPKc", scope: !28, file: !27, line: 455, type: !1012, scopeLine: 455, flags: DIFlagPublic | DIFlagPrototyped, spFlags: DISPFlagOptimized)
!1012 = !DISubroutineType(types: !1013)
!1013 = !{!273, !968, !948}
!1014 = !DISubprogram(name: "compare", linkageName: "_ZNKSt10filesystem7__cxx114path7compareESt17basic_string_viewIcSt11char_traitsIcEE", scope: !28, file: !27, line: 456, type: !1015, scopeLine: 456, flags: DIFlagPublic | DIFlagPrototyped, spFlags: DISPFlagOptimized)
!1015 = !DISubroutineType(types: !1016)
!1016 = !{!273, !968, !185}
!1017 = !DISubprogram(name: "root_name", linkageName: "_ZNKSt10filesystem7__cxx114path9root_nameEv", scope: !28, file: !27, line: 460, type: !1018, scopeLine: 460, flags: DIFlagPublic | DIFlagPrototyped, spFlags: DISPFlagOptimized)
!1018 = !DISubroutineType(types: !1019)
!1019 = !{!28, !968}
!1020 = !DISubprogram(name: "root_directory", linkageName: "_ZNKSt10filesystem7__cxx114path14root_directoryEv", scope: !28, file: !27, line: 461, type: !1018, scopeLine: 461, flags: DIFlagPublic | DIFlagPrototyped, spFlags: DISPFlagOptimized)
!1021 = !DISubprogram(name: "root_path", linkageName: "_ZNKSt10filesystem7__cxx114path9root_pathEv", scope: !28, file: !27, line: 462, type: !1018, scopeLine: 462, flags: DIFlagPublic | DIFlagPrototyped, spFlags: DISPFlagOptimized)
!1022 = !DISubprogram(name: "relative_path", linkageName: "_ZNKSt10filesystem7__cxx114path13relative_pathEv", scope: !28, file: !27, line: 463, type: !1018, scopeLine: 463, flags: DIFlagPublic | DIFlagPrototyped, spFlags: DISPFlagOptimized)
!1023 = !DISubprogram(name: "parent_path", linkageName: "_ZNKSt10filesystem7__cxx114path11parent_pathEv", scope: !28, file: !27, line: 464, type: !1018, scopeLine: 464, flags: DIFlagPublic | DIFlagPrototyped, spFlags: DISPFlagOptimized)
!1024 = !DISubprogram(name: "filename", linkageName: "_ZNKSt10filesystem7__cxx114path8filenameEv", scope: !28, file: !27, line: 465, type: !1018, scopeLine: 465, flags: DIFlagPublic | DIFlagPrototyped, spFlags: DISPFlagOptimized)
!1025 = !DISubprogram(name: "stem", linkageName: "_ZNKSt10filesystem7__cxx114path4stemEv", scope: !28, file: !27, line: 466, type: !1018, scopeLine: 466, flags: DIFlagPublic | DIFlagPrototyped, spFlags: DISPFlagOptimized)
!1026 = !DISubprogram(name: "extension", linkageName: "_ZNKSt10filesystem7__cxx114path9extensionEv", scope: !28, file: !27, line: 467, type: !1018, scopeLine: 467, flags: DIFlagPublic | DIFlagPrototyped, spFlags: DISPFlagOptimized)
!1027 = !DISubprogram(name: "empty", linkageName: "_ZNKSt10filesystem7__cxx114path5emptyEv", scope: !28, file: !27, line: 471, type: !1028, scopeLine: 471, flags: DIFlagPublic | DIFlagPrototyped, spFlags: DISPFlagOptimized)
!1028 = !DISubroutineType(types: !1029)
!1029 = !{!145, !968}
!1030 = !DISubprogram(name: "has_root_name", linkageName: "_ZNKSt10filesystem7__cxx114path13has_root_nameEv", scope: !28, file: !27, line: 472, type: !1028, scopeLine: 472, flags: DIFlagPublic | DIFlagPrototyped, spFlags: DISPFlagOptimized)
!1031 = !DISubprogram(name: "has_root_directory", linkageName: "_ZNKSt10filesystem7__cxx114path18has_root_directoryEv", scope: !28, file: !27, line: 473, type: !1028, scopeLine: 473, flags: DIFlagPublic | DIFlagPrototyped, spFlags: DISPFlagOptimized)
!1032 = !DISubprogram(name: "has_root_path", linkageName: "_ZNKSt10filesystem7__cxx114path13has_root_pathEv", scope: !28, file: !27, line: 474, type: !1028, scopeLine: 474, flags: DIFlagPublic | DIFlagPrototyped, spFlags: DISPFlagOptimized)
!1033 = !DISubprogram(name: "has_relative_path", linkageName: "_ZNKSt10filesystem7__cxx114path17has_relative_pathEv", scope: !28, file: !27, line: 475, type: !1028, scopeLine: 475, flags: DIFlagPublic | DIFlagPrototyped, spFlags: DISPFlagOptimized)
!1034 = !DISubprogram(name: "has_parent_path", linkageName: "_ZNKSt10filesystem7__cxx114path15has_parent_pathEv", scope: !28, file: !27, line: 476, type: !1028, scopeLine: 476, flags: DIFlagPublic | DIFlagPrototyped, spFlags: DISPFlagOptimized)
!1035 = !DISubprogram(name: "has_filename", linkageName: "_ZNKSt10filesystem7__cxx114path12has_filenameEv", scope: !28, file: !27, line: 477, type: !1028, scopeLine: 477, flags: DIFlagPublic | DIFlagPrototyped, spFlags: DISPFlagOptimized)
!1036 = !DISubprogram(name: "has_stem", linkageName: "_ZNKSt10filesystem7__cxx114path8has_stemEv", scope: !28, file: !27, line: 478, type: !1028, scopeLine: 478, flags: DIFlagPublic | DIFlagPrototyped, spFlags: DISPFlagOptimized)
!1037 = !DISubprogram(name: "has_extension", linkageName: "_ZNKSt10filesystem7__cxx114path13has_extensionEv", scope: !28, file: !27, line: 479, type: !1028, scopeLine: 479, flags: DIFlagPublic | DIFlagPrototyped, spFlags: DISPFlagOptimized)
!1038 = !DISubprogram(name: "is_absolute", linkageName: "_ZNKSt10filesystem7__cxx114path11is_absoluteEv", scope: !28, file: !27, line: 480, type: !1028, scopeLine: 480, flags: DIFlagPublic | DIFlagPrototyped, spFlags: DISPFlagOptimized)
!1039 = !DISubprogram(name: "is_relative", linkageName: "_ZNKSt10filesystem7__cxx114path11is_relativeEv", scope: !28, file: !27, line: 481, type: !1028, scopeLine: 481, flags: DIFlagPublic | DIFlagPrototyped, spFlags: DISPFlagOptimized)
!1040 = !DISubprogram(name: "lexically_normal", linkageName: "_ZNKSt10filesystem7__cxx114path16lexically_normalEv", scope: !28, file: !27, line: 484, type: !1018, scopeLine: 484, flags: DIFlagPublic | DIFlagPrototyped, spFlags: DISPFlagOptimized)
!1041 = !DISubprogram(name: "lexically_relative", linkageName: "_ZNKSt10filesystem7__cxx114path18lexically_relativeERKS1_", scope: !28, file: !27, line: 485, type: !1042, scopeLine: 485, flags: DIFlagPublic | DIFlagPrototyped, spFlags: DISPFlagOptimized)
!1042 = !DISubroutineType(types: !1043)
!1043 = !{!28, !968, !916}
!1044 = !DISubprogram(name: "lexically_proximate", linkageName: "_ZNKSt10filesystem7__cxx114path19lexically_proximateERKS1_", scope: !28, file: !27, line: 486, type: !1042, scopeLine: 486, flags: DIFlagPublic | DIFlagPrototyped, spFlags: DISPFlagOptimized)
!1045 = !DISubprogram(name: "begin", linkageName: "_ZNKSt10filesystem7__cxx114path5beginEv", scope: !28, file: !27, line: 492, type: !1046, scopeLine: 492, flags: DIFlagPublic | DIFlagPrototyped, spFlags: DISPFlagOptimized)
!1046 = !DISubroutineType(types: !1047)
!1047 = !{!1048, !968}
!1048 = !DICompositeType(tag: DW_TAG_class_type, name: "iterator", scope: !28, file: !27, line: 873, size: 192, flags: DIFlagFwdDecl | DIFlagNonTrivial, identifier: "_ZTSNSt10filesystem7__cxx114path8iteratorE")
!1049 = !DISubprogram(name: "end", linkageName: "_ZNKSt10filesystem7__cxx114path3endEv", scope: !28, file: !27, line: 493, type: !1046, scopeLine: 493, flags: DIFlagPublic | DIFlagPrototyped, spFlags: DISPFlagOptimized)
!1050 = !DISubprogram(name: "path", scope: !28, file: !27, line: 561, type: !1051, scopeLine: 561, flags: DIFlagPrototyped, spFlags: DISPFlagOptimized)
!1051 = !DISubroutineType(types: !1052)
!1052 = !{null, !912, !185, !1053}
!1053 = !DICompositeType(tag: DW_TAG_enumeration_type, name: "_Type", scope: !28, file: !27, line: 557, baseType: !21, size: 8, flags: DIFlagEnumClass, elements: !1054, identifier: "_ZTSNSt10filesystem7__cxx114path5_TypeE")
!1054 = !{!1055, !1056, !1057, !1058}
!1055 = !DIEnumerator(name: "_Multi", value: 0, isUnsigned: true)
!1056 = !DIEnumerator(name: "_Root_name", value: 1, isUnsigned: true)
!1057 = !DIEnumerator(name: "_Root_dir", value: 2, isUnsigned: true)
!1058 = !DIEnumerator(name: "_Filename", value: 3, isUnsigned: true)
!1059 = !DISubprogram(name: "_M_append", linkageName: "_ZNSt10filesystem7__cxx114path9_M_appendESt17basic_string_viewIcSt11char_traitsIcEE", scope: !28, file: !27, line: 570, type: !1060, scopeLine: 570, flags: DIFlagPrototyped, spFlags: DISPFlagOptimized)
!1060 = !DISubroutineType(types: !1061)
!1061 = !{null, !912, !185}
!1062 = !DISubprogram(name: "_M_concat", linkageName: "_ZNSt10filesystem7__cxx114path9_M_concatESt17basic_string_viewIcSt11char_traitsIcEE", scope: !28, file: !27, line: 571, type: !1060, scopeLine: 571, flags: DIFlagPrototyped, spFlags: DISPFlagOptimized)
!1063 = !DISubprogram(name: "_M_find_extension", linkageName: "_ZNKSt10filesystem7__cxx114path17_M_find_extensionEv", scope: !28, file: !27, line: 573, type: !1064, scopeLine: 573, flags: DIFlagPrototyped, spFlags: DISPFlagOptimized)
!1064 = !DISubroutineType(types: !1065)
!1065 = !{!1066, !968}
!1066 = distinct !DICompositeType(tag: DW_TAG_structure_type, name: "pair<const std::__cxx11::basic_string<char, std::char_traits<char>, std::allocator<char> > *, unsigned long>", scope: !2, file: !1067, line: 211, size: 128, flags: DIFlagTypePassByValue | DIFlagNonTrivial, elements: !1068, templateParams: !1128, identifier: "_ZTSSt4pairIPKNSt7__cxx1112basic_stringIcSt11char_traitsIcESaIcEEEmE")
!1067 = !DIFile(filename: "/usr/bin/../lib/gcc/x86_64-linux-gnu/11/../../../../include/c++/11/bits/stl_pair.h", directory: "", checksumkind: CSK_MD5, checksum: "7f4523a2a9644730e7f1af988b6f398d")
!1068 = !{!1069, !1090, !1091, !1092, !1098, !1102, !1116, !1125}
!1069 = !DIDerivedType(tag: DW_TAG_inheritance, scope: !1066, baseType: !1070, flags: DIFlagPrivate, extraData: i32 0)
!1070 = distinct !DICompositeType(tag: DW_TAG_class_type, name: "__pair_base<const std::__cxx11::basic_string<char, std::char_traits<char>, std::allocator<char> > *, unsigned long>", scope: !2, file: !1067, line: 189, size: 8, flags: DIFlagTypePassByValue, elements: !1071, templateParams: !1086, identifier: "_ZTSSt11__pair_baseIPKNSt7__cxx1112basic_stringIcSt11char_traitsIcESaIcEEEmE")
!1071 = !{!1072, !1076, !1077, !1082}
!1072 = !DISubprogram(name: "__pair_base", scope: !1070, file: !1067, line: 193, type: !1073, scopeLine: 193, flags: DIFlagPrototyped, spFlags: DISPFlagOptimized)
!1073 = !DISubroutineType(types: !1074)
!1074 = !{null, !1075}
!1075 = !DIDerivedType(tag: DW_TAG_pointer_type, baseType: !1070, size: 64, flags: DIFlagArtificial | DIFlagObjectPointer)
!1076 = !DISubprogram(name: "~__pair_base", scope: !1070, file: !1067, line: 194, type: !1073, scopeLine: 194, flags: DIFlagPrototyped, spFlags: DISPFlagOptimized)
!1077 = !DISubprogram(name: "__pair_base", scope: !1070, file: !1067, line: 195, type: !1078, scopeLine: 195, flags: DIFlagPrototyped, spFlags: DISPFlagOptimized)
!1078 = !DISubroutineType(types: !1079)
!1079 = !{null, !1075, !1080}
!1080 = !DIDerivedType(tag: DW_TAG_reference_type, baseType: !1081, size: 64)
!1081 = !DIDerivedType(tag: DW_TAG_const_type, baseType: !1070)
!1082 = !DISubprogram(name: "operator=", linkageName: "_ZNSt11__pair_baseIPKNSt7__cxx1112basic_stringIcSt11char_traitsIcESaIcEEEmEaSERKS8_", scope: !1070, file: !1067, line: 196, type: !1083, scopeLine: 196, flags: DIFlagPrototyped, spFlags: DISPFlagOptimized | DISPFlagDeleted)
!1083 = !DISubroutineType(types: !1084)
!1084 = !{!1085, !1075, !1080}
!1085 = !DIDerivedType(tag: DW_TAG_reference_type, baseType: !1070, size: 64)
!1086 = !{!1087, !1089}
!1087 = !DITemplateTypeParameter(name: "_U1", type: !1088)
!1088 = !DIDerivedType(tag: DW_TAG_pointer_type, baseType: !411, size: 64)
!1089 = !DITemplateTypeParameter(name: "_U2", type: !83)
!1090 = !DIDerivedType(tag: DW_TAG_member, name: "first", scope: !1066, file: !1067, line: 217, baseType: !1088, size: 64)
!1091 = !DIDerivedType(tag: DW_TAG_member, name: "second", scope: !1066, file: !1067, line: 218, baseType: !83, size: 64, offset: 64)
!1092 = !DISubprogram(name: "pair", scope: !1066, file: !1067, line: 314, type: !1093, scopeLine: 314, flags: DIFlagPrototyped, spFlags: DISPFlagOptimized)
!1093 = !DISubroutineType(types: !1094)
!1094 = !{null, !1095, !1096}
!1095 = !DIDerivedType(tag: DW_TAG_pointer_type, baseType: !1066, size: 64, flags: DIFlagArtificial | DIFlagObjectPointer)
!1096 = !DIDerivedType(tag: DW_TAG_reference_type, baseType: !1097, size: 64)
!1097 = !DIDerivedType(tag: DW_TAG_const_type, baseType: !1066)
!1098 = !DISubprogram(name: "pair", scope: !1066, file: !1067, line: 315, type: !1099, scopeLine: 315, flags: DIFlagPrototyped, spFlags: DISPFlagOptimized)
!1099 = !DISubroutineType(types: !1100)
!1100 = !{null, !1095, !1101}
!1101 = !DIDerivedType(tag: DW_TAG_rvalue_reference_type, baseType: !1066, size: 64)
!1102 = !DISubprogram(name: "operator=", linkageName: "_ZNSt4pairIPKNSt7__cxx1112basic_stringIcSt11char_traitsIcESaIcEEEmEaSERKS8_", scope: !1066, file: !1067, line: 390, type: !1103, scopeLine: 390, flags: DIFlagPrototyped, spFlags: DISPFlagOptimized)
!1103 = !DISubroutineType(types: !1104)
!1104 = !{!1105, !1095, !1106}
!1105 = !DIDerivedType(tag: DW_TAG_reference_type, baseType: !1066, size: 64)
!1106 = !DIDerivedType(tag: DW_TAG_typedef, name: "type", scope: !1108, file: !1107, line: 2227, baseType: !1096)
!1107 = !DIFile(filename: "/usr/bin/../lib/gcc/x86_64-linux-gnu/11/../../../../include/c++/11/type_traits", directory: "")
!1108 = distinct !DICompositeType(tag: DW_TAG_structure_type, name: "conditional<true, const std::pair<const std::__cxx11::basic_string<char, std::char_traits<char>, std::allocator<char> > *, unsigned long> &, const std::__nonesuch &>", scope: !2, file: !1107, line: 2226, size: 8, flags: DIFlagTypePassByValue, elements: !159, templateParams: !1109, identifier: "_ZTSSt11conditionalILb1ERKSt4pairIPKNSt7__cxx1112basic_stringIcSt11char_traitsIcESaIcEEEmERKSt10__nonesuchE")
!1109 = !{!1110, !1111, !1112}
!1110 = !DITemplateValueParameter(name: "_Cond", type: !145, value: i1 true)
!1111 = !DITemplateTypeParameter(name: "_Iftrue", type: !1096)
!1112 = !DITemplateTypeParameter(name: "_Iffalse", type: !1113)
!1113 = !DIDerivedType(tag: DW_TAG_reference_type, baseType: !1114, size: 64)
!1114 = !DIDerivedType(tag: DW_TAG_const_type, baseType: !1115)
!1115 = !DICompositeType(tag: DW_TAG_structure_type, name: "__nonesuch", scope: !2, file: !1107, line: 2984, size: 8, flags: DIFlagFwdDecl | DIFlagNonTrivial, identifier: "_ZTSSt10__nonesuch")
!1116 = !DISubprogram(name: "operator=", linkageName: "_ZNSt4pairIPKNSt7__cxx1112basic_stringIcSt11char_traitsIcESaIcEEEmEaSEOS8_", scope: !1066, file: !1067, line: 401, type: !1117, scopeLine: 401, flags: DIFlagPrototyped, spFlags: DISPFlagOptimized)
!1117 = !DISubroutineType(types: !1118)
!1118 = !{!1105, !1095, !1119}
!1119 = !DIDerivedType(tag: DW_TAG_typedef, name: "type", scope: !1120, file: !1107, line: 2227, baseType: !1101)
!1120 = distinct !DICompositeType(tag: DW_TAG_structure_type, name: "conditional<true, std::pair<const std::__cxx11::basic_string<char, std::char_traits<char>, std::allocator<char> > *, unsigned long> &&, std::__nonesuch &&>", scope: !2, file: !1107, line: 2226, size: 8, flags: DIFlagTypePassByValue, elements: !159, templateParams: !1121, identifier: "_ZTSSt11conditionalILb1EOSt4pairIPKNSt7__cxx1112basic_stringIcSt11char_traitsIcESaIcEEEmEOSt10__nonesuchE")
!1121 = !{!1110, !1122, !1123}
!1122 = !DITemplateTypeParameter(name: "_Iftrue", type: !1101)
!1123 = !DITemplateTypeParameter(name: "_Iffalse", type: !1124)
!1124 = !DIDerivedType(tag: DW_TAG_rvalue_reference_type, baseType: !1115, size: 64)
!1125 = !DISubprogram(name: "swap", linkageName: "_ZNSt4pairIPKNSt7__cxx1112basic_stringIcSt11char_traitsIcESaIcEEEmE4swapERS8_", scope: !1066, file: !1067, line: 439, type: !1126, scopeLine: 439, flags: DIFlagPrototyped, spFlags: DISPFlagOptimized)
!1126 = !DISubroutineType(types: !1127)
!1127 = !{null, !1095, !1105}
!1128 = !{!1129, !1130}
!1129 = !DITemplateTypeParameter(name: "_T1", type: !1088)
!1130 = !DITemplateTypeParameter(name: "_T2", type: !83)
!1131 = !DISubprogram(name: "_S_convert", linkageName: "_ZNSt10filesystem7__cxx114path10_S_convertENSt7__cxx1112basic_stringIcSt11char_traitsIcESaIcEEE", scope: !28, file: !27, line: 584, type: !1132, scopeLine: 584, flags: DIFlagPrototyped | DIFlagStaticMember, spFlags: DISPFlagOptimized)
!1132 = !DISubroutineType(types: !1133)
!1133 = !{!36, !36}
!1134 = !DISubprogram(name: "_S_convert_loc", linkageName: "_ZNSt10filesystem7__cxx114path14_S_convert_locEPKcS3_RKSt6locale", scope: !28, file: !27, line: 606, type: !1135, scopeLine: 606, flags: DIFlagPrototyped | DIFlagStaticMember, spFlags: DISPFlagOptimized)
!1135 = !DISubroutineType(types: !1136)
!1136 = !{!36, !193, !193, !1137}
!1137 = !DIDerivedType(tag: DW_TAG_reference_type, baseType: !1138, size: 64)
!1138 = !DIDerivedType(tag: DW_TAG_const_type, baseType: !1139)
!1139 = !DICompositeType(tag: DW_TAG_class_type, name: "locale", scope: !2, file: !1140, line: 62, size: 64, flags: DIFlagFwdDecl | DIFlagNonTrivial, identifier: "_ZTSSt6locale")
!1140 = !DIFile(filename: "/usr/bin/../lib/gcc/x86_64-linux-gnu/11/../../../../include/c++/11/bits/locale_classes.h", directory: "")
!1141 = !DISubprogram(name: "_S_compare", linkageName: "_ZNSt10filesystem7__cxx114path10_S_compareERKS1_S3_", scope: !28, file: !27, line: 631, type: !1142, scopeLine: 631, flags: DIFlagPrototyped | DIFlagStaticMember, spFlags: DISPFlagOptimized)
!1142 = !DISubroutineType(types: !1143)
!1143 = !{!273, !916, !916}
!1144 = !DISubprogram(name: "_M_split_cmpts", linkageName: "_ZNSt10filesystem7__cxx114path14_M_split_cmptsEv", scope: !28, file: !27, line: 633, type: !910, scopeLine: 633, flags: DIFlagPrototyped, spFlags: DISPFlagOptimized)
!1145 = !DISubprogram(name: "_M_type", linkageName: "_ZNKSt10filesystem7__cxx114path7_M_typeEv", scope: !28, file: !27, line: 635, type: !1146, scopeLine: 635, flags: DIFlagPrototyped, spFlags: DISPFlagOptimized)
!1146 = !DISubroutineType(types: !1147)
!1147 = !{!1053, !968}
!1148 = !{!1149, !1150, !1151}
!1149 = !DIEnumerator(name: "native_format", value: 0, isUnsigned: true)
!1150 = !DIEnumerator(name: "generic_format", value: 1, isUnsigned: true)
!1151 = !DIEnumerator(name: "auto_format", value: 2, isUnsigned: true)
!1152 = !DICompositeType(tag: DW_TAG_enumeration_type, scope: !37, file: !38, line: 177, baseType: !13, size: 32, elements: !1153, identifier: "_ZTSNSt7__cxx1112basic_stringIcSt11char_traitsIcESaIcEEUt_E")
!1153 = !{!1154}
!1154 = !DIEnumerator(name: "_S_local_capacity", value: 15, isUnsigned: true)
!1155 = !DICompositeType(tag: DW_TAG_enumeration_type, name: "_Ios_Iostate", scope: !2, file: !5, line: 153, baseType: !273, size: 32, elements: !1156, identifier: "_ZTSSt12_Ios_Iostate")
!1156 = !{!1157, !1158, !1159, !1160, !1161, !1162, !1163}
!1157 = !DIEnumerator(name: "_S_goodbit", value: 0)
!1158 = !DIEnumerator(name: "_S_badbit", value: 1)
!1159 = !DIEnumerator(name: "_S_eofbit", value: 2)
!1160 = !DIEnumerator(name: "_S_failbit", value: 4)
!1161 = !DIEnumerator(name: "_S_ios_iostate_end", value: 65536)
!1162 = !DIEnumerator(name: "_S_ios_iostate_max", value: 2147483647)
!1163 = !DIEnumerator(name: "_S_ios_iostate_min", value: -2147483648)
!1164 = !DICompositeType(tag: DW_TAG_enumeration_type, name: "_Ios_Openmode", scope: !2, file: !5, line: 111, baseType: !273, size: 32, elements: !1165, identifier: "_ZTSSt13_Ios_Openmode")
!1165 = !{!1166, !1167, !1168, !1169, !1170, !1171, !1172, !1173, !1174}
!1166 = !DIEnumerator(name: "_S_app", value: 1)
!1167 = !DIEnumerator(name: "_S_ate", value: 2)
!1168 = !DIEnumerator(name: "_S_bin", value: 4)
!1169 = !DIEnumerator(name: "_S_in", value: 8)
!1170 = !DIEnumerator(name: "_S_out", value: 16)
!1171 = !DIEnumerator(name: "_S_trunc", value: 32)
!1172 = !DIEnumerator(name: "_S_ios_openmode_end", value: 65536)
!1173 = !DIEnumerator(name: "_S_ios_openmode_max", value: 2147483647)
!1174 = !DIEnumerator(name: "_S_ios_openmode_min", value: -2147483648)
!1175 = !DICompositeType(tag: DW_TAG_enumeration_type, name: "_Ios_Seekdir", scope: !2, file: !5, line: 193, baseType: !13, size: 32, elements: !1176, identifier: "_ZTSSt12_Ios_Seekdir")
!1176 = !{!1177, !1178, !1179, !1180}
!1177 = !DIEnumerator(name: "_S_beg", value: 0, isUnsigned: true)
!1178 = !DIEnumerator(name: "_S_cur", value: 1, isUnsigned: true)
!1179 = !DIEnumerator(name: "_S_end", value: 2, isUnsigned: true)
!1180 = !DIEnumerator(name: "_S_ios_seekdir_end", value: 65536, isUnsigned: true)
!1181 = !{!1182, !83, !394, !43, !81, !56, !366, !1389, !1155, !273, !34, !531, !469, !1216, !1234, !1186, !1391, !1424, !1454, !1490, !1525, !1572, !1605, !1656, !1669, !65, !28, !185, !1070, !1066, !59, !37, !470, !532, !152, !6, !1730, !1738, !1734, !2109, !1750, !2290}
!1182 = distinct !DICompositeType(tag: DW_TAG_class_type, name: "directory_iterator", scope: !29, file: !1183, line: 374, size: 128, flags: DIFlagTypePassByReference | DIFlagNonTrivial, elements: !1184, identifier: "_ZTSNSt10filesystem7__cxx1118directory_iteratorE")
!1183 = !DIFile(filename: "/usr/bin/../lib/gcc/x86_64-linux-gnu/11/../../../../include/c++/11/bits/fs_dir.h", directory: "", checksumkind: CSK_MD5, checksum: "42e0fac7ef6d3d3217e48ce36672e534")
!1184 = !{!1185, !1328, !1332, !1335, !1338, !1344, !1347, !1352, !1356, !1357, !1361, !1364, !1371, !1375, !1378, !1381, !1385}
!1185 = !DIDerivedType(tag: DW_TAG_member, name: "_M_dir", scope: !1182, file: !1183, line: 441, baseType: !1186, size: 128)
!1186 = distinct !DICompositeType(tag: DW_TAG_class_type, name: "__shared_ptr<std::filesystem::__cxx11::_Dir, __gnu_cxx::_S_atomic>", scope: !2, file: !1183, line: 567, size: 128, flags: DIFlagTypePassByReference | DIFlagNonTrivial, elements: !1187, templateParams: !1327, identifier: "_ZTSSt12__shared_ptrINSt10filesystem7__cxx114_DirELN9__gnu_cxx12_Lock_policyE2EE")
!1187 = !{!1188, !1209, !1215, !1277, !1281, !1286, !1290, !1291, !1295, !1300, !1303, !1304, !1308, !1311, !1312, !1315, !1318, !1324}
!1188 = !DIDerivedType(tag: DW_TAG_inheritance, scope: !1186, baseType: !1189, flags: DIFlagPublic, extraData: i32 0)
!1189 = distinct !DICompositeType(tag: DW_TAG_class_type, name: "__shared_ptr_access<std::filesystem::__cxx11::_Dir, __gnu_cxx::_S_atomic, false, false>", scope: !2, file: !1190, line: 971, size: 8, flags: DIFlagTypePassByValue, elements: !1191, templateParams: !1205, identifier: "_ZTSSt19__shared_ptr_accessINSt10filesystem7__cxx114_DirELN9__gnu_cxx12_Lock_policyE2ELb0ELb0EE")
!1190 = !DIFile(filename: "/usr/bin/../lib/gcc/x86_64-linux-gnu/11/../../../../include/c++/11/bits/shared_ptr_base.h", directory: "", checksumkind: CSK_MD5, checksum: "903a445df4ef3034a2163ac5a9adc8da")
!1191 = !{!1192, !1200, !1204}
!1192 = !DISubprogram(name: "operator*", linkageName: "_ZNKSt19__shared_ptr_accessINSt10filesystem7__cxx114_DirELN9__gnu_cxx12_Lock_policyE2ELb0ELb0EEdeEv", scope: !1189, file: !1190, line: 977, type: !1193, scopeLine: 977, flags: DIFlagPublic | DIFlagPrototyped, spFlags: DISPFlagOptimized)
!1193 = !DISubroutineType(types: !1194)
!1194 = !{!1195, !1198}
!1195 = !DIDerivedType(tag: DW_TAG_reference_type, baseType: !1196, size: 64)
!1196 = !DIDerivedType(tag: DW_TAG_typedef, name: "element_type", scope: !1189, file: !1190, line: 974, baseType: !1197)
!1197 = !DICompositeType(tag: DW_TAG_structure_type, name: "_Dir", scope: !29, file: !1183, line: 91, flags: DIFlagFwdDecl | DIFlagNonTrivial, identifier: "_ZTSNSt10filesystem7__cxx114_DirE")
!1198 = !DIDerivedType(tag: DW_TAG_pointer_type, baseType: !1199, size: 64, flags: DIFlagArtificial | DIFlagObjectPointer)
!1199 = !DIDerivedType(tag: DW_TAG_const_type, baseType: !1189)
!1200 = !DISubprogram(name: "operator->", linkageName: "_ZNKSt19__shared_ptr_accessINSt10filesystem7__cxx114_DirELN9__gnu_cxx12_Lock_policyE2ELb0ELb0EEptEv", scope: !1189, file: !1190, line: 984, type: !1201, scopeLine: 984, flags: DIFlagPublic | DIFlagPrototyped, spFlags: DISPFlagOptimized)
!1201 = !DISubroutineType(types: !1202)
!1202 = !{!1203, !1198}
!1203 = !DIDerivedType(tag: DW_TAG_pointer_type, baseType: !1196, size: 64)
!1204 = !DISubprogram(name: "_M_get", linkageName: "_ZNKSt19__shared_ptr_accessINSt10filesystem7__cxx114_DirELN9__gnu_cxx12_Lock_policyE2ELb0ELb0EE6_M_getEv", scope: !1189, file: !1190, line: 992, type: !1201, scopeLine: 992, flags: DIFlagPrototyped, spFlags: DISPFlagOptimized)
!1205 = !{!1206, !1207, !1208, !1208}
!1206 = !DITemplateTypeParameter(name: "_Tp", type: !1197)
!1207 = !DITemplateValueParameter(name: "_Lp", type: !10, value: i32 2)
!1208 = !DITemplateValueParameter(type: !145, value: i1 false)
!1209 = !DIDerivedType(tag: DW_TAG_member, name: "_M_ptr", scope: !1186, file: !1190, line: 1402, baseType: !1210, size: 64)
!1210 = !DIDerivedType(tag: DW_TAG_pointer_type, baseType: !1211, size: 64)
!1211 = !DIDerivedType(tag: DW_TAG_typedef, name: "element_type", scope: !1186, file: !1190, line: 1056, baseType: !1212)
!1212 = !DIDerivedType(tag: DW_TAG_typedef, name: "type", scope: !1213, file: !1107, line: 1988, baseType: !1197)
!1213 = distinct !DICompositeType(tag: DW_TAG_structure_type, name: "remove_extent<std::filesystem::__cxx11::_Dir>", scope: !2, file: !1107, line: 1987, size: 8, flags: DIFlagTypePassByValue, elements: !159, templateParams: !1214, identifier: "_ZTSSt13remove_extentINSt10filesystem7__cxx114_DirEE")
!1214 = !{!1206}
!1215 = !DIDerivedType(tag: DW_TAG_member, name: "_M_refcount", scope: !1186, file: !1190, line: 1403, baseType: !1216, size: 64, offset: 64)
!1216 = distinct !DICompositeType(tag: DW_TAG_class_type, name: "__shared_count<__gnu_cxx::_S_atomic>", scope: !2, file: !1190, line: 578, size: 64, flags: DIFlagTypePassByReference | DIFlagNonTrivial, elements: !1217, templateParams: !1275, identifier: "_ZTSSt14__shared_countILN9__gnu_cxx12_Lock_policyE2EE")
!1217 = !{!1218, !1221, !1225, !1231, !1241, !1242, !1247, !1251, !1254, !1258, !1261, !1269, !1272}
!1218 = !DIDerivedType(tag: DW_TAG_member, name: "_M_pi", scope: !1216, file: !1190, line: 766, baseType: !1219, size: 64)
!1219 = !DIDerivedType(tag: DW_TAG_pointer_type, baseType: !1220, size: 64)
!1220 = !DICompositeType(tag: DW_TAG_class_type, name: "_Sp_counted_base<__gnu_cxx::_S_atomic>", scope: !2, file: !1190, line: 122, size: 128, flags: DIFlagFwdDecl | DIFlagNonTrivial, identifier: "_ZTSSt16_Sp_counted_baseILN9__gnu_cxx12_Lock_policyE2EE")
!1221 = !DISubprogram(name: "__shared_count", scope: !1216, file: !1190, line: 587, type: !1222, scopeLine: 587, flags: DIFlagPublic | DIFlagPrototyped, spFlags: DISPFlagOptimized)
!1222 = !DISubroutineType(types: !1223)
!1223 = !{null, !1224}
!1224 = !DIDerivedType(tag: DW_TAG_pointer_type, baseType: !1216, size: 64, flags: DIFlagArtificial | DIFlagObjectPointer)
!1225 = !DISubprogram(name: "__shared_count", scope: !1216, file: !1190, line: 696, type: !1226, scopeLine: 696, flags: DIFlagPublic | DIFlagExplicit | DIFlagPrototyped, spFlags: DISPFlagOptimized)
!1226 = !DISubroutineType(types: !1227)
!1227 = !{null, !1224, !1228}
!1228 = !DIDerivedType(tag: DW_TAG_reference_type, baseType: !1229, size: 64)
!1229 = !DIDerivedType(tag: DW_TAG_const_type, baseType: !1230)
!1230 = !DICompositeType(tag: DW_TAG_class_type, name: "__weak_count<__gnu_cxx::_S_atomic>", scope: !2, file: !1190, line: 771, size: 64, flags: DIFlagFwdDecl | DIFlagNonTrivial, identifier: "_ZTSSt12__weak_countILN9__gnu_cxx12_Lock_policyE2EE")
!1231 = !DISubprogram(name: "__shared_count", scope: !1216, file: !1190, line: 700, type: !1232, scopeLine: 700, flags: DIFlagPublic | DIFlagExplicit | DIFlagPrototyped, spFlags: DISPFlagOptimized)
!1232 = !DISubroutineType(types: !1233)
!1233 = !{null, !1224, !1228, !1234}
!1234 = distinct !DICompositeType(tag: DW_TAG_structure_type, name: "nothrow_t", scope: !2, file: !1235, line: 92, size: 8, flags: DIFlagTypePassByValue, elements: !1236, identifier: "_ZTSSt9nothrow_t")
!1235 = !DIFile(filename: "/usr/bin/../lib/gcc/x86_64-linux-gnu/11/../../../../include/c++/11/new", directory: "")
!1236 = !{!1237}
!1237 = !DISubprogram(name: "nothrow_t", scope: !1234, file: !1235, line: 95, type: !1238, scopeLine: 95, flags: DIFlagExplicit | DIFlagPrototyped, spFlags: DISPFlagOptimized)
!1238 = !DISubroutineType(types: !1239)
!1239 = !{null, !1240}
!1240 = !DIDerivedType(tag: DW_TAG_pointer_type, baseType: !1234, size: 64, flags: DIFlagArtificial | DIFlagObjectPointer)
!1241 = !DISubprogram(name: "~__shared_count", scope: !1216, file: !1190, line: 702, type: !1222, scopeLine: 702, flags: DIFlagPublic | DIFlagPrototyped, spFlags: DISPFlagOptimized)
!1242 = !DISubprogram(name: "__shared_count", scope: !1216, file: !1190, line: 708, type: !1243, scopeLine: 708, flags: DIFlagPublic | DIFlagPrototyped, spFlags: DISPFlagOptimized)
!1243 = !DISubroutineType(types: !1244)
!1244 = !{null, !1224, !1245}
!1245 = !DIDerivedType(tag: DW_TAG_reference_type, baseType: !1246, size: 64)
!1246 = !DIDerivedType(tag: DW_TAG_const_type, baseType: !1216)
!1247 = !DISubprogram(name: "operator=", linkageName: "_ZNSt14__shared_countILN9__gnu_cxx12_Lock_policyE2EEaSERKS2_", scope: !1216, file: !1190, line: 716, type: !1248, scopeLine: 716, flags: DIFlagPublic | DIFlagPrototyped, spFlags: DISPFlagOptimized)
!1248 = !DISubroutineType(types: !1249)
!1249 = !{!1250, !1224, !1245}
!1250 = !DIDerivedType(tag: DW_TAG_reference_type, baseType: !1216, size: 64)
!1251 = !DISubprogram(name: "_M_swap", linkageName: "_ZNSt14__shared_countILN9__gnu_cxx12_Lock_policyE2EE7_M_swapERS2_", scope: !1216, file: !1190, line: 731, type: !1252, scopeLine: 731, flags: DIFlagPublic | DIFlagPrototyped, spFlags: DISPFlagOptimized)
!1252 = !DISubroutineType(types: !1253)
!1253 = !{null, !1224, !1250}
!1254 = !DISubprogram(name: "_M_get_use_count", linkageName: "_ZNKSt14__shared_countILN9__gnu_cxx12_Lock_policyE2EE16_M_get_use_countEv", scope: !1216, file: !1190, line: 739, type: !1255, scopeLine: 739, flags: DIFlagPublic | DIFlagPrototyped, spFlags: DISPFlagOptimized)
!1255 = !DISubroutineType(types: !1256)
!1256 = !{!514, !1257}
!1257 = !DIDerivedType(tag: DW_TAG_pointer_type, baseType: !1246, size: 64, flags: DIFlagArtificial | DIFlagObjectPointer)
!1258 = !DISubprogram(name: "_M_unique", linkageName: "_ZNKSt14__shared_countILN9__gnu_cxx12_Lock_policyE2EE9_M_uniqueEv", scope: !1216, file: !1190, line: 743, type: !1259, scopeLine: 743, flags: DIFlagPublic | DIFlagPrototyped, spFlags: DISPFlagOptimized)
!1259 = !DISubroutineType(types: !1260)
!1260 = !{!145, !1257}
!1261 = !DISubprogram(name: "_M_get_deleter", linkageName: "_ZNKSt14__shared_countILN9__gnu_cxx12_Lock_policyE2EE14_M_get_deleterERKSt9type_info", scope: !1216, file: !1190, line: 747, type: !1262, scopeLine: 747, flags: DIFlagPublic | DIFlagPrototyped, spFlags: DISPFlagOptimized)
!1262 = !DISubroutineType(types: !1263)
!1263 = !{!1264, !1257, !1265}
!1264 = !DIDerivedType(tag: DW_TAG_pointer_type, baseType: null, size: 64)
!1265 = !DIDerivedType(tag: DW_TAG_reference_type, baseType: !1266, size: 64)
!1266 = !DIDerivedType(tag: DW_TAG_const_type, baseType: !1267)
!1267 = !DICompositeType(tag: DW_TAG_class_type, name: "type_info", scope: !2, file: !1268, line: 88, size: 128, flags: DIFlagFwdDecl | DIFlagNonTrivial, identifier: "_ZTSSt9type_info")
!1268 = !DIFile(filename: "/usr/bin/../lib/gcc/x86_64-linux-gnu/11/../../../../include/c++/11/typeinfo", directory: "")
!1269 = !DISubprogram(name: "_M_less", linkageName: "_ZNKSt14__shared_countILN9__gnu_cxx12_Lock_policyE2EE7_M_lessERKS2_", scope: !1216, file: !1190, line: 751, type: !1270, scopeLine: 751, flags: DIFlagPublic | DIFlagPrototyped, spFlags: DISPFlagOptimized)
!1270 = !DISubroutineType(types: !1271)
!1271 = !{!145, !1257, !1245}
!1272 = !DISubprogram(name: "_M_less", linkageName: "_ZNKSt14__shared_countILN9__gnu_cxx12_Lock_policyE2EE7_M_lessERKSt12__weak_countILS1_2EE", scope: !1216, file: !1190, line: 755, type: !1273, scopeLine: 755, flags: DIFlagPublic | DIFlagPrototyped, spFlags: DISPFlagOptimized)
!1273 = !DISubroutineType(types: !1274)
!1274 = !{!145, !1257, !1228}
!1275 = !{!1276}
!1276 = !DITemplateValueParameter(name: "_Lp", type: !10, defaulted: true, value: i32 2)
!1277 = !DISubprogram(name: "__shared_ptr", scope: !1186, file: !1190, line: 1092, type: !1278, scopeLine: 1092, flags: DIFlagPublic | DIFlagPrototyped, spFlags: DISPFlagOptimized)
!1278 = !DISubroutineType(types: !1279)
!1279 = !{null, !1280}
!1280 = !DIDerivedType(tag: DW_TAG_pointer_type, baseType: !1186, size: 64, flags: DIFlagArtificial | DIFlagObjectPointer)
!1281 = !DISubprogram(name: "__shared_ptr", scope: !1186, file: !1190, line: 1152, type: !1282, scopeLine: 1152, flags: DIFlagPublic | DIFlagPrototyped, spFlags: DISPFlagOptimized)
!1282 = !DISubroutineType(types: !1283)
!1283 = !{null, !1280, !1284}
!1284 = !DIDerivedType(tag: DW_TAG_reference_type, baseType: !1285, size: 64)
!1285 = !DIDerivedType(tag: DW_TAG_const_type, baseType: !1186)
!1286 = !DISubprogram(name: "operator=", linkageName: "_ZNSt12__shared_ptrINSt10filesystem7__cxx114_DirELN9__gnu_cxx12_Lock_policyE2EEaSERKS5_", scope: !1186, file: !1190, line: 1153, type: !1287, scopeLine: 1153, flags: DIFlagPublic | DIFlagPrototyped, spFlags: DISPFlagOptimized)
!1287 = !DISubroutineType(types: !1288)
!1288 = !{!1289, !1280, !1284}
!1289 = !DIDerivedType(tag: DW_TAG_reference_type, baseType: !1186, size: 64)
!1290 = !DISubprogram(name: "~__shared_ptr", scope: !1186, file: !1190, line: 1154, type: !1278, scopeLine: 1154, flags: DIFlagPublic | DIFlagPrototyped, spFlags: DISPFlagOptimized)
!1291 = !DISubprogram(name: "__shared_ptr", scope: !1186, file: !1190, line: 1161, type: !1292, scopeLine: 1161, flags: DIFlagPublic | DIFlagPrototyped, spFlags: DISPFlagOptimized)
!1292 = !DISubroutineType(types: !1293)
!1293 = !{null, !1280, !1294}
!1294 = !DIDerivedType(tag: DW_TAG_rvalue_reference_type, baseType: !1186, size: 64)
!1295 = !DISubprogram(name: "__shared_ptr", scope: !1186, file: !1190, line: 1223, type: !1296, scopeLine: 1223, flags: DIFlagPublic | DIFlagPrototyped, spFlags: DISPFlagOptimized)
!1296 = !DISubroutineType(types: !1297)
!1297 = !{null, !1280, !1298}
!1298 = !DIDerivedType(tag: DW_TAG_typedef, name: "nullptr_t", scope: !2, file: !82, line: 284, baseType: !1299)
!1299 = !DIBasicType(tag: DW_TAG_unspecified_type, name: "decltype(nullptr)")
!1300 = !DISubprogram(name: "operator=", linkageName: "_ZNSt12__shared_ptrINSt10filesystem7__cxx114_DirELN9__gnu_cxx12_Lock_policyE2EEaSEOS5_", scope: !1186, file: !1190, line: 1248, type: !1301, scopeLine: 1248, flags: DIFlagPublic | DIFlagPrototyped, spFlags: DISPFlagOptimized)
!1301 = !DISubroutineType(types: !1302)
!1302 = !{!1289, !1280, !1294}
!1303 = !DISubprogram(name: "reset", linkageName: "_ZNSt12__shared_ptrINSt10filesystem7__cxx114_DirELN9__gnu_cxx12_Lock_policyE2EE5resetEv", scope: !1186, file: !1190, line: 1271, type: !1278, scopeLine: 1271, flags: DIFlagPublic | DIFlagPrototyped, spFlags: DISPFlagOptimized)
!1304 = !DISubprogram(name: "get", linkageName: "_ZNKSt12__shared_ptrINSt10filesystem7__cxx114_DirELN9__gnu_cxx12_Lock_policyE2EE3getEv", scope: !1186, file: !1190, line: 1295, type: !1305, scopeLine: 1295, flags: DIFlagPublic | DIFlagPrototyped, spFlags: DISPFlagOptimized)
!1305 = !DISubroutineType(types: !1306)
!1306 = !{!1210, !1307}
!1307 = !DIDerivedType(tag: DW_TAG_pointer_type, baseType: !1285, size: 64, flags: DIFlagArtificial | DIFlagObjectPointer)
!1308 = !DISubprogram(name: "operator bool", linkageName: "_ZNKSt12__shared_ptrINSt10filesystem7__cxx114_DirELN9__gnu_cxx12_Lock_policyE2EEcvbEv", scope: !1186, file: !1190, line: 1299, type: !1309, scopeLine: 1299, flags: DIFlagPublic | DIFlagExplicit | DIFlagPrototyped, spFlags: DISPFlagOptimized)
!1309 = !DISubroutineType(types: !1310)
!1310 = !{!145, !1307}
!1311 = !DISubprogram(name: "unique", linkageName: "_ZNKSt12__shared_ptrINSt10filesystem7__cxx114_DirELN9__gnu_cxx12_Lock_policyE2EE6uniqueEv", scope: !1186, file: !1190, line: 1304, type: !1309, scopeLine: 1304, flags: DIFlagPublic | DIFlagPrototyped, spFlags: DISPFlagOptimized)
!1312 = !DISubprogram(name: "use_count", linkageName: "_ZNKSt12__shared_ptrINSt10filesystem7__cxx114_DirELN9__gnu_cxx12_Lock_policyE2EE9use_countEv", scope: !1186, file: !1190, line: 1309, type: !1313, scopeLine: 1309, flags: DIFlagPublic | DIFlagPrototyped, spFlags: DISPFlagOptimized)
!1313 = !DISubroutineType(types: !1314)
!1314 = !{!514, !1307}
!1315 = !DISubprogram(name: "swap", linkageName: "_ZNSt12__shared_ptrINSt10filesystem7__cxx114_DirELN9__gnu_cxx12_Lock_policyE2EE4swapERS5_", scope: !1186, file: !1190, line: 1314, type: !1316, scopeLine: 1314, flags: DIFlagPublic | DIFlagPrototyped, spFlags: DISPFlagOptimized)
!1316 = !DISubroutineType(types: !1317)
!1317 = !{null, !1280, !1289}
!1318 = !DISubprogram(name: "__shared_ptr", scope: !1186, file: !1190, line: 1352, type: !1319, scopeLine: 1352, flags: DIFlagProtected | DIFlagPrototyped, spFlags: DISPFlagOptimized)
!1319 = !DISubroutineType(types: !1320)
!1320 = !{null, !1280, !1321, !1234}
!1321 = !DIDerivedType(tag: DW_TAG_reference_type, baseType: !1322, size: 64)
!1322 = !DIDerivedType(tag: DW_TAG_const_type, baseType: !1323)
!1323 = !DICompositeType(tag: DW_TAG_class_type, name: "__weak_ptr<std::filesystem::__cxx11::_Dir, __gnu_cxx::_S_atomic>", scope: !2, file: !1190, line: 313, flags: DIFlagFwdDecl | DIFlagNonTrivial, identifier: "_ZTSSt10__weak_ptrINSt10filesystem7__cxx114_DirELN9__gnu_cxx12_Lock_policyE2EE")
!1324 = !DISubprogram(name: "_M_get_deleter", linkageName: "_ZNKSt12__shared_ptrINSt10filesystem7__cxx114_DirELN9__gnu_cxx12_Lock_policyE2EE14_M_get_deleterERKSt9type_info", scope: !1186, file: !1190, line: 1390, type: !1325, scopeLine: 1390, flags: DIFlagPrototyped, spFlags: DISPFlagOptimized)
!1325 = !DISubroutineType(types: !1326)
!1326 = !{!1264, !1307, !1265}
!1327 = !{!1206, !1276}
!1328 = !DISubprogram(name: "directory_iterator", scope: !1182, file: !1183, line: 383, type: !1329, scopeLine: 383, flags: DIFlagPublic | DIFlagPrototyped, spFlags: DISPFlagOptimized)
!1329 = !DISubroutineType(types: !1330)
!1330 = !{null, !1331}
!1331 = !DIDerivedType(tag: DW_TAG_pointer_type, baseType: !1182, size: 64, flags: DIFlagArtificial | DIFlagObjectPointer)
!1332 = !DISubprogram(name: "directory_iterator", scope: !1182, file: !1183, line: 386, type: !1333, scopeLine: 386, flags: DIFlagPublic | DIFlagExplicit | DIFlagPrototyped, spFlags: DISPFlagOptimized)
!1333 = !DISubroutineType(types: !1334)
!1334 = !{null, !1331, !916}
!1335 = !DISubprogram(name: "directory_iterator", scope: !1182, file: !1183, line: 389, type: !1336, scopeLine: 389, flags: DIFlagPublic | DIFlagPrototyped, spFlags: DISPFlagOptimized)
!1336 = !DISubroutineType(types: !1337)
!1337 = !{null, !1331, !916, !18}
!1338 = !DISubprogram(name: "directory_iterator", scope: !1182, file: !1183, line: 392, type: !1339, scopeLine: 392, flags: DIFlagPublic | DIFlagPrototyped, spFlags: DISPFlagOptimized)
!1339 = !DISubroutineType(types: !1340)
!1340 = !{null, !1331, !916, !1341}
!1341 = !DIDerivedType(tag: DW_TAG_reference_type, baseType: !1342, size: 64)
!1342 = !DICompositeType(tag: DW_TAG_class_type, name: "error_code", scope: !2, file: !1343, line: 196, size: 128, flags: DIFlagFwdDecl | DIFlagNonTrivial, identifier: "_ZTSSt10error_code")
!1343 = !DIFile(filename: "/usr/bin/../lib/gcc/x86_64-linux-gnu/11/../../../../include/c++/11/system_error", directory: "")
!1344 = !DISubprogram(name: "directory_iterator", scope: !1182, file: !1183, line: 395, type: !1345, scopeLine: 395, flags: DIFlagPublic | DIFlagPrototyped, spFlags: DISPFlagOptimized)
!1345 = !DISubroutineType(types: !1346)
!1346 = !{null, !1331, !916, !18, !1341}
!1347 = !DISubprogram(name: "directory_iterator", scope: !1182, file: !1183, line: 399, type: !1348, scopeLine: 399, flags: DIFlagPublic | DIFlagPrototyped, spFlags: DISPFlagOptimized)
!1348 = !DISubroutineType(types: !1349)
!1349 = !{null, !1331, !1350}
!1350 = !DIDerivedType(tag: DW_TAG_reference_type, baseType: !1351, size: 64)
!1351 = !DIDerivedType(tag: DW_TAG_const_type, baseType: !1182)
!1352 = !DISubprogram(name: "directory_iterator", scope: !1182, file: !1183, line: 401, type: !1353, scopeLine: 401, flags: DIFlagPublic | DIFlagPrototyped, spFlags: DISPFlagOptimized)
!1353 = !DISubroutineType(types: !1354)
!1354 = !{null, !1331, !1355}
!1355 = !DIDerivedType(tag: DW_TAG_rvalue_reference_type, baseType: !1182, size: 64)
!1356 = !DISubprogram(name: "~directory_iterator", scope: !1182, file: !1183, line: 403, type: !1329, scopeLine: 403, flags: DIFlagPublic | DIFlagPrototyped, spFlags: DISPFlagOptimized)
!1357 = !DISubprogram(name: "operator=", linkageName: "_ZNSt10filesystem7__cxx1118directory_iteratoraSERKS1_", scope: !1182, file: !1183, line: 406, type: !1358, scopeLine: 406, flags: DIFlagPublic | DIFlagPrototyped, spFlags: DISPFlagOptimized)
!1358 = !DISubroutineType(types: !1359)
!1359 = !{!1360, !1331, !1350}
!1360 = !DIDerivedType(tag: DW_TAG_reference_type, baseType: !1182, size: 64)
