; ModuleID = 'cpp/string.cpp'
source_filename = "cpp/string.cpp"
target datalayout = "e-m:e-p270:32:32-p271:32:32-p272:64:64-i64:64-f80:128-n8:16:32:64-S128"
target triple = "x86_64-pc-linux-gnu"

module asm ".globl _ZSt21ios_base_library_initv"

%"class.std::basic_ostream" = type { ptr, %"class.std::basic_ios" }
%"class.std::basic_ios" = type { %"class.std::ios_base", ptr, i8, i8, ptr, ptr, ptr, ptr }
%"class.std::ios_base" = type { ptr, i64, i64, i32, i32, i32, ptr, %"struct.std::ios_base::_Words", [8 x %"struct.std::ios_base::_Words"], i32, ptr, %"class.std::locale" }
%"struct.std::ios_base::_Words" = type { ptr, i64 }
%"class.std::locale" = type { ptr }
%"class.std::__cxx11::basic_string" = type { %"struct.std::__cxx11::basic_string<char>::_Alloc_hider", i64, %union.anon }
%"struct.std::__cxx11::basic_string<char>::_Alloc_hider" = type { ptr }
%union.anon = type { i64, [8 x i8] }
%"class.std::allocator" = type { i8 }

$_ZNSt7__cxx1112basic_stringIcSt11char_traitsIcESaIcEEC2IS3_EEmcRKS3_ = comdat any

$_ZNSt15__new_allocatorIcED2Ev = comdat any

@_ZSt4cout = external global %"class.std::basic_ostream", align 8

; Function Attrs: noinline norecurse nounwind optnone sspstrong uwtable
define dso_local noundef i32 @main() #0 !dbg !1516 {
  %1 = alloca ptr, align 8
  %2 = alloca ptr, align 8
  %3 = alloca ptr, align 8
  %4 = alloca %"class.std::__cxx11::basic_string", align 8
  %5 = alloca %"class.std::allocator", align 1
  store ptr %5, ptr %3, align 8
  call void @llvm.dbg.declare(metadata ptr %3, metadata !1517, metadata !DIExpression()), !dbg !1520
  %6 = load ptr, ptr %3, align 8
  store ptr %6, ptr %1, align 8
  call void @llvm.dbg.declare(metadata ptr %1, metadata !1522, metadata !DIExpression()), !dbg !1525
  %7 = load ptr, ptr %1, align 8
  call void @_ZNSt7__cxx1112basic_stringIcSt11char_traitsIcESaIcEEC2IS3_EEmcRKS3_(ptr noundef nonnull align 8 dereferenceable(32) %4, i64 noundef 64, i8 noundef signext 33, ptr noundef nonnull align 1 dereferenceable(1) %5), !dbg !1527
  %8 = call noundef nonnull align 8 dereferenceable(8) ptr @_ZStlsIcSt11char_traitsIcESaIcEERSt13basic_ostreamIT_T0_ES7_RKNSt7__cxx1112basic_stringIS4_S5_T1_EE(ptr noundef nonnull align 8 dereferenceable(8) @_ZSt4cout, ptr noundef nonnull align 8 dereferenceable(32) %4), !dbg !1528
  %9 = call noundef nonnull align 8 dereferenceable(8) ptr @_ZNSolsEPFRSoS_E(ptr noundef nonnull align 8 dereferenceable(8) %8, ptr noundef @_ZSt4endlIcSt11char_traitsIcEERSt13basic_ostreamIT_T0_ES6_), !dbg !1529
  call void @_ZNSt7__cxx1112basic_stringIcSt11char_traitsIcESaIcEED1Ev(ptr noundef nonnull align 8 dereferenceable(32) %4) #5, !dbg !1530
  store ptr %5, ptr %2, align 8
  call void @llvm.dbg.declare(metadata ptr %2, metadata !1531, metadata !DIExpression()), !dbg !1533
  %10 = load ptr, ptr %2, align 8
  call void @_ZNSt15__new_allocatorIcED2Ev(ptr noundef nonnull align 1 dereferenceable(1) %10) #5, !dbg !1535
  ret i32 0, !dbg !1537
}

declare noundef nonnull align 8 dereferenceable(8) ptr @_ZStlsIcSt11char_traitsIcESaIcEERSt13basic_ostreamIT_T0_ES7_RKNSt7__cxx1112basic_stringIS4_S5_T1_EE(ptr noundef nonnull align 8 dereferenceable(8), ptr noundef nonnull align 8 dereferenceable(32)) #1

; Function Attrs: noinline nounwind optnone sspstrong uwtable
define linkonce_odr dso_local void @_ZNSt7__cxx1112basic_stringIcSt11char_traitsIcESaIcEEC2IS3_EEmcRKS3_(ptr noundef nonnull align 8 dereferenceable(32) %0, i64 noundef %1, i8 noundef signext %2, ptr noundef nonnull align 1 dereferenceable(1) %3) unnamed_addr #2 comdat align 2 !dbg !1538 {
  %5 = alloca ptr, align 8
  %6 = alloca i64, align 8
  %7 = alloca i8, align 1
  %8 = alloca ptr, align 8
  store ptr %0, ptr %5, align 8
  call void @llvm.dbg.declare(metadata ptr %5, metadata !1544, metadata !DIExpression()), !dbg !1546
  store i64 %1, ptr %6, align 8
  call void @llvm.dbg.declare(metadata ptr %6, metadata !1547, metadata !DIExpression()), !dbg !1548
  store i8 %2, ptr %7, align 1
  call void @llvm.dbg.declare(metadata ptr %7, metadata !1549, metadata !DIExpression()), !dbg !1550
  store ptr %3, ptr %8, align 8
  call void @llvm.dbg.declare(metadata ptr %8, metadata !1551, metadata !DIExpression()), !dbg !1552
  %9 = load ptr, ptr %5, align 8
  %10 = getelementptr inbounds %"class.std::__cxx11::basic_string", ptr %9, i32 0, i32 0, !dbg !1553
  %11 = call noundef ptr @_ZNSt7__cxx1112basic_stringIcSt11char_traitsIcESaIcEE13_M_local_dataEv(ptr noundef nonnull align 8 dereferenceable(32) %9), !dbg !1554
  %12 = load ptr, ptr %8, align 8, !dbg !1555
  call void @_ZNSt7__cxx1112basic_stringIcSt11char_traitsIcESaIcEE12_Alloc_hiderC1EPcRKS3_(ptr noundef nonnull align 8 dereferenceable(8) %10, ptr noundef %11, ptr noundef nonnull align 1 dereferenceable(1) %12), !dbg !1553
  %13 = load i64, ptr %6, align 8, !dbg !1556
  %14 = load i8, ptr %7, align 1, !dbg !1558
  call void @_ZNSt7__cxx1112basic_stringIcSt11char_traitsIcESaIcEE12_M_constructEmc(ptr noundef nonnull align 8 dereferenceable(32) %9, i64 noundef %13, i8 noundef signext %14), !dbg !1559
  ret void, !dbg !1560
}

declare noundef nonnull align 8 dereferenceable(8) ptr @_ZNSolsEPFRSoS_E(ptr noundef nonnull align 8 dereferenceable(8), ptr noundef) #1

declare noundef nonnull align 8 dereferenceable(8) ptr @_ZSt4endlIcSt11char_traitsIcEERSt13basic_ostreamIT_T0_ES6_(ptr noundef nonnull align 8 dereferenceable(8)) #1

; Function Attrs: nounwind
declare void @_ZNSt7__cxx1112basic_stringIcSt11char_traitsIcESaIcEED1Ev(ptr noundef nonnull align 8 dereferenceable(32)) unnamed_addr #3

; Function Attrs: nocallback nofree nosync nounwind speculatable willreturn memory(none)
declare void @llvm.dbg.declare(metadata, metadata, metadata) #4

; Function Attrs: noinline nounwind optnone sspstrong uwtable
define linkonce_odr dso_local void @_ZNSt15__new_allocatorIcED2Ev(ptr noundef nonnull align 1 dereferenceable(1) %0) unnamed_addr #2 comdat align 2 !dbg !1561 {
  %2 = alloca ptr, align 8
  store ptr %0, ptr %2, align 8
  call void @llvm.dbg.declare(metadata ptr %2, metadata !1562, metadata !DIExpression()), !dbg !1563
  %3 = load ptr, ptr %2, align 8
  ret void, !dbg !1564
}

declare noundef ptr @_ZNSt7__cxx1112basic_stringIcSt11char_traitsIcESaIcEE13_M_local_dataEv(ptr noundef nonnull align 8 dereferenceable(32)) #1

declare void @_ZNSt7__cxx1112basic_stringIcSt11char_traitsIcESaIcEE12_Alloc_hiderC1EPcRKS3_(ptr noundef nonnull align 8 dereferenceable(8), ptr noundef, ptr noundef nonnull align 1 dereferenceable(1)) unnamed_addr #1

declare void @_ZNSt7__cxx1112basic_stringIcSt11char_traitsIcESaIcEE12_M_constructEmc(ptr noundef nonnull align 8 dereferenceable(32), i64 noundef, i8 noundef signext) #1

attributes #0 = { noinline norecurse nounwind optnone sspstrong uwtable "frame-pointer"="all" "min-legal-vector-width"="0" "no-trapping-math"="true" "stack-protector-buffer-size"="8" "target-cpu"="x86-64" "target-features"="+cx8,+fxsr,+mmx,+sse,+sse2,+x87" "tune-cpu"="generic" }
attributes #1 = { "frame-pointer"="all" "no-trapping-math"="true" "stack-protector-buffer-size"="8" "target-cpu"="x86-64" "target-features"="+cx8,+fxsr,+mmx,+sse,+sse2,+x87" "tune-cpu"="generic" }
attributes #2 = { noinline nounwind optnone sspstrong uwtable "frame-pointer"="all" "min-legal-vector-width"="0" "no-trapping-math"="true" "stack-protector-buffer-size"="8" "target-cpu"="x86-64" "target-features"="+cx8,+fxsr,+mmx,+sse,+sse2,+x87" "tune-cpu"="generic" }
attributes #3 = { nounwind "frame-pointer"="all" "no-trapping-math"="true" "stack-protector-buffer-size"="8" "target-cpu"="x86-64" "target-features"="+cx8,+fxsr,+mmx,+sse,+sse2,+x87" "tune-cpu"="generic" }
attributes #4 = { nocallback nofree nosync nounwind speculatable willreturn memory(none) }
attributes #5 = { nounwind }

!llvm.dbg.cu = !{!0}
!llvm.module.flags = !{!1508, !1509, !1510, !1511, !1512, !1513, !1514}
!llvm.ident = !{!1515}

!0 = distinct !DICompileUnit(language: DW_LANG_C_plus_plus_14, file: !1, producer: "clang version 16.0.6", isOptimized: false, runtimeVersion: 0, emissionKind: FullDebug, retainedTypes: !2, imports: !744, splitDebugInlining: false, nameTableKind: None)
!1 = !DIFile(filename: "cpp/string.cpp", directory: "/home/kai/src/ll2x", checksumkind: CSK_MD5, checksum: "75daac16b926b0ed9a91e9f07f5c1ad8")
!2 = !{!3, !10, !74, !266}
!3 = distinct !DICompositeType(tag: DW_TAG_class_type, name: "allocator<char>", scope: !5, file: !4, line: 284, size: 8, flags: DIFlagTypePassByReference | DIFlagNonTrivial, elements: !6, templateParams: !72, identifier: "_ZTSSaIcE")
!4 = !DIFile(filename: "/usr/bin/../lib64/gcc/x86_64-pc-linux-gnu/13.2.1/../../../../include/c++/13.2.1/bits/allocator.h", directory: "", checksumkind: CSK_MD5, checksum: "9139beb5391dac1421727b85e114b3d4")
!5 = !DINamespace(name: "std", scope: null)
!6 = !{!7, !58, !62, !67, !71}
!7 = !DIDerivedType(tag: DW_TAG_inheritance, scope: !3, baseType: !8, flags: DIFlagPublic, extraData: i32 0)
!8 = !DIDerivedType(tag: DW_TAG_typedef, name: "__allocator_base<char>", scope: !5, file: !9, line: 47, baseType: !10)
!9 = !DIFile(filename: "/usr/bin/../lib64/gcc/x86_64-pc-linux-gnu/13.2.1/../../../../include/c++/13.2.1/x86_64-pc-linux-gnu/bits/c++allocator.h", directory: "", checksumkind: CSK_MD5, checksum: "f56d3b48d132e35738b60e08703928ec")
!10 = distinct !DICompositeType(tag: DW_TAG_class_type, name: "__new_allocator<char>", scope: !5, file: !11, line: 63, size: 8, flags: DIFlagTypePassByReference | DIFlagNonTrivial, elements: !12, templateParams: !56, identifier: "_ZTSSt15__new_allocatorIcE")
!11 = !DIFile(filename: "/usr/bin/../lib64/gcc/x86_64-pc-linux-gnu/13.2.1/../../../../include/c++/13.2.1/bits/new_allocator.h", directory: "", checksumkind: CSK_MD5, checksum: "4921ed78c50fb48b72f1f3cf83ff21b4")
!12 = !{!13, !17, !22, !23, !32, !40, !49, !52, !55}
!13 = !DISubprogram(name: "__new_allocator", scope: !10, file: !11, line: 88, type: !14, scopeLine: 88, flags: DIFlagPublic | DIFlagPrototyped, spFlags: 0)
!14 = !DISubroutineType(types: !15)
!15 = !{null, !16}
!16 = !DIDerivedType(tag: DW_TAG_pointer_type, baseType: !10, size: 64, flags: DIFlagArtificial | DIFlagObjectPointer)
!17 = !DISubprogram(name: "__new_allocator", scope: !10, file: !11, line: 92, type: !18, scopeLine: 92, flags: DIFlagPublic | DIFlagPrototyped, spFlags: 0)
!18 = !DISubroutineType(types: !19)
!19 = !{null, !16, !20}
!20 = !DIDerivedType(tag: DW_TAG_reference_type, baseType: !21, size: 64)
!21 = !DIDerivedType(tag: DW_TAG_const_type, baseType: !10)
!22 = !DISubprogram(name: "~__new_allocator", scope: !10, file: !11, line: 100, type: !14, scopeLine: 100, flags: DIFlagPublic | DIFlagPrototyped, spFlags: 0)
!23 = !DISubprogram(name: "address", linkageName: "_ZNKSt15__new_allocatorIcE7addressERc", scope: !10, file: !11, line: 103, type: !24, scopeLine: 103, flags: DIFlagPublic | DIFlagPrototyped, spFlags: 0)
!24 = !DISubroutineType(types: !25)
!25 = !{!26, !29, !30}
!26 = !DIDerivedType(tag: DW_TAG_typedef, name: "pointer", scope: !10, file: !11, line: 70, baseType: !27, flags: DIFlagPublic)
!27 = !DIDerivedType(tag: DW_TAG_pointer_type, baseType: !28, size: 64)
!28 = !DIBasicType(name: "char", size: 8, encoding: DW_ATE_signed_char)
!29 = !DIDerivedType(tag: DW_TAG_pointer_type, baseType: !21, size: 64, flags: DIFlagArtificial | DIFlagObjectPointer)
!30 = !DIDerivedType(tag: DW_TAG_typedef, name: "reference", scope: !10, file: !11, line: 72, baseType: !31, flags: DIFlagPublic)
!31 = !DIDerivedType(tag: DW_TAG_reference_type, baseType: !28, size: 64)
!32 = !DISubprogram(name: "address", linkageName: "_ZNKSt15__new_allocatorIcE7addressERKc", scope: !10, file: !11, line: 107, type: !33, scopeLine: 107, flags: DIFlagPublic | DIFlagPrototyped, spFlags: 0)
!33 = !DISubroutineType(types: !34)
!34 = !{!35, !29, !38}
!35 = !DIDerivedType(tag: DW_TAG_typedef, name: "const_pointer", scope: !10, file: !11, line: 71, baseType: !36, flags: DIFlagPublic)
!36 = !DIDerivedType(tag: DW_TAG_pointer_type, baseType: !37, size: 64)
!37 = !DIDerivedType(tag: DW_TAG_const_type, baseType: !28)
!38 = !DIDerivedType(tag: DW_TAG_typedef, name: "const_reference", scope: !10, file: !11, line: 73, baseType: !39, flags: DIFlagPublic)
!39 = !DIDerivedType(tag: DW_TAG_reference_type, baseType: !37, size: 64)
!40 = !DISubprogram(name: "allocate", linkageName: "_ZNSt15__new_allocatorIcE8allocateEmPKv", scope: !10, file: !11, line: 122, type: !41, scopeLine: 122, flags: DIFlagPublic | DIFlagPrototyped, spFlags: 0)
!41 = !DISubroutineType(types: !42)
!42 = !{!27, !16, !43, !47}
!43 = !DIDerivedType(tag: DW_TAG_typedef, name: "size_type", file: !11, line: 67, baseType: !44, flags: DIFlagPublic)
!44 = !DIDerivedType(tag: DW_TAG_typedef, name: "size_t", scope: !5, file: !45, line: 308, baseType: !46)
!45 = !DIFile(filename: "/usr/bin/../lib64/gcc/x86_64-pc-linux-gnu/13.2.1/../../../../include/c++/13.2.1/x86_64-pc-linux-gnu/bits/c++config.h", directory: "", checksumkind: CSK_MD5, checksum: "a6fd67e131c2445f9495ddbae141521b")
!46 = !DIBasicType(name: "unsigned long", size: 64, encoding: DW_ATE_unsigned)
!47 = !DIDerivedType(tag: DW_TAG_pointer_type, baseType: !48, size: 64)
!48 = !DIDerivedType(tag: DW_TAG_const_type, baseType: null)
!49 = !DISubprogram(name: "deallocate", linkageName: "_ZNSt15__new_allocatorIcE10deallocateEPcm", scope: !10, file: !11, line: 152, type: !50, scopeLine: 152, flags: DIFlagPublic | DIFlagPrototyped, spFlags: 0)
!50 = !DISubroutineType(types: !51)
!51 = !{null, !16, !27, !43}
!52 = !DISubprogram(name: "max_size", linkageName: "_ZNKSt15__new_allocatorIcE8max_sizeEv", scope: !10, file: !11, line: 178, type: !53, scopeLine: 178, flags: DIFlagPublic | DIFlagPrototyped, spFlags: 0)
!53 = !DISubroutineType(types: !54)
!54 = !{!43, !29}
!55 = !DISubprogram(name: "_M_max_size", linkageName: "_ZNKSt15__new_allocatorIcE11_M_max_sizeEv", scope: !10, file: !11, line: 226, type: !53, scopeLine: 226, flags: DIFlagPrototyped, spFlags: 0)
!56 = !{!57}
!57 = !DITemplateTypeParameter(name: "_Tp", type: !28)
!58 = !DISubprogram(name: "allocator", scope: !3, file: !4, line: 163, type: !59, scopeLine: 163, flags: DIFlagPublic | DIFlagPrototyped, spFlags: 0)
!59 = !DISubroutineType(types: !60)
!60 = !{null, !61}
!61 = !DIDerivedType(tag: DW_TAG_pointer_type, baseType: !3, size: 64, flags: DIFlagArtificial | DIFlagObjectPointer)
!62 = !DISubprogram(name: "allocator", scope: !3, file: !4, line: 167, type: !63, scopeLine: 167, flags: DIFlagPublic | DIFlagPrototyped, spFlags: 0)
!63 = !DISubroutineType(types: !64)
!64 = !{null, !61, !65}
!65 = !DIDerivedType(tag: DW_TAG_reference_type, baseType: !66, size: 64)
!66 = !DIDerivedType(tag: DW_TAG_const_type, baseType: !3)
!67 = !DISubprogram(name: "operator=", linkageName: "_ZNSaIcEaSERKS_", scope: !3, file: !4, line: 172, type: !68, scopeLine: 172, flags: DIFlagPublic | DIFlagPrototyped, spFlags: 0)
!68 = !DISubroutineType(types: !69)
!69 = !{!70, !61, !65}
!70 = !DIDerivedType(tag: DW_TAG_reference_type, baseType: !3, size: 64)
!71 = !DISubprogram(name: "~allocator", scope: !3, file: !4, line: 184, type: !59, scopeLine: 184, flags: DIFlagPublic | DIFlagPrototyped, spFlags: 0)
!72 = !{!73}
!73 = !DITemplateTypeParameter(type: !28)
!74 = distinct !DICompositeType(tag: DW_TAG_class_type, name: "basic_string_view<char, std::char_traits<char> >", scope: !5, file: !75, line: 106, size: 128, flags: DIFlagTypePassByValue | DIFlagNonTrivial, elements: !76, templateParams: !212, identifier: "_ZTSSt17basic_string_viewIcSt11char_traitsIcEE")
!75 = !DIFile(filename: "/usr/bin/../lib64/gcc/x86_64-pc-linux-gnu/13.2.1/../../../../include/c++/13.2.1/string_view", directory: "")
!76 = !{!77, !80, !81, !82, !86, !91, !94, !97, !101, !109, !110, !111, !112, !118, !119, !120, !121, !124, !125, !126, !130, !135, !136, !139, !140, !144, !147, !148, !151, !155, !158, !162, !165, !168, !171, !174, !177, !180, !183, !186, !189, !190, !191, !192, !193, !194, !195, !196, !197, !198, !199, !200, !201, !202, !203, !204, !205, !206, !207, !208, !209}
!77 = !DIDerivedType(tag: DW_TAG_member, name: "npos", scope: !74, file: !75, line: 127, baseType: !78, flags: DIFlagPublic | DIFlagStaticMember)
!78 = !DIDerivedType(tag: DW_TAG_const_type, baseType: !79)
!79 = !DIDerivedType(tag: DW_TAG_typedef, name: "size_type", file: !75, line: 125, baseType: !44, flags: DIFlagPublic)
!80 = !DIDerivedType(tag: DW_TAG_member, name: "_M_len", scope: !74, file: !75, line: 583, baseType: !44, size: 64)
!81 = !DIDerivedType(tag: DW_TAG_member, name: "_M_str", scope: !74, file: !75, line: 584, baseType: !36, size: 64, offset: 64)
!82 = !DISubprogram(name: "basic_string_view", scope: !74, file: !75, line: 132, type: !83, scopeLine: 132, flags: DIFlagPublic | DIFlagPrototyped, spFlags: 0)
!83 = !DISubroutineType(types: !84)
!84 = !{null, !85}
!85 = !DIDerivedType(tag: DW_TAG_pointer_type, baseType: !74, size: 64, flags: DIFlagArtificial | DIFlagObjectPointer)
!86 = !DISubprogram(name: "basic_string_view", scope: !74, file: !75, line: 136, type: !87, scopeLine: 136, flags: DIFlagPublic | DIFlagPrototyped, spFlags: 0)
!87 = !DISubroutineType(types: !88)
!88 = !{null, !85, !89}
!89 = !DIDerivedType(tag: DW_TAG_reference_type, baseType: !90, size: 64)
!90 = !DIDerivedType(tag: DW_TAG_const_type, baseType: !74)
!91 = !DISubprogram(name: "basic_string_view", scope: !74, file: !75, line: 140, type: !92, scopeLine: 140, flags: DIFlagPublic | DIFlagPrototyped, spFlags: 0)
!92 = !DISubroutineType(types: !93)
!93 = !{null, !85, !36}
!94 = !DISubprogram(name: "basic_string_view", scope: !74, file: !75, line: 146, type: !95, scopeLine: 146, flags: DIFlagPublic | DIFlagPrototyped, spFlags: 0)
!95 = !DISubroutineType(types: !96)
!96 = !{null, !85, !36, !79}
!97 = !DISubprogram(name: "operator=", linkageName: "_ZNSt17basic_string_viewIcSt11char_traitsIcEEaSERKS2_", scope: !74, file: !75, line: 183, type: !98, scopeLine: 183, flags: DIFlagPublic | DIFlagPrototyped, spFlags: 0)
!98 = !DISubroutineType(types: !99)
!99 = !{!100, !85, !89}
!100 = !DIDerivedType(tag: DW_TAG_reference_type, baseType: !74, size: 64)
!101 = !DISubprogram(name: "begin", linkageName: "_ZNKSt17basic_string_viewIcSt11char_traitsIcEE5beginEv", scope: !74, file: !75, line: 189, type: !102, scopeLine: 189, flags: DIFlagPublic | DIFlagPrototyped, spFlags: 0)
!102 = !DISubroutineType(types: !103)
!103 = !{!104, !108}
!104 = !DIDerivedType(tag: DW_TAG_typedef, name: "const_iterator", scope: !74, file: !75, line: 121, baseType: !105, flags: DIFlagPublic)
!105 = !DIDerivedType(tag: DW_TAG_pointer_type, baseType: !106, size: 64)
!106 = !DIDerivedType(tag: DW_TAG_const_type, baseType: !107)
!107 = !DIDerivedType(tag: DW_TAG_typedef, name: "value_type", scope: !74, file: !75, line: 116, baseType: !28, flags: DIFlagPublic)
!108 = !DIDerivedType(tag: DW_TAG_pointer_type, baseType: !90, size: 64, flags: DIFlagArtificial | DIFlagObjectPointer)
!109 = !DISubprogram(name: "end", linkageName: "_ZNKSt17basic_string_viewIcSt11char_traitsIcEE3endEv", scope: !74, file: !75, line: 194, type: !102, scopeLine: 194, flags: DIFlagPublic | DIFlagPrototyped, spFlags: 0)
!110 = !DISubprogram(name: "cbegin", linkageName: "_ZNKSt17basic_string_viewIcSt11char_traitsIcEE6cbeginEv", scope: !74, file: !75, line: 199, type: !102, scopeLine: 199, flags: DIFlagPublic | DIFlagPrototyped, spFlags: 0)
!111 = !DISubprogram(name: "cend", linkageName: "_ZNKSt17basic_string_viewIcSt11char_traitsIcEE4cendEv", scope: !74, file: !75, line: 204, type: !102, scopeLine: 204, flags: DIFlagPublic | DIFlagPrototyped, spFlags: 0)
!112 = !DISubprogram(name: "rbegin", linkageName: "_ZNKSt17basic_string_viewIcSt11char_traitsIcEE6rbeginEv", scope: !74, file: !75, line: 209, type: !113, scopeLine: 209, flags: DIFlagPublic | DIFlagPrototyped, spFlags: 0)
!113 = !DISubroutineType(types: !114)
!114 = !{!115, !108}
!115 = !DIDerivedType(tag: DW_TAG_typedef, name: "const_reverse_iterator", scope: !74, file: !75, line: 123, baseType: !116, flags: DIFlagPublic)
!116 = !DICompositeType(tag: DW_TAG_class_type, name: "reverse_iterator<const char *>", scope: !5, file: !117, line: 136, flags: DIFlagFwdDecl | DIFlagNonTrivial, identifier: "_ZTSSt16reverse_iteratorIPKcE")
!117 = !DIFile(filename: "/usr/bin/../lib64/gcc/x86_64-pc-linux-gnu/13.2.1/../../../../include/c++/13.2.1/bits/stl_iterator.h", directory: "", checksumkind: CSK_MD5, checksum: "5062fe07d9dcd501f4b20e56129c7f5f")
!118 = !DISubprogram(name: "rend", linkageName: "_ZNKSt17basic_string_viewIcSt11char_traitsIcEE4rendEv", scope: !74, file: !75, line: 214, type: !113, scopeLine: 214, flags: DIFlagPublic | DIFlagPrototyped, spFlags: 0)
!119 = !DISubprogram(name: "crbegin", linkageName: "_ZNKSt17basic_string_viewIcSt11char_traitsIcEE7crbeginEv", scope: !74, file: !75, line: 219, type: !113, scopeLine: 219, flags: DIFlagPublic | DIFlagPrototyped, spFlags: 0)
!120 = !DISubprogram(name: "crend", linkageName: "_ZNKSt17basic_string_viewIcSt11char_traitsIcEE5crendEv", scope: !74, file: !75, line: 224, type: !113, scopeLine: 224, flags: DIFlagPublic | DIFlagPrototyped, spFlags: 0)
!121 = !DISubprogram(name: "size", linkageName: "_ZNKSt17basic_string_viewIcSt11char_traitsIcEE4sizeEv", scope: !74, file: !75, line: 231, type: !122, scopeLine: 231, flags: DIFlagPublic | DIFlagPrototyped, spFlags: 0)
!122 = !DISubroutineType(types: !123)
!123 = !{!79, !108}
!124 = !DISubprogram(name: "length", linkageName: "_ZNKSt17basic_string_viewIcSt11char_traitsIcEE6lengthEv", scope: !74, file: !75, line: 236, type: !122, scopeLine: 236, flags: DIFlagPublic | DIFlagPrototyped, spFlags: 0)
!125 = !DISubprogram(name: "max_size", linkageName: "_ZNKSt17basic_string_viewIcSt11char_traitsIcEE8max_sizeEv", scope: !74, file: !75, line: 241, type: !122, scopeLine: 241, flags: DIFlagPublic | DIFlagPrototyped, spFlags: 0)
!126 = !DISubprogram(name: "empty", linkageName: "_ZNKSt17basic_string_viewIcSt11char_traitsIcEE5emptyEv", scope: !74, file: !75, line: 249, type: !127, scopeLine: 249, flags: DIFlagPublic | DIFlagPrototyped, spFlags: 0)
!127 = !DISubroutineType(types: !128)
!128 = !{!129, !108}
!129 = !DIBasicType(name: "bool", size: 8, encoding: DW_ATE_boolean)
!130 = !DISubprogram(name: "operator[]", linkageName: "_ZNKSt17basic_string_viewIcSt11char_traitsIcEEixEm", scope: !74, file: !75, line: 256, type: !131, scopeLine: 256, flags: DIFlagPublic | DIFlagPrototyped, spFlags: 0)
!131 = !DISubroutineType(types: !132)
!132 = !{!133, !108, !79}
!133 = !DIDerivedType(tag: DW_TAG_typedef, name: "const_reference", scope: !74, file: !75, line: 120, baseType: !134, flags: DIFlagPublic)
!134 = !DIDerivedType(tag: DW_TAG_reference_type, baseType: !106, size: 64)
!135 = !DISubprogram(name: "at", linkageName: "_ZNKSt17basic_string_viewIcSt11char_traitsIcEE2atEm", scope: !74, file: !75, line: 264, type: !131, scopeLine: 264, flags: DIFlagPublic | DIFlagPrototyped, spFlags: 0)
!136 = !DISubprogram(name: "front", linkageName: "_ZNKSt17basic_string_viewIcSt11char_traitsIcEE5frontEv", scope: !74, file: !75, line: 275, type: !137, scopeLine: 275, flags: DIFlagPublic | DIFlagPrototyped, spFlags: 0)
!137 = !DISubroutineType(types: !138)
!138 = !{!133, !108}
!139 = !DISubprogram(name: "back", linkageName: "_ZNKSt17basic_string_viewIcSt11char_traitsIcEE4backEv", scope: !74, file: !75, line: 283, type: !137, scopeLine: 283, flags: DIFlagPublic | DIFlagPrototyped, spFlags: 0)
!140 = !DISubprogram(name: "data", linkageName: "_ZNKSt17basic_string_viewIcSt11char_traitsIcEE4dataEv", scope: !74, file: !75, line: 291, type: !141, scopeLine: 291, flags: DIFlagPublic | DIFlagPrototyped, spFlags: 0)
!141 = !DISubroutineType(types: !142)
!142 = !{!143, !108}
!143 = !DIDerivedType(tag: DW_TAG_typedef, name: "const_pointer", scope: !74, file: !75, line: 118, baseType: !105, flags: DIFlagPublic)
!144 = !DISubprogram(name: "remove_prefix", linkageName: "_ZNSt17basic_string_viewIcSt11char_traitsIcEE13remove_prefixEm", scope: !74, file: !75, line: 297, type: !145, scopeLine: 297, flags: DIFlagPublic | DIFlagPrototyped, spFlags: 0)
!145 = !DISubroutineType(types: !146)
!146 = !{null, !85, !79}
!147 = !DISubprogram(name: "remove_suffix", linkageName: "_ZNSt17basic_string_viewIcSt11char_traitsIcEE13remove_suffixEm", scope: !74, file: !75, line: 305, type: !145, scopeLine: 305, flags: DIFlagPublic | DIFlagPrototyped, spFlags: 0)
!148 = !DISubprogram(name: "swap", linkageName: "_ZNSt17basic_string_viewIcSt11char_traitsIcEE4swapERS2_", scope: !74, file: !75, line: 309, type: !149, scopeLine: 309, flags: DIFlagPublic | DIFlagPrototyped, spFlags: 0)
!149 = !DISubroutineType(types: !150)
!150 = !{null, !85, !100}
!151 = !DISubprogram(name: "copy", linkageName: "_ZNKSt17basic_string_viewIcSt11char_traitsIcEE4copyEPcmm", scope: !74, file: !75, line: 320, type: !152, scopeLine: 320, flags: DIFlagPublic | DIFlagPrototyped, spFlags: 0)
!152 = !DISubroutineType(types: !153)
!153 = !{!154, !108, !27, !79, !79}
!154 = !DIDerivedType(tag: DW_TAG_typedef, name: "size_type", scope: !74, file: !75, line: 125, baseType: !44, flags: DIFlagPublic)
!155 = !DISubprogram(name: "substr", linkageName: "_ZNKSt17basic_string_viewIcSt11char_traitsIcEE6substrEmm", scope: !74, file: !75, line: 333, type: !156, scopeLine: 333, flags: DIFlagPublic | DIFlagPrototyped, spFlags: 0)
!156 = !DISubroutineType(types: !157)
!157 = !{!74, !108, !79, !79}
!158 = !DISubprogram(name: "compare", linkageName: "_ZNKSt17basic_string_viewIcSt11char_traitsIcEE7compareES2_", scope: !74, file: !75, line: 342, type: !159, scopeLine: 342, flags: DIFlagPublic | DIFlagPrototyped, spFlags: 0)
!159 = !DISubroutineType(types: !160)
!160 = !{!161, !108, !74}
!161 = !DIBasicType(name: "int", size: 32, encoding: DW_ATE_signed)
!162 = !DISubprogram(name: "compare", linkageName: "_ZNKSt17basic_string_viewIcSt11char_traitsIcEE7compareEmmS2_", scope: !74, file: !75, line: 353, type: !163, scopeLine: 353, flags: DIFlagPublic | DIFlagPrototyped, spFlags: 0)
!163 = !DISubroutineType(types: !164)
!164 = !{!161, !108, !79, !79, !74}
!165 = !DISubprogram(name: "compare", linkageName: "_ZNKSt17basic_string_viewIcSt11char_traitsIcEE7compareEmmS2_mm", scope: !74, file: !75, line: 358, type: !166, scopeLine: 358, flags: DIFlagPublic | DIFlagPrototyped, spFlags: 0)
!166 = !DISubroutineType(types: !167)
!167 = !{!161, !108, !79, !79, !74, !79, !79}
!168 = !DISubprogram(name: "compare", linkageName: "_ZNKSt17basic_string_viewIcSt11char_traitsIcEE7compareEPKc", scope: !74, file: !75, line: 366, type: !169, scopeLine: 366, flags: DIFlagPublic | DIFlagPrototyped, spFlags: 0)
!169 = !DISubroutineType(types: !170)
!170 = !{!161, !108, !36}
!171 = !DISubprogram(name: "compare", linkageName: "_ZNKSt17basic_string_viewIcSt11char_traitsIcEE7compareEmmPKc", scope: !74, file: !75, line: 371, type: !172, scopeLine: 371, flags: DIFlagPublic | DIFlagPrototyped, spFlags: 0)
!172 = !DISubroutineType(types: !173)
!173 = !{!161, !108, !79, !79, !36}
!174 = !DISubprogram(name: "compare", linkageName: "_ZNKSt17basic_string_viewIcSt11char_traitsIcEE7compareEmmPKcm", scope: !74, file: !75, line: 376, type: !175, scopeLine: 376, flags: DIFlagPublic | DIFlagPrototyped, spFlags: 0)
!175 = !DISubroutineType(types: !176)
!176 = !{!161, !108, !79, !79, !36, !79}
!177 = !DISubprogram(name: "find", linkageName: "_ZNKSt17basic_string_viewIcSt11char_traitsIcEE4findES2_m", scope: !74, file: !75, line: 447, type: !178, scopeLine: 447, flags: DIFlagPublic | DIFlagPrototyped, spFlags: 0)
!178 = !DISubroutineType(types: !179)
!179 = !{!154, !108, !74, !79}
!180 = !DISubprogram(name: "find", linkageName: "_ZNKSt17basic_string_viewIcSt11char_traitsIcEE4findEcm", scope: !74, file: !75, line: 452, type: !181, scopeLine: 452, flags: DIFlagPublic | DIFlagPrototyped, spFlags: 0)
!181 = !DISubroutineType(types: !182)
!182 = !{!154, !108, !28, !79}
!183 = !DISubprogram(name: "find", linkageName: "_ZNKSt17basic_string_viewIcSt11char_traitsIcEE4findEPKcmm", scope: !74, file: !75, line: 456, type: !184, scopeLine: 456, flags: DIFlagPublic | DIFlagPrototyped, spFlags: 0)
!184 = !DISubroutineType(types: !185)
!185 = !{!154, !108, !36, !79, !79}
!186 = !DISubprogram(name: "find", linkageName: "_ZNKSt17basic_string_viewIcSt11char_traitsIcEE4findEPKcm", scope: !74, file: !75, line: 460, type: !187, scopeLine: 460, flags: DIFlagPublic | DIFlagPrototyped, spFlags: 0)
!187 = !DISubroutineType(types: !188)
!188 = !{!154, !108, !36, !79}
!189 = !DISubprogram(name: "rfind", linkageName: "_ZNKSt17basic_string_viewIcSt11char_traitsIcEE5rfindES2_m", scope: !74, file: !75, line: 465, type: !178, scopeLine: 465, flags: DIFlagPublic | DIFlagPrototyped, spFlags: 0)
!190 = !DISubprogram(name: "rfind", linkageName: "_ZNKSt17basic_string_viewIcSt11char_traitsIcEE5rfindEcm", scope: !74, file: !75, line: 470, type: !181, scopeLine: 470, flags: DIFlagPublic | DIFlagPrototyped, spFlags: 0)
!191 = !DISubprogram(name: "rfind", linkageName: "_ZNKSt17basic_string_viewIcSt11char_traitsIcEE5rfindEPKcmm", scope: !74, file: !75, line: 474, type: !184, scopeLine: 474, flags: DIFlagPublic | DIFlagPrototyped, spFlags: 0)
!192 = !DISubprogram(name: "rfind", linkageName: "_ZNKSt17basic_string_viewIcSt11char_traitsIcEE5rfindEPKcm", scope: !74, file: !75, line: 478, type: !187, scopeLine: 478, flags: DIFlagPublic | DIFlagPrototyped, spFlags: 0)
!193 = !DISubprogram(name: "find_first_of", linkageName: "_ZNKSt17basic_string_viewIcSt11char_traitsIcEE13find_first_ofES2_m", scope: !74, file: !75, line: 483, type: !178, scopeLine: 483, flags: DIFlagPublic | DIFlagPrototyped, spFlags: 0)
!194 = !DISubprogram(name: "find_first_of", linkageName: "_ZNKSt17basic_string_viewIcSt11char_traitsIcEE13find_first_ofEcm", scope: !74, file: !75, line: 488, type: !181, scopeLine: 488, flags: DIFlagPublic | DIFlagPrototyped, spFlags: 0)
!195 = !DISubprogram(name: "find_first_of", linkageName: "_ZNKSt17basic_string_viewIcSt11char_traitsIcEE13find_first_ofEPKcmm", scope: !74, file: !75, line: 493, type: !184, scopeLine: 493, flags: DIFlagPublic | DIFlagPrototyped, spFlags: 0)
!196 = !DISubprogram(name: "find_first_of", linkageName: "_ZNKSt17basic_string_viewIcSt11char_traitsIcEE13find_first_ofEPKcm", scope: !74, file: !75, line: 498, type: !187, scopeLine: 498, flags: DIFlagPublic | DIFlagPrototyped, spFlags: 0)
!197 = !DISubprogram(name: "find_last_of", linkageName: "_ZNKSt17basic_string_viewIcSt11char_traitsIcEE12find_last_ofES2_m", scope: !74, file: !75, line: 503, type: !178, scopeLine: 503, flags: DIFlagPublic | DIFlagPrototyped, spFlags: 0)
!198 = !DISubprogram(name: "find_last_of", linkageName: "_ZNKSt17basic_string_viewIcSt11char_traitsIcEE12find_last_ofEcm", scope: !74, file: !75, line: 509, type: !181, scopeLine: 509, flags: DIFlagPublic | DIFlagPrototyped, spFlags: 0)
!199 = !DISubprogram(name: "find_last_of", linkageName: "_ZNKSt17basic_string_viewIcSt11char_traitsIcEE12find_last_ofEPKcmm", scope: !74, file: !75, line: 514, type: !184, scopeLine: 514, flags: DIFlagPublic | DIFlagPrototyped, spFlags: 0)
!200 = !DISubprogram(name: "find_last_of", linkageName: "_ZNKSt17basic_string_viewIcSt11char_traitsIcEE12find_last_ofEPKcm", scope: !74, file: !75, line: 519, type: !187, scopeLine: 519, flags: DIFlagPublic | DIFlagPrototyped, spFlags: 0)
!201 = !DISubprogram(name: "find_first_not_of", linkageName: "_ZNKSt17basic_string_viewIcSt11char_traitsIcEE17find_first_not_ofES2_m", scope: !74, file: !75, line: 524, type: !178, scopeLine: 524, flags: DIFlagPublic | DIFlagPrototyped, spFlags: 0)
!202 = !DISubprogram(name: "find_first_not_of", linkageName: "_ZNKSt17basic_string_viewIcSt11char_traitsIcEE17find_first_not_ofEcm", scope: !74, file: !75, line: 530, type: !181, scopeLine: 530, flags: DIFlagPublic | DIFlagPrototyped, spFlags: 0)
!203 = !DISubprogram(name: "find_first_not_of", linkageName: "_ZNKSt17basic_string_viewIcSt11char_traitsIcEE17find_first_not_ofEPKcmm", scope: !74, file: !75, line: 534, type: !184, scopeLine: 534, flags: DIFlagPublic | DIFlagPrototyped, spFlags: 0)
!204 = !DISubprogram(name: "find_first_not_of", linkageName: "_ZNKSt17basic_string_viewIcSt11char_traitsIcEE17find_first_not_ofEPKcm", scope: !74, file: !75, line: 539, type: !187, scopeLine: 539, flags: DIFlagPublic | DIFlagPrototyped, spFlags: 0)
!205 = !DISubprogram(name: "find_last_not_of", linkageName: "_ZNKSt17basic_string_viewIcSt11char_traitsIcEE16find_last_not_ofES2_m", scope: !74, file: !75, line: 547, type: !178, scopeLine: 547, flags: DIFlagPublic | DIFlagPrototyped, spFlags: 0)
!206 = !DISubprogram(name: "find_last_not_of", linkageName: "_ZNKSt17basic_string_viewIcSt11char_traitsIcEE16find_last_not_ofEcm", scope: !74, file: !75, line: 553, type: !181, scopeLine: 553, flags: DIFlagPublic | DIFlagPrototyped, spFlags: 0)
!207 = !DISubprogram(name: "find_last_not_of", linkageName: "_ZNKSt17basic_string_viewIcSt11char_traitsIcEE16find_last_not_ofEPKcmm", scope: !74, file: !75, line: 557, type: !184, scopeLine: 557, flags: DIFlagPublic | DIFlagPrototyped, spFlags: 0)
!208 = !DISubprogram(name: "find_last_not_of", linkageName: "_ZNKSt17basic_string_viewIcSt11char_traitsIcEE16find_last_not_ofEPKcm", scope: !74, file: !75, line: 562, type: !187, scopeLine: 562, flags: DIFlagPublic | DIFlagPrototyped, spFlags: 0)
!209 = !DISubprogram(name: "_S_compare", linkageName: "_ZNSt17basic_string_viewIcSt11char_traitsIcEE10_S_compareEmm", scope: !74, file: !75, line: 572, type: !210, scopeLine: 572, flags: DIFlagPrototyped | DIFlagStaticMember, spFlags: 0)
!210 = !DISubroutineType(types: !211)
!211 = !{!161, !79, !79}
!212 = !{!213, !214}
!213 = !DITemplateTypeParameter(name: "_CharT", type: !28)
!214 = !DITemplateTypeParameter(name: "_Traits", type: !215, defaulted: true)
!215 = distinct !DICompositeType(tag: DW_TAG_structure_type, name: "char_traits<char>", scope: !5, file: !216, line: 347, size: 8, flags: DIFlagTypePassByValue, elements: !217, templateParams: !265, identifier: "_ZTSSt11char_traitsIcE")
!216 = !DIFile(filename: "/usr/bin/../lib64/gcc/x86_64-pc-linux-gnu/13.2.1/../../../../include/c++/13.2.1/bits/char_traits.h", directory: "")
!217 = !{!218, !225, !228, !229, !233, !236, !239, !243, !244, !247, !253, !256, !259, !262}
!218 = !DISubprogram(name: "assign", linkageName: "_ZNSt11char_traitsIcE6assignERcRKc", scope: !215, file: !216, line: 361, type: !219, scopeLine: 361, flags: DIFlagPrototyped | DIFlagStaticMember, spFlags: 0)
!219 = !DISubroutineType(types: !220)
!220 = !{null, !221, !223}
!221 = !DIDerivedType(tag: DW_TAG_reference_type, baseType: !222, size: 64)
!222 = !DIDerivedType(tag: DW_TAG_typedef, name: "char_type", scope: !215, file: !216, line: 349, baseType: !28)
!223 = !DIDerivedType(tag: DW_TAG_reference_type, baseType: !224, size: 64)
!224 = !DIDerivedType(tag: DW_TAG_const_type, baseType: !222)
!225 = !DISubprogram(name: "eq", linkageName: "_ZNSt11char_traitsIcE2eqERKcS2_", scope: !215, file: !216, line: 372, type: !226, scopeLine: 372, flags: DIFlagPrototyped | DIFlagStaticMember, spFlags: 0)
!226 = !DISubroutineType(types: !227)
!227 = !{!129, !223, !223}
!228 = !DISubprogram(name: "lt", linkageName: "_ZNSt11char_traitsIcE2ltERKcS2_", scope: !215, file: !216, line: 376, type: !226, scopeLine: 376, flags: DIFlagPrototyped | DIFlagStaticMember, spFlags: 0)
!229 = !DISubprogram(name: "compare", linkageName: "_ZNSt11char_traitsIcE7compareEPKcS2_m", scope: !215, file: !216, line: 384, type: !230, scopeLine: 384, flags: DIFlagPrototyped | DIFlagStaticMember, spFlags: 0)
!230 = !DISubroutineType(types: !231)
!231 = !{!161, !232, !232, !44}
!232 = !DIDerivedType(tag: DW_TAG_pointer_type, baseType: !224, size: 64)
!233 = !DISubprogram(name: "length", linkageName: "_ZNSt11char_traitsIcE6lengthEPKc", scope: !215, file: !216, line: 403, type: !234, scopeLine: 403, flags: DIFlagPrototyped | DIFlagStaticMember, spFlags: 0)
!234 = !DISubroutineType(types: !235)
!235 = !{!44, !232}
!236 = !DISubprogram(name: "find", linkageName: "_ZNSt11char_traitsIcE4findEPKcmRS1_", scope: !215, file: !216, line: 413, type: !237, scopeLine: 413, flags: DIFlagPrototyped | DIFlagStaticMember, spFlags: 0)
!237 = !DISubroutineType(types: !238)
!238 = !{!232, !232, !44, !223}
!239 = !DISubprogram(name: "move", linkageName: "_ZNSt11char_traitsIcE4moveEPcPKcm", scope: !215, file: !216, line: 425, type: !240, scopeLine: 425, flags: DIFlagPrototyped | DIFlagStaticMember, spFlags: 0)
!240 = !DISubroutineType(types: !241)
!241 = !{!242, !242, !232, !44}
!242 = !DIDerivedType(tag: DW_TAG_pointer_type, baseType: !222, size: 64)
!243 = !DISubprogram(name: "copy", linkageName: "_ZNSt11char_traitsIcE4copyEPcPKcm", scope: !215, file: !216, line: 437, type: !240, scopeLine: 437, flags: DIFlagPrototyped | DIFlagStaticMember, spFlags: 0)
!244 = !DISubprogram(name: "assign", linkageName: "_ZNSt11char_traitsIcE6assignEPcmc", scope: !215, file: !216, line: 449, type: !245, scopeLine: 449, flags: DIFlagPrototyped | DIFlagStaticMember, spFlags: 0)
!245 = !DISubroutineType(types: !246)
!246 = !{!242, !242, !44, !222}
!247 = !DISubprogram(name: "to_char_type", linkageName: "_ZNSt11char_traitsIcE12to_char_typeERKi", scope: !215, file: !216, line: 461, type: !248, scopeLine: 461, flags: DIFlagPrototyped | DIFlagStaticMember, spFlags: 0)
!248 = !DISubroutineType(types: !249)
!249 = !{!222, !250}
!250 = !DIDerivedType(tag: DW_TAG_reference_type, baseType: !251, size: 64)
!251 = !DIDerivedType(tag: DW_TAG_const_type, baseType: !252)
!252 = !DIDerivedType(tag: DW_TAG_typedef, name: "int_type", scope: !215, file: !216, line: 350, baseType: !161)
!253 = !DISubprogram(name: "to_int_type", linkageName: "_ZNSt11char_traitsIcE11to_int_typeERKc", scope: !215, file: !216, line: 467, type: !254, scopeLine: 467, flags: DIFlagPrototyped | DIFlagStaticMember, spFlags: 0)
!254 = !DISubroutineType(types: !255)
!255 = !{!252, !223}
!256 = !DISubprogram(name: "eq_int_type", linkageName: "_ZNSt11char_traitsIcE11eq_int_typeERKiS2_", scope: !215, file: !216, line: 471, type: !257, scopeLine: 471, flags: DIFlagPrototyped | DIFlagStaticMember, spFlags: 0)
!257 = !DISubroutineType(types: !258)
!258 = !{!129, !250, !250}
!259 = !DISubprogram(name: "eof", linkageName: "_ZNSt11char_traitsIcE3eofEv", scope: !215, file: !216, line: 476, type: !260, scopeLine: 476, flags: DIFlagPrototyped | DIFlagStaticMember, spFlags: 0)
!260 = !DISubroutineType(types: !261)
!261 = !{!252}
!262 = !DISubprogram(name: "not_eof", linkageName: "_ZNSt11char_traitsIcE7not_eofERKi", scope: !215, file: !216, line: 480, type: !263, scopeLine: 480, flags: DIFlagPrototyped | DIFlagStaticMember, spFlags: 0)
!263 = !DISubroutineType(types: !264)
!264 = !{!252, !250}
!265 = !{!213}
!266 = distinct !DICompositeType(tag: DW_TAG_class_type, name: "basic_string<char, std::char_traits<char>, std::allocator<char> >", scope: !268, file: !267, line: 963, size: 256, flags: DIFlagTypePassByReference | DIFlagNonTrivial, elements: !269, templateParams: !742, identifier: "_ZTSNSt7__cxx1112basic_stringIcSt11char_traitsIcESaIcEEE")
!267 = !DIFile(filename: "/usr/bin/../lib64/gcc/x86_64-pc-linux-gnu/13.2.1/../../../../include/c++/13.2.1/bits/basic_string.tcc", directory: "")
!268 = !DINamespace(name: "__cxx11", scope: !5, exportSymbols: true)
!269 = !{!270, !322, !324, !325, !333, !344, !348, !353, !356, !359, !364, !367, !373, !374, !375, !378, !382, !385, !386, !389, !394, !399, !400, !403, !406, !409, !412, !415, !416, !419, !424, !429, !432, !435, !438, !442, !445, !448, !449, !452, !453, !456, !459, !462, !465, !469, !474, !477, !480, !481, !485, !488, !491, !494, !497, !500, !503, !506, !507, !508, !513, !518, !519, !520, !521, !522, !523, !524, !527, !528, !529, !530, !531, !532, !533, !534, !535, !536, !537, !546, !552, !553, !554, !557, !560, !561, !562, !563, !564, !565, !566, !567, !570, !573, !574, !577, !578, !581, !582, !583, !584, !585, !586, !587, !588, !591, !594, !597, !600, !603, !606, !609, !613, !616, !619, !622, !623, !626, !629, !632, !635, !638, !641, !644, !647, !650, !653, !656, !659, !662, !665, !666, !669, !672, !673, !676, !679, !682, !683, !686, !689, !692, !695, !698, !701, !702, !703, !704, !705, !706, !707, !708, !709, !710, !711, !712, !713, !714, !715, !716, !717, !718, !719, !720, !721, !724, !727, !730, !733, !736, !739}
!270 = !DIDerivedType(tag: DW_TAG_member, name: "npos", scope: !266, file: !271, line: 112, baseType: !272, flags: DIFlagPublic | DIFlagStaticMember, extraData: i64 -1)
!271 = !DIFile(filename: "/usr/bin/../lib64/gcc/x86_64-pc-linux-gnu/13.2.1/../../../../include/c++/13.2.1/bits/basic_string.h", directory: "")
!272 = !DIDerivedType(tag: DW_TAG_const_type, baseType: !273)
!273 = !DIDerivedType(tag: DW_TAG_typedef, name: "size_type", scope: !266, file: !271, line: 99, baseType: !274, flags: DIFlagPublic)
!274 = !DIDerivedType(tag: DW_TAG_typedef, name: "size_type", scope: !276, file: !275, line: 56, baseType: !300)
!275 = !DIFile(filename: "/usr/bin/../lib64/gcc/x86_64-pc-linux-gnu/13.2.1/../../../../include/c++/13.2.1/ext/alloc_traits.h", directory: "")
!276 = distinct !DICompositeType(tag: DW_TAG_structure_type, name: "__alloc_traits<std::allocator<char>, char>", scope: !277, file: !275, line: 45, size: 8, flags: DIFlagTypePassByValue, elements: !278, templateParams: !321, identifier: "_ZTSN9__gnu_cxx14__alloc_traitsISaIcEcEE")
!277 = !DINamespace(name: "__gnu_cxx", scope: null)
!278 = !{!279, !308, !311, !314, !317, !318, !319, !320}
!279 = !DIDerivedType(tag: DW_TAG_inheritance, scope: !276, baseType: !280, extraData: i32 0)
!280 = distinct !DICompositeType(tag: DW_TAG_structure_type, name: "allocator_traits<std::allocator<char> >", scope: !5, file: !281, line: 428, size: 8, flags: DIFlagTypePassByValue, elements: !282, templateParams: !306, identifier: "_ZTSSt16allocator_traitsISaIcEE")
!281 = !DIFile(filename: "/usr/bin/../lib64/gcc/x86_64-pc-linux-gnu/13.2.1/../../../../include/c++/13.2.1/bits/alloc_traits.h", directory: "", checksumkind: CSK_MD5, checksum: "f1cfcec42ff2f2b11ea8cee83ec34d8e")
!282 = !{!283, !290, !294, !297, !303}
!283 = !DISubprogram(name: "allocate", linkageName: "_ZNSt16allocator_traitsISaIcEE8allocateERS0_m", scope: !280, file: !281, line: 481, type: !284, scopeLine: 481, flags: DIFlagPrototyped | DIFlagStaticMember, spFlags: 0)
!284 = !DISubroutineType(types: !285)
!285 = !{!286, !287, !289}
!286 = !DIDerivedType(tag: DW_TAG_typedef, name: "pointer", scope: !280, file: !281, line: 437, baseType: !27)
!287 = !DIDerivedType(tag: DW_TAG_reference_type, baseType: !288, size: 64)
!288 = !DIDerivedType(tag: DW_TAG_typedef, name: "allocator_type", scope: !280, file: !281, line: 431, baseType: !3)
!289 = !DIDerivedType(tag: DW_TAG_typedef, name: "size_type", file: !281, line: 452, baseType: !44)
!290 = !DISubprogram(name: "allocate", linkageName: "_ZNSt16allocator_traitsISaIcEE8allocateERS0_mPKv", scope: !280, file: !281, line: 496, type: !291, scopeLine: 496, flags: DIFlagPrototyped | DIFlagStaticMember, spFlags: 0)
!291 = !DISubroutineType(types: !292)
!292 = !{!286, !287, !289, !293}
!293 = !DIDerivedType(tag: DW_TAG_typedef, name: "const_void_pointer", file: !281, line: 446, baseType: !47)
!294 = !DISubprogram(name: "deallocate", linkageName: "_ZNSt16allocator_traitsISaIcEE10deallocateERS0_Pcm", scope: !280, file: !281, line: 515, type: !295, scopeLine: 515, flags: DIFlagPrototyped | DIFlagStaticMember, spFlags: 0)
!295 = !DISubroutineType(types: !296)
!296 = !{null, !287, !286, !289}
!297 = !DISubprogram(name: "max_size", linkageName: "_ZNSt16allocator_traitsISaIcEE8max_sizeERKS0_", scope: !280, file: !281, line: 570, type: !298, scopeLine: 570, flags: DIFlagPrototyped | DIFlagStaticMember, spFlags: 0)
!298 = !DISubroutineType(types: !299)
!299 = !{!300, !301}
!300 = !DIDerivedType(tag: DW_TAG_typedef, name: "size_type", scope: !280, file: !281, line: 452, baseType: !44)
!301 = !DIDerivedType(tag: DW_TAG_reference_type, baseType: !302, size: 64)
!302 = !DIDerivedType(tag: DW_TAG_const_type, baseType: !288)
!303 = !DISubprogram(name: "select_on_container_copy_construction", linkageName: "_ZNSt16allocator_traitsISaIcEE37select_on_container_copy_constructionERKS0_", scope: !280, file: !281, line: 586, type: !304, scopeLine: 586, flags: DIFlagPrototyped | DIFlagStaticMember, spFlags: 0)
!304 = !DISubroutineType(types: !305)
!305 = !{!288, !301}
!306 = !{!307}
!307 = !DITemplateTypeParameter(name: "_Alloc", type: !3)
!308 = !DISubprogram(name: "_S_select_on_copy", linkageName: "_ZN9__gnu_cxx14__alloc_traitsISaIcEcE17_S_select_on_copyERKS1_", scope: !276, file: !275, line: 97, type: !309, scopeLine: 97, flags: DIFlagPrototyped | DIFlagStaticMember, spFlags: 0)
!309 = !DISubroutineType(types: !310)
!310 = !{!3, !65}
!311 = !DISubprogram(name: "_S_on_swap", linkageName: "_ZN9__gnu_cxx14__alloc_traitsISaIcEcE10_S_on_swapERS1_S3_", scope: !276, file: !275, line: 101, type: !312, scopeLine: 101, flags: DIFlagPrototyped | DIFlagStaticMember, spFlags: 0)
!312 = !DISubroutineType(types: !313)
!313 = !{null, !70, !70}
!314 = !DISubprogram(name: "_S_propagate_on_copy_assign", linkageName: "_ZN9__gnu_cxx14__alloc_traitsISaIcEcE27_S_propagate_on_copy_assignEv", scope: !276, file: !275, line: 105, type: !315, scopeLine: 105, flags: DIFlagPrototyped | DIFlagStaticMember, spFlags: 0)
!315 = !DISubroutineType(types: !316)
!316 = !{!129}
!317 = !DISubprogram(name: "_S_propagate_on_move_assign", linkageName: "_ZN9__gnu_cxx14__alloc_traitsISaIcEcE27_S_propagate_on_move_assignEv", scope: !276, file: !275, line: 109, type: !315, scopeLine: 109, flags: DIFlagPrototyped | DIFlagStaticMember, spFlags: 0)
!318 = !DISubprogram(name: "_S_propagate_on_swap", linkageName: "_ZN9__gnu_cxx14__alloc_traitsISaIcEcE20_S_propagate_on_swapEv", scope: !276, file: !275, line: 113, type: !315, scopeLine: 113, flags: DIFlagPrototyped | DIFlagStaticMember, spFlags: 0)
!319 = !DISubprogram(name: "_S_always_equal", linkageName: "_ZN9__gnu_cxx14__alloc_traitsISaIcEcE15_S_always_equalEv", scope: !276, file: !275, line: 117, type: !315, scopeLine: 117, flags: DIFlagPrototyped | DIFlagStaticMember, spFlags: 0)
!320 = !DISubprogram(name: "_S_nothrow_move", linkageName: "_ZN9__gnu_cxx14__alloc_traitsISaIcEcE15_S_nothrow_moveEv", scope: !276, file: !275, line: 121, type: !315, scopeLine: 121, flags: DIFlagPrototyped | DIFlagStaticMember, spFlags: 0)
!321 = !{!307, !73}
!322 = !DIDerivedType(tag: DW_TAG_member, name: "_M_dataplus", scope: !266, file: !271, line: 199, baseType: !323, size: 64)
!323 = !DICompositeType(tag: DW_TAG_structure_type, name: "_Alloc_hider", scope: !266, file: !271, line: 181, size: 64, flags: DIFlagFwdDecl | DIFlagNonTrivial, identifier: "_ZTSNSt7__cxx1112basic_stringIcSt11char_traitsIcESaIcEE12_Alloc_hiderE")
!324 = !DIDerivedType(tag: DW_TAG_member, name: "_M_string_length", scope: !266, file: !271, line: 200, baseType: !273, size: 64, offset: 64)
!325 = !DIDerivedType(tag: DW_TAG_member, scope: !266, file: !271, line: 204, baseType: !326, size: 128, offset: 128)
!326 = distinct !DICompositeType(tag: DW_TAG_union_type, scope: !266, file: !271, line: 204, size: 128, flags: DIFlagExportSymbols | DIFlagTypePassByValue, elements: !327, identifier: "_ZTSNSt7__cxx1112basic_stringIcSt11char_traitsIcESaIcEEUt0_E")
!327 = !{!328, !332}
!328 = !DIDerivedType(tag: DW_TAG_member, name: "_M_local_buf", scope: !326, file: !271, line: 206, baseType: !329, size: 128)
!329 = !DICompositeType(tag: DW_TAG_array_type, baseType: !28, size: 128, elements: !330)
!330 = !{!331}
!331 = !DISubrange(count: 16)
!332 = !DIDerivedType(tag: DW_TAG_member, name: "_M_allocated_capacity", scope: !326, file: !271, line: 207, baseType: !273, size: 64)
!333 = !DISubprogram(name: "_S_allocate", linkageName: "_ZNSt7__cxx1112basic_stringIcSt11char_traitsIcESaIcEE11_S_allocateERS3_m", scope: !266, file: !271, line: 124, type: !334, scopeLine: 124, flags: DIFlagPrototyped | DIFlagStaticMember, spFlags: 0)
!334 = !DISubroutineType(types: !335)
!335 = !{!336, !338, !273}
!336 = !DIDerivedType(tag: DW_TAG_typedef, name: "pointer", scope: !266, file: !271, line: 103, baseType: !337, flags: DIFlagPublic)
!337 = !DIDerivedType(tag: DW_TAG_typedef, name: "pointer", scope: !276, file: !275, line: 54, baseType: !286)
!338 = !DIDerivedType(tag: DW_TAG_reference_type, baseType: !339, size: 64)
!339 = !DIDerivedType(tag: DW_TAG_typedef, name: "_Char_alloc_type", scope: !266, file: !271, line: 90, baseType: !340)
!340 = !DIDerivedType(tag: DW_TAG_typedef, name: "other", scope: !341, file: !275, line: 126, baseType: !343)
!341 = distinct !DICompositeType(tag: DW_TAG_structure_type, name: "rebind<char>", scope: !276, file: !275, line: 125, size: 8, flags: DIFlagTypePassByValue, elements: !342, templateParams: !56, identifier: "_ZTSN9__gnu_cxx14__alloc_traitsISaIcEcE6rebindIcEE")
!342 = !{}
!343 = !DIDerivedType(tag: DW_TAG_typedef, name: "rebind_alloc<char>", scope: !280, file: !281, line: 467, baseType: !3)
!344 = !DISubprogram(name: "_S_to_string_view", linkageName: "_ZNSt7__cxx1112basic_stringIcSt11char_traitsIcESaIcEE17_S_to_string_viewESt17basic_string_viewIcS2_E", scope: !266, file: !271, line: 153, type: !345, scopeLine: 153, flags: DIFlagPrototyped | DIFlagStaticMember, spFlags: 0)
!345 = !DISubroutineType(types: !346)
!346 = !{!347, !347}
!347 = !DIDerivedType(tag: DW_TAG_typedef, name: "__sv_type", scope: !266, file: !271, line: 141, baseType: !74)
!348 = !DISubprogram(name: "basic_string", scope: !266, file: !271, line: 176, type: !349, scopeLine: 176, flags: DIFlagExplicit | DIFlagPrototyped, spFlags: 0)
!349 = !DISubroutineType(types: !350)
!350 = !{null, !351, !352, !65}
!351 = !DIDerivedType(tag: DW_TAG_pointer_type, baseType: !266, size: 64, flags: DIFlagArtificial | DIFlagObjectPointer)
!352 = !DICompositeType(tag: DW_TAG_structure_type, name: "__sv_wrapper", scope: !266, file: !271, line: 160, size: 128, flags: DIFlagFwdDecl | DIFlagNonTrivial, identifier: "_ZTSNSt7__cxx1112basic_stringIcSt11char_traitsIcESaIcEE12__sv_wrapperE")
!353 = !DISubprogram(name: "_M_data", linkageName: "_ZNSt7__cxx1112basic_stringIcSt11char_traitsIcESaIcEE7_M_dataEPc", scope: !266, file: !271, line: 212, type: !354, scopeLine: 212, flags: DIFlagPrototyped, spFlags: 0)
!354 = !DISubroutineType(types: !355)
!355 = !{null, !351, !336}
!356 = !DISubprogram(name: "_M_length", linkageName: "_ZNSt7__cxx1112basic_stringIcSt11char_traitsIcESaIcEE9_M_lengthEm", scope: !266, file: !271, line: 217, type: !357, scopeLine: 217, flags: DIFlagPrototyped, spFlags: 0)
!357 = !DISubroutineType(types: !358)
!358 = !{null, !351, !273}
!359 = !DISubprogram(name: "_M_data", linkageName: "_ZNKSt7__cxx1112basic_stringIcSt11char_traitsIcESaIcEE7_M_dataEv", scope: !266, file: !271, line: 222, type: !360, scopeLine: 222, flags: DIFlagPrototyped, spFlags: 0)
!360 = !DISubroutineType(types: !361)
!361 = !{!336, !362}
!362 = !DIDerivedType(tag: DW_TAG_pointer_type, baseType: !363, size: 64, flags: DIFlagArtificial | DIFlagObjectPointer)
!363 = !DIDerivedType(tag: DW_TAG_const_type, baseType: !266)
!364 = !DISubprogram(name: "_M_local_data", linkageName: "_ZNSt7__cxx1112basic_stringIcSt11char_traitsIcESaIcEE13_M_local_dataEv", scope: !266, file: !271, line: 227, type: !365, scopeLine: 227, flags: DIFlagPrototyped, spFlags: 0)
!365 = !DISubroutineType(types: !366)
!366 = !{!336, !351}
!367 = !DISubprogram(name: "_M_local_data", linkageName: "_ZNKSt7__cxx1112basic_stringIcSt11char_traitsIcESaIcEE13_M_local_dataEv", scope: !266, file: !271, line: 238, type: !368, scopeLine: 238, flags: DIFlagPrototyped, spFlags: 0)
!368 = !DISubroutineType(types: !369)
!369 = !{!370, !362}
!370 = !DIDerivedType(tag: DW_TAG_typedef, name: "const_pointer", scope: !266, file: !271, line: 104, baseType: !371, flags: DIFlagPublic)
!371 = !DIDerivedType(tag: DW_TAG_typedef, name: "const_pointer", scope: !276, file: !275, line: 55, baseType: !372)
!372 = !DIDerivedType(tag: DW_TAG_typedef, name: "const_pointer", scope: !280, file: !281, line: 440, baseType: !36)
!373 = !DISubprogram(name: "_M_capacity", linkageName: "_ZNSt7__cxx1112basic_stringIcSt11char_traitsIcESaIcEE11_M_capacityEm", scope: !266, file: !271, line: 249, type: !357, scopeLine: 249, flags: DIFlagPrototyped, spFlags: 0)
!374 = !DISubprogram(name: "_M_set_length", linkageName: "_ZNSt7__cxx1112basic_stringIcSt11char_traitsIcESaIcEE13_M_set_lengthEm", scope: !266, file: !271, line: 254, type: !357, scopeLine: 254, flags: DIFlagPrototyped, spFlags: 0)
!375 = !DISubprogram(name: "_M_is_local", linkageName: "_ZNKSt7__cxx1112basic_stringIcSt11char_traitsIcESaIcEE11_M_is_localEv", scope: !266, file: !271, line: 262, type: !376, scopeLine: 262, flags: DIFlagPrototyped, spFlags: 0)
!376 = !DISubroutineType(types: !377)
!377 = !{!129, !362}
!378 = !DISubprogram(name: "_M_create", linkageName: "_ZNSt7__cxx1112basic_stringIcSt11char_traitsIcESaIcEE9_M_createERmm", scope: !266, file: !271, line: 276, type: !379, scopeLine: 276, flags: DIFlagPrototyped, spFlags: 0)
!379 = !DISubroutineType(types: !380)
!380 = !{!336, !351, !381, !273}
!381 = !DIDerivedType(tag: DW_TAG_reference_type, baseType: !273, size: 64)
!382 = !DISubprogram(name: "_M_dispose", linkageName: "_ZNSt7__cxx1112basic_stringIcSt11char_traitsIcESaIcEE10_M_disposeEv", scope: !266, file: !271, line: 280, type: !383, scopeLine: 280, flags: DIFlagPrototyped, spFlags: 0)
!383 = !DISubroutineType(types: !384)
!384 = !{null, !351}
!385 = !DISubprogram(name: "_M_destroy", linkageName: "_ZNSt7__cxx1112basic_stringIcSt11char_traitsIcESaIcEE10_M_destroyEm", scope: !266, file: !271, line: 288, type: !357, scopeLine: 288, flags: DIFlagPrototyped, spFlags: 0)
!386 = !DISubprogram(name: "_M_construct", linkageName: "_ZNSt7__cxx1112basic_stringIcSt11char_traitsIcESaIcEE12_M_constructEmc", scope: !266, file: !271, line: 332, type: !387, scopeLine: 332, flags: DIFlagPrototyped, spFlags: 0)
!387 = !DISubroutineType(types: !388)
!388 = !{null, !351, !273, !28}
!389 = !DISubprogram(name: "_M_get_allocator", linkageName: "_ZNSt7__cxx1112basic_stringIcSt11char_traitsIcESaIcEE16_M_get_allocatorEv", scope: !266, file: !271, line: 336, type: !390, scopeLine: 336, flags: DIFlagPrototyped, spFlags: 0)
!390 = !DISubroutineType(types: !391)
!391 = !{!392, !351}
!392 = !DIDerivedType(tag: DW_TAG_reference_type, baseType: !393, size: 64)
!393 = !DIDerivedType(tag: DW_TAG_typedef, name: "allocator_type", scope: !266, file: !271, line: 98, baseType: !339, flags: DIFlagPublic)
!394 = !DISubprogram(name: "_M_get_allocator", linkageName: "_ZNKSt7__cxx1112basic_stringIcSt11char_traitsIcESaIcEE16_M_get_allocatorEv", scope: !266, file: !271, line: 341, type: !395, scopeLine: 341, flags: DIFlagPrototyped, spFlags: 0)
!395 = !DISubroutineType(types: !396)
!396 = !{!397, !362}
!397 = !DIDerivedType(tag: DW_TAG_reference_type, baseType: !398, size: 64)
!398 = !DIDerivedType(tag: DW_TAG_const_type, baseType: !393)
!399 = !DISubprogram(name: "_M_use_local_data", linkageName: "_ZNSt7__cxx1112basic_stringIcSt11char_traitsIcESaIcEE17_M_use_local_dataEv", scope: !266, file: !271, line: 348, type: !365, scopeLine: 348, flags: DIFlagPrototyped, spFlags: 0)
!400 = !DISubprogram(name: "_M_check", linkageName: "_ZNKSt7__cxx1112basic_stringIcSt11char_traitsIcESaIcEE8_M_checkEmPKc", scope: !266, file: !271, line: 376, type: !401, scopeLine: 376, flags: DIFlagPrototyped, spFlags: 0)
!401 = !DISubroutineType(types: !402)
!402 = !{!273, !362, !273, !36}
!403 = !DISubprogram(name: "_M_check_length", linkageName: "_ZNKSt7__cxx1112basic_stringIcSt11char_traitsIcESaIcEE15_M_check_lengthEmmPKc", scope: !266, file: !271, line: 387, type: !404, scopeLine: 387, flags: DIFlagPrototyped, spFlags: 0)
!404 = !DISubroutineType(types: !405)
!405 = !{null, !362, !273, !273, !36}
!406 = !DISubprogram(name: "_M_limit", linkageName: "_ZNKSt7__cxx1112basic_stringIcSt11char_traitsIcESaIcEE8_M_limitEmm", scope: !266, file: !271, line: 397, type: !407, scopeLine: 397, flags: DIFlagPrototyped, spFlags: 0)
!407 = !DISubroutineType(types: !408)
!408 = !{!273, !362, !273, !273}
!409 = !DISubprogram(name: "_M_disjunct", linkageName: "_ZNKSt7__cxx1112basic_stringIcSt11char_traitsIcESaIcEE11_M_disjunctEPKc", scope: !266, file: !271, line: 405, type: !410, scopeLine: 405, flags: DIFlagPrototyped, spFlags: 0)
!410 = !DISubroutineType(types: !411)
!411 = !{!129, !362, !36}
!412 = !DISubprogram(name: "_S_copy", linkageName: "_ZNSt7__cxx1112basic_stringIcSt11char_traitsIcESaIcEE7_S_copyEPcPKcm", scope: !266, file: !271, line: 415, type: !413, scopeLine: 415, flags: DIFlagPrototyped | DIFlagStaticMember, spFlags: 0)
!413 = !DISubroutineType(types: !414)
!414 = !{null, !27, !36, !273}
!415 = !DISubprogram(name: "_S_move", linkageName: "_ZNSt7__cxx1112basic_stringIcSt11char_traitsIcESaIcEE7_S_moveEPcPKcm", scope: !266, file: !271, line: 425, type: !413, scopeLine: 425, flags: DIFlagPrototyped | DIFlagStaticMember, spFlags: 0)
!416 = !DISubprogram(name: "_S_assign", linkageName: "_ZNSt7__cxx1112basic_stringIcSt11char_traitsIcESaIcEE9_S_assignEPcmc", scope: !266, file: !271, line: 435, type: !417, scopeLine: 435, flags: DIFlagPrototyped | DIFlagStaticMember, spFlags: 0)
!417 = !DISubroutineType(types: !418)
!418 = !{null, !27, !273, !28}
!419 = !DISubprogram(name: "_S_copy_chars", linkageName: "_ZNSt7__cxx1112basic_stringIcSt11char_traitsIcESaIcEE13_S_copy_charsEPcN9__gnu_cxx17__normal_iteratorIS5_S4_EES8_", scope: !266, file: !271, line: 456, type: !420, scopeLine: 456, flags: DIFlagPrototyped | DIFlagStaticMember, spFlags: 0)
!420 = !DISubroutineType(types: !421)
!421 = !{null, !27, !422, !422}
!422 = !DIDerivedType(tag: DW_TAG_typedef, name: "iterator", scope: !266, file: !271, line: 105, baseType: !423, flags: DIFlagPublic)
!423 = !DICompositeType(tag: DW_TAG_class_type, name: "__normal_iterator<char *, std::__cxx11::basic_string<char, std::char_traits<char>, std::allocator<char> > >", scope: !277, file: !117, line: 1047, size: 64, flags: DIFlagFwdDecl | DIFlagNonTrivial, identifier: "_ZTSN9__gnu_cxx17__normal_iteratorIPcNSt7__cxx1112basic_stringIcSt11char_traitsIcESaIcEEEEE")
!424 = !DISubprogram(name: "_S_copy_chars", linkageName: "_ZNSt7__cxx1112basic_stringIcSt11char_traitsIcESaIcEE13_S_copy_charsEPcN9__gnu_cxx17__normal_iteratorIPKcS4_EESA_", scope: !266, file: !271, line: 461, type: !425, scopeLine: 461, flags: DIFlagPrototyped | DIFlagStaticMember, spFlags: 0)
!425 = !DISubroutineType(types: !426)
!426 = !{null, !27, !427, !427}
!427 = !DIDerivedType(tag: DW_TAG_typedef, name: "const_iterator", scope: !266, file: !271, line: 107, baseType: !428, flags: DIFlagPublic)
!428 = !DICompositeType(tag: DW_TAG_class_type, name: "__normal_iterator<const char *, std::__cxx11::basic_string<char, std::char_traits<char>, std::allocator<char> > >", scope: !277, file: !117, line: 1047, size: 64, flags: DIFlagFwdDecl | DIFlagNonTrivial, identifier: "_ZTSN9__gnu_cxx17__normal_iteratorIPKcNSt7__cxx1112basic_stringIcSt11char_traitsIcESaIcEEEEE")
!429 = !DISubprogram(name: "_S_copy_chars", linkageName: "_ZNSt7__cxx1112basic_stringIcSt11char_traitsIcESaIcEE13_S_copy_charsEPcS5_S5_", scope: !266, file: !271, line: 467, type: !430, scopeLine: 467, flags: DIFlagPrototyped | DIFlagStaticMember, spFlags: 0)
!430 = !DISubroutineType(types: !431)
!431 = !{null, !27, !27, !27}
!432 = !DISubprogram(name: "_S_copy_chars", linkageName: "_ZNSt7__cxx1112basic_stringIcSt11char_traitsIcESaIcEE13_S_copy_charsEPcPKcS7_", scope: !266, file: !271, line: 472, type: !433, scopeLine: 472, flags: DIFlagPrototyped | DIFlagStaticMember, spFlags: 0)
!433 = !DISubroutineType(types: !434)
!434 = !{null, !27, !36, !36}
!435 = !DISubprogram(name: "_S_compare", linkageName: "_ZNSt7__cxx1112basic_stringIcSt11char_traitsIcESaIcEE10_S_compareEmm", scope: !266, file: !271, line: 478, type: !436, scopeLine: 478, flags: DIFlagPrototyped | DIFlagStaticMember, spFlags: 0)
!436 = !DISubroutineType(types: !437)
!437 = !{!161, !273, !273}
!438 = !DISubprogram(name: "_M_assign", linkageName: "_ZNSt7__cxx1112basic_stringIcSt11char_traitsIcESaIcEE9_M_assignERKS4_", scope: !266, file: !271, line: 492, type: !439, scopeLine: 492, flags: DIFlagPrototyped, spFlags: 0)
!439 = !DISubroutineType(types: !440)
!440 = !{null, !351, !441}
!441 = !DIDerivedType(tag: DW_TAG_reference_type, baseType: !363, size: 64)
!442 = !DISubprogram(name: "_M_mutate", linkageName: "_ZNSt7__cxx1112basic_stringIcSt11char_traitsIcESaIcEE9_M_mutateEmmPKcm", scope: !266, file: !271, line: 496, type: !443, scopeLine: 496, flags: DIFlagPrototyped, spFlags: 0)
!443 = !DISubroutineType(types: !444)
!444 = !{null, !351, !273, !273, !36, !273}
!445 = !DISubprogram(name: "_M_erase", linkageName: "_ZNSt7__cxx1112basic_stringIcSt11char_traitsIcESaIcEE8_M_eraseEmm", scope: !266, file: !271, line: 501, type: !446, scopeLine: 501, flags: DIFlagPrototyped, spFlags: 0)
!446 = !DISubroutineType(types: !447)
!447 = !{null, !351, !273, !273}
!448 = !DISubprogram(name: "basic_string", scope: !266, file: !271, line: 512, type: !383, scopeLine: 512, flags: DIFlagPublic | DIFlagPrototyped, spFlags: 0)
!449 = !DISubprogram(name: "basic_string", scope: !266, file: !271, line: 525, type: !450, scopeLine: 525, flags: DIFlagPublic | DIFlagExplicit | DIFlagPrototyped, spFlags: 0)
!450 = !DISubroutineType(types: !451)
!451 = !{null, !351, !65}
!452 = !DISubprogram(name: "basic_string", scope: !266, file: !271, line: 537, type: !439, scopeLine: 537, flags: DIFlagPublic | DIFlagPrototyped, spFlags: 0)
!453 = !DISubprogram(name: "basic_string", scope: !266, file: !271, line: 554, type: !454, scopeLine: 554, flags: DIFlagPublic | DIFlagPrototyped, spFlags: 0)
!454 = !DISubroutineType(types: !455)
!455 = !{null, !351, !441, !273, !65}
!456 = !DISubprogram(name: "basic_string", scope: !266, file: !271, line: 571, type: !457, scopeLine: 571, flags: DIFlagPublic | DIFlagPrototyped, spFlags: 0)
!457 = !DISubroutineType(types: !458)
!458 = !{null, !351, !441, !273, !273}
!459 = !DISubprogram(name: "basic_string", scope: !266, file: !271, line: 589, type: !460, scopeLine: 589, flags: DIFlagPublic | DIFlagPrototyped, spFlags: 0)
!460 = !DISubroutineType(types: !461)
!461 = !{null, !351, !441, !273, !273, !65}
!462 = !DISubprogram(name: "basic_string", scope: !266, file: !271, line: 609, type: !463, scopeLine: 609, flags: DIFlagPublic | DIFlagPrototyped, spFlags: 0)
!463 = !DISubroutineType(types: !464)
!464 = !{null, !351, !36, !273, !65}
!465 = !DISubprogram(name: "basic_string", scope: !266, file: !271, line: 667, type: !466, scopeLine: 667, flags: DIFlagPublic | DIFlagPrototyped, spFlags: 0)
!466 = !DISubroutineType(types: !467)
!467 = !{null, !351, !468}
!468 = !DIDerivedType(tag: DW_TAG_rvalue_reference_type, baseType: !266, size: 64)
!469 = !DISubprogram(name: "basic_string", scope: !266, file: !271, line: 695, type: !470, scopeLine: 695, flags: DIFlagPublic | DIFlagPrototyped, spFlags: 0)
!470 = !DISubroutineType(types: !471)
!471 = !{null, !351, !472, !65}
!472 = !DICompositeType(tag: DW_TAG_class_type, name: "initializer_list<char>", scope: !5, file: !473, line: 45, size: 128, flags: DIFlagFwdDecl | DIFlagNonTrivial, identifier: "_ZTSSt16initializer_listIcE")
!473 = !DIFile(filename: "/usr/bin/../lib64/gcc/x86_64-pc-linux-gnu/13.2.1/../../../../include/c++/13.2.1/initializer_list", directory: "")
!474 = !DISubprogram(name: "basic_string", scope: !266, file: !271, line: 700, type: !475, scopeLine: 700, flags: DIFlagPublic | DIFlagPrototyped, spFlags: 0)
!475 = !DISubroutineType(types: !476)
!476 = !{null, !351, !441, !65}
!477 = !DISubprogram(name: "basic_string", scope: !266, file: !271, line: 705, type: !478, scopeLine: 705, flags: DIFlagPublic | DIFlagPrototyped, spFlags: 0)
!478 = !DISubroutineType(types: !479)
!479 = !{null, !351, !468, !65}
!480 = !DISubprogram(name: "~basic_string", scope: !266, file: !271, line: 791, type: !383, scopeLine: 791, flags: DIFlagPublic | DIFlagPrototyped, spFlags: 0)
!481 = !DISubprogram(name: "operator=", linkageName: "_ZNSt7__cxx1112basic_stringIcSt11char_traitsIcESaIcEEaSERKS4_", scope: !266, file: !271, line: 800, type: !482, scopeLine: 800, flags: DIFlagPublic | DIFlagPrototyped, spFlags: 0)
!482 = !DISubroutineType(types: !483)
!483 = !{!484, !351, !441}
!484 = !DIDerivedType(tag: DW_TAG_reference_type, baseType: !266, size: 64)
!485 = !DISubprogram(name: "operator=", linkageName: "_ZNSt7__cxx1112basic_stringIcSt11char_traitsIcESaIcEEaSEPKc", scope: !266, file: !271, line: 811, type: !486, scopeLine: 811, flags: DIFlagPublic | DIFlagPrototyped, spFlags: 0)
!486 = !DISubroutineType(types: !487)
!487 = !{!484, !351, !36}
!488 = !DISubprogram(name: "operator=", linkageName: "_ZNSt7__cxx1112basic_stringIcSt11char_traitsIcESaIcEEaSEc", scope: !266, file: !271, line: 823, type: !489, scopeLine: 823, flags: DIFlagPublic | DIFlagPrototyped, spFlags: 0)
!489 = !DISubroutineType(types: !490)
!490 = !{!484, !351, !28}
!491 = !DISubprogram(name: "operator=", linkageName: "_ZNSt7__cxx1112basic_stringIcSt11char_traitsIcESaIcEEaSEOS4_", scope: !266, file: !271, line: 841, type: !492, scopeLine: 841, flags: DIFlagPublic | DIFlagPrototyped, spFlags: 0)
!492 = !DISubroutineType(types: !493)
!493 = !{!484, !351, !468}
!494 = !DISubprogram(name: "operator=", linkageName: "_ZNSt7__cxx1112basic_stringIcSt11char_traitsIcESaIcEEaSESt16initializer_listIcE", scope: !266, file: !271, line: 909, type: !495, scopeLine: 909, flags: DIFlagPublic | DIFlagPrototyped, spFlags: 0)
!495 = !DISubroutineType(types: !496)
!496 = !{!484, !351, !472}
!497 = !DISubprogram(name: "operator basic_string_view", linkageName: "_ZNKSt7__cxx1112basic_stringIcSt11char_traitsIcESaIcEEcvSt17basic_string_viewIcS2_EEv", scope: !266, file: !271, line: 932, type: !498, scopeLine: 932, flags: DIFlagPublic | DIFlagPrototyped, spFlags: 0)
!498 = !DISubroutineType(types: !499)
!499 = !{!347, !362}
!500 = !DISubprogram(name: "begin", linkageName: "_ZNSt7__cxx1112basic_stringIcSt11char_traitsIcESaIcEE5beginEv", scope: !266, file: !271, line: 943, type: !501, scopeLine: 943, flags: DIFlagPublic | DIFlagPrototyped, spFlags: 0)
!501 = !DISubroutineType(types: !502)
!502 = !{!422, !351}
!503 = !DISubprogram(name: "begin", linkageName: "_ZNKSt7__cxx1112basic_stringIcSt11char_traitsIcESaIcEE5beginEv", scope: !266, file: !271, line: 952, type: !504, scopeLine: 952, flags: DIFlagPublic | DIFlagPrototyped, spFlags: 0)
!504 = !DISubroutineType(types: !505)
!505 = !{!427, !362}
!506 = !DISubprogram(name: "end", linkageName: "_ZNSt7__cxx1112basic_stringIcSt11char_traitsIcESaIcEE3endEv", scope: !266, file: !271, line: 961, type: !501, scopeLine: 961, flags: DIFlagPublic | DIFlagPrototyped, spFlags: 0)
!507 = !DISubprogram(name: "end", linkageName: "_ZNKSt7__cxx1112basic_stringIcSt11char_traitsIcESaIcEE3endEv", scope: !266, file: !271, line: 970, type: !504, scopeLine: 970, flags: DIFlagPublic | DIFlagPrototyped, spFlags: 0)
!508 = !DISubprogram(name: "rbegin", linkageName: "_ZNSt7__cxx1112basic_stringIcSt11char_traitsIcESaIcEE6rbeginEv", scope: !266, file: !271, line: 980, type: !509, scopeLine: 980, flags: DIFlagPublic | DIFlagPrototyped, spFlags: 0)
!509 = !DISubroutineType(types: !510)
!510 = !{!511, !351}
!511 = !DIDerivedType(tag: DW_TAG_typedef, name: "reverse_iterator", scope: !266, file: !271, line: 109, baseType: !512, flags: DIFlagPublic)
!512 = !DICompositeType(tag: DW_TAG_class_type, name: "reverse_iterator<__gnu_cxx::__normal_iterator<char *, std::__cxx11::basic_string<char, std::char_traits<char>, std::allocator<char> > > >", scope: !5, file: !117, line: 136, flags: DIFlagFwdDecl | DIFlagNonTrivial, identifier: "_ZTSSt16reverse_iteratorIN9__gnu_cxx17__normal_iteratorIPcNSt7__cxx1112basic_stringIcSt11char_traitsIcESaIcEEEEEE")
!513 = !DISubprogram(name: "rbegin", linkageName: "_ZNKSt7__cxx1112basic_stringIcSt11char_traitsIcESaIcEE6rbeginEv", scope: !266, file: !271, line: 990, type: !514, scopeLine: 990, flags: DIFlagPublic | DIFlagPrototyped, spFlags: 0)
!514 = !DISubroutineType(types: !515)
!515 = !{!516, !362}
!516 = !DIDerivedType(tag: DW_TAG_typedef, name: "const_reverse_iterator", scope: !266, file: !271, line: 108, baseType: !517, flags: DIFlagPublic)
!517 = !DICompositeType(tag: DW_TAG_class_type, name: "reverse_iterator<__gnu_cxx::__normal_iterator<const char *, std::__cxx11::basic_string<char, std::char_traits<char>, std::allocator<char> > > >", scope: !5, file: !117, line: 136, flags: DIFlagFwdDecl | DIFlagNonTrivial, identifier: "_ZTSSt16reverse_iteratorIN9__gnu_cxx17__normal_iteratorIPKcNSt7__cxx1112basic_stringIcSt11char_traitsIcESaIcEEEEEE")
!518 = !DISubprogram(name: "rend", linkageName: "_ZNSt7__cxx1112basic_stringIcSt11char_traitsIcESaIcEE4rendEv", scope: !266, file: !271, line: 1000, type: !509, scopeLine: 1000, flags: DIFlagPublic | DIFlagPrototyped, spFlags: 0)
!519 = !DISubprogram(name: "rend", linkageName: "_ZNKSt7__cxx1112basic_stringIcSt11char_traitsIcESaIcEE4rendEv", scope: !266, file: !271, line: 1010, type: !514, scopeLine: 1010, flags: DIFlagPublic | DIFlagPrototyped, spFlags: 0)
!520 = !DISubprogram(name: "cbegin", linkageName: "_ZNKSt7__cxx1112basic_stringIcSt11char_traitsIcESaIcEE6cbeginEv", scope: !266, file: !271, line: 1020, type: !504, scopeLine: 1020, flags: DIFlagPublic | DIFlagPrototyped, spFlags: 0)
!521 = !DISubprogram(name: "cend", linkageName: "_ZNKSt7__cxx1112basic_stringIcSt11char_traitsIcESaIcEE4cendEv", scope: !266, file: !271, line: 1029, type: !504, scopeLine: 1029, flags: DIFlagPublic | DIFlagPrototyped, spFlags: 0)
!522 = !DISubprogram(name: "crbegin", linkageName: "_ZNKSt7__cxx1112basic_stringIcSt11char_traitsIcESaIcEE7crbeginEv", scope: !266, file: !271, line: 1039, type: !514, scopeLine: 1039, flags: DIFlagPublic | DIFlagPrototyped, spFlags: 0)
!523 = !DISubprogram(name: "crend", linkageName: "_ZNKSt7__cxx1112basic_stringIcSt11char_traitsIcESaIcEE5crendEv", scope: !266, file: !271, line: 1049, type: !514, scopeLine: 1049, flags: DIFlagPublic | DIFlagPrototyped, spFlags: 0)
!524 = !DISubprogram(name: "size", linkageName: "_ZNKSt7__cxx1112basic_stringIcSt11char_traitsIcESaIcEE4sizeEv", scope: !266, file: !271, line: 1059, type: !525, scopeLine: 1059, flags: DIFlagPublic | DIFlagPrototyped, spFlags: 0)
!525 = !DISubroutineType(types: !526)
!526 = !{!273, !362}
!527 = !DISubprogram(name: "length", linkageName: "_ZNKSt7__cxx1112basic_stringIcSt11char_traitsIcESaIcEE6lengthEv", scope: !266, file: !271, line: 1066, type: !525, scopeLine: 1066, flags: DIFlagPublic | DIFlagPrototyped, spFlags: 0)
!528 = !DISubprogram(name: "max_size", linkageName: "_ZNKSt7__cxx1112basic_stringIcSt11char_traitsIcESaIcEE8max_sizeEv", scope: !266, file: !271, line: 1072, type: !525, scopeLine: 1072, flags: DIFlagPublic | DIFlagPrototyped, spFlags: 0)
!529 = !DISubprogram(name: "resize", linkageName: "_ZNSt7__cxx1112basic_stringIcSt11char_traitsIcESaIcEE6resizeEmc", scope: !266, file: !271, line: 1087, type: !387, scopeLine: 1087, flags: DIFlagPublic | DIFlagPrototyped, spFlags: 0)
!530 = !DISubprogram(name: "resize", linkageName: "_ZNSt7__cxx1112basic_stringIcSt11char_traitsIcESaIcEE6resizeEm", scope: !266, file: !271, line: 1101, type: !357, scopeLine: 1101, flags: DIFlagPublic | DIFlagPrototyped, spFlags: 0)
!531 = !DISubprogram(name: "shrink_to_fit", linkageName: "_ZNSt7__cxx1112basic_stringIcSt11char_traitsIcESaIcEE13shrink_to_fitEv", scope: !266, file: !271, line: 1110, type: !383, scopeLine: 1110, flags: DIFlagPublic | DIFlagPrototyped, spFlags: 0)
!532 = !DISubprogram(name: "capacity", linkageName: "_ZNKSt7__cxx1112basic_stringIcSt11char_traitsIcESaIcEE8capacityEv", scope: !266, file: !271, line: 1157, type: !525, scopeLine: 1157, flags: DIFlagPublic | DIFlagPrototyped, spFlags: 0)
!533 = !DISubprogram(name: "reserve", linkageName: "_ZNSt7__cxx1112basic_stringIcSt11char_traitsIcESaIcEE7reserveEm", scope: !266, file: !271, line: 1182, type: !357, scopeLine: 1182, flags: DIFlagPublic | DIFlagPrototyped, spFlags: 0)
!534 = !DISubprogram(name: "reserve", linkageName: "_ZNSt7__cxx1112basic_stringIcSt11char_traitsIcESaIcEE7reserveEv", scope: !266, file: !271, line: 1192, type: !383, scopeLine: 1192, flags: DIFlagPublic | DIFlagPrototyped, spFlags: 0)
!535 = !DISubprogram(name: "clear", linkageName: "_ZNSt7__cxx1112basic_stringIcSt11char_traitsIcESaIcEE5clearEv", scope: !266, file: !271, line: 1199, type: !383, scopeLine: 1199, flags: DIFlagPublic | DIFlagPrototyped, spFlags: 0)
!536 = !DISubprogram(name: "empty", linkageName: "_ZNKSt7__cxx1112basic_stringIcSt11char_traitsIcESaIcEE5emptyEv", scope: !266, file: !271, line: 1208, type: !376, scopeLine: 1208, flags: DIFlagPublic | DIFlagPrototyped, spFlags: 0)
!537 = !DISubprogram(name: "operator[]", linkageName: "_ZNKSt7__cxx1112basic_stringIcSt11char_traitsIcESaIcEEixEm", scope: !266, file: !271, line: 1224, type: !538, scopeLine: 1224, flags: DIFlagPublic | DIFlagPrototyped, spFlags: 0)
!538 = !DISubroutineType(types: !539)
!539 = !{!540, !362, !273}
!540 = !DIDerivedType(tag: DW_TAG_typedef, name: "const_reference", scope: !266, file: !271, line: 102, baseType: !541, flags: DIFlagPublic)
!541 = !DIDerivedType(tag: DW_TAG_typedef, name: "const_reference", scope: !276, file: !275, line: 60, baseType: !542)
!542 = !DIDerivedType(tag: DW_TAG_reference_type, baseType: !543, size: 64)
!543 = !DIDerivedType(tag: DW_TAG_const_type, baseType: !544)
!544 = !DIDerivedType(tag: DW_TAG_typedef, name: "value_type", scope: !276, file: !275, line: 53, baseType: !545)
!545 = !DIDerivedType(tag: DW_TAG_typedef, name: "value_type", scope: !280, file: !281, line: 434, baseType: !28)
!546 = !DISubprogram(name: "operator[]", linkageName: "_ZNSt7__cxx1112basic_stringIcSt11char_traitsIcESaIcEEixEm", scope: !266, file: !271, line: 1242, type: !547, scopeLine: 1242, flags: DIFlagPublic | DIFlagPrototyped, spFlags: 0)
!547 = !DISubroutineType(types: !548)
!548 = !{!549, !351, !273}
!549 = !DIDerivedType(tag: DW_TAG_typedef, name: "reference", scope: !266, file: !271, line: 101, baseType: !550, flags: DIFlagPublic)
!550 = !DIDerivedType(tag: DW_TAG_typedef, name: "reference", scope: !276, file: !275, line: 59, baseType: !551)
!551 = !DIDerivedType(tag: DW_TAG_reference_type, baseType: !544, size: 64)
!552 = !DISubprogram(name: "at", linkageName: "_ZNKSt7__cxx1112basic_stringIcSt11char_traitsIcESaIcEE2atEm", scope: !266, file: !271, line: 1264, type: !538, scopeLine: 1264, flags: DIFlagPublic | DIFlagPrototyped, spFlags: 0)
!553 = !DISubprogram(name: "at", linkageName: "_ZNSt7__cxx1112basic_stringIcSt11char_traitsIcESaIcEE2atEm", scope: !266, file: !271, line: 1286, type: !547, scopeLine: 1286, flags: DIFlagPublic | DIFlagPrototyped, spFlags: 0)
!554 = !DISubprogram(name: "front", linkageName: "_ZNSt7__cxx1112basic_stringIcSt11char_traitsIcESaIcEE5frontEv", scope: !266, file: !271, line: 1303, type: !555, scopeLine: 1303, flags: DIFlagPublic | DIFlagPrototyped, spFlags: 0)
!555 = !DISubroutineType(types: !556)
!556 = !{!549, !351}
!557 = !DISubprogram(name: "front", linkageName: "_ZNKSt7__cxx1112basic_stringIcSt11char_traitsIcESaIcEE5frontEv", scope: !266, file: !271, line: 1315, type: !558, scopeLine: 1315, flags: DIFlagPublic | DIFlagPrototyped, spFlags: 0)
!558 = !DISubroutineType(types: !559)
!559 = !{!540, !362}
!560 = !DISubprogram(name: "back", linkageName: "_ZNSt7__cxx1112basic_stringIcSt11char_traitsIcESaIcEE4backEv", scope: !266, file: !271, line: 1327, type: !555, scopeLine: 1327, flags: DIFlagPublic | DIFlagPrototyped, spFlags: 0)
!561 = !DISubprogram(name: "back", linkageName: "_ZNKSt7__cxx1112basic_stringIcSt11char_traitsIcESaIcEE4backEv", scope: !266, file: !271, line: 1339, type: !558, scopeLine: 1339, flags: DIFlagPublic | DIFlagPrototyped, spFlags: 0)
!562 = !DISubprogram(name: "operator+=", linkageName: "_ZNSt7__cxx1112basic_stringIcSt11char_traitsIcESaIcEEpLERKS4_", scope: !266, file: !271, line: 1354, type: !482, scopeLine: 1354, flags: DIFlagPublic | DIFlagPrototyped, spFlags: 0)
!563 = !DISubprogram(name: "operator+=", linkageName: "_ZNSt7__cxx1112basic_stringIcSt11char_traitsIcESaIcEEpLEPKc", scope: !266, file: !271, line: 1364, type: !486, scopeLine: 1364, flags: DIFlagPublic | DIFlagPrototyped, spFlags: 0)
!564 = !DISubprogram(name: "operator+=", linkageName: "_ZNSt7__cxx1112basic_stringIcSt11char_traitsIcESaIcEEpLEc", scope: !266, file: !271, line: 1374, type: !489, scopeLine: 1374, flags: DIFlagPublic | DIFlagPrototyped, spFlags: 0)
!565 = !DISubprogram(name: "operator+=", linkageName: "_ZNSt7__cxx1112basic_stringIcSt11char_traitsIcESaIcEEpLESt16initializer_listIcE", scope: !266, file: !271, line: 1388, type: !495, scopeLine: 1388, flags: DIFlagPublic | DIFlagPrototyped, spFlags: 0)
!566 = !DISubprogram(name: "append", linkageName: "_ZNSt7__cxx1112basic_stringIcSt11char_traitsIcESaIcEE6appendERKS4_", scope: !266, file: !271, line: 1412, type: !482, scopeLine: 1412, flags: DIFlagPublic | DIFlagPrototyped, spFlags: 0)
!567 = !DISubprogram(name: "append", linkageName: "_ZNSt7__cxx1112basic_stringIcSt11char_traitsIcESaIcEE6appendERKS4_mm", scope: !266, file: !271, line: 1430, type: !568, scopeLine: 1430, flags: DIFlagPublic | DIFlagPrototyped, spFlags: 0)
!568 = !DISubroutineType(types: !569)
!569 = !{!484, !351, !441, !273, !273}
!570 = !DISubprogram(name: "append", linkageName: "_ZNSt7__cxx1112basic_stringIcSt11char_traitsIcESaIcEE6appendEPKcm", scope: !266, file: !271, line: 1443, type: !571, scopeLine: 1443, flags: DIFlagPublic | DIFlagPrototyped, spFlags: 0)
!571 = !DISubroutineType(types: !572)
!572 = !{!484, !351, !36, !273}
!573 = !DISubprogram(name: "append", linkageName: "_ZNSt7__cxx1112basic_stringIcSt11char_traitsIcESaIcEE6appendEPKc", scope: !266, file: !271, line: 1457, type: !486, scopeLine: 1457, flags: DIFlagPublic | DIFlagPrototyped, spFlags: 0)
!574 = !DISubprogram(name: "append", linkageName: "_ZNSt7__cxx1112basic_stringIcSt11char_traitsIcESaIcEE6appendEmc", scope: !266, file: !271, line: 1475, type: !575, scopeLine: 1475, flags: DIFlagPublic | DIFlagPrototyped, spFlags: 0)
!575 = !DISubroutineType(types: !576)
!576 = !{!484, !351, !273, !28}
!577 = !DISubprogram(name: "append", linkageName: "_ZNSt7__cxx1112basic_stringIcSt11char_traitsIcESaIcEE6appendESt16initializer_listIcE", scope: !266, file: !271, line: 1486, type: !495, scopeLine: 1486, flags: DIFlagPublic | DIFlagPrototyped, spFlags: 0)
!578 = !DISubprogram(name: "push_back", linkageName: "_ZNSt7__cxx1112basic_stringIcSt11char_traitsIcESaIcEE9push_backEc", scope: !266, file: !271, line: 1549, type: !579, scopeLine: 1549, flags: DIFlagPublic | DIFlagPrototyped, spFlags: 0)
!579 = !DISubroutineType(types: !580)
!580 = !{null, !351, !28}
!581 = !DISubprogram(name: "assign", linkageName: "_ZNSt7__cxx1112basic_stringIcSt11char_traitsIcESaIcEE6assignERKS4_", scope: !266, file: !271, line: 1565, type: !482, scopeLine: 1565, flags: DIFlagPublic | DIFlagPrototyped, spFlags: 0)
!582 = !DISubprogram(name: "assign", linkageName: "_ZNSt7__cxx1112basic_stringIcSt11char_traitsIcESaIcEE6assignEOS4_", scope: !266, file: !271, line: 1611, type: !492, scopeLine: 1611, flags: DIFlagPublic | DIFlagPrototyped, spFlags: 0)
!583 = !DISubprogram(name: "assign", linkageName: "_ZNSt7__cxx1112basic_stringIcSt11char_traitsIcESaIcEE6assignERKS4_mm", scope: !266, file: !271, line: 1635, type: !568, scopeLine: 1635, flags: DIFlagPublic | DIFlagPrototyped, spFlags: 0)
!584 = !DISubprogram(name: "assign", linkageName: "_ZNSt7__cxx1112basic_stringIcSt11char_traitsIcESaIcEE6assignEPKcm", scope: !266, file: !271, line: 1652, type: !571, scopeLine: 1652, flags: DIFlagPublic | DIFlagPrototyped, spFlags: 0)
!585 = !DISubprogram(name: "assign", linkageName: "_ZNSt7__cxx1112basic_stringIcSt11char_traitsIcESaIcEE6assignEPKc", scope: !266, file: !271, line: 1669, type: !486, scopeLine: 1669, flags: DIFlagPublic | DIFlagPrototyped, spFlags: 0)
!586 = !DISubprogram(name: "assign", linkageName: "_ZNSt7__cxx1112basic_stringIcSt11char_traitsIcESaIcEE6assignEmc", scope: !266, file: !271, line: 1687, type: !575, scopeLine: 1687, flags: DIFlagPublic | DIFlagPrototyped, spFlags: 0)
!587 = !DISubprogram(name: "assign", linkageName: "_ZNSt7__cxx1112basic_stringIcSt11char_traitsIcESaIcEE6assignESt16initializer_listIcE", scope: !266, file: !271, line: 1717, type: !495, scopeLine: 1717, flags: DIFlagPublic | DIFlagPrototyped, spFlags: 0)
!588 = !DISubprogram(name: "insert", linkageName: "_ZNSt7__cxx1112basic_stringIcSt11char_traitsIcESaIcEE6insertEN9__gnu_cxx17__normal_iteratorIPKcS4_EEmc", scope: !266, file: !271, line: 1774, type: !589, scopeLine: 1774, flags: DIFlagPublic | DIFlagPrototyped, spFlags: 0)
!589 = !DISubroutineType(types: !590)
!590 = !{!422, !351, !427, !273, !28}
!591 = !DISubprogram(name: "insert", linkageName: "_ZNSt7__cxx1112basic_stringIcSt11char_traitsIcESaIcEE6insertEN9__gnu_cxx17__normal_iteratorIPKcS4_EESt16initializer_listIcE", scope: !266, file: !271, line: 1854, type: !592, scopeLine: 1854, flags: DIFlagPublic | DIFlagPrototyped, spFlags: 0)
!592 = !DISubroutineType(types: !593)
!593 = !{!422, !351, !427, !472}
!594 = !DISubprogram(name: "insert", linkageName: "_ZNSt7__cxx1112basic_stringIcSt11char_traitsIcESaIcEE6insertEmRKS4_", scope: !266, file: !271, line: 1882, type: !595, scopeLine: 1882, flags: DIFlagPublic | DIFlagPrototyped, spFlags: 0)
!595 = !DISubroutineType(types: !596)
!596 = !{!484, !351, !273, !441}
!597 = !DISubprogram(name: "insert", linkageName: "_ZNSt7__cxx1112basic_stringIcSt11char_traitsIcESaIcEE6insertEmRKS4_mm", scope: !266, file: !271, line: 1906, type: !598, scopeLine: 1906, flags: DIFlagPublic | DIFlagPrototyped, spFlags: 0)
!598 = !DISubroutineType(types: !599)
!599 = !{!484, !351, !273, !441, !273, !273}
!600 = !DISubprogram(name: "insert", linkageName: "_ZNSt7__cxx1112basic_stringIcSt11char_traitsIcESaIcEE6insertEmPKcm", scope: !266, file: !271, line: 1930, type: !601, scopeLine: 1930, flags: DIFlagPublic | DIFlagPrototyped, spFlags: 0)
!601 = !DISubroutineType(types: !602)
!602 = !{!484, !351, !273, !36, !273}
!603 = !DISubprogram(name: "insert", linkageName: "_ZNSt7__cxx1112basic_stringIcSt11char_traitsIcESaIcEE6insertEmPKc", scope: !266, file: !271, line: 1950, type: !604, scopeLine: 1950, flags: DIFlagPublic | DIFlagPrototyped, spFlags: 0)
!604 = !DISubroutineType(types: !605)
!605 = !{!484, !351, !273, !36}
!606 = !DISubprogram(name: "insert", linkageName: "_ZNSt7__cxx1112basic_stringIcSt11char_traitsIcESaIcEE6insertEmmc", scope: !266, file: !271, line: 1975, type: !607, scopeLine: 1975, flags: DIFlagPublic | DIFlagPrototyped, spFlags: 0)
!607 = !DISubroutineType(types: !608)
!608 = !{!484, !351, !273, !273, !28}
!609 = !DISubprogram(name: "insert", linkageName: "_ZNSt7__cxx1112basic_stringIcSt11char_traitsIcESaIcEE6insertEN9__gnu_cxx17__normal_iteratorIPKcS4_EEc", scope: !266, file: !271, line: 1994, type: !610, scopeLine: 1994, flags: DIFlagPublic | DIFlagPrototyped, spFlags: 0)
!610 = !DISubroutineType(types: !611)
!611 = !{!422, !351, !612, !28}
!612 = !DIDerivedType(tag: DW_TAG_typedef, name: "__const_iterator", scope: !266, file: !271, line: 119, baseType: !427, flags: DIFlagProtected)
!613 = !DISubprogram(name: "erase", linkageName: "_ZNSt7__cxx1112basic_stringIcSt11char_traitsIcESaIcEE5eraseEmm", scope: !266, file: !271, line: 2057, type: !614, scopeLine: 2057, flags: DIFlagPublic | DIFlagPrototyped, spFlags: 0)
!614 = !DISubroutineType(types: !615)
!615 = !{!484, !351, !273, !273}
!616 = !DISubprogram(name: "erase", linkageName: "_ZNSt7__cxx1112basic_stringIcSt11char_traitsIcESaIcEE5eraseEN9__gnu_cxx17__normal_iteratorIPKcS4_EE", scope: !266, file: !271, line: 2077, type: !617, scopeLine: 2077, flags: DIFlagPublic | DIFlagPrototyped, spFlags: 0)
!617 = !DISubroutineType(types: !618)
!618 = !{!422, !351, !612}
!619 = !DISubprogram(name: "erase", linkageName: "_ZNSt7__cxx1112basic_stringIcSt11char_traitsIcESaIcEE5eraseEN9__gnu_cxx17__normal_iteratorIPKcS4_EES9_", scope: !266, file: !271, line: 2097, type: !620, scopeLine: 2097, flags: DIFlagPublic | DIFlagPrototyped, spFlags: 0)
!620 = !DISubroutineType(types: !621)
!621 = !{!422, !351, !612, !612}
!622 = !DISubprogram(name: "pop_back", linkageName: "_ZNSt7__cxx1112basic_stringIcSt11char_traitsIcESaIcEE8pop_backEv", scope: !266, file: !271, line: 2117, type: !383, scopeLine: 2117, flags: DIFlagPublic | DIFlagPrototyped, spFlags: 0)
!623 = !DISubprogram(name: "replace", linkageName: "_ZNSt7__cxx1112basic_stringIcSt11char_traitsIcESaIcEE7replaceEmmRKS4_", scope: !266, file: !271, line: 2143, type: !624, scopeLine: 2143, flags: DIFlagPublic | DIFlagPrototyped, spFlags: 0)
!624 = !DISubroutineType(types: !625)
!625 = !{!484, !351, !273, !273, !441}
!626 = !DISubprogram(name: "replace", linkageName: "_ZNSt7__cxx1112basic_stringIcSt11char_traitsIcESaIcEE7replaceEmmRKS4_mm", scope: !266, file: !271, line: 2166, type: !627, scopeLine: 2166, flags: DIFlagPublic | DIFlagPrototyped, spFlags: 0)
!627 = !DISubroutineType(types: !628)
!628 = !{!484, !351, !273, !273, !441, !273, !273}
!629 = !DISubprogram(name: "replace", linkageName: "_ZNSt7__cxx1112basic_stringIcSt11char_traitsIcESaIcEE7replaceEmmPKcm", scope: !266, file: !271, line: 2192, type: !630, scopeLine: 2192, flags: DIFlagPublic | DIFlagPrototyped, spFlags: 0)
!630 = !DISubroutineType(types: !631)
!631 = !{!484, !351, !273, !273, !36, !273}
!632 = !DISubprogram(name: "replace", linkageName: "_ZNSt7__cxx1112basic_stringIcSt11char_traitsIcESaIcEE7replaceEmmPKc", scope: !266, file: !271, line: 2218, type: !633, scopeLine: 2218, flags: DIFlagPublic | DIFlagPrototyped, spFlags: 0)
!633 = !DISubroutineType(types: !634)
!634 = !{!484, !351, !273, !273, !36}
!635 = !DISubprogram(name: "replace", linkageName: "_ZNSt7__cxx1112basic_stringIcSt11char_traitsIcESaIcEE7replaceEmmmc", scope: !266, file: !271, line: 2243, type: !636, scopeLine: 2243, flags: DIFlagPublic | DIFlagPrototyped, spFlags: 0)
!636 = !DISubroutineType(types: !637)
!637 = !{!484, !351, !273, !273, !273, !28}
!638 = !DISubprogram(name: "replace", linkageName: "_ZNSt7__cxx1112basic_stringIcSt11char_traitsIcESaIcEE7replaceEN9__gnu_cxx17__normal_iteratorIPKcS4_EES9_RKS4_", scope: !266, file: !271, line: 2262, type: !639, scopeLine: 2262, flags: DIFlagPublic | DIFlagPrototyped, spFlags: 0)
!639 = !DISubroutineType(types: !640)
!640 = !{!484, !351, !612, !612, !441}
!641 = !DISubprogram(name: "replace", linkageName: "_ZNSt7__cxx1112basic_stringIcSt11char_traitsIcESaIcEE7replaceEN9__gnu_cxx17__normal_iteratorIPKcS4_EES9_S8_m", scope: !266, file: !271, line: 2283, type: !642, scopeLine: 2283, flags: DIFlagPublic | DIFlagPrototyped, spFlags: 0)
!642 = !DISubroutineType(types: !643)
!643 = !{!484, !351, !612, !612, !36, !273}
!644 = !DISubprogram(name: "replace", linkageName: "_ZNSt7__cxx1112basic_stringIcSt11char_traitsIcESaIcEE7replaceEN9__gnu_cxx17__normal_iteratorIPKcS4_EES9_S8_", scope: !266, file: !271, line: 2306, type: !645, scopeLine: 2306, flags: DIFlagPublic | DIFlagPrototyped, spFlags: 0)
!645 = !DISubroutineType(types: !646)
!646 = !{!484, !351, !612, !612, !36}
!647 = !DISubprogram(name: "replace", linkageName: "_ZNSt7__cxx1112basic_stringIcSt11char_traitsIcESaIcEE7replaceEN9__gnu_cxx17__normal_iteratorIPKcS4_EES9_mc", scope: !266, file: !271, line: 2328, type: !648, scopeLine: 2328, flags: DIFlagPublic | DIFlagPrototyped, spFlags: 0)
!648 = !DISubroutineType(types: !649)
!649 = !{!484, !351, !612, !612, !273, !28}
!650 = !DISubprogram(name: "replace", linkageName: "_ZNSt7__cxx1112basic_stringIcSt11char_traitsIcESaIcEE7replaceEN9__gnu_cxx17__normal_iteratorIPKcS4_EES9_PcSA_", scope: !266, file: !271, line: 2387, type: !651, scopeLine: 2387, flags: DIFlagPublic | DIFlagPrototyped, spFlags: 0)
!651 = !DISubroutineType(types: !652)
!652 = !{!484, !351, !612, !612, !27, !27}
!653 = !DISubprogram(name: "replace", linkageName: "_ZNSt7__cxx1112basic_stringIcSt11char_traitsIcESaIcEE7replaceEN9__gnu_cxx17__normal_iteratorIPKcS4_EES9_S8_S8_", scope: !266, file: !271, line: 2399, type: !654, scopeLine: 2399, flags: DIFlagPublic | DIFlagPrototyped, spFlags: 0)
!654 = !DISubroutineType(types: !655)
!655 = !{!484, !351, !612, !612, !36, !36}
!656 = !DISubprogram(name: "replace", linkageName: "_ZNSt7__cxx1112basic_stringIcSt11char_traitsIcESaIcEE7replaceEN9__gnu_cxx17__normal_iteratorIPKcS4_EES9_NS6_IPcS4_EESB_", scope: !266, file: !271, line: 2411, type: !657, scopeLine: 2411, flags: DIFlagPublic | DIFlagPrototyped, spFlags: 0)
!657 = !DISubroutineType(types: !658)
!658 = !{!484, !351, !612, !612, !422, !422}
!659 = !DISubprogram(name: "replace", linkageName: "_ZNSt7__cxx1112basic_stringIcSt11char_traitsIcESaIcEE7replaceEN9__gnu_cxx17__normal_iteratorIPKcS4_EES9_S9_S9_", scope: !266, file: !271, line: 2423, type: !660, scopeLine: 2423, flags: DIFlagPublic | DIFlagPrototyped, spFlags: 0)
!660 = !DISubroutineType(types: !661)
!661 = !{!484, !351, !612, !612, !427, !427}
!662 = !DISubprogram(name: "replace", linkageName: "_ZNSt7__cxx1112basic_stringIcSt11char_traitsIcESaIcEE7replaceEN9__gnu_cxx17__normal_iteratorIPKcS4_EES9_St16initializer_listIcE", scope: !266, file: !271, line: 2449, type: !663, scopeLine: 2449, flags: DIFlagPublic | DIFlagPrototyped, spFlags: 0)
!663 = !DISubroutineType(types: !664)
!664 = !{!484, !351, !427, !427, !472}
!665 = !DISubprogram(name: "_M_replace_aux", linkageName: "_ZNSt7__cxx1112basic_stringIcSt11char_traitsIcESaIcEE14_M_replace_auxEmmmc", scope: !266, file: !271, line: 2529, type: !636, scopeLine: 2529, flags: DIFlagPrototyped, spFlags: 0)
!666 = !DISubprogram(name: "_M_replace_cold", linkageName: "_ZNSt7__cxx1112basic_stringIcSt11char_traitsIcESaIcEE15_M_replace_coldEPcmPKcmm", scope: !266, file: !271, line: 2533, type: !667, scopeLine: 2533, flags: DIFlagPrototyped, spFlags: 0)
!667 = !DISubroutineType(types: !668)
!668 = !{null, !351, !336, !273, !36, !272, !272}
!669 = !DISubprogram(name: "_M_replace", linkageName: "_ZNSt7__cxx1112basic_stringIcSt11char_traitsIcESaIcEE10_M_replaceEmmPKcm", scope: !266, file: !271, line: 2538, type: !670, scopeLine: 2538, flags: DIFlagPrototyped, spFlags: 0)
!670 = !DISubroutineType(types: !671)
!671 = !{!484, !351, !273, !273, !36, !272}
!672 = !DISubprogram(name: "_M_append", linkageName: "_ZNSt7__cxx1112basic_stringIcSt11char_traitsIcESaIcEE9_M_appendEPKcm", scope: !266, file: !271, line: 2543, type: !571, scopeLine: 2543, flags: DIFlagPrototyped, spFlags: 0)
!673 = !DISubprogram(name: "copy", linkageName: "_ZNKSt7__cxx1112basic_stringIcSt11char_traitsIcESaIcEE4copyEPcmm", scope: !266, file: !271, line: 2561, type: !674, scopeLine: 2561, flags: DIFlagPublic | DIFlagPrototyped, spFlags: 0)
!674 = !DISubroutineType(types: !675)
!675 = !{!273, !362, !27, !273, !273}
!676 = !DISubprogram(name: "swap", linkageName: "_ZNSt7__cxx1112basic_stringIcSt11char_traitsIcESaIcEE4swapERS4_", scope: !266, file: !271, line: 2572, type: !677, scopeLine: 2572, flags: DIFlagPublic | DIFlagPrototyped, spFlags: 0)
!677 = !DISubroutineType(types: !678)
!678 = !{null, !351, !484}
!679 = !DISubprogram(name: "c_str", linkageName: "_ZNKSt7__cxx1112basic_stringIcSt11char_traitsIcESaIcEE5c_strEv", scope: !266, file: !271, line: 2583, type: !680, scopeLine: 2583, flags: DIFlagPublic | DIFlagPrototyped, spFlags: 0)
!680 = !DISubroutineType(types: !681)
!681 = !{!36, !362}
!682 = !DISubprogram(name: "data", linkageName: "_ZNKSt7__cxx1112basic_stringIcSt11char_traitsIcESaIcEE4dataEv", scope: !266, file: !271, line: 2596, type: !680, scopeLine: 2596, flags: DIFlagPublic | DIFlagPrototyped, spFlags: 0)
!683 = !DISubprogram(name: "data", linkageName: "_ZNSt7__cxx1112basic_stringIcSt11char_traitsIcESaIcEE4dataEv", scope: !266, file: !271, line: 2608, type: !684, scopeLine: 2608, flags: DIFlagPublic | DIFlagPrototyped, spFlags: 0)
!684 = !DISubroutineType(types: !685)
!685 = !{!27, !351}
!686 = !DISubprogram(name: "get_allocator", linkageName: "_ZNKSt7__cxx1112basic_stringIcSt11char_traitsIcESaIcEE13get_allocatorEv", scope: !266, file: !271, line: 2617, type: !687, scopeLine: 2617, flags: DIFlagPublic | DIFlagPrototyped, spFlags: 0)
!687 = !DISubroutineType(types: !688)
!688 = !{!393, !362}
!689 = !DISubprogram(name: "find", linkageName: "_ZNKSt7__cxx1112basic_stringIcSt11char_traitsIcESaIcEE4findEPKcmm", scope: !266, file: !271, line: 2634, type: !690, scopeLine: 2634, flags: DIFlagPublic | DIFlagPrototyped, spFlags: 0)
!690 = !DISubroutineType(types: !691)
!691 = !{!273, !362, !36, !273, !273}
!692 = !DISubprogram(name: "find", linkageName: "_ZNKSt7__cxx1112basic_stringIcSt11char_traitsIcESaIcEE4findERKS4_m", scope: !266, file: !271, line: 2649, type: !693, scopeLine: 2649, flags: DIFlagPublic | DIFlagPrototyped, spFlags: 0)
!693 = !DISubroutineType(types: !694)
!694 = !{!273, !362, !441, !273}
!695 = !DISubprogram(name: "find", linkageName: "_ZNKSt7__cxx1112basic_stringIcSt11char_traitsIcESaIcEE4findEPKcm", scope: !266, file: !271, line: 2683, type: !696, scopeLine: 2683, flags: DIFlagPublic | DIFlagPrototyped, spFlags: 0)
!696 = !DISubroutineType(types: !697)
!697 = !{!273, !362, !36, !273}
!698 = !DISubprogram(name: "find", linkageName: "_ZNKSt7__cxx1112basic_stringIcSt11char_traitsIcESaIcEE4findEcm", scope: !266, file: !271, line: 2701, type: !699, scopeLine: 2701, flags: DIFlagPublic | DIFlagPrototyped, spFlags: 0)
!699 = !DISubroutineType(types: !700)
!700 = !{!273, !362, !28, !273}
!701 = !DISubprogram(name: "rfind", linkageName: "_ZNKSt7__cxx1112basic_stringIcSt11char_traitsIcESaIcEE5rfindERKS4_m", scope: !266, file: !271, line: 2715, type: !693, scopeLine: 2715, flags: DIFlagPublic | DIFlagPrototyped, spFlags: 0)
!702 = !DISubprogram(name: "rfind", linkageName: "_ZNKSt7__cxx1112basic_stringIcSt11char_traitsIcESaIcEE5rfindEPKcmm", scope: !266, file: !271, line: 2751, type: !690, scopeLine: 2751, flags: DIFlagPublic | DIFlagPrototyped, spFlags: 0)
!703 = !DISubprogram(name: "rfind", linkageName: "_ZNKSt7__cxx1112basic_stringIcSt11char_traitsIcESaIcEE5rfindEPKcm", scope: !266, file: !271, line: 2766, type: !696, scopeLine: 2766, flags: DIFlagPublic | DIFlagPrototyped, spFlags: 0)
!704 = !DISubprogram(name: "rfind", linkageName: "_ZNKSt7__cxx1112basic_stringIcSt11char_traitsIcESaIcEE5rfindEcm", scope: !266, file: !271, line: 2784, type: !699, scopeLine: 2784, flags: DIFlagPublic | DIFlagPrototyped, spFlags: 0)
!705 = !DISubprogram(name: "find_first_of", linkageName: "_ZNKSt7__cxx1112basic_stringIcSt11char_traitsIcESaIcEE13find_first_ofERKS4_m", scope: !266, file: !271, line: 2799, type: !693, scopeLine: 2799, flags: DIFlagPublic | DIFlagPrototyped, spFlags: 0)
!706 = !DISubprogram(name: "find_first_of", linkageName: "_ZNKSt7__cxx1112basic_stringIcSt11char_traitsIcESaIcEE13find_first_ofEPKcmm", scope: !266, file: !271, line: 2836, type: !690, scopeLine: 2836, flags: DIFlagPublic | DIFlagPrototyped, spFlags: 0)
!707 = !DISubprogram(name: "find_first_of", linkageName: "_ZNKSt7__cxx1112basic_stringIcSt11char_traitsIcESaIcEE13find_first_ofEPKcm", scope: !266, file: !271, line: 2851, type: !696, scopeLine: 2851, flags: DIFlagPublic | DIFlagPrototyped, spFlags: 0)
!708 = !DISubprogram(name: "find_first_of", linkageName: "_ZNKSt7__cxx1112basic_stringIcSt11char_traitsIcESaIcEE13find_first_ofEcm", scope: !266, file: !271, line: 2872, type: !699, scopeLine: 2872, flags: DIFlagPublic | DIFlagPrototyped, spFlags: 0)
!709 = !DISubprogram(name: "find_last_of", linkageName: "_ZNKSt7__cxx1112basic_stringIcSt11char_traitsIcESaIcEE12find_last_ofERKS4_m", scope: !266, file: !271, line: 2888, type: !693, scopeLine: 2888, flags: DIFlagPublic | DIFlagPrototyped, spFlags: 0)
!710 = !DISubprogram(name: "find_last_of", linkageName: "_ZNKSt7__cxx1112basic_stringIcSt11char_traitsIcESaIcEE12find_last_ofEPKcmm", scope: !266, file: !271, line: 2925, type: !690, scopeLine: 2925, flags: DIFlagPublic | DIFlagPrototyped, spFlags: 0)
!711 = !DISubprogram(name: "find_last_of", linkageName: "_ZNKSt7__cxx1112basic_stringIcSt11char_traitsIcESaIcEE12find_last_ofEPKcm", scope: !266, file: !271, line: 2940, type: !696, scopeLine: 2940, flags: DIFlagPublic | DIFlagPrototyped, spFlags: 0)
!712 = !DISubprogram(name: "find_last_of", linkageName: "_ZNKSt7__cxx1112basic_stringIcSt11char_traitsIcESaIcEE12find_last_ofEcm", scope: !266, file: !271, line: 2961, type: !699, scopeLine: 2961, flags: DIFlagPublic | DIFlagPrototyped, spFlags: 0)
!713 = !DISubprogram(name: "find_first_not_of", linkageName: "_ZNKSt7__cxx1112basic_stringIcSt11char_traitsIcESaIcEE17find_first_not_ofERKS4_m", scope: !266, file: !271, line: 2976, type: !693, scopeLine: 2976, flags: DIFlagPublic | DIFlagPrototyped, spFlags: 0)
!714 = !DISubprogram(name: "find_first_not_of", linkageName: "_ZNKSt7__cxx1112basic_stringIcSt11char_traitsIcESaIcEE17find_first_not_ofEPKcmm", scope: !266, file: !271, line: 3013, type: !690, scopeLine: 3013, flags: DIFlagPublic | DIFlagPrototyped, spFlags: 0)
!715 = !DISubprogram(name: "find_first_not_of", linkageName: "_ZNKSt7__cxx1112basic_stringIcSt11char_traitsIcESaIcEE17find_first_not_ofEPKcm", scope: !266, file: !271, line: 3028, type: !696, scopeLine: 3028, flags: DIFlagPublic | DIFlagPrototyped, spFlags: 0)
!716 = !DISubprogram(name: "find_first_not_of", linkageName: "_ZNKSt7__cxx1112basic_stringIcSt11char_traitsIcESaIcEE17find_first_not_ofEcm", scope: !266, file: !271, line: 3047, type: !699, scopeLine: 3047, flags: DIFlagPublic | DIFlagPrototyped, spFlags: 0)
!717 = !DISubprogram(name: "find_last_not_of", linkageName: "_ZNKSt7__cxx1112basic_stringIcSt11char_traitsIcESaIcEE16find_last_not_ofERKS4_m", scope: !266, file: !271, line: 3063, type: !693, scopeLine: 3063, flags: DIFlagPublic | DIFlagPrototyped, spFlags: 0)
!718 = !DISubprogram(name: "find_last_not_of", linkageName: "_ZNKSt7__cxx1112basic_stringIcSt11char_traitsIcESaIcEE16find_last_not_ofEPKcmm", scope: !266, file: !271, line: 3100, type: !690, scopeLine: 3100, flags: DIFlagPublic | DIFlagPrototyped, spFlags: 0)
!719 = !DISubprogram(name: "find_last_not_of", linkageName: "_ZNKSt7__cxx1112basic_stringIcSt11char_traitsIcESaIcEE16find_last_not_ofEPKcm", scope: !266, file: !271, line: 3115, type: !696, scopeLine: 3115, flags: DIFlagPublic | DIFlagPrototyped, spFlags: 0)
!720 = !DISubprogram(name: "find_last_not_of", linkageName: "_ZNKSt7__cxx1112basic_stringIcSt11char_traitsIcESaIcEE16find_last_not_ofEcm", scope: !266, file: !271, line: 3134, type: !699, scopeLine: 3134, flags: DIFlagPublic | DIFlagPrototyped, spFlags: 0)
!721 = !DISubprogram(name: "substr", linkageName: "_ZNKSt7__cxx1112basic_stringIcSt11char_traitsIcESaIcEE6substrEmm", scope: !266, file: !271, line: 3151, type: !722, scopeLine: 3151, flags: DIFlagPublic | DIFlagPrototyped, spFlags: 0)
!722 = !DISubroutineType(types: !723)
!723 = !{!266, !362, !273, !273}
!724 = !DISubprogram(name: "compare", linkageName: "_ZNKSt7__cxx1112basic_stringIcSt11char_traitsIcESaIcEE7compareERKS4_", scope: !266, file: !271, line: 3171, type: !725, scopeLine: 3171, flags: DIFlagPublic | DIFlagPrototyped, spFlags: 0)
!725 = !DISubroutineType(types: !726)
!726 = !{!161, !362, !441}
!727 = !DISubprogram(name: "compare", linkageName: "_ZNKSt7__cxx1112basic_stringIcSt11char_traitsIcESaIcEE7compareEmmRKS4_", scope: !266, file: !271, line: 3268, type: !728, scopeLine: 3268, flags: DIFlagPublic | DIFlagPrototyped, spFlags: 0)
!728 = !DISubroutineType(types: !729)
!729 = !{!161, !362, !273, !273, !441}
!730 = !DISubprogram(name: "compare", linkageName: "_ZNKSt7__cxx1112basic_stringIcSt11char_traitsIcESaIcEE7compareEmmRKS4_mm", scope: !266, file: !271, line: 3305, type: !731, scopeLine: 3305, flags: DIFlagPublic | DIFlagPrototyped, spFlags: 0)
!731 = !DISubroutineType(types: !732)
!732 = !{!161, !362, !273, !273, !441, !273, !273}
!733 = !DISubprogram(name: "compare", linkageName: "_ZNKSt7__cxx1112basic_stringIcSt11char_traitsIcESaIcEE7compareEPKc", scope: !266, file: !271, line: 3336, type: !734, scopeLine: 3336, flags: DIFlagPublic | DIFlagPrototyped, spFlags: 0)
!734 = !DISubroutineType(types: !735)
!735 = !{!161, !362, !36}
!736 = !DISubprogram(name: "compare", linkageName: "_ZNKSt7__cxx1112basic_stringIcSt11char_traitsIcESaIcEE7compareEmmPKc", scope: !266, file: !271, line: 3371, type: !737, scopeLine: 3371, flags: DIFlagPublic | DIFlagPrototyped, spFlags: 0)
!737 = !DISubroutineType(types: !738)
!738 = !{!161, !362, !273, !273, !36}
!739 = !DISubprogram(name: "compare", linkageName: "_ZNKSt7__cxx1112basic_stringIcSt11char_traitsIcESaIcEE7compareEmmPKcm", scope: !266, file: !271, line: 3410, type: !740, scopeLine: 3410, flags: DIFlagPublic | DIFlagPrototyped, spFlags: 0)
!740 = !DISubroutineType(types: !741)
!741 = !{!161, !362, !273, !273, !36, !273}
!742 = !{!213, !214, !743}
!743 = !DITemplateTypeParameter(name: "_Alloc", type: !3, defaulted: true)
!744 = !{!745, !763, !766, !771, !779, !787, !791, !798, !802, !806, !808, !810, !814, !823, !827, !833, !839, !841, !845, !849, !853, !857, !870, !872, !876, !880, !884, !886, !891, !895, !899, !901, !903, !907, !915, !919, !923, !927, !929, !935, !937, !944, !949, !953, !958, !962, !966, !970, !972, !974, !978, !982, !986, !988, !992, !996, !998, !1000, !1004, !1009, !1014, !1019, !1020, !1021, !1022, !1023, !1024, !1025, !1026, !1027, !1028, !1029, !1033, !1037, !1042, !1046, !1050, !1055, !1061, !1063, !1065, !1067, !1069, !1071, !1073, !1075, !1077, !1079, !1081, !1083, !1085, !1087, !1091, !1095, !1099, !1105, !1109, !1113, !1118, !1120, !1124, !1128, !1132, !1140, !1142, !1146, !1150, !1154, !1158, !1162, !1166, !1170, !1174, !1178, !1182, !1186, !1188, !1192, !1196, !1200, !1206, !1210, !1214, !1216, !1220, !1224, !1230, !1232, !1236, !1240, !1244, !1248, !1252, !1256, !1260, !1261, !1262, !1263, !1265, !1266, !1267, !1268, !1269, !1270, !1271, !1275, !1281, !1286, !1290, !1292, !1294, !1296, !1298, !1305, !1309, !1313, !1317, !1321, !1325, !1330, !1334, !1336, !1340, !1346, !1350, !1355, !1357, !1359, !1363, !1367, !1369, !1371, !1373, !1375, !1379, !1381, !1383, !1387, !1391, !1395, !1399, !1403, !1407, !1409, !1413, !1417, !1421, !1425, !1427, !1429, !1433, !1437, !1438, !1439, !1440, !1441, !1442, !1450, !1458, !1461, !1462, !1464, !1466, !1468, !1470, !1474, !1476, !1478, !1480, !1482, !1484, !1486, !1488, !1490, !1494, !1498, !1500, !1504}
!745 = !DIImportedEntity(tag: DW_TAG_imported_declaration, scope: !5, entity: !746, file: !762, line: 64)
!746 = !DIDerivedType(tag: DW_TAG_typedef, name: "mbstate_t", file: !747, line: 6, baseType: !748)
!747 = !DIFile(filename: "/usr/include/bits/types/mbstate_t.h", directory: "", checksumkind: CSK_MD5, checksum: "ba8742313715e20e434cf6ccb2db98e3")
!748 = !DIDerivedType(tag: DW_TAG_typedef, name: "__mbstate_t", file: !749, line: 21, baseType: !750)
!749 = !DIFile(filename: "/usr/include/bits/types/__mbstate_t.h", directory: "", checksumkind: CSK_MD5, checksum: "82911a3e689448e3691ded3e0b471a55")
!750 = distinct !DICompositeType(tag: DW_TAG_structure_type, file: !749, line: 13, size: 64, flags: DIFlagTypePassByValue, elements: !751, identifier: "_ZTS11__mbstate_t")
!751 = !{!752, !753}
!752 = !DIDerivedType(tag: DW_TAG_member, name: "__count", scope: !750, file: !749, line: 15, baseType: !161, size: 32)
!753 = !DIDerivedType(tag: DW_TAG_member, name: "__value", scope: !750, file: !749, line: 20, baseType: !754, size: 32, offset: 32)
!754 = distinct !DICompositeType(tag: DW_TAG_union_type, scope: !750, file: !749, line: 16, size: 32, flags: DIFlagTypePassByValue, elements: !755, identifier: "_ZTSN11__mbstate_tUt_E")
!755 = !{!756, !758}
!756 = !DIDerivedType(tag: DW_TAG_member, name: "__wch", scope: !754, file: !749, line: 18, baseType: !757, size: 32)
!757 = !DIBasicType(name: "unsigned int", size: 32, encoding: DW_ATE_unsigned)
!758 = !DIDerivedType(tag: DW_TAG_member, name: "__wchb", scope: !754, file: !749, line: 19, baseType: !759, size: 32)
!759 = !DICompositeType(tag: DW_TAG_array_type, baseType: !28, size: 32, elements: !760)
!760 = !{!761}
!761 = !DISubrange(count: 4)
!762 = !DIFile(filename: "/usr/bin/../lib64/gcc/x86_64-pc-linux-gnu/13.2.1/../../../../include/c++/13.2.1/cwchar", directory: "")
!763 = !DIImportedEntity(tag: DW_TAG_imported_declaration, scope: !5, entity: !764, file: !762, line: 141)
!764 = !DIDerivedType(tag: DW_TAG_typedef, name: "wint_t", file: !765, line: 20, baseType: !757)
!765 = !DIFile(filename: "/usr/include/bits/types/wint_t.h", directory: "", checksumkind: CSK_MD5, checksum: "aa31b53ef28dc23152ceb41e2763ded3")
!766 = !DIImportedEntity(tag: DW_TAG_imported_declaration, scope: !5, entity: !767, file: !762, line: 143)
!767 = !DISubprogram(name: "btowc", scope: !768, file: !768, line: 309, type: !769, flags: DIFlagPrototyped, spFlags: 0)
!768 = !DIFile(filename: "/usr/include/wchar.h", directory: "", checksumkind: CSK_MD5, checksum: "c7881b2872d88c3ed71646d8a9e91af3")
!769 = !DISubroutineType(types: !770)
!770 = !{!764, !161}
!771 = !DIImportedEntity(tag: DW_TAG_imported_declaration, scope: !5, entity: !772, file: !762, line: 144)
!772 = !DISubprogram(name: "fgetwc", scope: !768, file: !768, line: 935, type: !773, flags: DIFlagPrototyped, spFlags: 0)
!773 = !DISubroutineType(types: !774)
!774 = !{!764, !775}
!775 = !DIDerivedType(tag: DW_TAG_pointer_type, baseType: !776, size: 64)
!776 = !DIDerivedType(tag: DW_TAG_typedef, name: "__FILE", file: !777, line: 5, baseType: !778)
!777 = !DIFile(filename: "/usr/include/bits/types/__FILE.h", directory: "", checksumkind: CSK_MD5, checksum: "72a8fe90981f484acae7c6f3dfc5c2b7")
!778 = !DICompositeType(tag: DW_TAG_structure_type, name: "_IO_FILE", file: !777, line: 4, flags: DIFlagFwdDecl | DIFlagNonTrivial, identifier: "_ZTS8_IO_FILE")
!779 = !DIImportedEntity(tag: DW_TAG_imported_declaration, scope: !5, entity: !780, file: !762, line: 145)
!780 = !DISubprogram(name: "fgetws", scope: !768, file: !768, line: 964, type: !781, flags: DIFlagPrototyped, spFlags: 0)
!781 = !DISubroutineType(types: !782)
!782 = !{!783, !785, !161, !786}
!783 = !DIDerivedType(tag: DW_TAG_pointer_type, baseType: !784, size: 64)
!784 = !DIBasicType(name: "wchar_t", size: 32, encoding: DW_ATE_signed)
!785 = !DIDerivedType(tag: DW_TAG_restrict_type, baseType: !783)
!786 = !DIDerivedType(tag: DW_TAG_restrict_type, baseType: !775)
!787 = !DIImportedEntity(tag: DW_TAG_imported_declaration, scope: !5, entity: !788, file: !762, line: 146)
!788 = !DISubprogram(name: "fputwc", scope: !768, file: !768, line: 949, type: !789, flags: DIFlagPrototyped, spFlags: 0)
!789 = !DISubroutineType(types: !790)
!790 = !{!764, !784, !775}
!791 = !DIImportedEntity(tag: DW_TAG_imported_declaration, scope: !5, entity: !792, file: !762, line: 147)
!792 = !DISubprogram(name: "fputws", scope: !768, file: !768, line: 971, type: !793, flags: DIFlagPrototyped, spFlags: 0)
!793 = !DISubroutineType(types: !794)
!794 = !{!161, !795, !786}
!795 = !DIDerivedType(tag: DW_TAG_restrict_type, baseType: !796)
!796 = !DIDerivedType(tag: DW_TAG_pointer_type, baseType: !797, size: 64)
!797 = !DIDerivedType(tag: DW_TAG_const_type, baseType: !784)
!798 = !DIImportedEntity(tag: DW_TAG_imported_declaration, scope: !5, entity: !799, file: !762, line: 148)
!799 = !DISubprogram(name: "fwide", scope: !768, file: !768, line: 725, type: !800, flags: DIFlagPrototyped, spFlags: 0)
!800 = !DISubroutineType(types: !801)
!801 = !{!161, !775, !161}
!802 = !DIImportedEntity(tag: DW_TAG_imported_declaration, scope: !5, entity: !803, file: !762, line: 149)
!803 = !DISubprogram(name: "fwprintf", scope: !768, file: !768, line: 732, type: !804, flags: DIFlagPrototyped, spFlags: 0)
!804 = !DISubroutineType(types: !805)
!805 = !{!161, !786, !795, null}
!806 = !DIImportedEntity(tag: DW_TAG_imported_declaration, scope: !5, entity: !807, file: !762, line: 150)
!807 = !DISubprogram(name: "fwscanf", linkageName: "__isoc23_fwscanf", scope: !768, file: !768, line: 795, type: !804, flags: DIFlagPrototyped, spFlags: 0)
!808 = !DIImportedEntity(tag: DW_TAG_imported_declaration, scope: !5, entity: !809, file: !762, line: 151)
!809 = !DISubprogram(name: "getwc", scope: !768, file: !768, line: 936, type: !773, flags: DIFlagPrototyped, spFlags: 0)
!810 = !DIImportedEntity(tag: DW_TAG_imported_declaration, scope: !5, entity: !811, file: !762, line: 152)
!811 = !DISubprogram(name: "getwchar", scope: !768, file: !768, line: 942, type: !812, flags: DIFlagPrototyped, spFlags: 0)
!812 = !DISubroutineType(types: !813)
!813 = !{!764}
!814 = !DIImportedEntity(tag: DW_TAG_imported_declaration, scope: !5, entity: !815, file: !762, line: 153)
!815 = !DISubprogram(name: "mbrlen", scope: !768, file: !768, line: 332, type: !816, flags: DIFlagPrototyped, spFlags: 0)
!816 = !DISubroutineType(types: !817)
!817 = !{!818, !820, !818, !821}
!818 = !DIDerivedType(tag: DW_TAG_typedef, name: "size_t", file: !819, line: 46, baseType: !46)
!819 = !DIFile(filename: "/usr/lib/clang/16/include/stddef.h", directory: "", checksumkind: CSK_MD5, checksum: "f95079da609b0e8f201cb8136304bf3b")
!820 = !DIDerivedType(tag: DW_TAG_restrict_type, baseType: !36)
!821 = !DIDerivedType(tag: DW_TAG_restrict_type, baseType: !822)
!822 = !DIDerivedType(tag: DW_TAG_pointer_type, baseType: !746, size: 64)
!823 = !DIImportedEntity(tag: DW_TAG_imported_declaration, scope: !5, entity: !824, file: !762, line: 154)
!824 = !DISubprogram(name: "mbrtowc", scope: !768, file: !768, line: 321, type: !825, flags: DIFlagPrototyped, spFlags: 0)
!825 = !DISubroutineType(types: !826)
!826 = !{!818, !785, !820, !818, !821}
!827 = !DIImportedEntity(tag: DW_TAG_imported_declaration, scope: !5, entity: !828, file: !762, line: 155)
!828 = !DISubprogram(name: "mbsinit", scope: !768, file: !768, line: 317, type: !829, flags: DIFlagPrototyped, spFlags: 0)
!829 = !DISubroutineType(types: !830)
!830 = !{!161, !831}
!831 = !DIDerivedType(tag: DW_TAG_pointer_type, baseType: !832, size: 64)
!832 = !DIDerivedType(tag: DW_TAG_const_type, baseType: !746)
!833 = !DIImportedEntity(tag: DW_TAG_imported_declaration, scope: !5, entity: !834, file: !762, line: 156)
!834 = !DISubprogram(name: "mbsrtowcs", scope: !768, file: !768, line: 362, type: !835, flags: DIFlagPrototyped, spFlags: 0)
!835 = !DISubroutineType(types: !836)
!836 = !{!818, !785, !837, !818, !821}
!837 = !DIDerivedType(tag: DW_TAG_restrict_type, baseType: !838)
!838 = !DIDerivedType(tag: DW_TAG_pointer_type, baseType: !36, size: 64)
!839 = !DIImportedEntity(tag: DW_TAG_imported_declaration, scope: !5, entity: !840, file: !762, line: 157)
!840 = !DISubprogram(name: "putwc", scope: !768, file: !768, line: 950, type: !789, flags: DIFlagPrototyped, spFlags: 0)
!841 = !DIImportedEntity(tag: DW_TAG_imported_declaration, scope: !5, entity: !842, file: !762, line: 158)
!842 = !DISubprogram(name: "putwchar", scope: !768, file: !768, line: 956, type: !843, flags: DIFlagPrototyped, spFlags: 0)
!843 = !DISubroutineType(types: !844)
!844 = !{!764, !784}
!845 = !DIImportedEntity(tag: DW_TAG_imported_declaration, scope: !5, entity: !846, file: !762, line: 160)
!846 = !DISubprogram(name: "swprintf", scope: !768, file: !768, line: 742, type: !847, flags: DIFlagPrototyped, spFlags: 0)
!847 = !DISubroutineType(types: !848)
!848 = !{!161, !785, !818, !795, null}
!849 = !DIImportedEntity(tag: DW_TAG_imported_declaration, scope: !5, entity: !850, file: !762, line: 162)
!850 = !DISubprogram(name: "swscanf", linkageName: "__isoc23_swscanf", scope: !768, file: !768, line: 802, type: !851, flags: DIFlagPrototyped, spFlags: 0)
!851 = !DISubroutineType(types: !852)
!852 = !{!161, !795, !795, null}
!853 = !DIImportedEntity(tag: DW_TAG_imported_declaration, scope: !5, entity: !854, file: !762, line: 163)
!854 = !DISubprogram(name: "ungetwc", scope: !768, file: !768, line: 979, type: !855, flags: DIFlagPrototyped, spFlags: 0)
!855 = !DISubroutineType(types: !856)
!856 = !{!764, !764, !775}
!857 = !DIImportedEntity(tag: DW_TAG_imported_declaration, scope: !5, entity: !858, file: !762, line: 164)
!858 = !DISubprogram(name: "vfwprintf", scope: !768, file: !768, line: 750, type: !859, flags: DIFlagPrototyped, spFlags: 0)
!859 = !DISubroutineType(types: !860)
!860 = !{!161, !786, !795, !861}
!861 = !DIDerivedType(tag: DW_TAG_pointer_type, baseType: !862, size: 64)
!862 = distinct !DICompositeType(tag: DW_TAG_structure_type, name: "__va_list_tag", size: 192, flags: DIFlagTypePassByValue, elements: !863, identifier: "_ZTS13__va_list_tag")
!863 = !{!864, !866, !867, !869}
!864 = !DIDerivedType(tag: DW_TAG_member, name: "gp_offset", scope: !862, file: !865, baseType: !757, size: 32)
!865 = !DIFile(filename: "cpp/string.cpp", directory: "/home/kai/src/ll2x")
!866 = !DIDerivedType(tag: DW_TAG_member, name: "fp_offset", scope: !862, file: !865, baseType: !757, size: 32, offset: 32)
!867 = !DIDerivedType(tag: DW_TAG_member, name: "overflow_arg_area", scope: !862, file: !865, baseType: !868, size: 64, offset: 64)
!868 = !DIDerivedType(tag: DW_TAG_pointer_type, baseType: null, size: 64)
!869 = !DIDerivedType(tag: DW_TAG_member, name: "reg_save_area", scope: !862, file: !865, baseType: !868, size: 64, offset: 128)
!870 = !DIImportedEntity(tag: DW_TAG_imported_declaration, scope: !5, entity: !871, file: !762, line: 166)
!871 = !DISubprogram(name: "vfwscanf", linkageName: "__isoc23_vfwscanf", scope: !768, file: !768, line: 875, type: !859, flags: DIFlagPrototyped, spFlags: 0)
!872 = !DIImportedEntity(tag: DW_TAG_imported_declaration, scope: !5, entity: !873, file: !762, line: 169)
!873 = !DISubprogram(name: "vswprintf", scope: !768, file: !768, line: 763, type: !874, flags: DIFlagPrototyped, spFlags: 0)
!874 = !DISubroutineType(types: !875)
!875 = !{!161, !785, !818, !795, !861}
!876 = !DIImportedEntity(tag: DW_TAG_imported_declaration, scope: !5, entity: !877, file: !762, line: 172)
!877 = !DISubprogram(name: "vswscanf", linkageName: "__isoc23_vswscanf", scope: !768, file: !768, line: 882, type: !878, flags: DIFlagPrototyped, spFlags: 0)
!878 = !DISubroutineType(types: !879)
!879 = !{!161, !795, !795, !861}
!880 = !DIImportedEntity(tag: DW_TAG_imported_declaration, scope: !5, entity: !881, file: !762, line: 174)
!881 = !DISubprogram(name: "vwprintf", scope: !768, file: !768, line: 758, type: !882, flags: DIFlagPrototyped, spFlags: 0)
!882 = !DISubroutineType(types: !883)
!883 = !{!161, !795, !861}
!884 = !DIImportedEntity(tag: DW_TAG_imported_declaration, scope: !5, entity: !885, file: !762, line: 176)
!885 = !DISubprogram(name: "vwscanf", linkageName: "__isoc23_vwscanf", scope: !768, file: !768, line: 879, type: !882, flags: DIFlagPrototyped, spFlags: 0)
!886 = !DIImportedEntity(tag: DW_TAG_imported_declaration, scope: !5, entity: !887, file: !762, line: 178)
!887 = !DISubprogram(name: "wcrtomb", scope: !768, file: !768, line: 326, type: !888, flags: DIFlagPrototyped, spFlags: 0)
!888 = !DISubroutineType(types: !889)
!889 = !{!818, !890, !784, !821}
!890 = !DIDerivedType(tag: DW_TAG_restrict_type, baseType: !27)
!891 = !DIImportedEntity(tag: DW_TAG_imported_declaration, scope: !5, entity: !892, file: !762, line: 179)
!892 = !DISubprogram(name: "wcscat", scope: !768, file: !768, line: 121, type: !893, flags: DIFlagPrototyped, spFlags: 0)
!893 = !DISubroutineType(types: !894)
!894 = !{!783, !785, !795}
!895 = !DIImportedEntity(tag: DW_TAG_imported_declaration, scope: !5, entity: !896, file: !762, line: 180)
!896 = !DISubprogram(name: "wcscmp", scope: !768, file: !768, line: 130, type: !897, flags: DIFlagPrototyped, spFlags: 0)
!897 = !DISubroutineType(types: !898)
!898 = !{!161, !796, !796}
!899 = !DIImportedEntity(tag: DW_TAG_imported_declaration, scope: !5, entity: !900, file: !762, line: 181)
!900 = !DISubprogram(name: "wcscoll", scope: !768, file: !768, line: 155, type: !897, flags: DIFlagPrototyped, spFlags: 0)
!901 = !DIImportedEntity(tag: DW_TAG_imported_declaration, scope: !5, entity: !902, file: !762, line: 182)
!902 = !DISubprogram(name: "wcscpy", scope: !768, file: !768, line: 98, type: !893, flags: DIFlagPrototyped, spFlags: 0)
!903 = !DIImportedEntity(tag: DW_TAG_imported_declaration, scope: !5, entity: !904, file: !762, line: 183)
!904 = !DISubprogram(name: "wcscspn", scope: !768, file: !768, line: 212, type: !905, flags: DIFlagPrototyped, spFlags: 0)
!905 = !DISubroutineType(types: !906)
!906 = !{!818, !796, !796}
!907 = !DIImportedEntity(tag: DW_TAG_imported_declaration, scope: !5, entity: !908, file: !762, line: 184)
!908 = !DISubprogram(name: "wcsftime", scope: !768, file: !768, line: 1043, type: !909, flags: DIFlagPrototyped, spFlags: 0)
!909 = !DISubroutineType(types: !910)
!910 = !{!818, !785, !818, !795, !911}
!911 = !DIDerivedType(tag: DW_TAG_restrict_type, baseType: !912)
!912 = !DIDerivedType(tag: DW_TAG_pointer_type, baseType: !913, size: 64)
!913 = !DIDerivedType(tag: DW_TAG_const_type, baseType: !914)
!914 = !DICompositeType(tag: DW_TAG_structure_type, name: "tm", file: !768, line: 94, flags: DIFlagFwdDecl | DIFlagNonTrivial, identifier: "_ZTS2tm")
!915 = !DIImportedEntity(tag: DW_TAG_imported_declaration, scope: !5, entity: !916, file: !762, line: 185)
!916 = !DISubprogram(name: "wcslen", scope: !768, file: !768, line: 247, type: !917, flags: DIFlagPrototyped, spFlags: 0)
!917 = !DISubroutineType(types: !918)
!918 = !{!818, !796}
!919 = !DIImportedEntity(tag: DW_TAG_imported_declaration, scope: !5, entity: !920, file: !762, line: 186)
!920 = !DISubprogram(name: "wcsncat", scope: !768, file: !768, line: 125, type: !921, flags: DIFlagPrototyped, spFlags: 0)
!921 = !DISubroutineType(types: !922)
!922 = !{!783, !785, !795, !818}
!923 = !DIImportedEntity(tag: DW_TAG_imported_declaration, scope: !5, entity: !924, file: !762, line: 187)
!924 = !DISubprogram(name: "wcsncmp", scope: !768, file: !768, line: 133, type: !925, flags: DIFlagPrototyped, spFlags: 0)
!925 = !DISubroutineType(types: !926)
!926 = !{!161, !796, !796, !818}
!927 = !DIImportedEntity(tag: DW_TAG_imported_declaration, scope: !5, entity: !928, file: !762, line: 188)
!928 = !DISubprogram(name: "wcsncpy", scope: !768, file: !768, line: 103, type: !921, flags: DIFlagPrototyped, spFlags: 0)
!929 = !DIImportedEntity(tag: DW_TAG_imported_declaration, scope: !5, entity: !930, file: !762, line: 189)
!930 = !DISubprogram(name: "wcsrtombs", scope: !768, file: !768, line: 368, type: !931, flags: DIFlagPrototyped, spFlags: 0)
!931 = !DISubroutineType(types: !932)
!932 = !{!818, !890, !933, !818, !821}
!933 = !DIDerivedType(tag: DW_TAG_restrict_type, baseType: !934)
!934 = !DIDerivedType(tag: DW_TAG_pointer_type, baseType: !796, size: 64)
!935 = !DIImportedEntity(tag: DW_TAG_imported_declaration, scope: !5, entity: !936, file: !762, line: 190)
!936 = !DISubprogram(name: "wcsspn", scope: !768, file: !768, line: 216, type: !905, flags: DIFlagPrototyped, spFlags: 0)
!937 = !DIImportedEntity(tag: DW_TAG_imported_declaration, scope: !5, entity: !938, file: !762, line: 191)
!938 = !DISubprogram(name: "wcstod", scope: !768, file: !768, line: 402, type: !939, flags: DIFlagPrototyped, spFlags: 0)
!939 = !DISubroutineType(types: !940)
!940 = !{!941, !795, !942}
!941 = !DIBasicType(name: "double", size: 64, encoding: DW_ATE_float)
!942 = !DIDerivedType(tag: DW_TAG_restrict_type, baseType: !943)
!943 = !DIDerivedType(tag: DW_TAG_pointer_type, baseType: !783, size: 64)
!944 = !DIImportedEntity(tag: DW_TAG_imported_declaration, scope: !5, entity: !945, file: !762, line: 193)
!945 = !DISubprogram(name: "wcstof", scope: !768, file: !768, line: 407, type: !946, flags: DIFlagPrototyped, spFlags: 0)
!946 = !DISubroutineType(types: !947)
!947 = !{!948, !795, !942}
!948 = !DIBasicType(name: "float", size: 32, encoding: DW_ATE_float)
!949 = !DIImportedEntity(tag: DW_TAG_imported_declaration, scope: !5, entity: !950, file: !762, line: 195)
!950 = !DISubprogram(name: "wcstok", scope: !768, file: !768, line: 242, type: !951, flags: DIFlagPrototyped, spFlags: 0)
!951 = !DISubroutineType(types: !952)
!952 = !{!783, !785, !795, !942}
!953 = !DIImportedEntity(tag: DW_TAG_imported_declaration, scope: !5, entity: !954, file: !762, line: 196)
!954 = !DISubprogram(name: "wcstol", linkageName: "__isoc23_wcstol", scope: !768, file: !768, line: 500, type: !955, flags: DIFlagPrototyped, spFlags: 0)
!955 = !DISubroutineType(types: !956)
!956 = !{!957, !795, !942, !161}
!957 = !DIBasicType(name: "long", size: 64, encoding: DW_ATE_signed)
!958 = !DIImportedEntity(tag: DW_TAG_imported_declaration, scope: !5, entity: !959, file: !762, line: 197)
!959 = !DISubprogram(name: "wcstoul", linkageName: "__isoc23_wcstoul", scope: !768, file: !768, line: 503, type: !960, flags: DIFlagPrototyped, spFlags: 0)
!960 = !DISubroutineType(types: !961)
!961 = !{!46, !795, !942, !161}
!962 = !DIImportedEntity(tag: DW_TAG_imported_declaration, scope: !5, entity: !963, file: !762, line: 198)
!963 = !DISubprogram(name: "wcsxfrm", scope: !768, file: !768, line: 159, type: !964, flags: DIFlagPrototyped, spFlags: 0)
!964 = !DISubroutineType(types: !965)
!965 = !{!818, !785, !795, !818}
!966 = !DIImportedEntity(tag: DW_TAG_imported_declaration, scope: !5, entity: !967, file: !762, line: 199)
!967 = !DISubprogram(name: "wctob", scope: !768, file: !768, line: 313, type: !968, flags: DIFlagPrototyped, spFlags: 0)
!968 = !DISubroutineType(types: !969)
!969 = !{!161, !764}
!970 = !DIImportedEntity(tag: DW_TAG_imported_declaration, scope: !5, entity: !971, file: !762, line: 200)
!971 = !DISubprogram(name: "wmemcmp", scope: !768, file: !768, line: 283, type: !925, flags: DIFlagPrototyped, spFlags: 0)
!972 = !DIImportedEntity(tag: DW_TAG_imported_declaration, scope: !5, entity: !973, file: !762, line: 201)
!973 = !DISubprogram(name: "wmemcpy", scope: !768, file: !768, line: 287, type: !921, flags: DIFlagPrototyped, spFlags: 0)
!974 = !DIImportedEntity(tag: DW_TAG_imported_declaration, scope: !5, entity: !975, file: !762, line: 202)
!975 = !DISubprogram(name: "wmemmove", scope: !768, file: !768, line: 292, type: !976, flags: DIFlagPrototyped, spFlags: 0)
!976 = !DISubroutineType(types: !977)
!977 = !{!783, !783, !796, !818}
!978 = !DIImportedEntity(tag: DW_TAG_imported_declaration, scope: !5, entity: !979, file: !762, line: 203)
!979 = !DISubprogram(name: "wmemset", scope: !768, file: !768, line: 296, type: !980, flags: DIFlagPrototyped, spFlags: 0)
!980 = !DISubroutineType(types: !981)
!981 = !{!783, !783, !784, !818}
!982 = !DIImportedEntity(tag: DW_TAG_imported_declaration, scope: !5, entity: !983, file: !762, line: 204)
!983 = !DISubprogram(name: "wprintf", scope: !768, file: !768, line: 739, type: !984, flags: DIFlagPrototyped, spFlags: 0)
!984 = !DISubroutineType(types: !985)
!985 = !{!161, !795, null}
!986 = !DIImportedEntity(tag: DW_TAG_imported_declaration, scope: !5, entity: !987, file: !762, line: 205)
!987 = !DISubprogram(name: "wscanf", linkageName: "__isoc23_wscanf", scope: !768, file: !768, line: 799, type: !984, flags: DIFlagPrototyped, spFlags: 0)
!988 = !DIImportedEntity(tag: DW_TAG_imported_declaration, scope: !5, entity: !989, file: !762, line: 206)
!989 = !DISubprogram(name: "wcschr", scope: !768, file: !768, line: 189, type: !990, flags: DIFlagPrototyped, spFlags: 0)
!990 = !DISubroutineType(types: !991)
!991 = !{!783, !796, !784}
!992 = !DIImportedEntity(tag: DW_TAG_imported_declaration, scope: !5, entity: !993, file: !762, line: 207)
!993 = !DISubprogram(name: "wcspbrk", scope: !768, file: !768, line: 226, type: !994, flags: DIFlagPrototyped, spFlags: 0)
!994 = !DISubroutineType(types: !995)
!995 = !{!783, !796, !796}
!996 = !DIImportedEntity(tag: DW_TAG_imported_declaration, scope: !5, entity: !997, file: !762, line: 208)
!997 = !DISubprogram(name: "wcsrchr", scope: !768, file: !768, line: 199, type: !990, flags: DIFlagPrototyped, spFlags: 0)
!998 = !DIImportedEntity(tag: DW_TAG_imported_declaration, scope: !5, entity: !999, file: !762, line: 209)
!999 = !DISubprogram(name: "wcsstr", scope: !768, file: !768, line: 237, type: !994, flags: DIFlagPrototyped, spFlags: 0)
!1000 = !DIImportedEntity(tag: DW_TAG_imported_declaration, scope: !5, entity: !1001, file: !762, line: 210)
!1001 = !DISubprogram(name: "wmemchr", scope: !768, file: !768, line: 278, type: !1002, flags: DIFlagPrototyped, spFlags: 0)
!1002 = !DISubroutineType(types: !1003)
!1003 = !{!783, !796, !784, !818}
!1004 = !DIImportedEntity(tag: DW_TAG_imported_declaration, scope: !277, entity: !1005, file: !762, line: 251)
!1005 = !DISubprogram(name: "wcstold", scope: !768, file: !768, line: 409, type: !1006, flags: DIFlagPrototyped, spFlags: 0)
!1006 = !DISubroutineType(types: !1007)
!1007 = !{!1008, !795, !942}
!1008 = !DIBasicType(name: "long double", size: 128, encoding: DW_ATE_float)
!1009 = !DIImportedEntity(tag: DW_TAG_imported_declaration, scope: !277, entity: !1010, file: !762, line: 260)
!1010 = !DISubprogram(name: "wcstoll", linkageName: "__isoc23_wcstoll", scope: !768, file: !768, line: 508, type: !1011, flags: DIFlagPrototyped, spFlags: 0)
!1011 = !DISubroutineType(types: !1012)
!1012 = !{!1013, !795, !942, !161}
!1013 = !DIBasicType(name: "long long", size: 64, encoding: DW_ATE_signed)
!1014 = !DIImportedEntity(tag: DW_TAG_imported_declaration, scope: !277, entity: !1015, file: !762, line: 261)
!1015 = !DISubprogram(name: "wcstoull", linkageName: "__isoc23_wcstoull", scope: !768, file: !768, line: 513, type: !1016, flags: DIFlagPrototyped, spFlags: 0)
!1016 = !DISubroutineType(types: !1017)
!1017 = !{!1018, !795, !942, !161}
!1018 = !DIBasicType(name: "unsigned long long", size: 64, encoding: DW_ATE_unsigned)
!1019 = !DIImportedEntity(tag: DW_TAG_imported_declaration, scope: !5, entity: !1005, file: !762, line: 267)
!1020 = !DIImportedEntity(tag: DW_TAG_imported_declaration, scope: !5, entity: !1010, file: !762, line: 268)
!1021 = !DIImportedEntity(tag: DW_TAG_imported_declaration, scope: !5, entity: !1015, file: !762, line: 269)
!1022 = !DIImportedEntity(tag: DW_TAG_imported_declaration, scope: !5, entity: !945, file: !762, line: 283)
!1023 = !DIImportedEntity(tag: DW_TAG_imported_declaration, scope: !5, entity: !871, file: !762, line: 286)
!1024 = !DIImportedEntity(tag: DW_TAG_imported_declaration, scope: !5, entity: !877, file: !762, line: 289)
!1025 = !DIImportedEntity(tag: DW_TAG_imported_declaration, scope: !5, entity: !885, file: !762, line: 292)
!1026 = !DIImportedEntity(tag: DW_TAG_imported_declaration, scope: !5, entity: !1005, file: !762, line: 296)
!1027 = !DIImportedEntity(tag: DW_TAG_imported_declaration, scope: !5, entity: !1010, file: !762, line: 297)
!1028 = !DIImportedEntity(tag: DW_TAG_imported_declaration, scope: !5, entity: !1015, file: !762, line: 298)
!1029 = !DIImportedEntity(tag: DW_TAG_imported_declaration, scope: !5, entity: !1030, file: !1031, line: 66)
!1030 = !DICompositeType(tag: DW_TAG_class_type, name: "exception_ptr", scope: !1032, file: !1031, line: 97, size: 64, flags: DIFlagFwdDecl | DIFlagNonTrivial, identifier: "_ZTSNSt15__exception_ptr13exception_ptrE")
!1031 = !DIFile(filename: "/usr/bin/../lib64/gcc/x86_64-pc-linux-gnu/13.2.1/../../../../include/c++/13.2.1/bits/exception_ptr.h", directory: "", checksumkind: CSK_MD5, checksum: "314ad14748ccb9ff85c65d17ebb0828b")
!1032 = !DINamespace(name: "__exception_ptr", scope: !5)
!1033 = !DIImportedEntity(tag: DW_TAG_imported_declaration, scope: !1032, entity: !1034, file: !1031, line: 85)
!1034 = !DISubprogram(name: "rethrow_exception", linkageName: "_ZSt17rethrow_exceptionNSt15__exception_ptr13exception_ptrE", scope: !5, file: !1031, line: 81, type: !1035, flags: DIFlagPrototyped | DIFlagNoReturn, spFlags: 0)
!1035 = !DISubroutineType(types: !1036)
!1036 = !{null, !1030}
!1037 = !DIImportedEntity(tag: DW_TAG_imported_declaration, scope: !5, entity: !1038, file: !1031, line: 243)
!1038 = !DISubprogram(name: "swap", linkageName: "_ZNSt15__exception_ptr4swapERNS_13exception_ptrES1_", scope: !1032, file: !1031, line: 230, type: !1039, flags: DIFlagPrototyped, spFlags: 0)
!1039 = !DISubroutineType(types: !1040)
!1040 = !{null, !1041, !1041}
!1041 = !DIDerivedType(tag: DW_TAG_reference_type, baseType: !1030, size: 64)
!1042 = !DIImportedEntity(tag: DW_TAG_imported_declaration, scope: !5, entity: !1043, file: !1045, line: 53)
!1043 = !DICompositeType(tag: DW_TAG_structure_type, name: "lconv", file: !1044, line: 51, size: 768, flags: DIFlagFwdDecl, identifier: "_ZTS5lconv")
!1044 = !DIFile(filename: "/usr/include/locale.h", directory: "", checksumkind: CSK_MD5, checksum: "9fdf0d24f6e4cc61619b5e3258456dbf")
!1045 = !DIFile(filename: "/usr/bin/../lib64/gcc/x86_64-pc-linux-gnu/13.2.1/../../../../include/c++/13.2.1/clocale", directory: "")
!1046 = !DIImportedEntity(tag: DW_TAG_imported_declaration, scope: !5, entity: !1047, file: !1045, line: 54)
!1047 = !DISubprogram(name: "setlocale", scope: !1044, file: !1044, line: 122, type: !1048, flags: DIFlagPrototyped, spFlags: 0)
!1048 = !DISubroutineType(types: !1049)
!1049 = !{!27, !161, !36}
!1050 = !DIImportedEntity(tag: DW_TAG_imported_declaration, scope: !5, entity: !1051, file: !1045, line: 55)
!1051 = !DISubprogram(name: "localeconv", scope: !1044, file: !1044, line: 125, type: !1052, flags: DIFlagPrototyped, spFlags: 0)
!1052 = !DISubroutineType(types: !1053)
!1053 = !{!1054}
!1054 = !DIDerivedType(tag: DW_TAG_pointer_type, baseType: !1043, size: 64)
!1055 = !DIImportedEntity(tag: DW_TAG_imported_declaration, scope: !5, entity: !1056, file: !1060, line: 64)
!1056 = !DISubprogram(name: "isalnum", scope: !1057, file: !1057, line: 108, type: !1058, flags: DIFlagPrototyped, spFlags: 0)
!1057 = !DIFile(filename: "/usr/include/ctype.h", directory: "", checksumkind: CSK_MD5, checksum: "04aab4fba8cc4c824a8f09075cc98b20")
!1058 = !DISubroutineType(types: !1059)
!1059 = !{!161, !161}
!1060 = !DIFile(filename: "/usr/bin/../lib64/gcc/x86_64-pc-linux-gnu/13.2.1/../../../../include/c++/13.2.1/cctype", directory: "")
!1061 = !DIImportedEntity(tag: DW_TAG_imported_declaration, scope: !5, entity: !1062, file: !1060, line: 65)
!1062 = !DISubprogram(name: "isalpha", scope: !1057, file: !1057, line: 109, type: !1058, flags: DIFlagPrototyped, spFlags: 0)
!1063 = !DIImportedEntity(tag: DW_TAG_imported_declaration, scope: !5, entity: !1064, file: !1060, line: 66)
!1064 = !DISubprogram(name: "iscntrl", scope: !1057, file: !1057, line: 110, type: !1058, flags: DIFlagPrototyped, spFlags: 0)
!1065 = !DIImportedEntity(tag: DW_TAG_imported_declaration, scope: !5, entity: !1066, file: !1060, line: 67)
!1066 = !DISubprogram(name: "isdigit", scope: !1057, file: !1057, line: 111, type: !1058, flags: DIFlagPrototyped, spFlags: 0)
!1067 = !DIImportedEntity(tag: DW_TAG_imported_declaration, scope: !5, entity: !1068, file: !1060, line: 68)
!1068 = !DISubprogram(name: "isgraph", scope: !1057, file: !1057, line: 113, type: !1058, flags: DIFlagPrototyped, spFlags: 0)
!1069 = !DIImportedEntity(tag: DW_TAG_imported_declaration, scope: !5, entity: !1070, file: !1060, line: 69)
!1070 = !DISubprogram(name: "islower", scope: !1057, file: !1057, line: 112, type: !1058, flags: DIFlagPrototyped, spFlags: 0)
!1071 = !DIImportedEntity(tag: DW_TAG_imported_declaration, scope: !5, entity: !1072, file: !1060, line: 70)
!1072 = !DISubprogram(name: "isprint", scope: !1057, file: !1057, line: 114, type: !1058, flags: DIFlagPrototyped, spFlags: 0)
!1073 = !DIImportedEntity(tag: DW_TAG_imported_declaration, scope: !5, entity: !1074, file: !1060, line: 71)
!1074 = !DISubprogram(name: "ispunct", scope: !1057, file: !1057, line: 115, type: !1058, flags: DIFlagPrototyped, spFlags: 0)
!1075 = !DIImportedEntity(tag: DW_TAG_imported_declaration, scope: !5, entity: !1076, file: !1060, line: 72)
!1076 = !DISubprogram(name: "isspace", scope: !1057, file: !1057, line: 116, type: !1058, flags: DIFlagPrototyped, spFlags: 0)
!1077 = !DIImportedEntity(tag: DW_TAG_imported_declaration, scope: !5, entity: !1078, file: !1060, line: 73)
!1078 = !DISubprogram(name: "isupper", scope: !1057, file: !1057, line: 117, type: !1058, flags: DIFlagPrototyped, spFlags: 0)
!1079 = !DIImportedEntity(tag: DW_TAG_imported_declaration, scope: !5, entity: !1080, file: !1060, line: 74)
!1080 = !DISubprogram(name: "isxdigit", scope: !1057, file: !1057, line: 118, type: !1058, flags: DIFlagPrototyped, spFlags: 0)
!1081 = !DIImportedEntity(tag: DW_TAG_imported_declaration, scope: !5, entity: !1082, file: !1060, line: 75)
!1082 = !DISubprogram(name: "tolower", scope: !1057, file: !1057, line: 122, type: !1058, flags: DIFlagPrototyped, spFlags: 0)
!1083 = !DIImportedEntity(tag: DW_TAG_imported_declaration, scope: !5, entity: !1084, file: !1060, line: 76)
!1084 = !DISubprogram(name: "toupper", scope: !1057, file: !1057, line: 125, type: !1058, flags: DIFlagPrototyped, spFlags: 0)
!1085 = !DIImportedEntity(tag: DW_TAG_imported_declaration, scope: !5, entity: !1086, file: !1060, line: 87)
!1086 = !DISubprogram(name: "isblank", scope: !1057, file: !1057, line: 130, type: !1058, flags: DIFlagPrototyped, spFlags: 0)
!1087 = !DIImportedEntity(tag: DW_TAG_imported_module, scope: !1088, entity: !1089, file: !1090, line: 58)
!1088 = !DINamespace(name: "__gnu_debug", scope: null)
!1089 = !DINamespace(name: "__debug", scope: !5)
!1090 = !DIFile(filename: "/usr/bin/../lib64/gcc/x86_64-pc-linux-gnu/13.2.1/../../../../include/c++/13.2.1/debug/debug.h", directory: "", checksumkind: CSK_MD5, checksum: "752210a319f5f5d356cc29cd1ce3cdc7")
!1091 = !DIImportedEntity(tag: DW_TAG_imported_declaration, scope: !5, entity: !1092, file: !1094, line: 52)
!1092 = !DISubprogram(name: "abs", scope: !1093, file: !1093, line: 980, type: !1058, flags: DIFlagPrototyped, spFlags: 0)
!1093 = !DIFile(filename: "/usr/include/stdlib.h", directory: "", checksumkind: CSK_MD5, checksum: "761a239547e58b18c7327eb395f5cc1f")
!1094 = !DIFile(filename: "/usr/bin/../lib64/gcc/x86_64-pc-linux-gnu/13.2.1/../../../../include/c++/13.2.1/bits/std_abs.h", directory: "")
!1095 = !DIImportedEntity(tag: DW_TAG_imported_declaration, scope: !5, entity: !1096, file: !1098, line: 131)
!1096 = !DIDerivedType(tag: DW_TAG_typedef, name: "div_t", file: !1093, line: 63, baseType: !1097)
!1097 = !DICompositeType(tag: DW_TAG_structure_type, file: !1093, line: 59, size: 64, flags: DIFlagFwdDecl, identifier: "_ZTS5div_t")
!1098 = !DIFile(filename: "/usr/bin/../lib64/gcc/x86_64-pc-linux-gnu/13.2.1/../../../../include/c++/13.2.1/cstdlib", directory: "")
!1099 = !DIImportedEntity(tag: DW_TAG_imported_declaration, scope: !5, entity: !1100, file: !1098, line: 132)
!1100 = !DIDerivedType(tag: DW_TAG_typedef, name: "ldiv_t", file: !1093, line: 71, baseType: !1101)
!1101 = distinct !DICompositeType(tag: DW_TAG_structure_type, file: !1093, line: 67, size: 128, flags: DIFlagTypePassByValue, elements: !1102, identifier: "_ZTS6ldiv_t")
!1102 = !{!1103, !1104}
!1103 = !DIDerivedType(tag: DW_TAG_member, name: "quot", scope: !1101, file: !1093, line: 69, baseType: !957, size: 64)
!1104 = !DIDerivedType(tag: DW_TAG_member, name: "rem", scope: !1101, file: !1093, line: 70, baseType: !957, size: 64, offset: 64)
!1105 = !DIImportedEntity(tag: DW_TAG_imported_declaration, scope: !5, entity: !1106, file: !1098, line: 134)
!1106 = !DISubprogram(name: "abort", scope: !1093, file: !1093, line: 730, type: !1107, flags: DIFlagPrototyped | DIFlagNoReturn, spFlags: 0)
!1107 = !DISubroutineType(types: !1108)
!1108 = !{null}
!1109 = !DIImportedEntity(tag: DW_TAG_imported_declaration, scope: !5, entity: !1110, file: !1098, line: 136)
!1110 = !DISubprogram(name: "aligned_alloc", scope: !1093, file: !1093, line: 724, type: !1111, flags: DIFlagPrototyped, spFlags: 0)
!1111 = !DISubroutineType(types: !1112)
!1112 = !{!868, !818, !818}
!1113 = !DIImportedEntity(tag: DW_TAG_imported_declaration, scope: !5, entity: !1114, file: !1098, line: 138)
!1114 = !DISubprogram(name: "atexit", scope: !1093, file: !1093, line: 734, type: !1115, flags: DIFlagPrototyped, spFlags: 0)
!1115 = !DISubroutineType(types: !1116)
!1116 = !{!161, !1117}
!1117 = !DIDerivedType(tag: DW_TAG_pointer_type, baseType: !1107, size: 64)
!1118 = !DIImportedEntity(tag: DW_TAG_imported_declaration, scope: !5, entity: !1119, file: !1098, line: 141)
!1119 = !DISubprogram(name: "at_quick_exit", scope: !1093, file: !1093, line: 739, type: !1115, flags: DIFlagPrototyped, spFlags: 0)
!1120 = !DIImportedEntity(tag: DW_TAG_imported_declaration, scope: !5, entity: !1121, file: !1098, line: 144)
!1121 = !DISubprogram(name: "atof", scope: !1093, file: !1093, line: 102, type: !1122, flags: DIFlagPrototyped, spFlags: 0)
!1122 = !DISubroutineType(types: !1123)
!1123 = !{!941, !36}
!1124 = !DIImportedEntity(tag: DW_TAG_imported_declaration, scope: !5, entity: !1125, file: !1098, line: 145)
!1125 = !DISubprogram(name: "atoi", scope: !1093, file: !1093, line: 105, type: !1126, flags: DIFlagPrototyped, spFlags: 0)
!1126 = !DISubroutineType(types: !1127)
!1127 = !{!161, !36}
!1128 = !DIImportedEntity(tag: DW_TAG_imported_declaration, scope: !5, entity: !1129, file: !1098, line: 146)
!1129 = !DISubprogram(name: "atol", scope: !1093, file: !1093, line: 108, type: !1130, flags: DIFlagPrototyped, spFlags: 0)
!1130 = !DISubroutineType(types: !1131)
!1131 = !{!957, !36}
!1132 = !DIImportedEntity(tag: DW_TAG_imported_declaration, scope: !5, entity: !1133, file: !1098, line: 147)
!1133 = !DISubprogram(name: "bsearch", scope: !1093, file: !1093, line: 960, type: !1134, flags: DIFlagPrototyped, spFlags: 0)
!1134 = !DISubroutineType(types: !1135)
!1135 = !{!868, !47, !47, !818, !818, !1136}
!1136 = !DIDerivedType(tag: DW_TAG_typedef, name: "__compar_fn_t", file: !1093, line: 948, baseType: !1137)
!1137 = !DIDerivedType(tag: DW_TAG_pointer_type, baseType: !1138, size: 64)
!1138 = !DISubroutineType(types: !1139)
!1139 = !{!161, !47, !47}
!1140 = !DIImportedEntity(tag: DW_TAG_imported_declaration, scope: !5, entity: !1141, file: !1098, line: 148)
!1141 = !DISubprogram(name: "calloc", scope: !1093, file: !1093, line: 675, type: !1111, flags: DIFlagPrototyped, spFlags: 0)
!1142 = !DIImportedEntity(tag: DW_TAG_imported_declaration, scope: !5, entity: !1143, file: !1098, line: 149)
!1143 = !DISubprogram(name: "div", scope: !1093, file: !1093, line: 992, type: !1144, flags: DIFlagPrototyped, spFlags: 0)
!1144 = !DISubroutineType(types: !1145)
!1145 = !{!1096, !161, !161}
!1146 = !DIImportedEntity(tag: DW_TAG_imported_declaration, scope: !5, entity: !1147, file: !1098, line: 150)
!1147 = !DISubprogram(name: "exit", scope: !1093, file: !1093, line: 756, type: !1148, flags: DIFlagPrototyped | DIFlagNoReturn, spFlags: 0)
!1148 = !DISubroutineType(types: !1149)
!1149 = !{null, !161}
!1150 = !DIImportedEntity(tag: DW_TAG_imported_declaration, scope: !5, entity: !1151, file: !1098, line: 151)
!1151 = !DISubprogram(name: "free", scope: !1093, file: !1093, line: 687, type: !1152, flags: DIFlagPrototyped, spFlags: 0)
!1152 = !DISubroutineType(types: !1153)
!1153 = !{null, !868}
!1154 = !DIImportedEntity(tag: DW_TAG_imported_declaration, scope: !5, entity: !1155, file: !1098, line: 152)
!1155 = !DISubprogram(name: "getenv", scope: !1093, file: !1093, line: 773, type: !1156, flags: DIFlagPrototyped, spFlags: 0)
!1156 = !DISubroutineType(types: !1157)
!1157 = !{!27, !36}
!1158 = !DIImportedEntity(tag: DW_TAG_imported_declaration, scope: !5, entity: !1159, file: !1098, line: 153)
!1159 = !DISubprogram(name: "labs", scope: !1093, file: !1093, line: 981, type: !1160, flags: DIFlagPrototyped, spFlags: 0)
!1160 = !DISubroutineType(types: !1161)
!1161 = !{!957, !957}
!1162 = !DIImportedEntity(tag: DW_TAG_imported_declaration, scope: !5, entity: !1163, file: !1098, line: 154)
!1163 = !DISubprogram(name: "ldiv", scope: !1093, file: !1093, line: 994, type: !1164, flags: DIFlagPrototyped, spFlags: 0)
!1164 = !DISubroutineType(types: !1165)
!1165 = !{!1100, !957, !957}
!1166 = !DIImportedEntity(tag: DW_TAG_imported_declaration, scope: !5, entity: !1167, file: !1098, line: 155)
!1167 = !DISubprogram(name: "malloc", scope: !1093, file: !1093, line: 672, type: !1168, flags: DIFlagPrototyped, spFlags: 0)
!1168 = !DISubroutineType(types: !1169)
!1169 = !{!868, !818}
!1170 = !DIImportedEntity(tag: DW_TAG_imported_declaration, scope: !5, entity: !1171, file: !1098, line: 157)
!1171 = !DISubprogram(name: "mblen", scope: !1093, file: !1093, line: 1062, type: !1172, flags: DIFlagPrototyped, spFlags: 0)
!1172 = !DISubroutineType(types: !1173)
!1173 = !{!161, !36, !818}
!1174 = !DIImportedEntity(tag: DW_TAG_imported_declaration, scope: !5, entity: !1175, file: !1098, line: 158)
!1175 = !DISubprogram(name: "mbstowcs", scope: !1093, file: !1093, line: 1073, type: !1176, flags: DIFlagPrototyped, spFlags: 0)
!1176 = !DISubroutineType(types: !1177)
!1177 = !{!818, !785, !820, !818}
!1178 = !DIImportedEntity(tag: DW_TAG_imported_declaration, scope: !5, entity: !1179, file: !1098, line: 159)
!1179 = !DISubprogram(name: "mbtowc", scope: !1093, file: !1093, line: 1065, type: !1180, flags: DIFlagPrototyped, spFlags: 0)
!1180 = !DISubroutineType(types: !1181)
!1181 = !{!161, !785, !820, !818}
!1182 = !DIImportedEntity(tag: DW_TAG_imported_declaration, scope: !5, entity: !1183, file: !1098, line: 161)
!1183 = !DISubprogram(name: "qsort", scope: !1093, file: !1093, line: 970, type: !1184, flags: DIFlagPrototyped, spFlags: 0)
!1184 = !DISubroutineType(types: !1185)
!1185 = !{null, !868, !818, !818, !1136}
!1186 = !DIImportedEntity(tag: DW_TAG_imported_declaration, scope: !5, entity: !1187, file: !1098, line: 164)
!1187 = !DISubprogram(name: "quick_exit", scope: !1093, file: !1093, line: 762, type: !1148, flags: DIFlagPrototyped | DIFlagNoReturn, spFlags: 0)
!1188 = !DIImportedEntity(tag: DW_TAG_imported_declaration, scope: !5, entity: !1189, file: !1098, line: 167)
!1189 = !DISubprogram(name: "rand", scope: !1093, file: !1093, line: 573, type: !1190, flags: DIFlagPrototyped, spFlags: 0)
!1190 = !DISubroutineType(types: !1191)
!1191 = !{!161}
!1192 = !DIImportedEntity(tag: DW_TAG_imported_declaration, scope: !5, entity: !1193, file: !1098, line: 168)
!1193 = !DISubprogram(name: "realloc", scope: !1093, file: !1093, line: 683, type: !1194, flags: DIFlagPrototyped, spFlags: 0)
!1194 = !DISubroutineType(types: !1195)
!1195 = !{!868, !868, !818}
!1196 = !DIImportedEntity(tag: DW_TAG_imported_declaration, scope: !5, entity: !1197, file: !1098, line: 169)
!1197 = !DISubprogram(name: "srand", scope: !1093, file: !1093, line: 575, type: !1198, flags: DIFlagPrototyped, spFlags: 0)
!1198 = !DISubroutineType(types: !1199)
!1199 = !{null, !757}
!1200 = !DIImportedEntity(tag: DW_TAG_imported_declaration, scope: !5, entity: !1201, file: !1098, line: 170)
!1201 = !DISubprogram(name: "strtod", scope: !1093, file: !1093, line: 118, type: !1202, flags: DIFlagPrototyped, spFlags: 0)
!1202 = !DISubroutineType(types: !1203)
!1203 = !{!941, !820, !1204}
!1204 = !DIDerivedType(tag: DW_TAG_restrict_type, baseType: !1205)
!1205 = !DIDerivedType(tag: DW_TAG_pointer_type, baseType: !27, size: 64)
!1206 = !DIImportedEntity(tag: DW_TAG_imported_declaration, scope: !5, entity: !1207, file: !1098, line: 171)
!1207 = !DISubprogram(name: "strtol", linkageName: "__isoc23_strtol", scope: !1093, file: !1093, line: 215, type: !1208, flags: DIFlagPrototyped, spFlags: 0)
!1208 = !DISubroutineType(types: !1209)
!1209 = !{!957, !820, !1204, !161}
!1210 = !DIImportedEntity(tag: DW_TAG_imported_declaration, scope: !5, entity: !1211, file: !1098, line: 172)
!1211 = !DISubprogram(name: "strtoul", linkageName: "__isoc23_strtoul", scope: !1093, file: !1093, line: 219, type: !1212, flags: DIFlagPrototyped, spFlags: 0)
!1212 = !DISubroutineType(types: !1213)
!1213 = !{!46, !820, !1204, !161}
!1214 = !DIImportedEntity(tag: DW_TAG_imported_declaration, scope: !5, entity: !1215, file: !1098, line: 173)
!1215 = !DISubprogram(name: "system", scope: !1093, file: !1093, line: 923, type: !1126, flags: DIFlagPrototyped, spFlags: 0)
!1216 = !DIImportedEntity(tag: DW_TAG_imported_declaration, scope: !5, entity: !1217, file: !1098, line: 175)
!1217 = !DISubprogram(name: "wcstombs", scope: !1093, file: !1093, line: 1077, type: !1218, flags: DIFlagPrototyped, spFlags: 0)
!1218 = !DISubroutineType(types: !1219)
!1219 = !{!818, !890, !795, !818}
!1220 = !DIImportedEntity(tag: DW_TAG_imported_declaration, scope: !5, entity: !1221, file: !1098, line: 176)
!1221 = !DISubprogram(name: "wctomb", scope: !1093, file: !1093, line: 1069, type: !1222, flags: DIFlagPrototyped, spFlags: 0)
!1222 = !DISubroutineType(types: !1223)
!1223 = !{!161, !27, !784}
!1224 = !DIImportedEntity(tag: DW_TAG_imported_declaration, scope: !277, entity: !1225, file: !1098, line: 204)
!1225 = !DIDerivedType(tag: DW_TAG_typedef, name: "lldiv_t", file: !1093, line: 81, baseType: !1226)
!1226 = distinct !DICompositeType(tag: DW_TAG_structure_type, file: !1093, line: 77, size: 128, flags: DIFlagTypePassByValue, elements: !1227, identifier: "_ZTS7lldiv_t")
!1227 = !{!1228, !1229}
!1228 = !DIDerivedType(tag: DW_TAG_member, name: "quot", scope: !1226, file: !1093, line: 79, baseType: !1013, size: 64)
!1229 = !DIDerivedType(tag: DW_TAG_member, name: "rem", scope: !1226, file: !1093, line: 80, baseType: !1013, size: 64, offset: 64)
!1230 = !DIImportedEntity(tag: DW_TAG_imported_declaration, scope: !277, entity: !1231, file: !1098, line: 210)
!1231 = !DISubprogram(name: "_Exit", scope: !1093, file: !1093, line: 768, type: !1148, flags: DIFlagPrototyped | DIFlagNoReturn, spFlags: 0)
!1232 = !DIImportedEntity(tag: DW_TAG_imported_declaration, scope: !277, entity: !1233, file: !1098, line: 214)
!1233 = !DISubprogram(name: "llabs", scope: !1093, file: !1093, line: 984, type: !1234, flags: DIFlagPrototyped, spFlags: 0)
!1234 = !DISubroutineType(types: !1235)
!1235 = !{!1013, !1013}
!1236 = !DIImportedEntity(tag: DW_TAG_imported_declaration, scope: !277, entity: !1237, file: !1098, line: 220)
!1237 = !DISubprogram(name: "lldiv", scope: !1093, file: !1093, line: 998, type: !1238, flags: DIFlagPrototyped, spFlags: 0)
!1238 = !DISubroutineType(types: !1239)
!1239 = !{!1225, !1013, !1013}
!1240 = !DIImportedEntity(tag: DW_TAG_imported_declaration, scope: !277, entity: !1241, file: !1098, line: 231)
!1241 = !DISubprogram(name: "atoll", scope: !1093, file: !1093, line: 113, type: !1242, flags: DIFlagPrototyped, spFlags: 0)
!1242 = !DISubroutineType(types: !1243)
!1243 = !{!1013, !36}
!1244 = !DIImportedEntity(tag: DW_TAG_imported_declaration, scope: !277, entity: !1245, file: !1098, line: 232)
!1245 = !DISubprogram(name: "strtoll", linkageName: "__isoc23_strtoll", scope: !1093, file: !1093, line: 238, type: !1246, flags: DIFlagPrototyped, spFlags: 0)
!1246 = !DISubroutineType(types: !1247)
!1247 = !{!1013, !820, !1204, !161}
!1248 = !DIImportedEntity(tag: DW_TAG_imported_declaration, scope: !277, entity: !1249, file: !1098, line: 233)
!1249 = !DISubprogram(name: "strtoull", linkageName: "__isoc23_strtoull", scope: !1093, file: !1093, line: 243, type: !1250, flags: DIFlagPrototyped, spFlags: 0)
!1250 = !DISubroutineType(types: !1251)
!1251 = !{!1018, !820, !1204, !161}
!1252 = !DIImportedEntity(tag: DW_TAG_imported_declaration, scope: !277, entity: !1253, file: !1098, line: 235)
!1253 = !DISubprogram(name: "strtof", scope: !1093, file: !1093, line: 124, type: !1254, flags: DIFlagPrototyped, spFlags: 0)
!1254 = !DISubroutineType(types: !1255)
!1255 = !{!948, !820, !1204}
!1256 = !DIImportedEntity(tag: DW_TAG_imported_declaration, scope: !277, entity: !1257, file: !1098, line: 236)
!1257 = !DISubprogram(name: "strtold", scope: !1093, file: !1093, line: 127, type: !1258, flags: DIFlagPrototyped, spFlags: 0)
!1258 = !DISubroutineType(types: !1259)
!1259 = !{!1008, !820, !1204}
!1260 = !DIImportedEntity(tag: DW_TAG_imported_declaration, scope: !5, entity: !1225, file: !1098, line: 244)
!1261 = !DIImportedEntity(tag: DW_TAG_imported_declaration, scope: !5, entity: !1231, file: !1098, line: 246)
!1262 = !DIImportedEntity(tag: DW_TAG_imported_declaration, scope: !5, entity: !1233, file: !1098, line: 248)
!1263 = !DIImportedEntity(tag: DW_TAG_imported_declaration, scope: !5, entity: !1264, file: !1098, line: 249)
!1264 = !DISubprogram(name: "div", linkageName: "_ZN9__gnu_cxx3divExx", scope: !277, file: !1098, line: 217, type: !1238, flags: DIFlagPrototyped, spFlags: 0)
!1265 = !DIImportedEntity(tag: DW_TAG_imported_declaration, scope: !5, entity: !1237, file: !1098, line: 250)
!1266 = !DIImportedEntity(tag: DW_TAG_imported_declaration, scope: !5, entity: !1241, file: !1098, line: 252)
!1267 = !DIImportedEntity(tag: DW_TAG_imported_declaration, scope: !5, entity: !1253, file: !1098, line: 253)
!1268 = !DIImportedEntity(tag: DW_TAG_imported_declaration, scope: !5, entity: !1245, file: !1098, line: 254)
!1269 = !DIImportedEntity(tag: DW_TAG_imported_declaration, scope: !5, entity: !1249, file: !1098, line: 255)
!1270 = !DIImportedEntity(tag: DW_TAG_imported_declaration, scope: !5, entity: !1257, file: !1098, line: 256)
!1271 = !DIImportedEntity(tag: DW_TAG_imported_declaration, scope: !5, entity: !1272, file: !1274, line: 98)
!1272 = !DIDerivedType(tag: DW_TAG_typedef, name: "FILE", file: !1273, line: 7, baseType: !778)
!1273 = !DIFile(filename: "/usr/include/bits/types/FILE.h", directory: "", checksumkind: CSK_MD5, checksum: "571f9fb6223c42439075fdde11a0de5d")
!1274 = !DIFile(filename: "/usr/bin/../lib64/gcc/x86_64-pc-linux-gnu/13.2.1/../../../../include/c++/13.2.1/cstdio", directory: "")
!1275 = !DIImportedEntity(tag: DW_TAG_imported_declaration, scope: !5, entity: !1276, file: !1274, line: 99)
!1276 = !DIDerivedType(tag: DW_TAG_typedef, name: "fpos_t", file: !1277, line: 84, baseType: !1278)
!1277 = !DIFile(filename: "/usr/include/stdio.h", directory: "", checksumkind: CSK_MD5, checksum: "600479e30522c60809530fc01f232b17")
!1278 = !DIDerivedType(tag: DW_TAG_typedef, name: "__fpos_t", file: !1279, line: 14, baseType: !1280)
!1279 = !DIFile(filename: "/usr/include/bits/types/__fpos_t.h", directory: "", checksumkind: CSK_MD5, checksum: "32de8bdaf3551a6c0a9394f9af4389ce")
!1280 = !DICompositeType(tag: DW_TAG_structure_type, name: "_G_fpos_t", file: !1279, line: 10, size: 128, flags: DIFlagFwdDecl, identifier: "_ZTS9_G_fpos_t")
!1281 = !DIImportedEntity(tag: DW_TAG_imported_declaration, scope: !5, entity: !1282, file: !1274, line: 101)
!1282 = !DISubprogram(name: "clearerr", scope: !1277, file: !1277, line: 844, type: !1283, flags: DIFlagPrototyped, spFlags: 0)
!1283 = !DISubroutineType(types: !1284)
!1284 = !{null, !1285}
!1285 = !DIDerivedType(tag: DW_TAG_pointer_type, baseType: !1272, size: 64)
!1286 = !DIImportedEntity(tag: DW_TAG_imported_declaration, scope: !5, entity: !1287, file: !1274, line: 102)
!1287 = !DISubprogram(name: "fclose", scope: !1277, file: !1277, line: 183, type: !1288, flags: DIFlagPrototyped, spFlags: 0)
!1288 = !DISubroutineType(types: !1289)
!1289 = !{!161, !1285}
!1290 = !DIImportedEntity(tag: DW_TAG_imported_declaration, scope: !5, entity: !1291, file: !1274, line: 103)
!1291 = !DISubprogram(name: "feof", scope: !1277, file: !1277, line: 846, type: !1288, flags: DIFlagPrototyped, spFlags: 0)
!1292 = !DIImportedEntity(tag: DW_TAG_imported_declaration, scope: !5, entity: !1293, file: !1274, line: 104)
!1293 = !DISubprogram(name: "ferror", scope: !1277, file: !1277, line: 848, type: !1288, flags: DIFlagPrototyped, spFlags: 0)
!1294 = !DIImportedEntity(tag: DW_TAG_imported_declaration, scope: !5, entity: !1295, file: !1274, line: 105)
!1295 = !DISubprogram(name: "fflush", scope: !1277, file: !1277, line: 235, type: !1288, flags: DIFlagPrototyped, spFlags: 0)
!1296 = !DIImportedEntity(tag: DW_TAG_imported_declaration, scope: !5, entity: !1297, file: !1274, line: 106)
!1297 = !DISubprogram(name: "fgetc", scope: !1277, file: !1277, line: 571, type: !1288, flags: DIFlagPrototyped, spFlags: 0)
!1298 = !DIImportedEntity(tag: DW_TAG_imported_declaration, scope: !5, entity: !1299, file: !1274, line: 107)
!1299 = !DISubprogram(name: "fgetpos", scope: !1277, file: !1277, line: 818, type: !1300, flags: DIFlagPrototyped, spFlags: 0)
!1300 = !DISubroutineType(types: !1301)
!1301 = !{!161, !1302, !1303}
!1302 = !DIDerivedType(tag: DW_TAG_restrict_type, baseType: !1285)
!1303 = !DIDerivedType(tag: DW_TAG_restrict_type, baseType: !1304)
!1304 = !DIDerivedType(tag: DW_TAG_pointer_type, baseType: !1276, size: 64)
!1305 = !DIImportedEntity(tag: DW_TAG_imported_declaration, scope: !5, entity: !1306, file: !1274, line: 108)
!1306 = !DISubprogram(name: "fgets", scope: !1277, file: !1277, line: 650, type: !1307, flags: DIFlagPrototyped, spFlags: 0)
!1307 = !DISubroutineType(types: !1308)
!1308 = !{!27, !890, !161, !1302}
!1309 = !DIImportedEntity(tag: DW_TAG_imported_declaration, scope: !5, entity: !1310, file: !1274, line: 109)
!1310 = !DISubprogram(name: "fopen", scope: !1277, file: !1277, line: 263, type: !1311, flags: DIFlagPrototyped, spFlags: 0)
!1311 = !DISubroutineType(types: !1312)
!1312 = !{!1285, !820, !820}
!1313 = !DIImportedEntity(tag: DW_TAG_imported_declaration, scope: !5, entity: !1314, file: !1274, line: 110)
!1314 = !DISubprogram(name: "fprintf", scope: !1277, file: !1277, line: 355, type: !1315, flags: DIFlagPrototyped, spFlags: 0)
!1315 = !DISubroutineType(types: !1316)
!1316 = !{!161, !1302, !820, null}
!1317 = !DIImportedEntity(tag: DW_TAG_imported_declaration, scope: !5, entity: !1318, file: !1274, line: 111)
!1318 = !DISubprogram(name: "fputc", scope: !1277, file: !1277, line: 607, type: !1319, flags: DIFlagPrototyped, spFlags: 0)
!1319 = !DISubroutineType(types: !1320)
!1320 = !{!161, !161, !1285}
!1321 = !DIImportedEntity(tag: DW_TAG_imported_declaration, scope: !5, entity: !1322, file: !1274, line: 112)
!1322 = !DISubprogram(name: "fputs", scope: !1277, file: !1277, line: 713, type: !1323, flags: DIFlagPrototyped, spFlags: 0)
!1323 = !DISubroutineType(types: !1324)
!1324 = !{!161, !820, !1302}
!1325 = !DIImportedEntity(tag: DW_TAG_imported_declaration, scope: !5, entity: !1326, file: !1274, line: 113)
!1326 = !DISubprogram(name: "fread", scope: !1277, file: !1277, line: 733, type: !1327, flags: DIFlagPrototyped, spFlags: 0)
!1327 = !DISubroutineType(types: !1328)
!1328 = !{!818, !1329, !818, !818, !1302}
!1329 = !DIDerivedType(tag: DW_TAG_restrict_type, baseType: !868)
!1330 = !DIImportedEntity(tag: DW_TAG_imported_declaration, scope: !5, entity: !1331, file: !1274, line: 114)
!1331 = !DISubprogram(name: "freopen", scope: !1277, file: !1277, line: 270, type: !1332, flags: DIFlagPrototyped, spFlags: 0)
!1332 = !DISubroutineType(types: !1333)
!1333 = !{!1285, !820, !820, !1302}
!1334 = !DIImportedEntity(tag: DW_TAG_imported_declaration, scope: !5, entity: !1335, file: !1274, line: 115)
!1335 = !DISubprogram(name: "fscanf", linkageName: "__isoc23_fscanf", scope: !1277, file: !1277, line: 440, type: !1315, flags: DIFlagPrototyped, spFlags: 0)
!1336 = !DIImportedEntity(tag: DW_TAG_imported_declaration, scope: !5, entity: !1337, file: !1274, line: 116)
!1337 = !DISubprogram(name: "fseek", scope: !1277, file: !1277, line: 771, type: !1338, flags: DIFlagPrototyped, spFlags: 0)
!1338 = !DISubroutineType(types: !1339)
!1339 = !{!161, !1285, !957, !161}
!1340 = !DIImportedEntity(tag: DW_TAG_imported_declaration, scope: !5, entity: !1341, file: !1274, line: 117)
!1341 = !DISubprogram(name: "fsetpos", scope: !1277, file: !1277, line: 823, type: !1342, flags: DIFlagPrototyped, spFlags: 0)
!1342 = !DISubroutineType(types: !1343)
!1343 = !{!161, !1285, !1344}
!1344 = !DIDerivedType(tag: DW_TAG_pointer_type, baseType: !1345, size: 64)
!1345 = !DIDerivedType(tag: DW_TAG_const_type, baseType: !1276)
!1346 = !DIImportedEntity(tag: DW_TAG_imported_declaration, scope: !5, entity: !1347, file: !1274, line: 118)
!1347 = !DISubprogram(name: "ftell", scope: !1277, file: !1277, line: 776, type: !1348, flags: DIFlagPrototyped, spFlags: 0)
!1348 = !DISubroutineType(types: !1349)
!1349 = !{!957, !1285}
!1350 = !DIImportedEntity(tag: DW_TAG_imported_declaration, scope: !5, entity: !1351, file: !1274, line: 119)
!1351 = !DISubprogram(name: "fwrite", scope: !1277, file: !1277, line: 739, type: !1352, flags: DIFlagPrototyped, spFlags: 0)
!1352 = !DISubroutineType(types: !1353)
!1353 = !{!818, !1354, !818, !818, !1302}
!1354 = !DIDerivedType(tag: DW_TAG_restrict_type, baseType: !47)
!1355 = !DIImportedEntity(tag: DW_TAG_imported_declaration, scope: !5, entity: !1356, file: !1274, line: 120)
!1356 = !DISubprogram(name: "getc", scope: !1277, file: !1277, line: 572, type: !1288, flags: DIFlagPrototyped, spFlags: 0)
!1357 = !DIImportedEntity(tag: DW_TAG_imported_declaration, scope: !5, entity: !1358, file: !1274, line: 121)
!1358 = !DISubprogram(name: "getchar", scope: !1277, file: !1277, line: 578, type: !1190, flags: DIFlagPrototyped, spFlags: 0)
!1359 = !DIImportedEntity(tag: DW_TAG_imported_declaration, scope: !5, entity: !1360, file: !1274, line: 126)
!1360 = !DISubprogram(name: "perror", scope: !1277, file: !1277, line: 862, type: !1361, flags: DIFlagPrototyped, spFlags: 0)
!1361 = !DISubroutineType(types: !1362)
!1362 = !{null, !36}
!1363 = !DIImportedEntity(tag: DW_TAG_imported_declaration, scope: !5, entity: !1364, file: !1274, line: 127)
!1364 = !DISubprogram(name: "printf", scope: !1277, file: !1277, line: 361, type: !1365, flags: DIFlagPrototyped, spFlags: 0)
!1365 = !DISubroutineType(types: !1366)
!1366 = !{!161, !820, null}
!1367 = !DIImportedEntity(tag: DW_TAG_imported_declaration, scope: !5, entity: !1368, file: !1274, line: 128)
!1368 = !DISubprogram(name: "putc", scope: !1277, file: !1277, line: 608, type: !1319, flags: DIFlagPrototyped, spFlags: 0)
!1369 = !DIImportedEntity(tag: DW_TAG_imported_declaration, scope: !5, entity: !1370, file: !1274, line: 129)
!1370 = !DISubprogram(name: "putchar", scope: !1277, file: !1277, line: 614, type: !1058, flags: DIFlagPrototyped, spFlags: 0)
!1371 = !DIImportedEntity(tag: DW_TAG_imported_declaration, scope: !5, entity: !1372, file: !1274, line: 130)
!1372 = !DISubprogram(name: "puts", scope: !1277, file: !1277, line: 719, type: !1126, flags: DIFlagPrototyped, spFlags: 0)
!1373 = !DIImportedEntity(tag: DW_TAG_imported_declaration, scope: !5, entity: !1374, file: !1274, line: 131)
!1374 = !DISubprogram(name: "remove", scope: !1277, file: !1277, line: 157, type: !1126, flags: DIFlagPrototyped, spFlags: 0)
!1375 = !DIImportedEntity(tag: DW_TAG_imported_declaration, scope: !5, entity: !1376, file: !1274, line: 132)
!1376 = !DISubprogram(name: "rename", scope: !1277, file: !1277, line: 159, type: !1377, flags: DIFlagPrototyped, spFlags: 0)
!1377 = !DISubroutineType(types: !1378)
!1378 = !{!161, !36, !36}
!1379 = !DIImportedEntity(tag: DW_TAG_imported_declaration, scope: !5, entity: !1380, file: !1274, line: 133)
!1380 = !DISubprogram(name: "rewind", scope: !1277, file: !1277, line: 781, type: !1283, flags: DIFlagPrototyped, spFlags: 0)
!1381 = !DIImportedEntity(tag: DW_TAG_imported_declaration, scope: !5, entity: !1382, file: !1274, line: 134)
!1382 = !DISubprogram(name: "scanf", linkageName: "__isoc23_scanf", scope: !1277, file: !1277, line: 443, type: !1365, flags: DIFlagPrototyped, spFlags: 0)
!1383 = !DIImportedEntity(tag: DW_TAG_imported_declaration, scope: !5, entity: !1384, file: !1274, line: 135)
!1384 = !DISubprogram(name: "setbuf", scope: !1277, file: !1277, line: 333, type: !1385, flags: DIFlagPrototyped, spFlags: 0)
!1385 = !DISubroutineType(types: !1386)
!1386 = !{null, !1302, !890}
!1387 = !DIImportedEntity(tag: DW_TAG_imported_declaration, scope: !5, entity: !1388, file: !1274, line: 136)
!1388 = !DISubprogram(name: "setvbuf", scope: !1277, file: !1277, line: 337, type: !1389, flags: DIFlagPrototyped, spFlags: 0)
!1389 = !DISubroutineType(types: !1390)
!1390 = !{!161, !1302, !890, !161, !818}
!1391 = !DIImportedEntity(tag: DW_TAG_imported_declaration, scope: !5, entity: !1392, file: !1274, line: 137)
!1392 = !DISubprogram(name: "sprintf", scope: !1277, file: !1277, line: 363, type: !1393, flags: DIFlagPrototyped, spFlags: 0)
!1393 = !DISubroutineType(types: !1394)
!1394 = !{!161, !890, !820, null}
!1395 = !DIImportedEntity(tag: DW_TAG_imported_declaration, scope: !5, entity: !1396, file: !1274, line: 138)
!1396 = !DISubprogram(name: "sscanf", linkageName: "__isoc23_sscanf", scope: !1277, file: !1277, line: 445, type: !1397, flags: DIFlagPrototyped, spFlags: 0)
!1397 = !DISubroutineType(types: !1398)
!1398 = !{!161, !820, !820, null}
!1399 = !DIImportedEntity(tag: DW_TAG_imported_declaration, scope: !5, entity: !1400, file: !1274, line: 139)
!1400 = !DISubprogram(name: "tmpfile", scope: !1277, file: !1277, line: 193, type: !1401, flags: DIFlagPrototyped, spFlags: 0)
!1401 = !DISubroutineType(types: !1402)
!1402 = !{!1285}
!1403 = !DIImportedEntity(tag: DW_TAG_imported_declaration, scope: !5, entity: !1404, file: !1274, line: 141)
!1404 = !DISubprogram(name: "tmpnam", scope: !1277, file: !1277, line: 210, type: !1405, flags: DIFlagPrototyped, spFlags: 0)
!1405 = !DISubroutineType(types: !1406)
!1406 = !{!27, !27}
!1407 = !DIImportedEntity(tag: DW_TAG_imported_declaration, scope: !5, entity: !1408, file: !1274, line: 143)
!1408 = !DISubprogram(name: "ungetc", scope: !1277, file: !1277, line: 726, type: !1319, flags: DIFlagPrototyped, spFlags: 0)
!1409 = !DIImportedEntity(tag: DW_TAG_imported_declaration, scope: !5, entity: !1410, file: !1274, line: 144)
!1410 = !DISubprogram(name: "vfprintf", scope: !1277, file: !1277, line: 370, type: !1411, flags: DIFlagPrototyped, spFlags: 0)
!1411 = !DISubroutineType(types: !1412)
!1412 = !{!161, !1302, !820, !861}
!1413 = !DIImportedEntity(tag: DW_TAG_imported_declaration, scope: !5, entity: !1414, file: !1274, line: 145)
!1414 = !DISubprogram(name: "vprintf", scope: !1277, file: !1277, line: 376, type: !1415, flags: DIFlagPrototyped, spFlags: 0)
!1415 = !DISubroutineType(types: !1416)
!1416 = !{!161, !820, !861}
!1417 = !DIImportedEntity(tag: DW_TAG_imported_declaration, scope: !5, entity: !1418, file: !1274, line: 146)
!1418 = !DISubprogram(name: "vsprintf", scope: !1277, file: !1277, line: 378, type: !1419, flags: DIFlagPrototyped, spFlags: 0)
!1419 = !DISubroutineType(types: !1420)
!1420 = !{!161, !890, !820, !861}
!1421 = !DIImportedEntity(tag: DW_TAG_imported_declaration, scope: !277, entity: !1422, file: !1274, line: 175)
!1422 = !DISubprogram(name: "snprintf", scope: !1277, file: !1277, line: 383, type: !1423, flags: DIFlagPrototyped, spFlags: 0)
!1423 = !DISubroutineType(types: !1424)
!1424 = !{!161, !890, !818, !820, null}
!1425 = !DIImportedEntity(tag: DW_TAG_imported_declaration, scope: !277, entity: !1426, file: !1274, line: 176)
!1426 = !DISubprogram(name: "vfscanf", linkageName: "__isoc23_vfscanf", scope: !1277, file: !1277, line: 507, type: !1411, flags: DIFlagPrototyped, spFlags: 0)
!1427 = !DIImportedEntity(tag: DW_TAG_imported_declaration, scope: !277, entity: !1428, file: !1274, line: 177)
!1428 = !DISubprogram(name: "vscanf", linkageName: "__isoc23_vscanf", scope: !1277, file: !1277, line: 512, type: !1415, flags: DIFlagPrototyped, spFlags: 0)
!1429 = !DIImportedEntity(tag: DW_TAG_imported_declaration, scope: !277, entity: !1430, file: !1274, line: 178)
!1430 = !DISubprogram(name: "vsnprintf", scope: !1277, file: !1277, line: 387, type: !1431, flags: DIFlagPrototyped, spFlags: 0)
!1431 = !DISubroutineType(types: !1432)
!1432 = !{!161, !890, !818, !820, !861}
!1433 = !DIImportedEntity(tag: DW_TAG_imported_declaration, scope: !277, entity: !1434, file: !1274, line: 179)
!1434 = !DISubprogram(name: "vsscanf", linkageName: "__isoc23_vsscanf", scope: !1277, file: !1277, line: 515, type: !1435, flags: DIFlagPrototyped, spFlags: 0)
!1435 = !DISubroutineType(types: !1436)
!1436 = !{!161, !820, !820, !861}
!1437 = !DIImportedEntity(tag: DW_TAG_imported_declaration, scope: !5, entity: !1422, file: !1274, line: 185)
!1438 = !DIImportedEntity(tag: DW_TAG_imported_declaration, scope: !5, entity: !1426, file: !1274, line: 186)
!1439 = !DIImportedEntity(tag: DW_TAG_imported_declaration, scope: !5, entity: !1428, file: !1274, line: 187)
!1440 = !DIImportedEntity(tag: DW_TAG_imported_declaration, scope: !5, entity: !1430, file: !1274, line: 188)
!1441 = !DIImportedEntity(tag: DW_TAG_imported_declaration, scope: !5, entity: !1434, file: !1274, line: 189)
!1442 = !DIImportedEntity(tag: DW_TAG_imported_declaration, scope: !5, entity: !1443, file: !1449, line: 58)
!1443 = !DIDerivedType(tag: DW_TAG_typedef, name: "max_align_t", file: !1444, line: 24, baseType: !1445)
!1444 = !DIFile(filename: "/usr/lib/clang/16/include/__stddef_max_align_t.h", directory: "", checksumkind: CSK_MD5, checksum: "48e8e2456f77e6cda35d245130fa7259")
!1445 = distinct !DICompositeType(tag: DW_TAG_structure_type, file: !1444, line: 19, size: 256, flags: DIFlagTypePassByValue, elements: !1446, identifier: "_ZTS11max_align_t")
!1446 = !{!1447, !1448}
!1447 = !DIDerivedType(tag: DW_TAG_member, name: "__clang_max_align_nonce1", scope: !1445, file: !1444, line: 20, baseType: !1013, size: 64, align: 64)
!1448 = !DIDerivedType(tag: DW_TAG_member, name: "__clang_max_align_nonce2", scope: !1445, file: !1444, line: 22, baseType: !1008, size: 128, align: 128, offset: 128)
!1449 = !DIFile(filename: "/usr/bin/../lib64/gcc/x86_64-pc-linux-gnu/13.2.1/../../../../include/c++/13.2.1/cstddef", directory: "")
!1450 = !DIImportedEntity(tag: DW_TAG_imported_declaration, scope: !5, entity: !1451, file: !1457, line: 82)
!1451 = !DIDerivedType(tag: DW_TAG_typedef, name: "wctrans_t", file: !1452, line: 48, baseType: !1453)
!1452 = !DIFile(filename: "/usr/include/wctype.h", directory: "", checksumkind: CSK_MD5, checksum: "93d4b1045b46d132ff5e6d83a26abaee")
!1453 = !DIDerivedType(tag: DW_TAG_pointer_type, baseType: !1454, size: 64)
!1454 = !DIDerivedType(tag: DW_TAG_const_type, baseType: !1455)
!1455 = !DIDerivedType(tag: DW_TAG_typedef, name: "__int32_t", file: !1456, line: 41, baseType: !161)
!1456 = !DIFile(filename: "/usr/include/bits/types.h", directory: "", checksumkind: CSK_MD5, checksum: "4a64d909bcfa62a0a7682c3ac78c6965")
!1457 = !DIFile(filename: "/usr/bin/../lib64/gcc/x86_64-pc-linux-gnu/13.2.1/../../../../include/c++/13.2.1/cwctype", directory: "")
!1458 = !DIImportedEntity(tag: DW_TAG_imported_declaration, scope: !5, entity: !1459, file: !1457, line: 83)
!1459 = !DIDerivedType(tag: DW_TAG_typedef, name: "wctype_t", file: !1460, line: 38, baseType: !46)
!1460 = !DIFile(filename: "/usr/include/bits/wctype-wchar.h", directory: "", checksumkind: CSK_MD5, checksum: "65a194b61bfadb7760be04a5640f774f")
!1461 = !DIImportedEntity(tag: DW_TAG_imported_declaration, scope: !5, entity: !764, file: !1457, line: 84)
!1462 = !DIImportedEntity(tag: DW_TAG_imported_declaration, scope: !5, entity: !1463, file: !1457, line: 86)
!1463 = !DISubprogram(name: "iswalnum", scope: !1460, file: !1460, line: 95, type: !968, flags: DIFlagPrototyped, spFlags: 0)
!1464 = !DIImportedEntity(tag: DW_TAG_imported_declaration, scope: !5, entity: !1465, file: !1457, line: 87)
!1465 = !DISubprogram(name: "iswalpha", scope: !1460, file: !1460, line: 101, type: !968, flags: DIFlagPrototyped, spFlags: 0)
!1466 = !DIImportedEntity(tag: DW_TAG_imported_declaration, scope: !5, entity: !1467, file: !1457, line: 89)
!1467 = !DISubprogram(name: "iswblank", scope: !1460, file: !1460, line: 146, type: !968, flags: DIFlagPrototyped, spFlags: 0)
!1468 = !DIImportedEntity(tag: DW_TAG_imported_declaration, scope: !5, entity: !1469, file: !1457, line: 91)
!1469 = !DISubprogram(name: "iswcntrl", scope: !1460, file: !1460, line: 104, type: !968, flags: DIFlagPrototyped, spFlags: 0)
!1470 = !DIImportedEntity(tag: DW_TAG_imported_declaration, scope: !5, entity: !1471, file: !1457, line: 92)
!1471 = !DISubprogram(name: "iswctype", scope: !1460, file: !1460, line: 159, type: !1472, flags: DIFlagPrototyped, spFlags: 0)
!1472 = !DISubroutineType(types: !1473)
!1473 = !{!161, !764, !1459}
!1474 = !DIImportedEntity(tag: DW_TAG_imported_declaration, scope: !5, entity: !1475, file: !1457, line: 93)
!1475 = !DISubprogram(name: "iswdigit", scope: !1460, file: !1460, line: 108, type: !968, flags: DIFlagPrototyped, spFlags: 0)
!1476 = !DIImportedEntity(tag: DW_TAG_imported_declaration, scope: !5, entity: !1477, file: !1457, line: 94)
!1477 = !DISubprogram(name: "iswgraph", scope: !1460, file: !1460, line: 112, type: !968, flags: DIFlagPrototyped, spFlags: 0)
!1478 = !DIImportedEntity(tag: DW_TAG_imported_declaration, scope: !5, entity: !1479, file: !1457, line: 95)
!1479 = !DISubprogram(name: "iswlower", scope: !1460, file: !1460, line: 117, type: !968, flags: DIFlagPrototyped, spFlags: 0)
!1480 = !DIImportedEntity(tag: DW_TAG_imported_declaration, scope: !5, entity: !1481, file: !1457, line: 96)
!1481 = !DISubprogram(name: "iswprint", scope: !1460, file: !1460, line: 120, type: !968, flags: DIFlagPrototyped, spFlags: 0)
!1482 = !DIImportedEntity(tag: DW_TAG_imported_declaration, scope: !5, entity: !1483, file: !1457, line: 97)
!1483 = !DISubprogram(name: "iswpunct", scope: !1460, file: !1460, line: 125, type: !968, flags: DIFlagPrototyped, spFlags: 0)
!1484 = !DIImportedEntity(tag: DW_TAG_imported_declaration, scope: !5, entity: !1485, file: !1457, line: 98)
!1485 = !DISubprogram(name: "iswspace", scope: !1460, file: !1460, line: 130, type: !968, flags: DIFlagPrototyped, spFlags: 0)
!1486 = !DIImportedEntity(tag: DW_TAG_imported_declaration, scope: !5, entity: !1487, file: !1457, line: 99)
!1487 = !DISubprogram(name: "iswupper", scope: !1460, file: !1460, line: 135, type: !968, flags: DIFlagPrototyped, spFlags: 0)
!1488 = !DIImportedEntity(tag: DW_TAG_imported_declaration, scope: !5, entity: !1489, file: !1457, line: 100)
!1489 = !DISubprogram(name: "iswxdigit", scope: !1460, file: !1460, line: 140, type: !968, flags: DIFlagPrototyped, spFlags: 0)
!1490 = !DIImportedEntity(tag: DW_TAG_imported_declaration, scope: !5, entity: !1491, file: !1457, line: 101)
!1491 = !DISubprogram(name: "towctrans", scope: !1452, file: !1452, line: 55, type: !1492, flags: DIFlagPrototyped, spFlags: 0)
!1492 = !DISubroutineType(types: !1493)
!1493 = !{!764, !764, !1451}
!1494 = !DIImportedEntity(tag: DW_TAG_imported_declaration, scope: !5, entity: !1495, file: !1457, line: 102)
!1495 = !DISubprogram(name: "towlower", scope: !1460, file: !1460, line: 166, type: !1496, flags: DIFlagPrototyped, spFlags: 0)
!1496 = !DISubroutineType(types: !1497)
!1497 = !{!764, !764}
!1498 = !DIImportedEntity(tag: DW_TAG_imported_declaration, scope: !5, entity: !1499, file: !1457, line: 103)
!1499 = !DISubprogram(name: "towupper", scope: !1460, file: !1460, line: 169, type: !1496, flags: DIFlagPrototyped, spFlags: 0)
!1500 = !DIImportedEntity(tag: DW_TAG_imported_declaration, scope: !5, entity: !1501, file: !1457, line: 104)
!1501 = !DISubprogram(name: "wctrans", scope: !1452, file: !1452, line: 52, type: !1502, flags: DIFlagPrototyped, spFlags: 0)
!1502 = !DISubroutineType(types: !1503)
!1503 = !{!1451, !36}
!1504 = !DIImportedEntity(tag: DW_TAG_imported_declaration, scope: !5, entity: !1505, file: !1457, line: 105)
!1505 = !DISubprogram(name: "wctype", scope: !1460, file: !1460, line: 155, type: !1506, flags: DIFlagPrototyped, spFlags: 0)
!1506 = !DISubroutineType(types: !1507)
!1507 = !{!1459, !36}
!1508 = !{i32 7, !"Dwarf Version", i32 5}
!1509 = !{i32 2, !"Debug Info Version", i32 3}
!1510 = !{i32 1, !"wchar_size", i32 4}
!1511 = !{i32 8, !"PIC Level", i32 2}
!1512 = !{i32 7, !"PIE Level", i32 2}
!1513 = !{i32 7, !"uwtable", i32 2}
!1514 = !{i32 7, !"frame-pointer", i32 2}
!1515 = !{!"clang version 16.0.6"}
!1516 = distinct !DISubprogram(name: "main", scope: !1, file: !1, line: 4, type: !1190, scopeLine: 4, flags: DIFlagPrototyped, spFlags: DISPFlagDefinition, unit: !0, retainedNodes: !342)
!1517 = !DILocalVariable(name: "this", arg: 1, scope: !1518, type: !1519, flags: DIFlagArtificial | DIFlagObjectPointer)
!1518 = distinct !DISubprogram(name: "allocator", linkageName: "_ZNSaIcEC2Ev", scope: !3, file: !4, line: 163, type: !59, scopeLine: 163, flags: DIFlagPrototyped, spFlags: DISPFlagDefinition, unit: !0, declaration: !58, retainedNodes: !342)
!1519 = !DIDerivedType(tag: DW_TAG_pointer_type, baseType: !3, size: 64)
!1520 = !DILocation(line: 0, scope: !1518, inlinedAt: !1521)
!1521 = distinct !DILocation(line: 5, column: 15, scope: !1516)
!1522 = !DILocalVariable(name: "this", arg: 1, scope: !1523, type: !1524, flags: DIFlagArtificial | DIFlagObjectPointer)
!1523 = distinct !DISubprogram(name: "__new_allocator", linkageName: "_ZNSt15__new_allocatorIcEC2Ev", scope: !10, file: !11, line: 88, type: !14, scopeLine: 88, flags: DIFlagPrototyped, spFlags: DISPFlagDefinition, unit: !0, declaration: !13, retainedNodes: !342)
!1524 = !DIDerivedType(tag: DW_TAG_pointer_type, baseType: !10, size: 64)
!1525 = !DILocation(line: 0, scope: !1523, inlinedAt: !1526)
!1526 = distinct !DILocation(line: 163, column: 7, scope: !1518, inlinedAt: !1521)
!1527 = !DILocation(line: 5, column: 15, scope: !1516)
!1528 = !DILocation(line: 5, column: 12, scope: !1516)
!1529 = !DILocation(line: 5, column: 36, scope: !1516)
!1530 = !DILocation(line: 5, column: 2, scope: !1516)
!1531 = !DILocalVariable(name: "this", arg: 1, scope: !1532, type: !1519, flags: DIFlagArtificial | DIFlagObjectPointer)
!1532 = distinct !DISubprogram(name: "~allocator", linkageName: "_ZNSaIcED2Ev", scope: !3, file: !4, line: 184, type: !59, scopeLine: 184, flags: DIFlagPrototyped, spFlags: DISPFlagDefinition, unit: !0, declaration: !71, retainedNodes: !342)
!1533 = !DILocation(line: 0, scope: !1532, inlinedAt: !1534)
!1534 = distinct !DILocation(line: 5, column: 2, scope: !1516)
!1535 = !DILocation(line: 184, column: 39, scope: !1536, inlinedAt: !1534)
!1536 = distinct !DILexicalBlock(scope: !1532, file: !4, line: 184, column: 37)
!1537 = !DILocation(line: 6, column: 1, scope: !1516)
!1538 = distinct !DISubprogram(name: "basic_string<std::allocator<char> >", linkageName: "_ZNSt7__cxx1112basic_stringIcSt11char_traitsIcESaIcEEC2IS3_EEmcRKS3_", scope: !266, file: !271, line: 654, type: !1539, scopeLine: 656, flags: DIFlagPrototyped, spFlags: DISPFlagDefinition, unit: !0, templateParams: !1542, declaration: !1541, retainedNodes: !342)
!1539 = !DISubroutineType(types: !1540)
!1540 = !{null, !351, !273, !28, !65}
!1541 = !DISubprogram(name: "basic_string<std::allocator<char> >", scope: !266, file: !271, line: 654, type: !1539, scopeLine: 654, flags: DIFlagPublic | DIFlagPrototyped, spFlags: 0, templateParams: !1542)
!1542 = !{!1543}
!1543 = !DITemplateTypeParameter(type: !3, defaulted: true)
!1544 = !DILocalVariable(name: "this", arg: 1, scope: !1538, type: !1545, flags: DIFlagArtificial | DIFlagObjectPointer)
!1545 = !DIDerivedType(tag: DW_TAG_pointer_type, baseType: !266, size: 64)
!1546 = !DILocation(line: 0, scope: !1538)
!1547 = !DILocalVariable(name: "__n", arg: 2, scope: !1538, file: !271, line: 654, type: !273)
!1548 = !DILocation(line: 654, column: 30, scope: !1538)
!1549 = !DILocalVariable(name: "__c", arg: 3, scope: !1538, file: !271, line: 654, type: !28)
!1550 = !DILocation(line: 654, column: 42, scope: !1538)
!1551 = !DILocalVariable(name: "__a", arg: 4, scope: !1538, file: !271, line: 654, type: !65)
!1552 = !DILocation(line: 654, column: 61, scope: !1538)
!1553 = !DILocation(line: 655, column: 9, scope: !1538)
!1554 = !DILocation(line: 655, column: 21, scope: !1538)
!1555 = !DILocation(line: 655, column: 38, scope: !1538)
!1556 = !DILocation(line: 656, column: 22, scope: !1557)
!1557 = distinct !DILexicalBlock(scope: !1538, file: !271, line: 656, column: 7)
!1558 = !DILocation(line: 656, column: 27, scope: !1557)
!1559 = !DILocation(line: 656, column: 9, scope: !1557)
!1560 = !DILocation(line: 656, column: 33, scope: !1538)
!1561 = distinct !DISubprogram(name: "~__new_allocator", linkageName: "_ZNSt15__new_allocatorIcED2Ev", scope: !10, file: !11, line: 100, type: !14, scopeLine: 100, flags: DIFlagPrototyped, spFlags: DISPFlagDefinition, unit: !0, declaration: !22, retainedNodes: !342)
!1562 = !DILocalVariable(name: "this", arg: 1, scope: !1561, type: !1524, flags: DIFlagArtificial | DIFlagObjectPointer)
!1563 = !DILocation(line: 0, scope: !1561)
!1564 = !DILocation(line: 100, column: 50, scope: !1561)
