; ModuleID = 'cpp/yarpgen1.cpp'
source_filename = "cpp/yarpgen1.cpp"
target datalayout = "e-m:e-p270:32:32-p271:32:32-p272:64:64-i64:64-f80:128-n8:16:32:64-S128"
target triple = "x86_64-pc-linux-gnu"

$_ZSt3minIiERKT_S2_S2_ = comdat any

$_ZSt3maxIyERKT_S2_S2_ = comdat any

$_ZSt3maxIbERKT_S2_S2_ = comdat any

$_ZSt3maxIjERKT_S2_S2_ = comdat any

$_ZSt3maxIiERKT_S2_S2_ = comdat any

$_ZSt3minIxERKT_S2_S2_ = comdat any

$_ZSt3minIjERKT_S2_S2_ = comdat any

$_ZSt3minIbERKT_S2_S2_ = comdat any

$_ZSt3minIyERKT_S2_S2_ = comdat any

$_ZSt3maxItERKT_S2_S2_ = comdat any

$_ZSt3minItERKT_S2_S2_ = comdat any

$_ZSt3minIaERKT_S2_S2_ = comdat any

$_ZSt3maxIhERKT_S2_S2_ = comdat any

$_ZSt3minIsERKT_S2_S2_ = comdat any

$_ZSt3maxIaERKT_S2_S2_ = comdat any

@seed = dso_local global i64 0, align 8, !dbg !0
@var_0 = dso_local global i8 31, align 1, !dbg !15
@var_1 = dso_local global i16 1190, align 2, !dbg !17
@var_2 = dso_local global i16 22044, align 2, !dbg !19
@var_3 = dso_local global i16 8359, align 2, !dbg !21
@var_4 = dso_local global i8 0, align 1, !dbg !23
@var_5 = dso_local global i32 -448555319, align 4, !dbg !25
@var_6 = dso_local global i32 1019008798, align 4, !dbg !27
@var_7 = dso_local global i8 -79, align 1, !dbg !29
@var_8 = dso_local global i16 7258, align 2, !dbg !31
@var_9 = dso_local global i16 -30845, align 2, !dbg !33
@zero = dso_local global i32 0, align 4, !dbg !35
@var_10 = dso_local global i8 44, align 1, !dbg !37
@var_11 = dso_local global i8 0, align 1, !dbg !39
@var_12 = dso_local global i8 62, align 1, !dbg !41
@var_13 = dso_local global i8 1, align 1, !dbg !43
@var_14 = dso_local global i64 3629598199215048066, align 8, !dbg !45
@var_15 = dso_local global i64 8390273650226479702, align 8, !dbg !47
@var_16 = dso_local global i32 913809010, align 4, !dbg !49
@var_17 = dso_local global i32 -1652194253, align 4, !dbg !51
@var_18 = dso_local global i32 428927331, align 4, !dbg !53
@var_19 = dso_local global i64 -3847720736415087890, align 8, !dbg !55
@var_20 = dso_local global i32 -1741910023, align 4, !dbg !57
@var_21 = dso_local global i32 -742735385, align 4, !dbg !59
@var_22 = dso_local global i16 12891, align 2, !dbg !61
@var_23 = dso_local global i32 -462335847, align 4, !dbg !63
@var_24 = dso_local global i32 1078722361, align 4, !dbg !65
@var_25 = dso_local global i8 86, align 1, !dbg !67
@var_26 = dso_local global i8 16, align 1, !dbg !69
@var_27 = dso_local global i16 -385, align 2, !dbg !71
@var_28 = dso_local global i64 6720740931339377158, align 8, !dbg !73
@var_29 = dso_local global i8 13, align 1, !dbg !75
@var_30 = dso_local global i64 2920107987710327052, align 8, !dbg !77
@var_31 = dso_local global i64 -7558054567771607211, align 8, !dbg !79
@var_32 = dso_local global i16 -7571, align 2, !dbg !81
@var_33 = dso_local global i8 73, align 1, !dbg !83
@var_34 = dso_local global i8 -9, align 1, !dbg !85
@var_35 = dso_local global i8 0, align 1, !dbg !87
@var_36 = dso_local global i64 3420909492814133283, align 8, !dbg !89
@var_37 = dso_local global i64 -3682976666173987755, align 8, !dbg !91
@var_38 = dso_local global i8 0, align 1, !dbg !93
@var_39 = dso_local global i16 3674, align 2, !dbg !95
@var_40 = dso_local global i64 -1716883315422469548, align 8, !dbg !97
@arr_0 = dso_local global [19 x i64] zeroinitializer, align 16, !dbg !99
@arr_1 = dso_local global [19 x i8] zeroinitializer, align 16, !dbg !104
@arr_4 = dso_local global [22 x i32] zeroinitializer, align 16, !dbg !107
@arr_5 = dso_local global [22 x [22 x i8]] zeroinitializer, align 16, !dbg !112
@arr_7 = dso_local global [22 x [22 x [22 x i32]]] zeroinitializer, align 16, !dbg !116
@arr_8 = dso_local global [22 x i64] zeroinitializer, align 16, !dbg !120
@arr_9 = dso_local global [22 x [22 x i32]] zeroinitializer, align 16, !dbg !123
@arr_10 = dso_local global [22 x [22 x i64]] zeroinitializer, align 16, !dbg !126
@arr_11 = dso_local global [22 x i16] zeroinitializer, align 16, !dbg !129
@arr_12 = dso_local global [22 x [22 x [22 x [22 x i64]]]] zeroinitializer, align 16, !dbg !132
@arr_14 = dso_local global [22 x [22 x [22 x [22 x [22 x [22 x i16]]]]]] zeroinitializer, align 16, !dbg !136
@arr_15 = dso_local global [22 x [22 x [22 x [22 x [22 x i64]]]]] zeroinitializer, align 16, !dbg !140
@arr_17 = dso_local global [22 x i16] zeroinitializer, align 16, !dbg !144
@arr_19 = dso_local global [22 x [22 x [22 x i32]]] zeroinitializer, align 16, !dbg !147
@arr_20 = dso_local global [22 x [22 x [22 x [22 x i64]]]] zeroinitializer, align 16, !dbg !149
@arr_21 = dso_local global [22 x [22 x [22 x [22 x [22 x i32]]]]] zeroinitializer, align 16, !dbg !151
@arr_22 = dso_local global [22 x [22 x [22 x [22 x [22 x [22 x i8]]]]]] zeroinitializer, align 16, !dbg !154
@arr_24 = dso_local global [22 x i16] zeroinitializer, align 16, !dbg !157
@arr_25 = dso_local global [22 x i8] zeroinitializer, align 16, !dbg !159
@arr_26 = dso_local global [22 x i64] zeroinitializer, align 16, !dbg !162
@arr_30 = dso_local global [22 x i8] zeroinitializer, align 16, !dbg !164
@arr_32 = dso_local global [22 x [22 x [22 x [22 x i32]]]] zeroinitializer, align 16, !dbg !166
@arr_35 = dso_local global [22 x [22 x [22 x [22 x i8]]]] zeroinitializer, align 16, !dbg !169
@arr_44 = dso_local global [22 x [22 x [22 x [22 x i8]]]] zeroinitializer, align 16, !dbg !172
@arr_2 = dso_local global [19 x i8] zeroinitializer, align 32, !dbg !175
@arr_3 = dso_local global [19 x i64] zeroinitializer, align 64, !dbg !178
@arr_6 = dso_local global [22 x [22 x i64]] zeroinitializer, align 16, !dbg !181
@arr_16 = dso_local global [22 x [22 x [22 x i8]]] zeroinitializer, align 16, !dbg !184
@arr_23 = dso_local global [22 x [22 x [22 x [22 x i32]]]] zeroinitializer, align 64, !dbg !187
@arr_27 = dso_local global [22 x i16] zeroinitializer, align 32, !dbg !190
@arr_37 = dso_local global [22 x [22 x i8]] zeroinitializer, align 64, !dbg !192
@arr_38 = dso_local global [22 x [22 x [22 x i8]]] zeroinitializer, align 32, !dbg !195
@arr_41 = dso_local global [22 x [22 x i32]] zeroinitializer, align 32, !dbg !198
@arr_42 = dso_local global [22 x [22 x [22 x [22 x i32]]]] zeroinitializer, align 16, !dbg !201
@arr_49 = dso_local global [22 x i16] zeroinitializer, align 64, !dbg !203
@.str = private unnamed_addr constant [6 x i8] c"%llu\0A\00", align 1, !dbg !205

; Function Attrs: mustprogress noinline nounwind optnone sspstrong uwtable
define dso_local void @_Z4hashPyy(ptr noundef %0, i64 noundef %1) #0 !dbg !427 {
  %3 = alloca ptr, align 8
  %4 = alloca i64, align 8
  store ptr %0, ptr %3, align 8
  call void @llvm.dbg.declare(metadata ptr %3, metadata !433, metadata !DIExpression()), !dbg !434
  store i64 %1, ptr %4, align 8
  call void @llvm.dbg.declare(metadata ptr %4, metadata !435, metadata !DIExpression()), !dbg !436
  %5 = load i64, ptr %4, align 8, !dbg !437
  %6 = add i64 %5, 2654435769, !dbg !438
  %7 = load ptr, ptr %3, align 8, !dbg !439
  %8 = load i64, ptr %7, align 8, !dbg !440
  %9 = shl i64 %8, 6, !dbg !441
  %10 = add i64 %6, %9, !dbg !442
  %11 = load ptr, ptr %3, align 8, !dbg !443
  %12 = load i64, ptr %11, align 8, !dbg !444
  %13 = lshr i64 %12, 2, !dbg !445
  %14 = add i64 %10, %13, !dbg !446
  %15 = load ptr, ptr %3, align 8, !dbg !447
  %16 = load i64, ptr %15, align 8, !dbg !448
  %17 = xor i64 %16, %14, !dbg !448
  store i64 %17, ptr %15, align 8, !dbg !448
  ret void, !dbg !449
}

; Function Attrs: nocallback nofree nosync nounwind speculatable willreturn memory(none)
declare void @llvm.dbg.declare(metadata, metadata, metadata) #1

; Function Attrs: mustprogress noinline nounwind optnone sspstrong uwtable
define dso_local void @_Z4initv() #0 !dbg !450 {
  %1 = alloca i64, align 8
  %2 = alloca i64, align 8
  %3 = alloca i64, align 8
  %4 = alloca i64, align 8
  %5 = alloca i64, align 8
  %6 = alloca i64, align 8
  %7 = alloca i64, align 8
  %8 = alloca i64, align 8
  %9 = alloca i64, align 8
  %10 = alloca i64, align 8
  %11 = alloca i64, align 8
  %12 = alloca i64, align 8
  %13 = alloca i64, align 8
  %14 = alloca i64, align 8
  %15 = alloca i64, align 8
  %16 = alloca i64, align 8
  %17 = alloca i64, align 8
  %18 = alloca i64, align 8
  %19 = alloca i64, align 8
  %20 = alloca i64, align 8
  %21 = alloca i64, align 8
  %22 = alloca i64, align 8
  %23 = alloca i64, align 8
  %24 = alloca i64, align 8
  %25 = alloca i64, align 8
  %26 = alloca i64, align 8
  %27 = alloca i64, align 8
  %28 = alloca i64, align 8
  %29 = alloca i64, align 8
  %30 = alloca i64, align 8
  %31 = alloca i64, align 8
  %32 = alloca i64, align 8
  %33 = alloca i64, align 8
  %34 = alloca i64, align 8
  %35 = alloca i64, align 8
  %36 = alloca i64, align 8
  %37 = alloca i64, align 8
  %38 = alloca i64, align 8
  %39 = alloca i64, align 8
  %40 = alloca i64, align 8
  %41 = alloca i64, align 8
  %42 = alloca i64, align 8
  %43 = alloca i64, align 8
  %44 = alloca i64, align 8
  %45 = alloca i64, align 8
  %46 = alloca i64, align 8
  %47 = alloca i64, align 8
  %48 = alloca i64, align 8
  %49 = alloca i64, align 8
  %50 = alloca i64, align 8
  %51 = alloca i64, align 8
  %52 = alloca i64, align 8
  %53 = alloca i64, align 8
  %54 = alloca i64, align 8
  %55 = alloca i64, align 8
  %56 = alloca i64, align 8
  %57 = alloca i64, align 8
  %58 = alloca i64, align 8
  %59 = alloca i64, align 8
  %60 = alloca i64, align 8
  %61 = alloca i64, align 8
  %62 = alloca i64, align 8
  %63 = alloca i64, align 8
  %64 = alloca i64, align 8
  %65 = alloca i64, align 8
  %66 = alloca i64, align 8
  %67 = alloca i64, align 8
  %68 = alloca i64, align 8
  %69 = alloca i64, align 8
  %70 = alloca i64, align 8
  %71 = alloca i64, align 8
  %72 = alloca i64, align 8
  %73 = alloca i64, align 8
  %74 = alloca i64, align 8
  %75 = alloca i64, align 8
  %76 = alloca i64, align 8
  %77 = alloca i64, align 8
  %78 = alloca i64, align 8
  %79 = alloca i64, align 8
  %80 = alloca i64, align 8
  %81 = alloca i64, align 8
  %82 = alloca i64, align 8
  %83 = alloca i64, align 8
  %84 = alloca i64, align 8
  %85 = alloca i64, align 8
  %86 = alloca i64, align 8
  %87 = alloca i64, align 8
  %88 = alloca i64, align 8
  call void @llvm.dbg.declare(metadata ptr %1, metadata !451, metadata !DIExpression()), !dbg !453
  store i64 0, ptr %1, align 8, !dbg !453
  br label %89, !dbg !454

89:                                               ; preds = %95, %0
  %90 = load i64, ptr %1, align 8, !dbg !455
  %91 = icmp ult i64 %90, 19, !dbg !457
  br i1 %91, label %92, label %98, !dbg !458

92:                                               ; preds = %89
  %93 = load i64, ptr %1, align 8, !dbg !459
  %94 = getelementptr inbounds [19 x i64], ptr @arr_0, i64 0, i64 %93, !dbg !460
  store i64 7997049971750173581, ptr %94, align 8, !dbg !461
  br label %95, !dbg !460

95:                                               ; preds = %92
  %96 = load i64, ptr %1, align 8, !dbg !462
  %97 = add i64 %96, 1, !dbg !462
  store i64 %97, ptr %1, align 8, !dbg !462
  br label %89, !dbg !463, !llvm.loop !464

98:                                               ; preds = %89
  call void @llvm.dbg.declare(metadata ptr %2, metadata !467, metadata !DIExpression()), !dbg !469
  store i64 0, ptr %2, align 8, !dbg !469
  br label %99, !dbg !470

99:                                               ; preds = %105, %98
  %100 = load i64, ptr %2, align 8, !dbg !471
  %101 = icmp ult i64 %100, 19, !dbg !473
  br i1 %101, label %102, label %108, !dbg !474

102:                                              ; preds = %99
  %103 = load i64, ptr %2, align 8, !dbg !475
  %104 = getelementptr inbounds [19 x i8], ptr @arr_1, i64 0, i64 %103, !dbg !476
  store i8 1, ptr %104, align 1, !dbg !477
  br label %105, !dbg !476

105:                                              ; preds = %102
  %106 = load i64, ptr %2, align 8, !dbg !478
  %107 = add i64 %106, 1, !dbg !478
  store i64 %107, ptr %2, align 8, !dbg !478
  br label %99, !dbg !479, !llvm.loop !480

108:                                              ; preds = %99
  call void @llvm.dbg.declare(metadata ptr %3, metadata !482, metadata !DIExpression()), !dbg !484
  store i64 0, ptr %3, align 8, !dbg !484
  br label %109, !dbg !485

109:                                              ; preds = %115, %108
  %110 = load i64, ptr %3, align 8, !dbg !486
  %111 = icmp ult i64 %110, 22, !dbg !488
  br i1 %111, label %112, label %118, !dbg !489

112:                                              ; preds = %109
  %113 = load i64, ptr %3, align 8, !dbg !490
  %114 = getelementptr inbounds [22 x i32], ptr @arr_4, i64 0, i64 %113, !dbg !491
  store i32 -1439360348, ptr %114, align 4, !dbg !492
  br label %115, !dbg !491

115:                                              ; preds = %112
  %116 = load i64, ptr %3, align 8, !dbg !493
  %117 = add i64 %116, 1, !dbg !493
  store i64 %117, ptr %3, align 8, !dbg !493
  br label %109, !dbg !494, !llvm.loop !495

118:                                              ; preds = %109
  call void @llvm.dbg.declare(metadata ptr %4, metadata !497, metadata !DIExpression()), !dbg !499
  store i64 0, ptr %4, align 8, !dbg !499
  br label %119, !dbg !500

119:                                              ; preds = %135, %118
  %120 = load i64, ptr %4, align 8, !dbg !501
  %121 = icmp ult i64 %120, 22, !dbg !503
  br i1 %121, label %122, label %138, !dbg !504

122:                                              ; preds = %119
  call void @llvm.dbg.declare(metadata ptr %5, metadata !505, metadata !DIExpression()), !dbg !507
  store i64 0, ptr %5, align 8, !dbg !507
  br label %123, !dbg !508

123:                                              ; preds = %131, %122
  %124 = load i64, ptr %5, align 8, !dbg !509
  %125 = icmp ult i64 %124, 22, !dbg !511
  br i1 %125, label %126, label %134, !dbg !512

126:                                              ; preds = %123
  %127 = load i64, ptr %4, align 8, !dbg !513
  %128 = getelementptr inbounds [22 x [22 x i8]], ptr @arr_5, i64 0, i64 %127, !dbg !514
  %129 = load i64, ptr %5, align 8, !dbg !515
  %130 = getelementptr inbounds [22 x i8], ptr %128, i64 0, i64 %129, !dbg !514
  store i8 0, ptr %130, align 1, !dbg !516
  br label %131, !dbg !514

131:                                              ; preds = %126
  %132 = load i64, ptr %5, align 8, !dbg !517
  %133 = add i64 %132, 1, !dbg !517
  store i64 %133, ptr %5, align 8, !dbg !517
  br label %123, !dbg !518, !llvm.loop !519

134:                                              ; preds = %123
  br label %135, !dbg !520

135:                                              ; preds = %134
  %136 = load i64, ptr %4, align 8, !dbg !521
  %137 = add i64 %136, 1, !dbg !521
  store i64 %137, ptr %4, align 8, !dbg !521
  br label %119, !dbg !522, !llvm.loop !523

138:                                              ; preds = %119
  call void @llvm.dbg.declare(metadata ptr %6, metadata !525, metadata !DIExpression()), !dbg !527
  store i64 0, ptr %6, align 8, !dbg !527
  br label %139, !dbg !528

139:                                              ; preds = %165, %138
  %140 = load i64, ptr %6, align 8, !dbg !529
  %141 = icmp ult i64 %140, 22, !dbg !531
  br i1 %141, label %142, label %168, !dbg !532

142:                                              ; preds = %139
  call void @llvm.dbg.declare(metadata ptr %7, metadata !533, metadata !DIExpression()), !dbg !535
  store i64 0, ptr %7, align 8, !dbg !535
  br label %143, !dbg !536

143:                                              ; preds = %161, %142
  %144 = load i64, ptr %7, align 8, !dbg !537
  %145 = icmp ult i64 %144, 22, !dbg !539
  br i1 %145, label %146, label %164, !dbg !540

146:                                              ; preds = %143
  call void @llvm.dbg.declare(metadata ptr %8, metadata !541, metadata !DIExpression()), !dbg !543
  store i64 0, ptr %8, align 8, !dbg !543
  br label %147, !dbg !544

147:                                              ; preds = %157, %146
  %148 = load i64, ptr %8, align 8, !dbg !545
  %149 = icmp ult i64 %148, 22, !dbg !547
  br i1 %149, label %150, label %160, !dbg !548

150:                                              ; preds = %147
  %151 = load i64, ptr %6, align 8, !dbg !549
  %152 = getelementptr inbounds [22 x [22 x [22 x i32]]], ptr @arr_7, i64 0, i64 %151, !dbg !550
  %153 = load i64, ptr %7, align 8, !dbg !551
  %154 = getelementptr inbounds [22 x [22 x i32]], ptr %152, i64 0, i64 %153, !dbg !550
  %155 = load i64, ptr %8, align 8, !dbg !552
  %156 = getelementptr inbounds [22 x i32], ptr %154, i64 0, i64 %155, !dbg !550
  store i32 1504086975, ptr %156, align 4, !dbg !553
  br label %157, !dbg !550

157:                                              ; preds = %150
  %158 = load i64, ptr %8, align 8, !dbg !554
  %159 = add i64 %158, 1, !dbg !554
  store i64 %159, ptr %8, align 8, !dbg !554
  br label %147, !dbg !555, !llvm.loop !556

160:                                              ; preds = %147
  br label %161, !dbg !557

161:                                              ; preds = %160
  %162 = load i64, ptr %7, align 8, !dbg !558
  %163 = add i64 %162, 1, !dbg !558
  store i64 %163, ptr %7, align 8, !dbg !558
  br label %143, !dbg !559, !llvm.loop !560

164:                                              ; preds = %143
  br label %165, !dbg !561

165:                                              ; preds = %164
  %166 = load i64, ptr %6, align 8, !dbg !562
  %167 = add i64 %166, 1, !dbg !562
  store i64 %167, ptr %6, align 8, !dbg !562
  br label %139, !dbg !563, !llvm.loop !564

168:                                              ; preds = %139
  call void @llvm.dbg.declare(metadata ptr %9, metadata !566, metadata !DIExpression()), !dbg !568
  store i64 0, ptr %9, align 8, !dbg !568
  br label %169, !dbg !569

169:                                              ; preds = %175, %168
  %170 = load i64, ptr %9, align 8, !dbg !570
  %171 = icmp ult i64 %170, 22, !dbg !572
  br i1 %171, label %172, label %178, !dbg !573

172:                                              ; preds = %169
  %173 = load i64, ptr %9, align 8, !dbg !574
  %174 = getelementptr inbounds [22 x i64], ptr @arr_8, i64 0, i64 %173, !dbg !575
  store i64 -8007093775072531441, ptr %174, align 8, !dbg !576
  br label %175, !dbg !575

175:                                              ; preds = %172
  %176 = load i64, ptr %9, align 8, !dbg !577
  %177 = add i64 %176, 1, !dbg !577
  store i64 %177, ptr %9, align 8, !dbg !577
  br label %169, !dbg !578, !llvm.loop !579

178:                                              ; preds = %169
  call void @llvm.dbg.declare(metadata ptr %10, metadata !581, metadata !DIExpression()), !dbg !583
  store i64 0, ptr %10, align 8, !dbg !583
  br label %179, !dbg !584

179:                                              ; preds = %195, %178
  %180 = load i64, ptr %10, align 8, !dbg !585
  %181 = icmp ult i64 %180, 22, !dbg !587
  br i1 %181, label %182, label %198, !dbg !588

182:                                              ; preds = %179
  call void @llvm.dbg.declare(metadata ptr %11, metadata !589, metadata !DIExpression()), !dbg !591
  store i64 0, ptr %11, align 8, !dbg !591
  br label %183, !dbg !592

183:                                              ; preds = %191, %182
  %184 = load i64, ptr %11, align 8, !dbg !593
  %185 = icmp ult i64 %184, 22, !dbg !595
  br i1 %185, label %186, label %194, !dbg !596

186:                                              ; preds = %183
  %187 = load i64, ptr %10, align 8, !dbg !597
  %188 = getelementptr inbounds [22 x [22 x i32]], ptr @arr_9, i64 0, i64 %187, !dbg !598
  %189 = load i64, ptr %11, align 8, !dbg !599
  %190 = getelementptr inbounds [22 x i32], ptr %188, i64 0, i64 %189, !dbg !598
  store i32 -1645818449, ptr %190, align 4, !dbg !600
  br label %191, !dbg !598

191:                                              ; preds = %186
  %192 = load i64, ptr %11, align 8, !dbg !601
  %193 = add i64 %192, 1, !dbg !601
  store i64 %193, ptr %11, align 8, !dbg !601
  br label %183, !dbg !602, !llvm.loop !603

194:                                              ; preds = %183
  br label %195, !dbg !604

195:                                              ; preds = %194
  %196 = load i64, ptr %10, align 8, !dbg !605
  %197 = add i64 %196, 1, !dbg !605
  store i64 %197, ptr %10, align 8, !dbg !605
  br label %179, !dbg !606, !llvm.loop !607

198:                                              ; preds = %179
  call void @llvm.dbg.declare(metadata ptr %12, metadata !609, metadata !DIExpression()), !dbg !611
  store i64 0, ptr %12, align 8, !dbg !611
  br label %199, !dbg !612

199:                                              ; preds = %215, %198
  %200 = load i64, ptr %12, align 8, !dbg !613
  %201 = icmp ult i64 %200, 22, !dbg !615
  br i1 %201, label %202, label %218, !dbg !616

202:                                              ; preds = %199
  call void @llvm.dbg.declare(metadata ptr %13, metadata !617, metadata !DIExpression()), !dbg !619
  store i64 0, ptr %13, align 8, !dbg !619
  br label %203, !dbg !620

203:                                              ; preds = %211, %202
  %204 = load i64, ptr %13, align 8, !dbg !621
  %205 = icmp ult i64 %204, 22, !dbg !623
  br i1 %205, label %206, label %214, !dbg !624

206:                                              ; preds = %203
  %207 = load i64, ptr %12, align 8, !dbg !625
  %208 = getelementptr inbounds [22 x [22 x i64]], ptr @arr_10, i64 0, i64 %207, !dbg !626
  %209 = load i64, ptr %13, align 8, !dbg !627
  %210 = getelementptr inbounds [22 x i64], ptr %208, i64 0, i64 %209, !dbg !626
  store i64 2489106642361633979, ptr %210, align 8, !dbg !628
  br label %211, !dbg !626

211:                                              ; preds = %206
  %212 = load i64, ptr %13, align 8, !dbg !629
  %213 = add i64 %212, 1, !dbg !629
  store i64 %213, ptr %13, align 8, !dbg !629
  br label %203, !dbg !630, !llvm.loop !631

214:                                              ; preds = %203
  br label %215, !dbg !632

215:                                              ; preds = %214
  %216 = load i64, ptr %12, align 8, !dbg !633
  %217 = add i64 %216, 1, !dbg !633
  store i64 %217, ptr %12, align 8, !dbg !633
  br label %199, !dbg !634, !llvm.loop !635

218:                                              ; preds = %199
  call void @llvm.dbg.declare(metadata ptr %14, metadata !637, metadata !DIExpression()), !dbg !639
  store i64 0, ptr %14, align 8, !dbg !639
  br label %219, !dbg !640

219:                                              ; preds = %225, %218
  %220 = load i64, ptr %14, align 8, !dbg !641
  %221 = icmp ult i64 %220, 22, !dbg !643
  br i1 %221, label %222, label %228, !dbg !644

222:                                              ; preds = %219
  %223 = load i64, ptr %14, align 8, !dbg !645
  %224 = getelementptr inbounds [22 x i16], ptr @arr_11, i64 0, i64 %223, !dbg !646
  store i16 7194, ptr %224, align 2, !dbg !647
  br label %225, !dbg !646

225:                                              ; preds = %222
  %226 = load i64, ptr %14, align 8, !dbg !648
  %227 = add i64 %226, 1, !dbg !648
  store i64 %227, ptr %14, align 8, !dbg !648
  br label %219, !dbg !649, !llvm.loop !650

228:                                              ; preds = %219
  call void @llvm.dbg.declare(metadata ptr %15, metadata !652, metadata !DIExpression()), !dbg !654
  store i64 0, ptr %15, align 8, !dbg !654
  br label %229, !dbg !655

229:                                              ; preds = %265, %228
  %230 = load i64, ptr %15, align 8, !dbg !656
  %231 = icmp ult i64 %230, 22, !dbg !658
  br i1 %231, label %232, label %268, !dbg !659

232:                                              ; preds = %229
  call void @llvm.dbg.declare(metadata ptr %16, metadata !660, metadata !DIExpression()), !dbg !662
  store i64 0, ptr %16, align 8, !dbg !662
  br label %233, !dbg !663

233:                                              ; preds = %261, %232
  %234 = load i64, ptr %16, align 8, !dbg !664
  %235 = icmp ult i64 %234, 22, !dbg !666
  br i1 %235, label %236, label %264, !dbg !667

236:                                              ; preds = %233
  call void @llvm.dbg.declare(metadata ptr %17, metadata !668, metadata !DIExpression()), !dbg !670
  store i64 0, ptr %17, align 8, !dbg !670
  br label %237, !dbg !671

237:                                              ; preds = %257, %236
  %238 = load i64, ptr %17, align 8, !dbg !672
  %239 = icmp ult i64 %238, 22, !dbg !674
  br i1 %239, label %240, label %260, !dbg !675

240:                                              ; preds = %237
  call void @llvm.dbg.declare(metadata ptr %18, metadata !676, metadata !DIExpression()), !dbg !678
  store i64 0, ptr %18, align 8, !dbg !678
  br label %241, !dbg !679

241:                                              ; preds = %253, %240
  %242 = load i64, ptr %18, align 8, !dbg !680
  %243 = icmp ult i64 %242, 22, !dbg !682
  br i1 %243, label %244, label %256, !dbg !683

244:                                              ; preds = %241
  %245 = load i64, ptr %15, align 8, !dbg !684
  %246 = getelementptr inbounds [22 x [22 x [22 x [22 x i64]]]], ptr @arr_12, i64 0, i64 %245, !dbg !685
  %247 = load i64, ptr %16, align 8, !dbg !686
  %248 = getelementptr inbounds [22 x [22 x [22 x i64]]], ptr %246, i64 0, i64 %247, !dbg !685
  %249 = load i64, ptr %17, align 8, !dbg !687
  %250 = getelementptr inbounds [22 x [22 x i64]], ptr %248, i64 0, i64 %249, !dbg !685
  %251 = load i64, ptr %18, align 8, !dbg !688
  %252 = getelementptr inbounds [22 x i64], ptr %250, i64 0, i64 %251, !dbg !685
  store i64 -7731113253593187778, ptr %252, align 8, !dbg !689
  br label %253, !dbg !685

253:                                              ; preds = %244
  %254 = load i64, ptr %18, align 8, !dbg !690
  %255 = add i64 %254, 1, !dbg !690
  store i64 %255, ptr %18, align 8, !dbg !690
  br label %241, !dbg !691, !llvm.loop !692

256:                                              ; preds = %241
  br label %257, !dbg !693

257:                                              ; preds = %256
  %258 = load i64, ptr %17, align 8, !dbg !694
  %259 = add i64 %258, 1, !dbg !694
  store i64 %259, ptr %17, align 8, !dbg !694
  br label %237, !dbg !695, !llvm.loop !696

260:                                              ; preds = %237
  br label %261, !dbg !697

261:                                              ; preds = %260
  %262 = load i64, ptr %16, align 8, !dbg !698
  %263 = add i64 %262, 1, !dbg !698
  store i64 %263, ptr %16, align 8, !dbg !698
  br label %233, !dbg !699, !llvm.loop !700

264:                                              ; preds = %233
  br label %265, !dbg !701

265:                                              ; preds = %264
  %266 = load i64, ptr %15, align 8, !dbg !702
  %267 = add i64 %266, 1, !dbg !702
  store i64 %267, ptr %15, align 8, !dbg !702
  br label %229, !dbg !703, !llvm.loop !704

268:                                              ; preds = %229
  call void @llvm.dbg.declare(metadata ptr %19, metadata !706, metadata !DIExpression()), !dbg !708
  store i64 0, ptr %19, align 8, !dbg !708
  br label %269, !dbg !709

269:                                              ; preds = %325, %268
  %270 = load i64, ptr %19, align 8, !dbg !710
  %271 = icmp ult i64 %270, 22, !dbg !712
  br i1 %271, label %272, label %328, !dbg !713

272:                                              ; preds = %269
  call void @llvm.dbg.declare(metadata ptr %20, metadata !714, metadata !DIExpression()), !dbg !716
  store i64 0, ptr %20, align 8, !dbg !716
  br label %273, !dbg !717

273:                                              ; preds = %321, %272
  %274 = load i64, ptr %20, align 8, !dbg !718
  %275 = icmp ult i64 %274, 22, !dbg !720
  br i1 %275, label %276, label %324, !dbg !721

276:                                              ; preds = %273
  call void @llvm.dbg.declare(metadata ptr %21, metadata !722, metadata !DIExpression()), !dbg !724
  store i64 0, ptr %21, align 8, !dbg !724
  br label %277, !dbg !725

277:                                              ; preds = %317, %276
  %278 = load i64, ptr %21, align 8, !dbg !726
  %279 = icmp ult i64 %278, 22, !dbg !728
  br i1 %279, label %280, label %320, !dbg !729

280:                                              ; preds = %277
  call void @llvm.dbg.declare(metadata ptr %22, metadata !730, metadata !DIExpression()), !dbg !732
  store i64 0, ptr %22, align 8, !dbg !732
  br label %281, !dbg !733

281:                                              ; preds = %313, %280
  %282 = load i64, ptr %22, align 8, !dbg !734
  %283 = icmp ult i64 %282, 22, !dbg !736
  br i1 %283, label %284, label %316, !dbg !737

284:                                              ; preds = %281
  call void @llvm.dbg.declare(metadata ptr %23, metadata !738, metadata !DIExpression()), !dbg !740
  store i64 0, ptr %23, align 8, !dbg !740
  br label %285, !dbg !741

285:                                              ; preds = %309, %284
  %286 = load i64, ptr %23, align 8, !dbg !742
  %287 = icmp ult i64 %286, 22, !dbg !744
  br i1 %287, label %288, label %312, !dbg !745

288:                                              ; preds = %285
  call void @llvm.dbg.declare(metadata ptr %24, metadata !746, metadata !DIExpression()), !dbg !748
  store i64 0, ptr %24, align 8, !dbg !748
  br label %289, !dbg !749

289:                                              ; preds = %305, %288
  %290 = load i64, ptr %24, align 8, !dbg !750
  %291 = icmp ult i64 %290, 22, !dbg !752
  br i1 %291, label %292, label %308, !dbg !753

292:                                              ; preds = %289
  %293 = load i64, ptr %19, align 8, !dbg !754
  %294 = getelementptr inbounds [22 x [22 x [22 x [22 x [22 x [22 x i16]]]]]], ptr @arr_14, i64 0, i64 %293, !dbg !755
  %295 = load i64, ptr %20, align 8, !dbg !756
  %296 = getelementptr inbounds [22 x [22 x [22 x [22 x [22 x i16]]]]], ptr %294, i64 0, i64 %295, !dbg !755
  %297 = load i64, ptr %21, align 8, !dbg !757
  %298 = getelementptr inbounds [22 x [22 x [22 x [22 x i16]]]], ptr %296, i64 0, i64 %297, !dbg !755
  %299 = load i64, ptr %22, align 8, !dbg !758
  %300 = getelementptr inbounds [22 x [22 x [22 x i16]]], ptr %298, i64 0, i64 %299, !dbg !755
  %301 = load i64, ptr %23, align 8, !dbg !759
  %302 = getelementptr inbounds [22 x [22 x i16]], ptr %300, i64 0, i64 %301, !dbg !755
  %303 = load i64, ptr %24, align 8, !dbg !760
  %304 = getelementptr inbounds [22 x i16], ptr %302, i64 0, i64 %303, !dbg !755
  store i16 20433, ptr %304, align 2, !dbg !761
  br label %305, !dbg !755

305:                                              ; preds = %292
  %306 = load i64, ptr %24, align 8, !dbg !762
  %307 = add i64 %306, 1, !dbg !762
  store i64 %307, ptr %24, align 8, !dbg !762
  br label %289, !dbg !763, !llvm.loop !764

308:                                              ; preds = %289
  br label %309, !dbg !765

309:                                              ; preds = %308
  %310 = load i64, ptr %23, align 8, !dbg !766
  %311 = add i64 %310, 1, !dbg !766
  store i64 %311, ptr %23, align 8, !dbg !766
  br label %285, !dbg !767, !llvm.loop !768

312:                                              ; preds = %285
  br label %313, !dbg !769

313:                                              ; preds = %312
  %314 = load i64, ptr %22, align 8, !dbg !770
  %315 = add i64 %314, 1, !dbg !770
  store i64 %315, ptr %22, align 8, !dbg !770
  br label %281, !dbg !771, !llvm.loop !772

316:                                              ; preds = %281
  br label %317, !dbg !773

317:                                              ; preds = %316
  %318 = load i64, ptr %21, align 8, !dbg !774
  %319 = add i64 %318, 1, !dbg !774
  store i64 %319, ptr %21, align 8, !dbg !774
  br label %277, !dbg !775, !llvm.loop !776

320:                                              ; preds = %277
  br label %321, !dbg !777

321:                                              ; preds = %320
  %322 = load i64, ptr %20, align 8, !dbg !778
  %323 = add i64 %322, 1, !dbg !778
  store i64 %323, ptr %20, align 8, !dbg !778
  br label %273, !dbg !779, !llvm.loop !780

324:                                              ; preds = %273
  br label %325, !dbg !781

325:                                              ; preds = %324
  %326 = load i64, ptr %19, align 8, !dbg !782
  %327 = add i64 %326, 1, !dbg !782
  store i64 %327, ptr %19, align 8, !dbg !782
  br label %269, !dbg !783, !llvm.loop !784

328:                                              ; preds = %269
  call void @llvm.dbg.declare(metadata ptr %25, metadata !786, metadata !DIExpression()), !dbg !788
  store i64 0, ptr %25, align 8, !dbg !788
  br label %329, !dbg !789

329:                                              ; preds = %375, %328
  %330 = load i64, ptr %25, align 8, !dbg !790
  %331 = icmp ult i64 %330, 22, !dbg !792
  br i1 %331, label %332, label %378, !dbg !793

332:                                              ; preds = %329
  call void @llvm.dbg.declare(metadata ptr %26, metadata !794, metadata !DIExpression()), !dbg !796
  store i64 0, ptr %26, align 8, !dbg !796
  br label %333, !dbg !797

333:                                              ; preds = %371, %332
  %334 = load i64, ptr %26, align 8, !dbg !798
  %335 = icmp ult i64 %334, 22, !dbg !800
  br i1 %335, label %336, label %374, !dbg !801

336:                                              ; preds = %333
  call void @llvm.dbg.declare(metadata ptr %27, metadata !802, metadata !DIExpression()), !dbg !804
  store i64 0, ptr %27, align 8, !dbg !804
  br label %337, !dbg !805

337:                                              ; preds = %367, %336
  %338 = load i64, ptr %27, align 8, !dbg !806
  %339 = icmp ult i64 %338, 22, !dbg !808
  br i1 %339, label %340, label %370, !dbg !809

340:                                              ; preds = %337
  call void @llvm.dbg.declare(metadata ptr %28, metadata !810, metadata !DIExpression()), !dbg !812
  store i64 0, ptr %28, align 8, !dbg !812
  br label %341, !dbg !813

341:                                              ; preds = %363, %340
  %342 = load i64, ptr %28, align 8, !dbg !814
  %343 = icmp ult i64 %342, 22, !dbg !816
  br i1 %343, label %344, label %366, !dbg !817

344:                                              ; preds = %341
  call void @llvm.dbg.declare(metadata ptr %29, metadata !818, metadata !DIExpression()), !dbg !820
  store i64 0, ptr %29, align 8, !dbg !820
  br label %345, !dbg !821

345:                                              ; preds = %359, %344
  %346 = load i64, ptr %29, align 8, !dbg !822
  %347 = icmp ult i64 %346, 22, !dbg !824
  br i1 %347, label %348, label %362, !dbg !825

348:                                              ; preds = %345
  %349 = load i64, ptr %25, align 8, !dbg !826
  %350 = getelementptr inbounds [22 x [22 x [22 x [22 x [22 x i64]]]]], ptr @arr_15, i64 0, i64 %349, !dbg !827
  %351 = load i64, ptr %26, align 8, !dbg !828
  %352 = getelementptr inbounds [22 x [22 x [22 x [22 x i64]]]], ptr %350, i64 0, i64 %351, !dbg !827
  %353 = load i64, ptr %27, align 8, !dbg !829
  %354 = getelementptr inbounds [22 x [22 x [22 x i64]]], ptr %352, i64 0, i64 %353, !dbg !827
  %355 = load i64, ptr %28, align 8, !dbg !830
  %356 = getelementptr inbounds [22 x [22 x i64]], ptr %354, i64 0, i64 %355, !dbg !827
  %357 = load i64, ptr %29, align 8, !dbg !831
  %358 = getelementptr inbounds [22 x i64], ptr %356, i64 0, i64 %357, !dbg !827
  store i64 -4244812516729357960, ptr %358, align 8, !dbg !832
  br label %359, !dbg !827

359:                                              ; preds = %348
  %360 = load i64, ptr %29, align 8, !dbg !833
  %361 = add i64 %360, 1, !dbg !833
  store i64 %361, ptr %29, align 8, !dbg !833
  br label %345, !dbg !834, !llvm.loop !835

362:                                              ; preds = %345
  br label %363, !dbg !836

363:                                              ; preds = %362
  %364 = load i64, ptr %28, align 8, !dbg !837
  %365 = add i64 %364, 1, !dbg !837
  store i64 %365, ptr %28, align 8, !dbg !837
  br label %341, !dbg !838, !llvm.loop !839

366:                                              ; preds = %341
  br label %367, !dbg !840

367:                                              ; preds = %366
  %368 = load i64, ptr %27, align 8, !dbg !841
  %369 = add i64 %368, 1, !dbg !841
  store i64 %369, ptr %27, align 8, !dbg !841
  br label %337, !dbg !842, !llvm.loop !843

370:                                              ; preds = %337
  br label %371, !dbg !844

371:                                              ; preds = %370
  %372 = load i64, ptr %26, align 8, !dbg !845
  %373 = add i64 %372, 1, !dbg !845
  store i64 %373, ptr %26, align 8, !dbg !845
  br label %333, !dbg !846, !llvm.loop !847

374:                                              ; preds = %333
  br label %375, !dbg !848

375:                                              ; preds = %374
  %376 = load i64, ptr %25, align 8, !dbg !849
  %377 = add i64 %376, 1, !dbg !849
  store i64 %377, ptr %25, align 8, !dbg !849
  br label %329, !dbg !850, !llvm.loop !851

378:                                              ; preds = %329
  call void @llvm.dbg.declare(metadata ptr %30, metadata !853, metadata !DIExpression()), !dbg !855
  store i64 0, ptr %30, align 8, !dbg !855
  br label %379, !dbg !856

379:                                              ; preds = %385, %378
  %380 = load i64, ptr %30, align 8, !dbg !857
  %381 = icmp ult i64 %380, 22, !dbg !859
  br i1 %381, label %382, label %388, !dbg !860

382:                                              ; preds = %379
  %383 = load i64, ptr %30, align 8, !dbg !861
  %384 = getelementptr inbounds [22 x i16], ptr @arr_17, i64 0, i64 %383, !dbg !862
  store i16 -16302, ptr %384, align 2, !dbg !863
  br label %385, !dbg !862

385:                                              ; preds = %382
  %386 = load i64, ptr %30, align 8, !dbg !864
  %387 = add i64 %386, 1, !dbg !864
  store i64 %387, ptr %30, align 8, !dbg !864
  br label %379, !dbg !865, !llvm.loop !866

388:                                              ; preds = %379
  call void @llvm.dbg.declare(metadata ptr %31, metadata !868, metadata !DIExpression()), !dbg !870
  store i64 0, ptr %31, align 8, !dbg !870
  br label %389, !dbg !871

389:                                              ; preds = %415, %388
  %390 = load i64, ptr %31, align 8, !dbg !872
  %391 = icmp ult i64 %390, 22, !dbg !874
  br i1 %391, label %392, label %418, !dbg !875

392:                                              ; preds = %389
  call void @llvm.dbg.declare(metadata ptr %32, metadata !876, metadata !DIExpression()), !dbg !878
  store i64 0, ptr %32, align 8, !dbg !878
  br label %393, !dbg !879

393:                                              ; preds = %411, %392
  %394 = load i64, ptr %32, align 8, !dbg !880
  %395 = icmp ult i64 %394, 22, !dbg !882
  br i1 %395, label %396, label %414, !dbg !883

396:                                              ; preds = %393
  call void @llvm.dbg.declare(metadata ptr %33, metadata !884, metadata !DIExpression()), !dbg !886
  store i64 0, ptr %33, align 8, !dbg !886
  br label %397, !dbg !887

397:                                              ; preds = %407, %396
  %398 = load i64, ptr %33, align 8, !dbg !888
  %399 = icmp ult i64 %398, 22, !dbg !890
  br i1 %399, label %400, label %410, !dbg !891

400:                                              ; preds = %397
  %401 = load i64, ptr %31, align 8, !dbg !892
  %402 = getelementptr inbounds [22 x [22 x [22 x i32]]], ptr @arr_19, i64 0, i64 %401, !dbg !893
  %403 = load i64, ptr %32, align 8, !dbg !894
  %404 = getelementptr inbounds [22 x [22 x i32]], ptr %402, i64 0, i64 %403, !dbg !893
  %405 = load i64, ptr %33, align 8, !dbg !895
  %406 = getelementptr inbounds [22 x i32], ptr %404, i64 0, i64 %405, !dbg !893
  store i32 1645483155, ptr %406, align 4, !dbg !896
  br label %407, !dbg !893

407:                                              ; preds = %400
  %408 = load i64, ptr %33, align 8, !dbg !897
  %409 = add i64 %408, 1, !dbg !897
  store i64 %409, ptr %33, align 8, !dbg !897
  br label %397, !dbg !898, !llvm.loop !899

410:                                              ; preds = %397
  br label %411, !dbg !900

411:                                              ; preds = %410
  %412 = load i64, ptr %32, align 8, !dbg !901
  %413 = add i64 %412, 1, !dbg !901
  store i64 %413, ptr %32, align 8, !dbg !901
  br label %393, !dbg !902, !llvm.loop !903

414:                                              ; preds = %393
  br label %415, !dbg !904

415:                                              ; preds = %414
  %416 = load i64, ptr %31, align 8, !dbg !905
  %417 = add i64 %416, 1, !dbg !905
  store i64 %417, ptr %31, align 8, !dbg !905
  br label %389, !dbg !906, !llvm.loop !907

418:                                              ; preds = %389
  call void @llvm.dbg.declare(metadata ptr %34, metadata !909, metadata !DIExpression()), !dbg !911
  store i64 0, ptr %34, align 8, !dbg !911
  br label %419, !dbg !912

419:                                              ; preds = %455, %418
  %420 = load i64, ptr %34, align 8, !dbg !913
  %421 = icmp ult i64 %420, 22, !dbg !915
  br i1 %421, label %422, label %458, !dbg !916

422:                                              ; preds = %419
  call void @llvm.dbg.declare(metadata ptr %35, metadata !917, metadata !DIExpression()), !dbg !919
  store i64 0, ptr %35, align 8, !dbg !919
  br label %423, !dbg !920

423:                                              ; preds = %451, %422
  %424 = load i64, ptr %35, align 8, !dbg !921
  %425 = icmp ult i64 %424, 22, !dbg !923
  br i1 %425, label %426, label %454, !dbg !924

426:                                              ; preds = %423
  call void @llvm.dbg.declare(metadata ptr %36, metadata !925, metadata !DIExpression()), !dbg !927
  store i64 0, ptr %36, align 8, !dbg !927
  br label %427, !dbg !928

427:                                              ; preds = %447, %426
  %428 = load i64, ptr %36, align 8, !dbg !929
  %429 = icmp ult i64 %428, 22, !dbg !931
  br i1 %429, label %430, label %450, !dbg !932

430:                                              ; preds = %427
  call void @llvm.dbg.declare(metadata ptr %37, metadata !933, metadata !DIExpression()), !dbg !935
  store i64 0, ptr %37, align 8, !dbg !935
  br label %431, !dbg !936

431:                                              ; preds = %443, %430
  %432 = load i64, ptr %37, align 8, !dbg !937
  %433 = icmp ult i64 %432, 22, !dbg !939
  br i1 %433, label %434, label %446, !dbg !940

434:                                              ; preds = %431
  %435 = load i64, ptr %34, align 8, !dbg !941
  %436 = getelementptr inbounds [22 x [22 x [22 x [22 x i64]]]], ptr @arr_20, i64 0, i64 %435, !dbg !942
  %437 = load i64, ptr %35, align 8, !dbg !943
  %438 = getelementptr inbounds [22 x [22 x [22 x i64]]], ptr %436, i64 0, i64 %437, !dbg !942
  %439 = load i64, ptr %36, align 8, !dbg !944
  %440 = getelementptr inbounds [22 x [22 x i64]], ptr %438, i64 0, i64 %439, !dbg !942
  %441 = load i64, ptr %37, align 8, !dbg !945
  %442 = getelementptr inbounds [22 x i64], ptr %440, i64 0, i64 %441, !dbg !942
  store i64 759288642313828781, ptr %442, align 8, !dbg !946
  br label %443, !dbg !942

443:                                              ; preds = %434
  %444 = load i64, ptr %37, align 8, !dbg !947
  %445 = add i64 %444, 1, !dbg !947
  store i64 %445, ptr %37, align 8, !dbg !947
  br label %431, !dbg !948, !llvm.loop !949

446:                                              ; preds = %431
  br label %447, !dbg !950

447:                                              ; preds = %446
  %448 = load i64, ptr %36, align 8, !dbg !951
  %449 = add i64 %448, 1, !dbg !951
  store i64 %449, ptr %36, align 8, !dbg !951
  br label %427, !dbg !952, !llvm.loop !953

450:                                              ; preds = %427
  br label %451, !dbg !954

451:                                              ; preds = %450
  %452 = load i64, ptr %35, align 8, !dbg !955
  %453 = add i64 %452, 1, !dbg !955
  store i64 %453, ptr %35, align 8, !dbg !955
  br label %423, !dbg !956, !llvm.loop !957

454:                                              ; preds = %423
  br label %455, !dbg !958

455:                                              ; preds = %454
  %456 = load i64, ptr %34, align 8, !dbg !959
  %457 = add i64 %456, 1, !dbg !959
  store i64 %457, ptr %34, align 8, !dbg !959
  br label %419, !dbg !960, !llvm.loop !961

458:                                              ; preds = %419
  call void @llvm.dbg.declare(metadata ptr %38, metadata !963, metadata !DIExpression()), !dbg !965
  store i64 0, ptr %38, align 8, !dbg !965
  br label %459, !dbg !966

459:                                              ; preds = %505, %458
  %460 = load i64, ptr %38, align 8, !dbg !967
  %461 = icmp ult i64 %460, 22, !dbg !969
  br i1 %461, label %462, label %508, !dbg !970

462:                                              ; preds = %459
  call void @llvm.dbg.declare(metadata ptr %39, metadata !971, metadata !DIExpression()), !dbg !973
  store i64 0, ptr %39, align 8, !dbg !973
  br label %463, !dbg !974

463:                                              ; preds = %501, %462
  %464 = load i64, ptr %39, align 8, !dbg !975
  %465 = icmp ult i64 %464, 22, !dbg !977
  br i1 %465, label %466, label %504, !dbg !978

466:                                              ; preds = %463
  call void @llvm.dbg.declare(metadata ptr %40, metadata !979, metadata !DIExpression()), !dbg !981
  store i64 0, ptr %40, align 8, !dbg !981
  br label %467, !dbg !982

467:                                              ; preds = %497, %466
  %468 = load i64, ptr %40, align 8, !dbg !983
  %469 = icmp ult i64 %468, 22, !dbg !985
  br i1 %469, label %470, label %500, !dbg !986

470:                                              ; preds = %467
  call void @llvm.dbg.declare(metadata ptr %41, metadata !987, metadata !DIExpression()), !dbg !989
  store i64 0, ptr %41, align 8, !dbg !989
  br label %471, !dbg !990

471:                                              ; preds = %493, %470
  %472 = load i64, ptr %41, align 8, !dbg !991
  %473 = icmp ult i64 %472, 22, !dbg !993
  br i1 %473, label %474, label %496, !dbg !994

474:                                              ; preds = %471
  call void @llvm.dbg.declare(metadata ptr %42, metadata !995, metadata !DIExpression()), !dbg !997
  store i64 0, ptr %42, align 8, !dbg !997
  br label %475, !dbg !998

475:                                              ; preds = %489, %474
  %476 = load i64, ptr %42, align 8, !dbg !999
  %477 = icmp ult i64 %476, 22, !dbg !1001
  br i1 %477, label %478, label %492, !dbg !1002

478:                                              ; preds = %475
  %479 = load i64, ptr %38, align 8, !dbg !1003
  %480 = getelementptr inbounds [22 x [22 x [22 x [22 x [22 x i32]]]]], ptr @arr_21, i64 0, i64 %479, !dbg !1004
  %481 = load i64, ptr %39, align 8, !dbg !1005
  %482 = getelementptr inbounds [22 x [22 x [22 x [22 x i32]]]], ptr %480, i64 0, i64 %481, !dbg !1004
  %483 = load i64, ptr %40, align 8, !dbg !1006
  %484 = getelementptr inbounds [22 x [22 x [22 x i32]]], ptr %482, i64 0, i64 %483, !dbg !1004
  %485 = load i64, ptr %41, align 8, !dbg !1007
  %486 = getelementptr inbounds [22 x [22 x i32]], ptr %484, i64 0, i64 %485, !dbg !1004
  %487 = load i64, ptr %42, align 8, !dbg !1008
  %488 = getelementptr inbounds [22 x i32], ptr %486, i64 0, i64 %487, !dbg !1004
  store i32 -1468839345, ptr %488, align 4, !dbg !1009
  br label %489, !dbg !1004

489:                                              ; preds = %478
  %490 = load i64, ptr %42, align 8, !dbg !1010
  %491 = add i64 %490, 1, !dbg !1010
  store i64 %491, ptr %42, align 8, !dbg !1010
  br label %475, !dbg !1011, !llvm.loop !1012

492:                                              ; preds = %475
  br label %493, !dbg !1013

493:                                              ; preds = %492
  %494 = load i64, ptr %41, align 8, !dbg !1014
  %495 = add i64 %494, 1, !dbg !1014
  store i64 %495, ptr %41, align 8, !dbg !1014
  br label %471, !dbg !1015, !llvm.loop !1016

496:                                              ; preds = %471
  br label %497, !dbg !1017

497:                                              ; preds = %496
  %498 = load i64, ptr %40, align 8, !dbg !1018
  %499 = add i64 %498, 1, !dbg !1018
  store i64 %499, ptr %40, align 8, !dbg !1018
  br label %467, !dbg !1019, !llvm.loop !1020

500:                                              ; preds = %467
  br label %501, !dbg !1021

501:                                              ; preds = %500
  %502 = load i64, ptr %39, align 8, !dbg !1022
  %503 = add i64 %502, 1, !dbg !1022
  store i64 %503, ptr %39, align 8, !dbg !1022
  br label %463, !dbg !1023, !llvm.loop !1024

504:                                              ; preds = %463
  br label %505, !dbg !1025

505:                                              ; preds = %504
  %506 = load i64, ptr %38, align 8, !dbg !1026
  %507 = add i64 %506, 1, !dbg !1026
  store i64 %507, ptr %38, align 8, !dbg !1026
  br label %459, !dbg !1027, !llvm.loop !1028

508:                                              ; preds = %459
  call void @llvm.dbg.declare(metadata ptr %43, metadata !1030, metadata !DIExpression()), !dbg !1032
  store i64 0, ptr %43, align 8, !dbg !1032
  br label %509, !dbg !1033

509:                                              ; preds = %565, %508
  %510 = load i64, ptr %43, align 8, !dbg !1034
  %511 = icmp ult i64 %510, 22, !dbg !1036
  br i1 %511, label %512, label %568, !dbg !1037

512:                                              ; preds = %509
  call void @llvm.dbg.declare(metadata ptr %44, metadata !1038, metadata !DIExpression()), !dbg !1040
  store i64 0, ptr %44, align 8, !dbg !1040
  br label %513, !dbg !1041

513:                                              ; preds = %561, %512
  %514 = load i64, ptr %44, align 8, !dbg !1042
  %515 = icmp ult i64 %514, 22, !dbg !1044
  br i1 %515, label %516, label %564, !dbg !1045

516:                                              ; preds = %513
  call void @llvm.dbg.declare(metadata ptr %45, metadata !1046, metadata !DIExpression()), !dbg !1048
  store i64 0, ptr %45, align 8, !dbg !1048
  br label %517, !dbg !1049

517:                                              ; preds = %557, %516
  %518 = load i64, ptr %45, align 8, !dbg !1050
  %519 = icmp ult i64 %518, 22, !dbg !1052
  br i1 %519, label %520, label %560, !dbg !1053

520:                                              ; preds = %517
  call void @llvm.dbg.declare(metadata ptr %46, metadata !1054, metadata !DIExpression()), !dbg !1056
  store i64 0, ptr %46, align 8, !dbg !1056
  br label %521, !dbg !1057

521:                                              ; preds = %553, %520
  %522 = load i64, ptr %46, align 8, !dbg !1058
  %523 = icmp ult i64 %522, 22, !dbg !1060
  br i1 %523, label %524, label %556, !dbg !1061

524:                                              ; preds = %521
  call void @llvm.dbg.declare(metadata ptr %47, metadata !1062, metadata !DIExpression()), !dbg !1064
  store i64 0, ptr %47, align 8, !dbg !1064
  br label %525, !dbg !1065

525:                                              ; preds = %549, %524
  %526 = load i64, ptr %47, align 8, !dbg !1066
  %527 = icmp ult i64 %526, 22, !dbg !1068
  br i1 %527, label %528, label %552, !dbg !1069

528:                                              ; preds = %525
  call void @llvm.dbg.declare(metadata ptr %48, metadata !1070, metadata !DIExpression()), !dbg !1072
  store i64 0, ptr %48, align 8, !dbg !1072
  br label %529, !dbg !1073

529:                                              ; preds = %545, %528
  %530 = load i64, ptr %48, align 8, !dbg !1074
  %531 = icmp ult i64 %530, 22, !dbg !1076
  br i1 %531, label %532, label %548, !dbg !1077

532:                                              ; preds = %529
  %533 = load i64, ptr %43, align 8, !dbg !1078
  %534 = getelementptr inbounds [22 x [22 x [22 x [22 x [22 x [22 x i8]]]]]], ptr @arr_22, i64 0, i64 %533, !dbg !1079
  %535 = load i64, ptr %44, align 8, !dbg !1080
  %536 = getelementptr inbounds [22 x [22 x [22 x [22 x [22 x i8]]]]], ptr %534, i64 0, i64 %535, !dbg !1079
  %537 = load i64, ptr %45, align 8, !dbg !1081
  %538 = getelementptr inbounds [22 x [22 x [22 x [22 x i8]]]], ptr %536, i64 0, i64 %537, !dbg !1079
  %539 = load i64, ptr %46, align 8, !dbg !1082
  %540 = getelementptr inbounds [22 x [22 x [22 x i8]]], ptr %538, i64 0, i64 %539, !dbg !1079
  %541 = load i64, ptr %47, align 8, !dbg !1083
  %542 = getelementptr inbounds [22 x [22 x i8]], ptr %540, i64 0, i64 %541, !dbg !1079
  %543 = load i64, ptr %48, align 8, !dbg !1084
  %544 = getelementptr inbounds [22 x i8], ptr %542, i64 0, i64 %543, !dbg !1079
  store i8 0, ptr %544, align 1, !dbg !1085
  br label %545, !dbg !1079

545:                                              ; preds = %532
  %546 = load i64, ptr %48, align 8, !dbg !1086
  %547 = add i64 %546, 1, !dbg !1086
  store i64 %547, ptr %48, align 8, !dbg !1086
  br label %529, !dbg !1087, !llvm.loop !1088

548:                                              ; preds = %529
  br label %549, !dbg !1089

549:                                              ; preds = %548
  %550 = load i64, ptr %47, align 8, !dbg !1090
  %551 = add i64 %550, 1, !dbg !1090
  store i64 %551, ptr %47, align 8, !dbg !1090
  br label %525, !dbg !1091, !llvm.loop !1092

552:                                              ; preds = %525
  br label %553, !dbg !1093

553:                                              ; preds = %552
  %554 = load i64, ptr %46, align 8, !dbg !1094
  %555 = add i64 %554, 1, !dbg !1094
  store i64 %555, ptr %46, align 8, !dbg !1094
  br label %521, !dbg !1095, !llvm.loop !1096

556:                                              ; preds = %521
  br label %557, !dbg !1097

557:                                              ; preds = %556
  %558 = load i64, ptr %45, align 8, !dbg !1098
  %559 = add i64 %558, 1, !dbg !1098
  store i64 %559, ptr %45, align 8, !dbg !1098
  br label %517, !dbg !1099, !llvm.loop !1100

560:                                              ; preds = %517
  br label %561, !dbg !1101

561:                                              ; preds = %560
  %562 = load i64, ptr %44, align 8, !dbg !1102
  %563 = add i64 %562, 1, !dbg !1102
  store i64 %563, ptr %44, align 8, !dbg !1102
  br label %513, !dbg !1103, !llvm.loop !1104

564:                                              ; preds = %513
  br label %565, !dbg !1105

565:                                              ; preds = %564
  %566 = load i64, ptr %43, align 8, !dbg !1106
  %567 = add i64 %566, 1, !dbg !1106
  store i64 %567, ptr %43, align 8, !dbg !1106
  br label %509, !dbg !1107, !llvm.loop !1108

568:                                              ; preds = %509
  call void @llvm.dbg.declare(metadata ptr %49, metadata !1110, metadata !DIExpression()), !dbg !1112
  store i64 0, ptr %49, align 8, !dbg !1112
  br label %569, !dbg !1113

569:                                              ; preds = %580, %568
  %570 = load i64, ptr %49, align 8, !dbg !1114
  %571 = icmp ult i64 %570, 22, !dbg !1116
  br i1 %571, label %572, label %583, !dbg !1117

572:                                              ; preds = %569
  %573 = load i64, ptr %49, align 8, !dbg !1118
  %574 = urem i64 %573, 2, !dbg !1119
  %575 = icmp eq i64 %574, 0, !dbg !1120
  %576 = zext i1 %575 to i64, !dbg !1121
  %577 = select i1 %575, i16 875, i16 -9938, !dbg !1121
  %578 = load i64, ptr %49, align 8, !dbg !1122
  %579 = getelementptr inbounds [22 x i16], ptr @arr_24, i64 0, i64 %578, !dbg !1123
  store i16 %577, ptr %579, align 2, !dbg !1124
  br label %580, !dbg !1123

580:                                              ; preds = %572
  %581 = load i64, ptr %49, align 8, !dbg !1125
  %582 = add i64 %581, 1, !dbg !1125
  store i64 %582, ptr %49, align 8, !dbg !1125
  br label %569, !dbg !1126, !llvm.loop !1127

583:                                              ; preds = %569
  call void @llvm.dbg.declare(metadata ptr %50, metadata !1129, metadata !DIExpression()), !dbg !1131
  store i64 0, ptr %50, align 8, !dbg !1131
  br label %584, !dbg !1132

584:                                              ; preds = %595, %583
  %585 = load i64, ptr %50, align 8, !dbg !1133
  %586 = icmp ult i64 %585, 22, !dbg !1135
  br i1 %586, label %587, label %598, !dbg !1136

587:                                              ; preds = %584
  %588 = load i64, ptr %50, align 8, !dbg !1137
  %589 = urem i64 %588, 2, !dbg !1138
  %590 = icmp eq i64 %589, 0, !dbg !1139
  %591 = zext i1 %590 to i64, !dbg !1140
  %592 = select i1 %590, i8 -43, i8 65, !dbg !1140
  %593 = load i64, ptr %50, align 8, !dbg !1141
  %594 = getelementptr inbounds [22 x i8], ptr @arr_25, i64 0, i64 %593, !dbg !1142
  store i8 %592, ptr %594, align 1, !dbg !1143
  br label %595, !dbg !1142

595:                                              ; preds = %587
  %596 = load i64, ptr %50, align 8, !dbg !1144
  %597 = add i64 %596, 1, !dbg !1144
  store i64 %597, ptr %50, align 8, !dbg !1144
  br label %584, !dbg !1145, !llvm.loop !1146

598:                                              ; preds = %584
  call void @llvm.dbg.declare(metadata ptr %51, metadata !1148, metadata !DIExpression()), !dbg !1150
  store i64 0, ptr %51, align 8, !dbg !1150
  br label %599, !dbg !1151

599:                                              ; preds = %605, %598
  %600 = load i64, ptr %51, align 8, !dbg !1152
  %601 = icmp ult i64 %600, 22, !dbg !1154
  br i1 %601, label %602, label %608, !dbg !1155

602:                                              ; preds = %599
  %603 = load i64, ptr %51, align 8, !dbg !1156
  %604 = getelementptr inbounds [22 x i64], ptr @arr_26, i64 0, i64 %603, !dbg !1157
  store i64 -6965827602424399664, ptr %604, align 8, !dbg !1158
  br label %605, !dbg !1157

605:                                              ; preds = %602
  %606 = load i64, ptr %51, align 8, !dbg !1159
  %607 = add i64 %606, 1, !dbg !1159
  store i64 %607, ptr %51, align 8, !dbg !1159
  br label %599, !dbg !1160, !llvm.loop !1161

608:                                              ; preds = %599
  call void @llvm.dbg.declare(metadata ptr %52, metadata !1163, metadata !DIExpression()), !dbg !1165
  store i64 0, ptr %52, align 8, !dbg !1165
  br label %609, !dbg !1166

609:                                              ; preds = %620, %608
  %610 = load i64, ptr %52, align 8, !dbg !1167
  %611 = icmp ult i64 %610, 22, !dbg !1169
  br i1 %611, label %612, label %623, !dbg !1170

612:                                              ; preds = %609
  %613 = load i64, ptr %52, align 8, !dbg !1171
  %614 = urem i64 %613, 2, !dbg !1172
  %615 = icmp eq i64 %614, 0, !dbg !1173
  %616 = zext i1 %615 to i64, !dbg !1174
  %617 = select i1 %615, i8 42, i8 -87, !dbg !1174
  %618 = load i64, ptr %52, align 8, !dbg !1175
  %619 = getelementptr inbounds [22 x i8], ptr @arr_30, i64 0, i64 %618, !dbg !1176
  store i8 %617, ptr %619, align 1, !dbg !1177
  br label %620, !dbg !1176

620:                                              ; preds = %612
  %621 = load i64, ptr %52, align 8, !dbg !1178
  %622 = add i64 %621, 1, !dbg !1178
  store i64 %622, ptr %52, align 8, !dbg !1178
  br label %609, !dbg !1179, !llvm.loop !1180

623:                                              ; preds = %609
  call void @llvm.dbg.declare(metadata ptr %53, metadata !1182, metadata !DIExpression()), !dbg !1184
  store i64 0, ptr %53, align 8, !dbg !1184
  br label %624, !dbg !1185

624:                                              ; preds = %660, %623
  %625 = load i64, ptr %53, align 8, !dbg !1186
  %626 = icmp ult i64 %625, 22, !dbg !1188
  br i1 %626, label %627, label %663, !dbg !1189

627:                                              ; preds = %624
  call void @llvm.dbg.declare(metadata ptr %54, metadata !1190, metadata !DIExpression()), !dbg !1192
  store i64 0, ptr %54, align 8, !dbg !1192
  br label %628, !dbg !1193

628:                                              ; preds = %656, %627
  %629 = load i64, ptr %54, align 8, !dbg !1194
  %630 = icmp ult i64 %629, 22, !dbg !1196
  br i1 %630, label %631, label %659, !dbg !1197

631:                                              ; preds = %628
  call void @llvm.dbg.declare(metadata ptr %55, metadata !1198, metadata !DIExpression()), !dbg !1200
  store i64 0, ptr %55, align 8, !dbg !1200
  br label %632, !dbg !1201

632:                                              ; preds = %652, %631
  %633 = load i64, ptr %55, align 8, !dbg !1202
  %634 = icmp ult i64 %633, 22, !dbg !1204
  br i1 %634, label %635, label %655, !dbg !1205

635:                                              ; preds = %632
  call void @llvm.dbg.declare(metadata ptr %56, metadata !1206, metadata !DIExpression()), !dbg !1208
  store i64 0, ptr %56, align 8, !dbg !1208
  br label %636, !dbg !1209

636:                                              ; preds = %648, %635
  %637 = load i64, ptr %56, align 8, !dbg !1210
  %638 = icmp ult i64 %637, 22, !dbg !1212
  br i1 %638, label %639, label %651, !dbg !1213

639:                                              ; preds = %636
  %640 = load i64, ptr %53, align 8, !dbg !1214
  %641 = getelementptr inbounds [22 x [22 x [22 x [22 x i32]]]], ptr @arr_32, i64 0, i64 %640, !dbg !1215
  %642 = load i64, ptr %54, align 8, !dbg !1216
  %643 = getelementptr inbounds [22 x [22 x [22 x i32]]], ptr %641, i64 0, i64 %642, !dbg !1215
  %644 = load i64, ptr %55, align 8, !dbg !1217
  %645 = getelementptr inbounds [22 x [22 x i32]], ptr %643, i64 0, i64 %644, !dbg !1215
  %646 = load i64, ptr %56, align 8, !dbg !1218
  %647 = getelementptr inbounds [22 x i32], ptr %645, i64 0, i64 %646, !dbg !1215
  store i32 1617335247, ptr %647, align 4, !dbg !1219
  br label %648, !dbg !1215

648:                                              ; preds = %639
  %649 = load i64, ptr %56, align 8, !dbg !1220
  %650 = add i64 %649, 1, !dbg !1220
  store i64 %650, ptr %56, align 8, !dbg !1220
  br label %636, !dbg !1221, !llvm.loop !1222

651:                                              ; preds = %636
  br label %652, !dbg !1223

652:                                              ; preds = %651
  %653 = load i64, ptr %55, align 8, !dbg !1224
  %654 = add i64 %653, 1, !dbg !1224
  store i64 %654, ptr %55, align 8, !dbg !1224
  br label %632, !dbg !1225, !llvm.loop !1226

655:                                              ; preds = %632
  br label %656, !dbg !1227

656:                                              ; preds = %655
  %657 = load i64, ptr %54, align 8, !dbg !1228
  %658 = add i64 %657, 1, !dbg !1228
  store i64 %658, ptr %54, align 8, !dbg !1228
  br label %628, !dbg !1229, !llvm.loop !1230

659:                                              ; preds = %628
  br label %660, !dbg !1231

660:                                              ; preds = %659
  %661 = load i64, ptr %53, align 8, !dbg !1232
  %662 = add i64 %661, 1, !dbg !1232
  store i64 %662, ptr %53, align 8, !dbg !1232
  br label %624, !dbg !1233, !llvm.loop !1234

663:                                              ; preds = %624
  call void @llvm.dbg.declare(metadata ptr %57, metadata !1236, metadata !DIExpression()), !dbg !1238
  store i64 0, ptr %57, align 8, !dbg !1238
  br label %664, !dbg !1239

664:                                              ; preds = %705, %663
  %665 = load i64, ptr %57, align 8, !dbg !1240
  %666 = icmp ult i64 %665, 22, !dbg !1242
  br i1 %666, label %667, label %708, !dbg !1243

667:                                              ; preds = %664
  call void @llvm.dbg.declare(metadata ptr %58, metadata !1244, metadata !DIExpression()), !dbg !1246
  store i64 0, ptr %58, align 8, !dbg !1246
  br label %668, !dbg !1247

668:                                              ; preds = %701, %667
  %669 = load i64, ptr %58, align 8, !dbg !1248
  %670 = icmp ult i64 %669, 22, !dbg !1250
  br i1 %670, label %671, label %704, !dbg !1251

671:                                              ; preds = %668
  call void @llvm.dbg.declare(metadata ptr %59, metadata !1252, metadata !DIExpression()), !dbg !1254
  store i64 0, ptr %59, align 8, !dbg !1254
  br label %672, !dbg !1255

672:                                              ; preds = %697, %671
  %673 = load i64, ptr %59, align 8, !dbg !1256
  %674 = icmp ult i64 %673, 22, !dbg !1258
  br i1 %674, label %675, label %700, !dbg !1259

675:                                              ; preds = %672
  call void @llvm.dbg.declare(metadata ptr %60, metadata !1260, metadata !DIExpression()), !dbg !1262
  store i64 0, ptr %60, align 8, !dbg !1262
  br label %676, !dbg !1263

676:                                              ; preds = %693, %675
  %677 = load i64, ptr %60, align 8, !dbg !1264
  %678 = icmp ult i64 %677, 22, !dbg !1266
  br i1 %678, label %679, label %696, !dbg !1267

679:                                              ; preds = %676
  %680 = load i64, ptr %60, align 8, !dbg !1268
  %681 = urem i64 %680, 2, !dbg !1269
  %682 = icmp eq i64 %681, 0, !dbg !1270
  %683 = zext i1 %682 to i64, !dbg !1271
  %684 = select i1 %682, i8 114, i8 -31, !dbg !1271
  %685 = load i64, ptr %57, align 8, !dbg !1272
  %686 = getelementptr inbounds [22 x [22 x [22 x [22 x i8]]]], ptr @arr_35, i64 0, i64 %685, !dbg !1273
  %687 = load i64, ptr %58, align 8, !dbg !1274
  %688 = getelementptr inbounds [22 x [22 x [22 x i8]]], ptr %686, i64 0, i64 %687, !dbg !1273
  %689 = load i64, ptr %59, align 8, !dbg !1275
  %690 = getelementptr inbounds [22 x [22 x i8]], ptr %688, i64 0, i64 %689, !dbg !1273
  %691 = load i64, ptr %60, align 8, !dbg !1276
  %692 = getelementptr inbounds [22 x i8], ptr %690, i64 0, i64 %691, !dbg !1273
  store i8 %684, ptr %692, align 1, !dbg !1277
  br label %693, !dbg !1273

693:                                              ; preds = %679
  %694 = load i64, ptr %60, align 8, !dbg !1278
  %695 = add i64 %694, 1, !dbg !1278
  store i64 %695, ptr %60, align 8, !dbg !1278
  br label %676, !dbg !1279, !llvm.loop !1280

696:                                              ; preds = %676
  br label %697, !dbg !1281

697:                                              ; preds = %696
  %698 = load i64, ptr %59, align 8, !dbg !1282
  %699 = add i64 %698, 1, !dbg !1282
  store i64 %699, ptr %59, align 8, !dbg !1282
  br label %672, !dbg !1283, !llvm.loop !1284

700:                                              ; preds = %672
  br label %701, !dbg !1285

701:                                              ; preds = %700
  %702 = load i64, ptr %58, align 8, !dbg !1286
  %703 = add i64 %702, 1, !dbg !1286
  store i64 %703, ptr %58, align 8, !dbg !1286
  br label %668, !dbg !1287, !llvm.loop !1288

704:                                              ; preds = %668
  br label %705, !dbg !1289

705:                                              ; preds = %704
  %706 = load i64, ptr %57, align 8, !dbg !1290
  %707 = add i64 %706, 1, !dbg !1290
  store i64 %707, ptr %57, align 8, !dbg !1290
  br label %664, !dbg !1291, !llvm.loop !1292

708:                                              ; preds = %664
  call void @llvm.dbg.declare(metadata ptr %61, metadata !1294, metadata !DIExpression()), !dbg !1296
  store i64 0, ptr %61, align 8, !dbg !1296
  br label %709, !dbg !1297

709:                                              ; preds = %745, %708
  %710 = load i64, ptr %61, align 8, !dbg !1298
  %711 = icmp ult i64 %710, 22, !dbg !1300
  br i1 %711, label %712, label %748, !dbg !1301

712:                                              ; preds = %709
  call void @llvm.dbg.declare(metadata ptr %62, metadata !1302, metadata !DIExpression()), !dbg !1304
  store i64 0, ptr %62, align 8, !dbg !1304
  br label %713, !dbg !1305

713:                                              ; preds = %741, %712
  %714 = load i64, ptr %62, align 8, !dbg !1306
  %715 = icmp ult i64 %714, 22, !dbg !1308
  br i1 %715, label %716, label %744, !dbg !1309

716:                                              ; preds = %713
  call void @llvm.dbg.declare(metadata ptr %63, metadata !1310, metadata !DIExpression()), !dbg !1312
  store i64 0, ptr %63, align 8, !dbg !1312
  br label %717, !dbg !1313

717:                                              ; preds = %737, %716
  %718 = load i64, ptr %63, align 8, !dbg !1314
  %719 = icmp ult i64 %718, 22, !dbg !1316
  br i1 %719, label %720, label %740, !dbg !1317

720:                                              ; preds = %717
  call void @llvm.dbg.declare(metadata ptr %64, metadata !1318, metadata !DIExpression()), !dbg !1320
  store i64 0, ptr %64, align 8, !dbg !1320
  br label %721, !dbg !1321

721:                                              ; preds = %733, %720
  %722 = load i64, ptr %64, align 8, !dbg !1322
  %723 = icmp ult i64 %722, 22, !dbg !1324
  br i1 %723, label %724, label %736, !dbg !1325

724:                                              ; preds = %721
  %725 = load i64, ptr %61, align 8, !dbg !1326
  %726 = getelementptr inbounds [22 x [22 x [22 x [22 x i8]]]], ptr @arr_44, i64 0, i64 %725, !dbg !1327
  %727 = load i64, ptr %62, align 8, !dbg !1328
  %728 = getelementptr inbounds [22 x [22 x [22 x i8]]], ptr %726, i64 0, i64 %727, !dbg !1327
  %729 = load i64, ptr %63, align 8, !dbg !1329
  %730 = getelementptr inbounds [22 x [22 x i8]], ptr %728, i64 0, i64 %729, !dbg !1327
  %731 = load i64, ptr %64, align 8, !dbg !1330
  %732 = getelementptr inbounds [22 x i8], ptr %730, i64 0, i64 %731, !dbg !1327
  store i8 -119, ptr %732, align 1, !dbg !1331
  br label %733, !dbg !1327

733:                                              ; preds = %724
  %734 = load i64, ptr %64, align 8, !dbg !1332
  %735 = add i64 %734, 1, !dbg !1332
  store i64 %735, ptr %64, align 8, !dbg !1332
  br label %721, !dbg !1333, !llvm.loop !1334

736:                                              ; preds = %721
  br label %737, !dbg !1335

737:                                              ; preds = %736
  %738 = load i64, ptr %63, align 8, !dbg !1336
  %739 = add i64 %738, 1, !dbg !1336
  store i64 %739, ptr %63, align 8, !dbg !1336
  br label %717, !dbg !1337, !llvm.loop !1338

740:                                              ; preds = %717
  br label %741, !dbg !1339

741:                                              ; preds = %740
  %742 = load i64, ptr %62, align 8, !dbg !1340
  %743 = add i64 %742, 1, !dbg !1340
  store i64 %743, ptr %62, align 8, !dbg !1340
  br label %713, !dbg !1341, !llvm.loop !1342

744:                                              ; preds = %713
  br label %745, !dbg !1343

745:                                              ; preds = %744
  %746 = load i64, ptr %61, align 8, !dbg !1344
  %747 = add i64 %746, 1, !dbg !1344
  store i64 %747, ptr %61, align 8, !dbg !1344
  br label %709, !dbg !1345, !llvm.loop !1346

748:                                              ; preds = %709
  call void @llvm.dbg.declare(metadata ptr %65, metadata !1348, metadata !DIExpression()), !dbg !1350
  store i64 0, ptr %65, align 8, !dbg !1350
  br label %749, !dbg !1351

749:                                              ; preds = %760, %748
  %750 = load i64, ptr %65, align 8, !dbg !1352
  %751 = icmp ult i64 %750, 19, !dbg !1354
  br i1 %751, label %752, label %763, !dbg !1355

752:                                              ; preds = %749
  %753 = load i64, ptr %65, align 8, !dbg !1356
  %754 = urem i64 %753, 2, !dbg !1357
  %755 = icmp eq i64 %754, 0, !dbg !1358
  %756 = zext i1 %755 to i64, !dbg !1359
  %757 = select i1 %755, i8 -1, i8 50, !dbg !1359
  %758 = load i64, ptr %65, align 8, !dbg !1360
  %759 = getelementptr inbounds [19 x i8], ptr @arr_2, i64 0, i64 %758, !dbg !1361
  store i8 %757, ptr %759, align 1, !dbg !1362
  br label %760, !dbg !1361

760:                                              ; preds = %752
  %761 = load i64, ptr %65, align 8, !dbg !1363
  %762 = add i64 %761, 1, !dbg !1363
  store i64 %762, ptr %65, align 8, !dbg !1363
  br label %749, !dbg !1364, !llvm.loop !1365

763:                                              ; preds = %749
  call void @llvm.dbg.declare(metadata ptr %66, metadata !1367, metadata !DIExpression()), !dbg !1369
  store i64 0, ptr %66, align 8, !dbg !1369
  br label %764, !dbg !1370

764:                                              ; preds = %775, %763
  %765 = load i64, ptr %66, align 8, !dbg !1371
  %766 = icmp ult i64 %765, 19, !dbg !1373
  br i1 %766, label %767, label %778, !dbg !1374

767:                                              ; preds = %764
  %768 = load i64, ptr %66, align 8, !dbg !1375
  %769 = urem i64 %768, 2, !dbg !1376
  %770 = icmp eq i64 %769, 0, !dbg !1377
  %771 = zext i1 %770 to i64, !dbg !1378
  %772 = select i1 %770, i64 2679191481587212125, i64 1530084395188669148, !dbg !1378
  %773 = load i64, ptr %66, align 8, !dbg !1379
  %774 = getelementptr inbounds [19 x i64], ptr @arr_3, i64 0, i64 %773, !dbg !1380
  store i64 %772, ptr %774, align 8, !dbg !1381
  br label %775, !dbg !1380

775:                                              ; preds = %767
  %776 = load i64, ptr %66, align 8, !dbg !1382
  %777 = add i64 %776, 1, !dbg !1382
  store i64 %777, ptr %66, align 8, !dbg !1382
  br label %764, !dbg !1383, !llvm.loop !1384

778:                                              ; preds = %764
  call void @llvm.dbg.declare(metadata ptr %67, metadata !1386, metadata !DIExpression()), !dbg !1388
  store i64 0, ptr %67, align 8, !dbg !1388
  br label %779, !dbg !1389

779:                                              ; preds = %795, %778
  %780 = load i64, ptr %67, align 8, !dbg !1390
  %781 = icmp ult i64 %780, 22, !dbg !1392
  br i1 %781, label %782, label %798, !dbg !1393

782:                                              ; preds = %779
  call void @llvm.dbg.declare(metadata ptr %68, metadata !1394, metadata !DIExpression()), !dbg !1396
  store i64 0, ptr %68, align 8, !dbg !1396
  br label %783, !dbg !1397

783:                                              ; preds = %791, %782
  %784 = load i64, ptr %68, align 8, !dbg !1398
  %785 = icmp ult i64 %784, 22, !dbg !1400
  br i1 %785, label %786, label %794, !dbg !1401

786:                                              ; preds = %783
  %787 = load i64, ptr %67, align 8, !dbg !1402
  %788 = getelementptr inbounds [22 x [22 x i64]], ptr @arr_6, i64 0, i64 %787, !dbg !1403
  %789 = load i64, ptr %68, align 8, !dbg !1404
  %790 = getelementptr inbounds [22 x i64], ptr %788, i64 0, i64 %789, !dbg !1403
  store i64 5987009265921489471, ptr %790, align 8, !dbg !1405
  br label %791, !dbg !1403

791:                                              ; preds = %786
  %792 = load i64, ptr %68, align 8, !dbg !1406
  %793 = add i64 %792, 1, !dbg !1406
  store i64 %793, ptr %68, align 8, !dbg !1406
  br label %783, !dbg !1407, !llvm.loop !1408

794:                                              ; preds = %783
  br label %795, !dbg !1409

795:                                              ; preds = %794
  %796 = load i64, ptr %67, align 8, !dbg !1410
  %797 = add i64 %796, 1, !dbg !1410
  store i64 %797, ptr %67, align 8, !dbg !1410
  br label %779, !dbg !1411, !llvm.loop !1412

798:                                              ; preds = %779
  call void @llvm.dbg.declare(metadata ptr %69, metadata !1414, metadata !DIExpression()), !dbg !1416
  store i64 0, ptr %69, align 8, !dbg !1416
  br label %799, !dbg !1417

799:                                              ; preds = %825, %798
  %800 = load i64, ptr %69, align 8, !dbg !1418
  %801 = icmp ult i64 %800, 22, !dbg !1420
  br i1 %801, label %802, label %828, !dbg !1421

802:                                              ; preds = %799
  call void @llvm.dbg.declare(metadata ptr %70, metadata !1422, metadata !DIExpression()), !dbg !1424
  store i64 0, ptr %70, align 8, !dbg !1424
  br label %803, !dbg !1425

803:                                              ; preds = %821, %802
  %804 = load i64, ptr %70, align 8, !dbg !1426
  %805 = icmp ult i64 %804, 22, !dbg !1428
  br i1 %805, label %806, label %824, !dbg !1429

806:                                              ; preds = %803
  call void @llvm.dbg.declare(metadata ptr %71, metadata !1430, metadata !DIExpression()), !dbg !1432
  store i64 0, ptr %71, align 8, !dbg !1432
  br label %807, !dbg !1433

807:                                              ; preds = %817, %806
  %808 = load i64, ptr %71, align 8, !dbg !1434
  %809 = icmp ult i64 %808, 22, !dbg !1436
  br i1 %809, label %810, label %820, !dbg !1437

810:                                              ; preds = %807
  %811 = load i64, ptr %69, align 8, !dbg !1438
  %812 = getelementptr inbounds [22 x [22 x [22 x i8]]], ptr @arr_16, i64 0, i64 %811, !dbg !1439
  %813 = load i64, ptr %70, align 8, !dbg !1440
  %814 = getelementptr inbounds [22 x [22 x i8]], ptr %812, i64 0, i64 %813, !dbg !1439
  %815 = load i64, ptr %71, align 8, !dbg !1441
  %816 = getelementptr inbounds [22 x i8], ptr %814, i64 0, i64 %815, !dbg !1439
  store i8 112, ptr %816, align 1, !dbg !1442
  br label %817, !dbg !1439

817:                                              ; preds = %810
  %818 = load i64, ptr %71, align 8, !dbg !1443
  %819 = add i64 %818, 1, !dbg !1443
  store i64 %819, ptr %71, align 8, !dbg !1443
  br label %807, !dbg !1444, !llvm.loop !1445

820:                                              ; preds = %807
  br label %821, !dbg !1446

821:                                              ; preds = %820
  %822 = load i64, ptr %70, align 8, !dbg !1447
  %823 = add i64 %822, 1, !dbg !1447
  store i64 %823, ptr %70, align 8, !dbg !1447
  br label %803, !dbg !1448, !llvm.loop !1449

824:                                              ; preds = %803
  br label %825, !dbg !1450

825:                                              ; preds = %824
  %826 = load i64, ptr %69, align 8, !dbg !1451
  %827 = add i64 %826, 1, !dbg !1451
  store i64 %827, ptr %69, align 8, !dbg !1451
  br label %799, !dbg !1452, !llvm.loop !1453

828:                                              ; preds = %799
  call void @llvm.dbg.declare(metadata ptr %72, metadata !1455, metadata !DIExpression()), !dbg !1457
  store i64 0, ptr %72, align 8, !dbg !1457
  br label %829, !dbg !1458

829:                                              ; preds = %865, %828
  %830 = load i64, ptr %72, align 8, !dbg !1459
  %831 = icmp ult i64 %830, 22, !dbg !1461
  br i1 %831, label %832, label %868, !dbg !1462

832:                                              ; preds = %829
  call void @llvm.dbg.declare(metadata ptr %73, metadata !1463, metadata !DIExpression()), !dbg !1465
  store i64 0, ptr %73, align 8, !dbg !1465
  br label %833, !dbg !1466

833:                                              ; preds = %861, %832
  %834 = load i64, ptr %73, align 8, !dbg !1467
  %835 = icmp ult i64 %834, 22, !dbg !1469
  br i1 %835, label %836, label %864, !dbg !1470

836:                                              ; preds = %833
  call void @llvm.dbg.declare(metadata ptr %74, metadata !1471, metadata !DIExpression()), !dbg !1473
  store i64 0, ptr %74, align 8, !dbg !1473
  br label %837, !dbg !1474

837:                                              ; preds = %857, %836
  %838 = load i64, ptr %74, align 8, !dbg !1475
  %839 = icmp ult i64 %838, 22, !dbg !1477
  br i1 %839, label %840, label %860, !dbg !1478

840:                                              ; preds = %837
  call void @llvm.dbg.declare(metadata ptr %75, metadata !1479, metadata !DIExpression()), !dbg !1481
  store i64 0, ptr %75, align 8, !dbg !1481
  br label %841, !dbg !1482

841:                                              ; preds = %853, %840
  %842 = load i64, ptr %75, align 8, !dbg !1483
  %843 = icmp ult i64 %842, 22, !dbg !1485
  br i1 %843, label %844, label %856, !dbg !1486

844:                                              ; preds = %841
  %845 = load i64, ptr %72, align 8, !dbg !1487
  %846 = getelementptr inbounds [22 x [22 x [22 x [22 x i32]]]], ptr @arr_23, i64 0, i64 %845, !dbg !1488
  %847 = load i64, ptr %73, align 8, !dbg !1489
  %848 = getelementptr inbounds [22 x [22 x [22 x i32]]], ptr %846, i64 0, i64 %847, !dbg !1488
  %849 = load i64, ptr %74, align 8, !dbg !1490
  %850 = getelementptr inbounds [22 x [22 x i32]], ptr %848, i64 0, i64 %849, !dbg !1488
  %851 = load i64, ptr %75, align 8, !dbg !1491
  %852 = getelementptr inbounds [22 x i32], ptr %850, i64 0, i64 %851, !dbg !1488
  store i32 -1638565010, ptr %852, align 4, !dbg !1492
  br label %853, !dbg !1488

853:                                              ; preds = %844
  %854 = load i64, ptr %75, align 8, !dbg !1493
  %855 = add i64 %854, 1, !dbg !1493
  store i64 %855, ptr %75, align 8, !dbg !1493
  br label %841, !dbg !1494, !llvm.loop !1495

856:                                              ; preds = %841
  br label %857, !dbg !1496

857:                                              ; preds = %856
  %858 = load i64, ptr %74, align 8, !dbg !1497
  %859 = add i64 %858, 1, !dbg !1497
  store i64 %859, ptr %74, align 8, !dbg !1497
  br label %837, !dbg !1498, !llvm.loop !1499

860:                                              ; preds = %837
  br label %861, !dbg !1500

861:                                              ; preds = %860
  %862 = load i64, ptr %73, align 8, !dbg !1501
  %863 = add i64 %862, 1, !dbg !1501
  store i64 %863, ptr %73, align 8, !dbg !1501
  br label %833, !dbg !1502, !llvm.loop !1503

864:                                              ; preds = %833
  br label %865, !dbg !1504

865:                                              ; preds = %864
  %866 = load i64, ptr %72, align 8, !dbg !1505
  %867 = add i64 %866, 1, !dbg !1505
  store i64 %867, ptr %72, align 8, !dbg !1505
  br label %829, !dbg !1506, !llvm.loop !1507

868:                                              ; preds = %829
  call void @llvm.dbg.declare(metadata ptr %76, metadata !1509, metadata !DIExpression()), !dbg !1511
  store i64 0, ptr %76, align 8, !dbg !1511
  br label %869, !dbg !1512

869:                                              ; preds = %880, %868
  %870 = load i64, ptr %76, align 8, !dbg !1513
  %871 = icmp ult i64 %870, 22, !dbg !1515
  br i1 %871, label %872, label %883, !dbg !1516

872:                                              ; preds = %869
  %873 = load i64, ptr %76, align 8, !dbg !1517
  %874 = urem i64 %873, 2, !dbg !1518
  %875 = icmp eq i64 %874, 0, !dbg !1519
  %876 = zext i1 %875 to i64, !dbg !1520
  %877 = select i1 %875, i16 -31228, i16 -8792, !dbg !1520
  %878 = load i64, ptr %76, align 8, !dbg !1521
  %879 = getelementptr inbounds [22 x i16], ptr @arr_27, i64 0, i64 %878, !dbg !1522
  store i16 %877, ptr %879, align 2, !dbg !1523
  br label %880, !dbg !1522

880:                                              ; preds = %872
  %881 = load i64, ptr %76, align 8, !dbg !1524
  %882 = add i64 %881, 1, !dbg !1524
  store i64 %882, ptr %76, align 8, !dbg !1524
  br label %869, !dbg !1525, !llvm.loop !1526

883:                                              ; preds = %869
  call void @llvm.dbg.declare(metadata ptr %77, metadata !1528, metadata !DIExpression()), !dbg !1530
  store i64 0, ptr %77, align 8, !dbg !1530
  br label %884, !dbg !1531

884:                                              ; preds = %905, %883
  %885 = load i64, ptr %77, align 8, !dbg !1532
  %886 = icmp ult i64 %885, 22, !dbg !1534
  br i1 %886, label %887, label %908, !dbg !1535

887:                                              ; preds = %884
  call void @llvm.dbg.declare(metadata ptr %78, metadata !1536, metadata !DIExpression()), !dbg !1538
  store i64 0, ptr %78, align 8, !dbg !1538
  br label %888, !dbg !1539

888:                                              ; preds = %901, %887
  %889 = load i64, ptr %78, align 8, !dbg !1540
  %890 = icmp ult i64 %889, 22, !dbg !1542
  br i1 %890, label %891, label %904, !dbg !1543

891:                                              ; preds = %888
  %892 = load i64, ptr %78, align 8, !dbg !1544
  %893 = urem i64 %892, 2, !dbg !1545
  %894 = icmp eq i64 %893, 0, !dbg !1546
  %895 = zext i1 %894 to i64, !dbg !1547
  %896 = select i1 %894, i8 -100, i8 103, !dbg !1547
  %897 = load i64, ptr %77, align 8, !dbg !1548
  %898 = getelementptr inbounds [22 x [22 x i8]], ptr @arr_37, i64 0, i64 %897, !dbg !1549
  %899 = load i64, ptr %78, align 8, !dbg !1550
  %900 = getelementptr inbounds [22 x i8], ptr %898, i64 0, i64 %899, !dbg !1549
  store i8 %896, ptr %900, align 1, !dbg !1551
  br label %901, !dbg !1549

901:                                              ; preds = %891
  %902 = load i64, ptr %78, align 8, !dbg !1552
  %903 = add i64 %902, 1, !dbg !1552
  store i64 %903, ptr %78, align 8, !dbg !1552
  br label %888, !dbg !1553, !llvm.loop !1554

904:                                              ; preds = %888
  br label %905, !dbg !1555

905:                                              ; preds = %904
  %906 = load i64, ptr %77, align 8, !dbg !1556
  %907 = add i64 %906, 1, !dbg !1556
  store i64 %907, ptr %77, align 8, !dbg !1556
  br label %884, !dbg !1557, !llvm.loop !1558

908:                                              ; preds = %884
  call void @llvm.dbg.declare(metadata ptr %79, metadata !1560, metadata !DIExpression()), !dbg !1562
  store i64 0, ptr %79, align 8, !dbg !1562
  br label %909, !dbg !1563

909:                                              ; preds = %941, %908
  %910 = load i64, ptr %79, align 8, !dbg !1564
  %911 = icmp ult i64 %910, 22, !dbg !1566
  br i1 %911, label %912, label %944, !dbg !1567

912:                                              ; preds = %909
  call void @llvm.dbg.declare(metadata ptr %80, metadata !1568, metadata !DIExpression()), !dbg !1570
  store i64 0, ptr %80, align 8, !dbg !1570
  br label %913, !dbg !1571

913:                                              ; preds = %937, %912
  %914 = load i64, ptr %80, align 8, !dbg !1572
  %915 = icmp ult i64 %914, 22, !dbg !1574
  br i1 %915, label %916, label %940, !dbg !1575

916:                                              ; preds = %913
  call void @llvm.dbg.declare(metadata ptr %81, metadata !1576, metadata !DIExpression()), !dbg !1578
  store i64 0, ptr %81, align 8, !dbg !1578
  br label %917, !dbg !1579

917:                                              ; preds = %933, %916
  %918 = load i64, ptr %81, align 8, !dbg !1580
  %919 = icmp ult i64 %918, 22, !dbg !1582
  br i1 %919, label %920, label %936, !dbg !1583

920:                                              ; preds = %917
  %921 = load i64, ptr %79, align 8, !dbg !1584
  %922 = urem i64 %921, 2, !dbg !1585
  %923 = icmp eq i64 %922, 0, !dbg !1586
  %924 = zext i1 %923 to i64, !dbg !1587
  %925 = select i1 %923, i1 true, i1 false, !dbg !1587
  %926 = load i64, ptr %79, align 8, !dbg !1588
  %927 = getelementptr inbounds [22 x [22 x [22 x i8]]], ptr @arr_38, i64 0, i64 %926, !dbg !1589
  %928 = load i64, ptr %80, align 8, !dbg !1590
  %929 = getelementptr inbounds [22 x [22 x i8]], ptr %927, i64 0, i64 %928, !dbg !1589
  %930 = load i64, ptr %81, align 8, !dbg !1591
  %931 = getelementptr inbounds [22 x i8], ptr %929, i64 0, i64 %930, !dbg !1589
  %932 = zext i1 %925 to i8, !dbg !1592
  store i8 %932, ptr %931, align 1, !dbg !1592
  br label %933, !dbg !1589

933:                                              ; preds = %920
  %934 = load i64, ptr %81, align 8, !dbg !1593
  %935 = add i64 %934, 1, !dbg !1593
  store i64 %935, ptr %81, align 8, !dbg !1593
  br label %917, !dbg !1594, !llvm.loop !1595

936:                                              ; preds = %917
  br label %937, !dbg !1596

937:                                              ; preds = %936
  %938 = load i64, ptr %80, align 8, !dbg !1597
  %939 = add i64 %938, 1, !dbg !1597
  store i64 %939, ptr %80, align 8, !dbg !1597
  br label %913, !dbg !1598, !llvm.loop !1599

940:                                              ; preds = %913
  br label %941, !dbg !1600

941:                                              ; preds = %940
  %942 = load i64, ptr %79, align 8, !dbg !1601
  %943 = add i64 %942, 1, !dbg !1601
  store i64 %943, ptr %79, align 8, !dbg !1601
  br label %909, !dbg !1602, !llvm.loop !1603

944:                                              ; preds = %909
  call void @llvm.dbg.declare(metadata ptr %82, metadata !1605, metadata !DIExpression()), !dbg !1607
  store i64 0, ptr %82, align 8, !dbg !1607
  br label %945, !dbg !1608

945:                                              ; preds = %966, %944
  %946 = load i64, ptr %82, align 8, !dbg !1609
  %947 = icmp ult i64 %946, 22, !dbg !1611
  br i1 %947, label %948, label %969, !dbg !1612

948:                                              ; preds = %945
  call void @llvm.dbg.declare(metadata ptr %83, metadata !1613, metadata !DIExpression()), !dbg !1615
  store i64 0, ptr %83, align 8, !dbg !1615
  br label %949, !dbg !1616

949:                                              ; preds = %962, %948
  %950 = load i64, ptr %83, align 8, !dbg !1617
  %951 = icmp ult i64 %950, 22, !dbg !1619
  br i1 %951, label %952, label %965, !dbg !1620

952:                                              ; preds = %949
  %953 = load i64, ptr %83, align 8, !dbg !1621
  %954 = urem i64 %953, 2, !dbg !1622
  %955 = icmp eq i64 %954, 0, !dbg !1623
  %956 = zext i1 %955 to i64, !dbg !1624
  %957 = select i1 %955, i32 944323087, i32 1854184194, !dbg !1624
  %958 = load i64, ptr %82, align 8, !dbg !1625
  %959 = getelementptr inbounds [22 x [22 x i32]], ptr @arr_41, i64 0, i64 %958, !dbg !1626
  %960 = load i64, ptr %83, align 8, !dbg !1627
  %961 = getelementptr inbounds [22 x i32], ptr %959, i64 0, i64 %960, !dbg !1626
  store i32 %957, ptr %961, align 4, !dbg !1628
  br label %962, !dbg !1626

962:                                              ; preds = %952
  %963 = load i64, ptr %83, align 8, !dbg !1629
  %964 = add i64 %963, 1, !dbg !1629
  store i64 %964, ptr %83, align 8, !dbg !1629
  br label %949, !dbg !1630, !llvm.loop !1631

965:                                              ; preds = %949
  br label %966, !dbg !1632

966:                                              ; preds = %965
  %967 = load i64, ptr %82, align 8, !dbg !1633
  %968 = add i64 %967, 1, !dbg !1633
  store i64 %968, ptr %82, align 8, !dbg !1633
  br label %945, !dbg !1634, !llvm.loop !1635

969:                                              ; preds = %945
  call void @llvm.dbg.declare(metadata ptr %84, metadata !1637, metadata !DIExpression()), !dbg !1639
  store i64 0, ptr %84, align 8, !dbg !1639
  br label %970, !dbg !1640

970:                                              ; preds = %1011, %969
  %971 = load i64, ptr %84, align 8, !dbg !1641
  %972 = icmp ult i64 %971, 22, !dbg !1643
  br i1 %972, label %973, label %1014, !dbg !1644

973:                                              ; preds = %970
  call void @llvm.dbg.declare(metadata ptr %85, metadata !1645, metadata !DIExpression()), !dbg !1647
  store i64 0, ptr %85, align 8, !dbg !1647
  br label %974, !dbg !1648

974:                                              ; preds = %1007, %973
  %975 = load i64, ptr %85, align 8, !dbg !1649
  %976 = icmp ult i64 %975, 22, !dbg !1651
  br i1 %976, label %977, label %1010, !dbg !1652

977:                                              ; preds = %974
  call void @llvm.dbg.declare(metadata ptr %86, metadata !1653, metadata !DIExpression()), !dbg !1655
  store i64 0, ptr %86, align 8, !dbg !1655
  br label %978, !dbg !1656

978:                                              ; preds = %1003, %977
  %979 = load i64, ptr %86, align 8, !dbg !1657
  %980 = icmp ult i64 %979, 22, !dbg !1659
  br i1 %980, label %981, label %1006, !dbg !1660

981:                                              ; preds = %978
  call void @llvm.dbg.declare(metadata ptr %87, metadata !1661, metadata !DIExpression()), !dbg !1663
  store i64 0, ptr %87, align 8, !dbg !1663
  br label %982, !dbg !1664

982:                                              ; preds = %999, %981
  %983 = load i64, ptr %87, align 8, !dbg !1665
  %984 = icmp ult i64 %983, 22, !dbg !1667
  br i1 %984, label %985, label %1002, !dbg !1668

985:                                              ; preds = %982
  %986 = load i64, ptr %84, align 8, !dbg !1669
  %987 = urem i64 %986, 2, !dbg !1670
  %988 = icmp eq i64 %987, 0, !dbg !1671
  %989 = zext i1 %988 to i64, !dbg !1672
  %990 = select i1 %988, i32 -856690671, i32 -917459571, !dbg !1672
  %991 = load i64, ptr %84, align 8, !dbg !1673
  %992 = getelementptr inbounds [22 x [22 x [22 x [22 x i32]]]], ptr @arr_42, i64 0, i64 %991, !dbg !1674
  %993 = load i64, ptr %85, align 8, !dbg !1675
  %994 = getelementptr inbounds [22 x [22 x [22 x i32]]], ptr %992, i64 0, i64 %993, !dbg !1674
  %995 = load i64, ptr %86, align 8, !dbg !1676
  %996 = getelementptr inbounds [22 x [22 x i32]], ptr %994, i64 0, i64 %995, !dbg !1674
  %997 = load i64, ptr %87, align 8, !dbg !1677
  %998 = getelementptr inbounds [22 x i32], ptr %996, i64 0, i64 %997, !dbg !1674
  store i32 %990, ptr %998, align 4, !dbg !1678
  br label %999, !dbg !1674

999:                                              ; preds = %985
  %1000 = load i64, ptr %87, align 8, !dbg !1679
  %1001 = add i64 %1000, 1, !dbg !1679
  store i64 %1001, ptr %87, align 8, !dbg !1679
  br label %982, !dbg !1680, !llvm.loop !1681

1002:                                             ; preds = %982
  br label %1003, !dbg !1682

1003:                                             ; preds = %1002
  %1004 = load i64, ptr %86, align 8, !dbg !1683
  %1005 = add i64 %1004, 1, !dbg !1683
  store i64 %1005, ptr %86, align 8, !dbg !1683
  br label %978, !dbg !1684, !llvm.loop !1685

1006:                                             ; preds = %978
  br label %1007, !dbg !1686

1007:                                             ; preds = %1006
  %1008 = load i64, ptr %85, align 8, !dbg !1687
  %1009 = add i64 %1008, 1, !dbg !1687
  store i64 %1009, ptr %85, align 8, !dbg !1687
  br label %974, !dbg !1688, !llvm.loop !1689

1010:                                             ; preds = %974
  br label %1011, !dbg !1690

1011:                                             ; preds = %1010
  %1012 = load i64, ptr %84, align 8, !dbg !1691
  %1013 = add i64 %1012, 1, !dbg !1691
  store i64 %1013, ptr %84, align 8, !dbg !1691
  br label %970, !dbg !1692, !llvm.loop !1693

1014:                                             ; preds = %970
  call void @llvm.dbg.declare(metadata ptr %88, metadata !1695, metadata !DIExpression()), !dbg !1697
  store i64 0, ptr %88, align 8, !dbg !1697
  br label %1015, !dbg !1698

1015:                                             ; preds = %1026, %1014
  %1016 = load i64, ptr %88, align 8, !dbg !1699
  %1017 = icmp ult i64 %1016, 22, !dbg !1701
  br i1 %1017, label %1018, label %1029, !dbg !1702

1018:                                             ; preds = %1015
  %1019 = load i64, ptr %88, align 8, !dbg !1703
  %1020 = urem i64 %1019, 2, !dbg !1704
  %1021 = icmp eq i64 %1020, 0, !dbg !1705
  %1022 = zext i1 %1021 to i64, !dbg !1706
  %1023 = select i1 %1021, i16 31774, i16 -26632, !dbg !1706
  %1024 = load i64, ptr %88, align 8, !dbg !1707
  %1025 = getelementptr inbounds [22 x i16], ptr @arr_49, i64 0, i64 %1024, !dbg !1708
  store i16 %1023, ptr %1025, align 2, !dbg !1709
  br label %1026, !dbg !1708

1026:                                             ; preds = %1018
  %1027 = load i64, ptr %88, align 8, !dbg !1710
  %1028 = add i64 %1027, 1, !dbg !1710
  store i64 %1028, ptr %88, align 8, !dbg !1710
  br label %1015, !dbg !1711, !llvm.loop !1712

1029:                                             ; preds = %1015
  ret void, !dbg !1714
}

; Function Attrs: mustprogress noinline nounwind optnone sspstrong uwtable
define dso_local void @_Z8checksumv() #0 !dbg !1715 {
  %1 = alloca i64, align 8
  %2 = alloca i64, align 8
  %3 = alloca i64, align 8
  %4 = alloca i64, align 8
  %5 = alloca i64, align 8
  %6 = alloca i64, align 8
  %7 = alloca i64, align 8
  %8 = alloca i64, align 8
  %9 = alloca i64, align 8
  %10 = alloca i64, align 8
  %11 = alloca i64, align 8
  %12 = alloca i64, align 8
  %13 = alloca i64, align 8
  %14 = alloca i64, align 8
  %15 = alloca i64, align 8
  %16 = alloca i64, align 8
  %17 = alloca i64, align 8
  %18 = alloca i64, align 8
  %19 = alloca i64, align 8
  %20 = alloca i64, align 8
  %21 = alloca i64, align 8
  %22 = alloca i64, align 8
  %23 = alloca i64, align 8
  %24 = alloca i64, align 8
  %25 = load i8, ptr @var_10, align 1, !dbg !1716
  %26 = zext i8 %25 to i64, !dbg !1716
  call void @_Z4hashPyy(ptr noundef @seed, i64 noundef %26), !dbg !1717
  %27 = load i8, ptr @var_11, align 1, !dbg !1718
  %28 = trunc i8 %27 to i1, !dbg !1718
  %29 = zext i1 %28 to i64, !dbg !1718
  call void @_Z4hashPyy(ptr noundef @seed, i64 noundef %29), !dbg !1719
  %30 = load i8, ptr @var_12, align 1, !dbg !1720
  %31 = sext i8 %30 to i64, !dbg !1720
  call void @_Z4hashPyy(ptr noundef @seed, i64 noundef %31), !dbg !1721
  %32 = load i8, ptr @var_13, align 1, !dbg !1722
  %33 = trunc i8 %32 to i1, !dbg !1722
  %34 = zext i1 %33 to i64, !dbg !1722
  call void @_Z4hashPyy(ptr noundef @seed, i64 noundef %34), !dbg !1723
  %35 = load i64, ptr @var_14, align 8, !dbg !1724
  call void @_Z4hashPyy(ptr noundef @seed, i64 noundef %35), !dbg !1725
  %36 = load i64, ptr @var_15, align 8, !dbg !1726
  call void @_Z4hashPyy(ptr noundef @seed, i64 noundef %36), !dbg !1727
  %37 = load i32, ptr @var_16, align 4, !dbg !1728
  %38 = sext i32 %37 to i64, !dbg !1728
  call void @_Z4hashPyy(ptr noundef @seed, i64 noundef %38), !dbg !1729
  %39 = load i32, ptr @var_17, align 4, !dbg !1730
  %40 = sext i32 %39 to i64, !dbg !1730
  call void @_Z4hashPyy(ptr noundef @seed, i64 noundef %40), !dbg !1731
  %41 = load i32, ptr @var_18, align 4, !dbg !1732
  %42 = sext i32 %41 to i64, !dbg !1732
  call void @_Z4hashPyy(ptr noundef @seed, i64 noundef %42), !dbg !1733
  %43 = load i64, ptr @var_19, align 8, !dbg !1734
  call void @_Z4hashPyy(ptr noundef @seed, i64 noundef %43), !dbg !1735
  %44 = load i32, ptr @var_20, align 4, !dbg !1736
  %45 = zext i32 %44 to i64, !dbg !1736
  call void @_Z4hashPyy(ptr noundef @seed, i64 noundef %45), !dbg !1737
  %46 = load i32, ptr @var_21, align 4, !dbg !1738
  %47 = sext i32 %46 to i64, !dbg !1738
  call void @_Z4hashPyy(ptr noundef @seed, i64 noundef %47), !dbg !1739
  %48 = load i16, ptr @var_22, align 2, !dbg !1740
  %49 = zext i16 %48 to i64, !dbg !1740
  call void @_Z4hashPyy(ptr noundef @seed, i64 noundef %49), !dbg !1741
  %50 = load i32, ptr @var_23, align 4, !dbg !1742
  %51 = zext i32 %50 to i64, !dbg !1742
  call void @_Z4hashPyy(ptr noundef @seed, i64 noundef %51), !dbg !1743
  %52 = load i32, ptr @var_24, align 4, !dbg !1744
  %53 = zext i32 %52 to i64, !dbg !1744
  call void @_Z4hashPyy(ptr noundef @seed, i64 noundef %53), !dbg !1745
  %54 = load i8, ptr @var_25, align 1, !dbg !1746
  %55 = zext i8 %54 to i64, !dbg !1746
  call void @_Z4hashPyy(ptr noundef @seed, i64 noundef %55), !dbg !1747
  %56 = load i8, ptr @var_26, align 1, !dbg !1748
  %57 = sext i8 %56 to i64, !dbg !1748
  call void @_Z4hashPyy(ptr noundef @seed, i64 noundef %57), !dbg !1749
  %58 = load i16, ptr @var_27, align 2, !dbg !1750
  %59 = sext i16 %58 to i64, !dbg !1750
  call void @_Z4hashPyy(ptr noundef @seed, i64 noundef %59), !dbg !1751
  %60 = load i64, ptr @var_28, align 8, !dbg !1752
  call void @_Z4hashPyy(ptr noundef @seed, i64 noundef %60), !dbg !1753
  %61 = load i8, ptr @var_29, align 1, !dbg !1754
  %62 = sext i8 %61 to i64, !dbg !1754
  call void @_Z4hashPyy(ptr noundef @seed, i64 noundef %62), !dbg !1755
  %63 = load i64, ptr @var_30, align 8, !dbg !1756
  call void @_Z4hashPyy(ptr noundef @seed, i64 noundef %63), !dbg !1757
  %64 = load i64, ptr @var_31, align 8, !dbg !1758
  call void @_Z4hashPyy(ptr noundef @seed, i64 noundef %64), !dbg !1759
  %65 = load i16, ptr @var_32, align 2, !dbg !1760
  %66 = zext i16 %65 to i64, !dbg !1760
  call void @_Z4hashPyy(ptr noundef @seed, i64 noundef %66), !dbg !1761
  %67 = load i8, ptr @var_33, align 1, !dbg !1762
  %68 = zext i8 %67 to i64, !dbg !1762
  call void @_Z4hashPyy(ptr noundef @seed, i64 noundef %68), !dbg !1763
  %69 = load i8, ptr @var_34, align 1, !dbg !1764
  %70 = sext i8 %69 to i64, !dbg !1764
  call void @_Z4hashPyy(ptr noundef @seed, i64 noundef %70), !dbg !1765
  %71 = load i8, ptr @var_35, align 1, !dbg !1766
  %72 = trunc i8 %71 to i1, !dbg !1766
  %73 = zext i1 %72 to i64, !dbg !1766
  call void @_Z4hashPyy(ptr noundef @seed, i64 noundef %73), !dbg !1767
  %74 = load i64, ptr @var_36, align 8, !dbg !1768
  call void @_Z4hashPyy(ptr noundef @seed, i64 noundef %74), !dbg !1769
  %75 = load i64, ptr @var_37, align 8, !dbg !1770
  call void @_Z4hashPyy(ptr noundef @seed, i64 noundef %75), !dbg !1771
  %76 = load i8, ptr @var_38, align 1, !dbg !1772
  %77 = trunc i8 %76 to i1, !dbg !1772
  %78 = zext i1 %77 to i64, !dbg !1772
  call void @_Z4hashPyy(ptr noundef @seed, i64 noundef %78), !dbg !1773
  %79 = load i16, ptr @var_39, align 2, !dbg !1774
  %80 = sext i16 %79 to i64, !dbg !1774
  call void @_Z4hashPyy(ptr noundef @seed, i64 noundef %80), !dbg !1775
  %81 = load i64, ptr @var_40, align 8, !dbg !1776
  call void @_Z4hashPyy(ptr noundef @seed, i64 noundef %81), !dbg !1777
  call void @llvm.dbg.declare(metadata ptr %1, metadata !1778, metadata !DIExpression()), !dbg !1780
  store i64 0, ptr %1, align 8, !dbg !1780
  br label %82, !dbg !1781

82:                                               ; preds = %90, %0
  %83 = load i64, ptr %1, align 8, !dbg !1782
  %84 = icmp ult i64 %83, 19, !dbg !1784
  br i1 %84, label %85, label %93, !dbg !1785

85:                                               ; preds = %82
  %86 = load i64, ptr %1, align 8, !dbg !1786
  %87 = getelementptr inbounds [19 x i8], ptr @arr_2, i64 0, i64 %86, !dbg !1787
  %88 = load i8, ptr %87, align 1, !dbg !1787
  %89 = zext i8 %88 to i64, !dbg !1787
  call void @_Z4hashPyy(ptr noundef @seed, i64 noundef %89), !dbg !1788
  br label %90, !dbg !1788

90:                                               ; preds = %85
  %91 = load i64, ptr %1, align 8, !dbg !1789
  %92 = add i64 %91, 1, !dbg !1789
  store i64 %92, ptr %1, align 8, !dbg !1789
  br label %82, !dbg !1790, !llvm.loop !1791

93:                                               ; preds = %82
  call void @llvm.dbg.declare(metadata ptr %2, metadata !1793, metadata !DIExpression()), !dbg !1795
  store i64 0, ptr %2, align 8, !dbg !1795
  br label %94, !dbg !1796

94:                                               ; preds = %101, %93
  %95 = load i64, ptr %2, align 8, !dbg !1797
  %96 = icmp ult i64 %95, 19, !dbg !1799
  br i1 %96, label %97, label %104, !dbg !1800

97:                                               ; preds = %94
  %98 = load i64, ptr %2, align 8, !dbg !1801
  %99 = getelementptr inbounds [19 x i64], ptr @arr_3, i64 0, i64 %98, !dbg !1802
  %100 = load i64, ptr %99, align 8, !dbg !1802
  call void @_Z4hashPyy(ptr noundef @seed, i64 noundef %100), !dbg !1803
  br label %101, !dbg !1803

101:                                              ; preds = %97
  %102 = load i64, ptr %2, align 8, !dbg !1804
  %103 = add i64 %102, 1, !dbg !1804
  store i64 %103, ptr %2, align 8, !dbg !1804
  br label %94, !dbg !1805, !llvm.loop !1806

104:                                              ; preds = %94
  call void @llvm.dbg.declare(metadata ptr %3, metadata !1808, metadata !DIExpression()), !dbg !1810
  store i64 0, ptr %3, align 8, !dbg !1810
  br label %105, !dbg !1811

105:                                              ; preds = %122, %104
  %106 = load i64, ptr %3, align 8, !dbg !1812
  %107 = icmp ult i64 %106, 22, !dbg !1814
  br i1 %107, label %108, label %125, !dbg !1815

108:                                              ; preds = %105
  call void @llvm.dbg.declare(metadata ptr %4, metadata !1816, metadata !DIExpression()), !dbg !1818
  store i64 0, ptr %4, align 8, !dbg !1818
  br label %109, !dbg !1819

109:                                              ; preds = %118, %108
  %110 = load i64, ptr %4, align 8, !dbg !1820
  %111 = icmp ult i64 %110, 22, !dbg !1822
  br i1 %111, label %112, label %121, !dbg !1823

112:                                              ; preds = %109
  %113 = load i64, ptr %3, align 8, !dbg !1824
  %114 = getelementptr inbounds [22 x [22 x i64]], ptr @arr_6, i64 0, i64 %113, !dbg !1825
  %115 = load i64, ptr %4, align 8, !dbg !1826
  %116 = getelementptr inbounds [22 x i64], ptr %114, i64 0, i64 %115, !dbg !1825
  %117 = load i64, ptr %116, align 8, !dbg !1825
  call void @_Z4hashPyy(ptr noundef @seed, i64 noundef %117), !dbg !1827
  br label %118, !dbg !1827

118:                                              ; preds = %112
  %119 = load i64, ptr %4, align 8, !dbg !1828
  %120 = add i64 %119, 1, !dbg !1828
  store i64 %120, ptr %4, align 8, !dbg !1828
  br label %109, !dbg !1829, !llvm.loop !1830

121:                                              ; preds = %109
  br label %122, !dbg !1831

122:                                              ; preds = %121
  %123 = load i64, ptr %3, align 8, !dbg !1832
  %124 = add i64 %123, 1, !dbg !1832
  store i64 %124, ptr %3, align 8, !dbg !1832
  br label %105, !dbg !1833, !llvm.loop !1834

125:                                              ; preds = %105
  call void @llvm.dbg.declare(metadata ptr %5, metadata !1836, metadata !DIExpression()), !dbg !1838
  store i64 0, ptr %5, align 8, !dbg !1838
  br label %126, !dbg !1839

126:                                              ; preds = %154, %125
  %127 = load i64, ptr %5, align 8, !dbg !1840
  %128 = icmp ult i64 %127, 22, !dbg !1842
  br i1 %128, label %129, label %157, !dbg !1843

129:                                              ; preds = %126
  call void @llvm.dbg.declare(metadata ptr %6, metadata !1844, metadata !DIExpression()), !dbg !1846
  store i64 0, ptr %6, align 8, !dbg !1846
  br label %130, !dbg !1847

130:                                              ; preds = %150, %129
  %131 = load i64, ptr %6, align 8, !dbg !1848
  %132 = icmp ult i64 %131, 22, !dbg !1850
  br i1 %132, label %133, label %153, !dbg !1851

133:                                              ; preds = %130
  call void @llvm.dbg.declare(metadata ptr %7, metadata !1852, metadata !DIExpression()), !dbg !1854
  store i64 0, ptr %7, align 8, !dbg !1854
  br label %134, !dbg !1855

134:                                              ; preds = %146, %133
  %135 = load i64, ptr %7, align 8, !dbg !1856
  %136 = icmp ult i64 %135, 22, !dbg !1858
  br i1 %136, label %137, label %149, !dbg !1859

137:                                              ; preds = %134
  %138 = load i64, ptr %5, align 8, !dbg !1860
  %139 = getelementptr inbounds [22 x [22 x [22 x i8]]], ptr @arr_16, i64 0, i64 %138, !dbg !1861
  %140 = load i64, ptr %6, align 8, !dbg !1862
  %141 = getelementptr inbounds [22 x [22 x i8]], ptr %139, i64 0, i64 %140, !dbg !1861
  %142 = load i64, ptr %7, align 8, !dbg !1863
  %143 = getelementptr inbounds [22 x i8], ptr %141, i64 0, i64 %142, !dbg !1861
  %144 = load i8, ptr %143, align 1, !dbg !1861
  %145 = sext i8 %144 to i64, !dbg !1861
  call void @_Z4hashPyy(ptr noundef @seed, i64 noundef %145), !dbg !1864
  br label %146, !dbg !1864

146:                                              ; preds = %137
  %147 = load i64, ptr %7, align 8, !dbg !1865
  %148 = add i64 %147, 1, !dbg !1865
  store i64 %148, ptr %7, align 8, !dbg !1865
  br label %134, !dbg !1866, !llvm.loop !1867

149:                                              ; preds = %134
  br label %150, !dbg !1868

150:                                              ; preds = %149
  %151 = load i64, ptr %6, align 8, !dbg !1869
  %152 = add i64 %151, 1, !dbg !1869
  store i64 %152, ptr %6, align 8, !dbg !1869
  br label %130, !dbg !1870, !llvm.loop !1871

153:                                              ; preds = %130
  br label %154, !dbg !1872

154:                                              ; preds = %153
  %155 = load i64, ptr %5, align 8, !dbg !1873
  %156 = add i64 %155, 1, !dbg !1873
  store i64 %156, ptr %5, align 8, !dbg !1873
  br label %126, !dbg !1874, !llvm.loop !1875

157:                                              ; preds = %126
  call void @llvm.dbg.declare(metadata ptr %8, metadata !1877, metadata !DIExpression()), !dbg !1879
  store i64 0, ptr %8, align 8, !dbg !1879
  br label %158, !dbg !1880

158:                                              ; preds = %196, %157
  %159 = load i64, ptr %8, align 8, !dbg !1881
  %160 = icmp ult i64 %159, 22, !dbg !1883
  br i1 %160, label %161, label %199, !dbg !1884

161:                                              ; preds = %158
  call void @llvm.dbg.declare(metadata ptr %9, metadata !1885, metadata !DIExpression()), !dbg !1887
  store i64 0, ptr %9, align 8, !dbg !1887
  br label %162, !dbg !1888

162:                                              ; preds = %192, %161
  %163 = load i64, ptr %9, align 8, !dbg !1889
  %164 = icmp ult i64 %163, 22, !dbg !1891
  br i1 %164, label %165, label %195, !dbg !1892

165:                                              ; preds = %162
  call void @llvm.dbg.declare(metadata ptr %10, metadata !1893, metadata !DIExpression()), !dbg !1895
  store i64 0, ptr %10, align 8, !dbg !1895
  br label %166, !dbg !1896

166:                                              ; preds = %188, %165
  %167 = load i64, ptr %10, align 8, !dbg !1897
  %168 = icmp ult i64 %167, 22, !dbg !1899
  br i1 %168, label %169, label %191, !dbg !1900

169:                                              ; preds = %166
  call void @llvm.dbg.declare(metadata ptr %11, metadata !1901, metadata !DIExpression()), !dbg !1903
  store i64 0, ptr %11, align 8, !dbg !1903
  br label %170, !dbg !1904

170:                                              ; preds = %184, %169
  %171 = load i64, ptr %11, align 8, !dbg !1905
  %172 = icmp ult i64 %171, 22, !dbg !1907
  br i1 %172, label %173, label %187, !dbg !1908

173:                                              ; preds = %170
  %174 = load i64, ptr %8, align 8, !dbg !1909
  %175 = getelementptr inbounds [22 x [22 x [22 x [22 x i32]]]], ptr @arr_23, i64 0, i64 %174, !dbg !1910
  %176 = load i64, ptr %9, align 8, !dbg !1911
  %177 = getelementptr inbounds [22 x [22 x [22 x i32]]], ptr %175, i64 0, i64 %176, !dbg !1910
  %178 = load i64, ptr %10, align 8, !dbg !1912
  %179 = getelementptr inbounds [22 x [22 x i32]], ptr %177, i64 0, i64 %178, !dbg !1910
  %180 = load i64, ptr %11, align 8, !dbg !1913
  %181 = getelementptr inbounds [22 x i32], ptr %179, i64 0, i64 %180, !dbg !1910
  %182 = load i32, ptr %181, align 4, !dbg !1910
  %183 = zext i32 %182 to i64, !dbg !1910
  call void @_Z4hashPyy(ptr noundef @seed, i64 noundef %183), !dbg !1914
  br label %184, !dbg !1914

184:                                              ; preds = %173
  %185 = load i64, ptr %11, align 8, !dbg !1915
  %186 = add i64 %185, 1, !dbg !1915
  store i64 %186, ptr %11, align 8, !dbg !1915
  br label %170, !dbg !1916, !llvm.loop !1917

187:                                              ; preds = %170
  br label %188, !dbg !1918

188:                                              ; preds = %187
  %189 = load i64, ptr %10, align 8, !dbg !1919
  %190 = add i64 %189, 1, !dbg !1919
  store i64 %190, ptr %10, align 8, !dbg !1919
  br label %166, !dbg !1920, !llvm.loop !1921

191:                                              ; preds = %166
  br label %192, !dbg !1922

192:                                              ; preds = %191
  %193 = load i64, ptr %9, align 8, !dbg !1923
  %194 = add i64 %193, 1, !dbg !1923
  store i64 %194, ptr %9, align 8, !dbg !1923
  br label %162, !dbg !1924, !llvm.loop !1925

195:                                              ; preds = %162
  br label %196, !dbg !1926

196:                                              ; preds = %195
  %197 = load i64, ptr %8, align 8, !dbg !1927
  %198 = add i64 %197, 1, !dbg !1927
  store i64 %198, ptr %8, align 8, !dbg !1927
  br label %158, !dbg !1928, !llvm.loop !1929

199:                                              ; preds = %158
  call void @llvm.dbg.declare(metadata ptr %12, metadata !1931, metadata !DIExpression()), !dbg !1933
  store i64 0, ptr %12, align 8, !dbg !1933
  br label %200, !dbg !1934

200:                                              ; preds = %208, %199
  %201 = load i64, ptr %12, align 8, !dbg !1935
  %202 = icmp ult i64 %201, 22, !dbg !1937
  br i1 %202, label %203, label %211, !dbg !1938

203:                                              ; preds = %200
  %204 = load i64, ptr %12, align 8, !dbg !1939
  %205 = getelementptr inbounds [22 x i16], ptr @arr_27, i64 0, i64 %204, !dbg !1940
  %206 = load i16, ptr %205, align 2, !dbg !1940
  %207 = zext i16 %206 to i64, !dbg !1940
  call void @_Z4hashPyy(ptr noundef @seed, i64 noundef %207), !dbg !1941
  br label %208, !dbg !1941

208:                                              ; preds = %203
  %209 = load i64, ptr %12, align 8, !dbg !1942
  %210 = add i64 %209, 1, !dbg !1942
  store i64 %210, ptr %12, align 8, !dbg !1942
  br label %200, !dbg !1943, !llvm.loop !1944

211:                                              ; preds = %200
  call void @llvm.dbg.declare(metadata ptr %13, metadata !1946, metadata !DIExpression()), !dbg !1948
  store i64 0, ptr %13, align 8, !dbg !1948
  br label %212, !dbg !1949

212:                                              ; preds = %230, %211
  %213 = load i64, ptr %13, align 8, !dbg !1950
  %214 = icmp ult i64 %213, 22, !dbg !1952
  br i1 %214, label %215, label %233, !dbg !1953

215:                                              ; preds = %212
  call void @llvm.dbg.declare(metadata ptr %14, metadata !1954, metadata !DIExpression()), !dbg !1956
  store i64 0, ptr %14, align 8, !dbg !1956
  br label %216, !dbg !1957

216:                                              ; preds = %226, %215
  %217 = load i64, ptr %14, align 8, !dbg !1958
  %218 = icmp ult i64 %217, 22, !dbg !1960
  br i1 %218, label %219, label %229, !dbg !1961

219:                                              ; preds = %216
  %220 = load i64, ptr %13, align 8, !dbg !1962
  %221 = getelementptr inbounds [22 x [22 x i8]], ptr @arr_37, i64 0, i64 %220, !dbg !1963
  %222 = load i64, ptr %14, align 8, !dbg !1964
  %223 = getelementptr inbounds [22 x i8], ptr %221, i64 0, i64 %222, !dbg !1963
  %224 = load i8, ptr %223, align 1, !dbg !1963
  %225 = zext i8 %224 to i64, !dbg !1963
  call void @_Z4hashPyy(ptr noundef @seed, i64 noundef %225), !dbg !1965
  br label %226, !dbg !1965

226:                                              ; preds = %219
  %227 = load i64, ptr %14, align 8, !dbg !1966
  %228 = add i64 %227, 1, !dbg !1966
  store i64 %228, ptr %14, align 8, !dbg !1966
  br label %216, !dbg !1967, !llvm.loop !1968

229:                                              ; preds = %216
  br label %230, !dbg !1969

230:                                              ; preds = %229
  %231 = load i64, ptr %13, align 8, !dbg !1970
  %232 = add i64 %231, 1, !dbg !1970
  store i64 %232, ptr %13, align 8, !dbg !1970
  br label %212, !dbg !1971, !llvm.loop !1972

233:                                              ; preds = %212
  call void @llvm.dbg.declare(metadata ptr %15, metadata !1974, metadata !DIExpression()), !dbg !1976
  store i64 0, ptr %15, align 8, !dbg !1976
  br label %234, !dbg !1977

234:                                              ; preds = %263, %233
  %235 = load i64, ptr %15, align 8, !dbg !1978
  %236 = icmp ult i64 %235, 22, !dbg !1980
  br i1 %236, label %237, label %266, !dbg !1981

237:                                              ; preds = %234
  call void @llvm.dbg.declare(metadata ptr %16, metadata !1982, metadata !DIExpression()), !dbg !1984
  store i64 0, ptr %16, align 8, !dbg !1984
  br label %238, !dbg !1985

238:                                              ; preds = %259, %237
  %239 = load i64, ptr %16, align 8, !dbg !1986
  %240 = icmp ult i64 %239, 22, !dbg !1988
  br i1 %240, label %241, label %262, !dbg !1989

241:                                              ; preds = %238
  call void @llvm.dbg.declare(metadata ptr %17, metadata !1990, metadata !DIExpression()), !dbg !1992
  store i64 0, ptr %17, align 8, !dbg !1992
  br label %242, !dbg !1993

242:                                              ; preds = %255, %241
  %243 = load i64, ptr %17, align 8, !dbg !1994
  %244 = icmp ult i64 %243, 22, !dbg !1996
  br i1 %244, label %245, label %258, !dbg !1997

245:                                              ; preds = %242
  %246 = load i64, ptr %15, align 8, !dbg !1998
  %247 = getelementptr inbounds [22 x [22 x [22 x i8]]], ptr @arr_38, i64 0, i64 %246, !dbg !1999
  %248 = load i64, ptr %16, align 8, !dbg !2000
  %249 = getelementptr inbounds [22 x [22 x i8]], ptr %247, i64 0, i64 %248, !dbg !1999
  %250 = load i64, ptr %17, align 8, !dbg !2001
  %251 = getelementptr inbounds [22 x i8], ptr %249, i64 0, i64 %250, !dbg !1999
  %252 = load i8, ptr %251, align 1, !dbg !1999
  %253 = trunc i8 %252 to i1, !dbg !1999
  %254 = zext i1 %253 to i64, !dbg !1999
  call void @_Z4hashPyy(ptr noundef @seed, i64 noundef %254), !dbg !2002
  br label %255, !dbg !2002

255:                                              ; preds = %245
  %256 = load i64, ptr %17, align 8, !dbg !2003
  %257 = add i64 %256, 1, !dbg !2003
  store i64 %257, ptr %17, align 8, !dbg !2003
  br label %242, !dbg !2004, !llvm.loop !2005

258:                                              ; preds = %242
  br label %259, !dbg !2006

259:                                              ; preds = %258
  %260 = load i64, ptr %16, align 8, !dbg !2007
  %261 = add i64 %260, 1, !dbg !2007
  store i64 %261, ptr %16, align 8, !dbg !2007
  br label %238, !dbg !2008, !llvm.loop !2009

262:                                              ; preds = %238
  br label %263, !dbg !2010

263:                                              ; preds = %262
  %264 = load i64, ptr %15, align 8, !dbg !2011
  %265 = add i64 %264, 1, !dbg !2011
  store i64 %265, ptr %15, align 8, !dbg !2011
  br label %234, !dbg !2012, !llvm.loop !2013

266:                                              ; preds = %234
  call void @llvm.dbg.declare(metadata ptr %18, metadata !2015, metadata !DIExpression()), !dbg !2017
  store i64 0, ptr %18, align 8, !dbg !2017
  br label %267, !dbg !2018

267:                                              ; preds = %285, %266
  %268 = load i64, ptr %18, align 8, !dbg !2019
  %269 = icmp ult i64 %268, 22, !dbg !2021
  br i1 %269, label %270, label %288, !dbg !2022

270:                                              ; preds = %267
  call void @llvm.dbg.declare(metadata ptr %19, metadata !2023, metadata !DIExpression()), !dbg !2025
  store i64 0, ptr %19, align 8, !dbg !2025
  br label %271, !dbg !2026

271:                                              ; preds = %281, %270
  %272 = load i64, ptr %19, align 8, !dbg !2027
  %273 = icmp ult i64 %272, 22, !dbg !2029
  br i1 %273, label %274, label %284, !dbg !2030

274:                                              ; preds = %271
  %275 = load i64, ptr %18, align 8, !dbg !2031
  %276 = getelementptr inbounds [22 x [22 x i32]], ptr @arr_41, i64 0, i64 %275, !dbg !2032
  %277 = load i64, ptr %19, align 8, !dbg !2033
  %278 = getelementptr inbounds [22 x i32], ptr %276, i64 0, i64 %277, !dbg !2032
  %279 = load i32, ptr %278, align 4, !dbg !2032
  %280 = sext i32 %279 to i64, !dbg !2032
  call void @_Z4hashPyy(ptr noundef @seed, i64 noundef %280), !dbg !2034
  br label %281, !dbg !2034

281:                                              ; preds = %274
  %282 = load i64, ptr %19, align 8, !dbg !2035
  %283 = add i64 %282, 1, !dbg !2035
  store i64 %283, ptr %19, align 8, !dbg !2035
  br label %271, !dbg !2036, !llvm.loop !2037

284:                                              ; preds = %271
  br label %285, !dbg !2038

285:                                              ; preds = %284
  %286 = load i64, ptr %18, align 8, !dbg !2039
  %287 = add i64 %286, 1, !dbg !2039
  store i64 %287, ptr %18, align 8, !dbg !2039
  br label %267, !dbg !2040, !llvm.loop !2041

288:                                              ; preds = %267
  call void @llvm.dbg.declare(metadata ptr %20, metadata !2043, metadata !DIExpression()), !dbg !2045
  store i64 0, ptr %20, align 8, !dbg !2045
  br label %289, !dbg !2046

289:                                              ; preds = %327, %288
  %290 = load i64, ptr %20, align 8, !dbg !2047
  %291 = icmp ult i64 %290, 22, !dbg !2049
  br i1 %291, label %292, label %330, !dbg !2050

292:                                              ; preds = %289
  call void @llvm.dbg.declare(metadata ptr %21, metadata !2051, metadata !DIExpression()), !dbg !2053
  store i64 0, ptr %21, align 8, !dbg !2053
  br label %293, !dbg !2054

293:                                              ; preds = %323, %292
  %294 = load i64, ptr %21, align 8, !dbg !2055
  %295 = icmp ult i64 %294, 22, !dbg !2057
  br i1 %295, label %296, label %326, !dbg !2058

296:                                              ; preds = %293
  call void @llvm.dbg.declare(metadata ptr %22, metadata !2059, metadata !DIExpression()), !dbg !2061
  store i64 0, ptr %22, align 8, !dbg !2061
  br label %297, !dbg !2062

297:                                              ; preds = %319, %296
  %298 = load i64, ptr %22, align 8, !dbg !2063
  %299 = icmp ult i64 %298, 22, !dbg !2065
  br i1 %299, label %300, label %322, !dbg !2066

300:                                              ; preds = %297
  call void @llvm.dbg.declare(metadata ptr %23, metadata !2067, metadata !DIExpression()), !dbg !2069
  store i64 0, ptr %23, align 8, !dbg !2069
  br label %301, !dbg !2070

301:                                              ; preds = %315, %300
  %302 = load i64, ptr %23, align 8, !dbg !2071
  %303 = icmp ult i64 %302, 22, !dbg !2073
  br i1 %303, label %304, label %318, !dbg !2074

304:                                              ; preds = %301
  %305 = load i64, ptr %20, align 8, !dbg !2075
  %306 = getelementptr inbounds [22 x [22 x [22 x [22 x i32]]]], ptr @arr_42, i64 0, i64 %305, !dbg !2076
  %307 = load i64, ptr %21, align 8, !dbg !2077
  %308 = getelementptr inbounds [22 x [22 x [22 x i32]]], ptr %306, i64 0, i64 %307, !dbg !2076
  %309 = load i64, ptr %22, align 8, !dbg !2078
  %310 = getelementptr inbounds [22 x [22 x i32]], ptr %308, i64 0, i64 %309, !dbg !2076
  %311 = load i64, ptr %23, align 8, !dbg !2079
  %312 = getelementptr inbounds [22 x i32], ptr %310, i64 0, i64 %311, !dbg !2076
  %313 = load i32, ptr %312, align 4, !dbg !2076
  %314 = sext i32 %313 to i64, !dbg !2076
  call void @_Z4hashPyy(ptr noundef @seed, i64 noundef %314), !dbg !2080
  br label %315, !dbg !2080

315:                                              ; preds = %304
  %316 = load i64, ptr %23, align 8, !dbg !2081
  %317 = add i64 %316, 1, !dbg !2081
  store i64 %317, ptr %23, align 8, !dbg !2081
  br label %301, !dbg !2082, !llvm.loop !2083

318:                                              ; preds = %301
  br label %319, !dbg !2084

319:                                              ; preds = %318
  %320 = load i64, ptr %22, align 8, !dbg !2085
  %321 = add i64 %320, 1, !dbg !2085
  store i64 %321, ptr %22, align 8, !dbg !2085
  br label %297, !dbg !2086, !llvm.loop !2087

322:                                              ; preds = %297
  br label %323, !dbg !2088

323:                                              ; preds = %322
  %324 = load i64, ptr %21, align 8, !dbg !2089
  %325 = add i64 %324, 1, !dbg !2089
  store i64 %325, ptr %21, align 8, !dbg !2089
  br label %293, !dbg !2090, !llvm.loop !2091

326:                                              ; preds = %293
  br label %327, !dbg !2092

327:                                              ; preds = %326
  %328 = load i64, ptr %20, align 8, !dbg !2093
  %329 = add i64 %328, 1, !dbg !2093
  store i64 %329, ptr %20, align 8, !dbg !2093
  br label %289, !dbg !2094, !llvm.loop !2095

330:                                              ; preds = %289
  call void @llvm.dbg.declare(metadata ptr %24, metadata !2097, metadata !DIExpression()), !dbg !2099
  store i64 0, ptr %24, align 8, !dbg !2099
  br label %331, !dbg !2100

331:                                              ; preds = %339, %330
  %332 = load i64, ptr %24, align 8, !dbg !2101
  %333 = icmp ult i64 %332, 22, !dbg !2103
  br i1 %333, label %334, label %342, !dbg !2104

334:                                              ; preds = %331
  %335 = load i64, ptr %24, align 8, !dbg !2105
  %336 = getelementptr inbounds [22 x i16], ptr @arr_49, i64 0, i64 %335, !dbg !2106
  %337 = load i16, ptr %336, align 2, !dbg !2106
  %338 = zext i16 %337 to i64, !dbg !2106
  call void @_Z4hashPyy(ptr noundef @seed, i64 noundef %338), !dbg !2107
  br label %339, !dbg !2107

339:                                              ; preds = %334
  %340 = load i64, ptr %24, align 8, !dbg !2108
  %341 = add i64 %340, 1, !dbg !2108
  store i64 %341, ptr %24, align 8, !dbg !2108
  br label %331, !dbg !2109, !llvm.loop !2110

342:                                              ; preds = %331
  ret void, !dbg !2112
}

; Function Attrs: mustprogress noinline norecurse nounwind optnone sspstrong uwtable
define dso_local noundef i32 @main() #2 !dbg !2113 {
  call void @_Z4initv(), !dbg !2114
  %1 = load i8, ptr @var_0, align 1, !dbg !2115
  %2 = load i16, ptr @var_1, align 2, !dbg !2116
  %3 = load i16, ptr @var_2, align 2, !dbg !2117
  %4 = load i16, ptr @var_3, align 2, !dbg !2118
  %5 = load i8, ptr @var_4, align 1, !dbg !2119
  %6 = trunc i8 %5 to i1, !dbg !2119
  %7 = load i32, ptr @var_5, align 4, !dbg !2120
  %8 = load i32, ptr @var_6, align 4, !dbg !2121
  %9 = load i8, ptr @var_7, align 1, !dbg !2122
  %10 = load i16, ptr @var_8, align 2, !dbg !2123
  %11 = load i16, ptr @var_9, align 2, !dbg !2124
  %12 = load i32, ptr @zero, align 4, !dbg !2125
  call void @_Z4testattsbjiastiPyPbPiPA22_bPA22_A22_jPxPS4_PA22_yPsPA22_A22_A22_xPA22_A22_A22_A22_A22_sPA22_A22_A22_S9_PtS6_SF_PA22_A22_A22_A22_iPA22_A22_A22_A22_S2_SQ_PaS7_S11_PST_PA22_A22_A22_aPA22_A22_A22_h(i8 noundef signext %1, i16 noundef zeroext %2, i16 noundef zeroext %3, i16 noundef signext %4, i1 noundef zeroext %6, i32 noundef %7, i32 noundef %8, i8 noundef signext %9, i16 noundef signext %10, i16 noundef zeroext %11, i32 noundef %12, ptr noundef @arr_0, ptr noundef @arr_1, ptr noundef @arr_4, ptr noundef @arr_5, ptr noundef @arr_7, ptr noundef @arr_8, ptr noundef @arr_9, ptr noundef @arr_10, ptr noundef @arr_11, ptr noundef @arr_12, ptr noundef @arr_14, ptr noundef @arr_15, ptr noundef @arr_17, ptr noundef @arr_19, ptr noundef @arr_20, ptr noundef @arr_21, ptr noundef @arr_22, ptr noundef @arr_24, ptr noundef @arr_25, ptr noundef @arr_26, ptr noundef @arr_30, ptr noundef @arr_32, ptr noundef @arr_35, ptr noundef @arr_44), !dbg !2126
  call void @_Z8checksumv(), !dbg !2127
  %13 = load i64, ptr @seed, align 8, !dbg !2128
  %14 = call i32 (ptr, ...) @printf(ptr noundef @.str, i64 noundef %13), !dbg !2129
  ret i32 0, !dbg !2130
}

; Function Attrs: mustprogress noinline nounwind optnone sspstrong uwtable
define dso_local void @_Z4testattsbjiastiPyPbPiPA22_bPA22_A22_jPxPS4_PA22_yPsPA22_A22_A22_xPA22_A22_A22_A22_A22_sPA22_A22_A22_S9_PtS6_SF_PA22_A22_A22_A22_iPA22_A22_A22_A22_S2_SQ_PaS7_S11_PST_PA22_A22_A22_aPA22_A22_A22_h(i8 noundef signext %0, i16 noundef zeroext %1, i16 noundef zeroext %2, i16 noundef signext %3, i1 noundef zeroext %4, i32 noundef %5, i32 noundef %6, i8 noundef signext %7, i16 noundef signext %8, i16 noundef zeroext %9, i32 noundef %10, ptr noundef %11, ptr noundef %12, ptr noundef %13, ptr noundef %14, ptr noundef %15, ptr noundef %16, ptr noundef %17, ptr noundef %18, ptr noundef %19, ptr noundef %20, ptr noundef %21, ptr noundef %22, ptr noundef %23, ptr noundef %24, ptr noundef %25, ptr noundef %26, ptr noundef %27, ptr noundef %28, ptr noundef %29, ptr noundef %30, ptr noundef %31, ptr noundef %32, ptr noundef %33, ptr noundef %34) #0 !dbg !2131 {
  %36 = alloca i8, align 1
  %37 = alloca i16, align 2
  %38 = alloca i16, align 2
  %39 = alloca i16, align 2
  %40 = alloca i8, align 1
  %41 = alloca i32, align 4
  %42 = alloca i32, align 4
  %43 = alloca i8, align 1
  %44 = alloca i16, align 2
  %45 = alloca i16, align 2
  %46 = alloca i32, align 4
  %47 = alloca ptr, align 8
  %48 = alloca ptr, align 8
  %49 = alloca ptr, align 8
  %50 = alloca ptr, align 8
  %51 = alloca ptr, align 8
  %52 = alloca ptr, align 8
  %53 = alloca ptr, align 8
  %54 = alloca ptr, align 8
  %55 = alloca ptr, align 8
  %56 = alloca ptr, align 8
  %57 = alloca ptr, align 8
  %58 = alloca ptr, align 8
  %59 = alloca ptr, align 8
  %60 = alloca ptr, align 8
  %61 = alloca ptr, align 8
  %62 = alloca ptr, align 8
  %63 = alloca ptr, align 8
  %64 = alloca ptr, align 8
  %65 = alloca ptr, align 8
  %66 = alloca ptr, align 8
  %67 = alloca ptr, align 8
  %68 = alloca ptr, align 8
  %69 = alloca ptr, align 8
  %70 = alloca ptr, align 8
  %71 = alloca i32, align 4
  %72 = alloca i32, align 4
  %73 = alloca i32, align 4
  %74 = alloca i32, align 4
  %75 = alloca i8, align 1
  %76 = alloca i64, align 8
  %77 = alloca i64, align 8
  %78 = alloca i8, align 1
  %79 = alloca i8, align 1
  %80 = alloca i32, align 4
  %81 = alloca i32, align 4
  %82 = alloca i64, align 8
  %83 = alloca i64, align 8
  %84 = alloca i32, align 4
  %85 = alloca i8, align 1
  %86 = alloca i32, align 4
  %87 = alloca i64, align 8
  %88 = alloca i64, align 8
  %89 = alloca i32, align 4
  %90 = alloca i32, align 4
  %91 = alloca i8, align 1
  %92 = alloca i32, align 4
  %93 = alloca i16, align 2
  %94 = alloca i8, align 1
  %95 = alloca i32, align 4
  %96 = alloca i64, align 8
  %97 = alloca i64, align 8
  %98 = alloca i32, align 4
  %99 = alloca i32, align 4
  %100 = alloca i32, align 4
  %101 = alloca i32, align 4
  %102 = alloca i32, align 4
  %103 = alloca i64, align 8
  %104 = alloca i64, align 8
  %105 = alloca i64, align 8
  %106 = alloca i64, align 8
  %107 = alloca i64, align 8
  %108 = alloca i32, align 4
  %109 = alloca i32, align 4
  %110 = alloca i32, align 4
  %111 = alloca i8, align 1
  %112 = alloca i8, align 1
  %113 = alloca i32, align 4
  %114 = alloca i64, align 8
  %115 = alloca i16, align 2
  %116 = alloca i32, align 4
  %117 = alloca i8, align 1
  %118 = alloca i16, align 2
  %119 = alloca i32, align 4
  %120 = alloca i16, align 2
  %121 = alloca i16, align 2
  %122 = alloca i8, align 1
  %123 = alloca i8, align 1
  %124 = alloca i32, align 4
  %125 = alloca i32, align 4
  %126 = alloca i32, align 4
  %127 = alloca i64, align 8
  %128 = alloca i32, align 4
  %129 = alloca i32, align 4
  %130 = alloca i8, align 1
  %131 = alloca i8, align 1
  %132 = alloca i64, align 8
  %133 = alloca i64, align 8
  %134 = alloca i64, align 8
  %135 = alloca i16, align 2
  %136 = alloca i32, align 4
  %137 = alloca i8, align 1
  %138 = alloca i64, align 8
  %139 = alloca i64, align 8
  %140 = alloca i16, align 2
  %141 = alloca i32, align 4
  %142 = alloca i32, align 4
  %143 = alloca i8, align 1
  %144 = alloca i8, align 1
  %145 = alloca i64, align 8
  %146 = alloca i64, align 8
  %147 = alloca i64, align 8
  %148 = alloca i32, align 4
  %149 = alloca i32, align 4
  %150 = alloca i32, align 4
  %151 = alloca i16, align 2
  %152 = alloca i16, align 2
  store i8 %0, ptr %36, align 1
  call void @llvm.dbg.declare(metadata ptr %36, metadata !2161, metadata !DIExpression()), !dbg !2162
  store i16 %1, ptr %37, align 2
  call void @llvm.dbg.declare(metadata ptr %37, metadata !2163, metadata !DIExpression()), !dbg !2164
  store i16 %2, ptr %38, align 2
  call void @llvm.dbg.declare(metadata ptr %38, metadata !2165, metadata !DIExpression()), !dbg !2166
  store i16 %3, ptr %39, align 2
  call void @llvm.dbg.declare(metadata ptr %39, metadata !2167, metadata !DIExpression()), !dbg !2168
  %153 = zext i1 %4 to i8
  store i8 %153, ptr %40, align 1
  call void @llvm.dbg.declare(metadata ptr %40, metadata !2169, metadata !DIExpression()), !dbg !2170
  store i32 %5, ptr %41, align 4
  call void @llvm.dbg.declare(metadata ptr %41, metadata !2171, metadata !DIExpression()), !dbg !2172
  store i32 %6, ptr %42, align 4
  call void @llvm.dbg.declare(metadata ptr %42, metadata !2173, metadata !DIExpression()), !dbg !2174
  store i8 %7, ptr %43, align 1
  call void @llvm.dbg.declare(metadata ptr %43, metadata !2175, metadata !DIExpression()), !dbg !2176
  store i16 %8, ptr %44, align 2
  call void @llvm.dbg.declare(metadata ptr %44, metadata !2177, metadata !DIExpression()), !dbg !2178
  store i16 %9, ptr %45, align 2
  call void @llvm.dbg.declare(metadata ptr %45, metadata !2179, metadata !DIExpression()), !dbg !2180
  store i32 %10, ptr %46, align 4
  call void @llvm.dbg.declare(metadata ptr %46, metadata !2181, metadata !DIExpression()), !dbg !2182
  store ptr %11, ptr %47, align 8
  call void @llvm.dbg.declare(metadata ptr %47, metadata !2183, metadata !DIExpression()), !dbg !2184
  store ptr %12, ptr %48, align 8
  call void @llvm.dbg.declare(metadata ptr %48, metadata !2185, metadata !DIExpression()), !dbg !2186
  store ptr %13, ptr %49, align 8
  call void @llvm.dbg.declare(metadata ptr %49, metadata !2187, metadata !DIExpression()), !dbg !2188
  store ptr %14, ptr %50, align 8
  call void @llvm.dbg.declare(metadata ptr %50, metadata !2189, metadata !DIExpression()), !dbg !2190
  store ptr %15, ptr %51, align 8
  call void @llvm.dbg.declare(metadata ptr %51, metadata !2191, metadata !DIExpression()), !dbg !2192
  store ptr %16, ptr %52, align 8
  call void @llvm.dbg.declare(metadata ptr %52, metadata !2193, metadata !DIExpression()), !dbg !2194
  store ptr %17, ptr %53, align 8
  call void @llvm.dbg.declare(metadata ptr %53, metadata !2195, metadata !DIExpression()), !dbg !2196
  store ptr %18, ptr %54, align 8
  call void @llvm.dbg.declare(metadata ptr %54, metadata !2197, metadata !DIExpression()), !dbg !2198
  store ptr %19, ptr %55, align 8
  call void @llvm.dbg.declare(metadata ptr %55, metadata !2199, metadata !DIExpression()), !dbg !2200
  store ptr %20, ptr %56, align 8
  call void @llvm.dbg.declare(metadata ptr %56, metadata !2201, metadata !DIExpression()), !dbg !2202
  store ptr %21, ptr %57, align 8
  call void @llvm.dbg.declare(metadata ptr %57, metadata !2203, metadata !DIExpression()), !dbg !2204
  store ptr %22, ptr %58, align 8
  call void @llvm.dbg.declare(metadata ptr %58, metadata !2205, metadata !DIExpression()), !dbg !2206
  store ptr %23, ptr %59, align 8
  call void @llvm.dbg.declare(metadata ptr %59, metadata !2207, metadata !DIExpression()), !dbg !2208
  store ptr %24, ptr %60, align 8
  call void @llvm.dbg.declare(metadata ptr %60, metadata !2209, metadata !DIExpression()), !dbg !2210
  store ptr %25, ptr %61, align 8
  call void @llvm.dbg.declare(metadata ptr %61, metadata !2211, metadata !DIExpression()), !dbg !2212
  store ptr %26, ptr %62, align 8
  call void @llvm.dbg.declare(metadata ptr %62, metadata !2213, metadata !DIExpression()), !dbg !2214
  store ptr %27, ptr %63, align 8
  call void @llvm.dbg.declare(metadata ptr %63, metadata !2215, metadata !DIExpression()), !dbg !2216
  store ptr %28, ptr %64, align 8
  call void @llvm.dbg.declare(metadata ptr %64, metadata !2217, metadata !DIExpression()), !dbg !2218
  store ptr %29, ptr %65, align 8
  call void @llvm.dbg.declare(metadata ptr %65, metadata !2219, metadata !DIExpression()), !dbg !2220
  store ptr %30, ptr %66, align 8
  call void @llvm.dbg.declare(metadata ptr %66, metadata !2221, metadata !DIExpression()), !dbg !2222
  store ptr %31, ptr %67, align 8
  call void @llvm.dbg.declare(metadata ptr %67, metadata !2223, metadata !DIExpression()), !dbg !2224
  store ptr %32, ptr %68, align 8
  call void @llvm.dbg.declare(metadata ptr %68, metadata !2225, metadata !DIExpression()), !dbg !2226
  store ptr %33, ptr %69, align 8
  call void @llvm.dbg.declare(metadata ptr %69, metadata !2227, metadata !DIExpression()), !dbg !2228
  store ptr %34, ptr %70, align 8
  call void @llvm.dbg.declare(metadata ptr %70, metadata !2229, metadata !DIExpression()), !dbg !2230
  %154 = load i32, ptr %42, align 4, !dbg !2231
  %155 = icmp eq i32 %154, 650708270, !dbg !2233
  br i1 %155, label %156, label %159, !dbg !2234

156:                                              ; preds = %35
  %157 = load i16, ptr %45, align 2, !dbg !2235
  %158 = zext i16 %157 to i32, !dbg !2235
  br label %162, !dbg !2234

159:                                              ; preds = %35
  %160 = load i8, ptr %36, align 1, !dbg !2236
  %161 = sext i8 %160 to i32, !dbg !2236
  br label %162, !dbg !2234

162:                                              ; preds = %159, %156
  %163 = phi i32 [ %158, %156 ], [ %161, %159 ], !dbg !2234
  store i32 %163, ptr %71, align 4, !dbg !2237
  store i32 -650708270, ptr %73, align 4, !dbg !2238
  %164 = load i8, ptr %40, align 1, !dbg !2239
  %165 = trunc i8 %164 to i1, !dbg !2239
  %166 = zext i1 %165 to i32, !dbg !2239
  store i32 %166, ptr %74, align 4, !dbg !2240
  %167 = call noundef nonnull align 4 dereferenceable(4) ptr @_ZSt3minIiERKT_S2_S2_(ptr noundef nonnull align 4 dereferenceable(4) %73, ptr noundef nonnull align 4 dereferenceable(4) %74), !dbg !2241
  %168 = load i32, ptr %167, align 4, !dbg !2241
  %169 = load i32, ptr %42, align 4, !dbg !2242
  %170 = load i16, ptr %38, align 2, !dbg !2243
  %171 = zext i16 %170 to i32, !dbg !2243
  %172 = icmp sgt i32 %169, %171, !dbg !2244
  %173 = zext i1 %172 to i32, !dbg !2245
  %174 = icmp sgt i32 %168, %173, !dbg !2246
  %175 = zext i1 %174 to i32, !dbg !2247
  store i32 %175, ptr %72, align 4, !dbg !2248
  %176 = call noundef nonnull align 4 dereferenceable(4) ptr @_ZSt3minIiERKT_S2_S2_(ptr noundef nonnull align 4 dereferenceable(4) %71, ptr noundef nonnull align 4 dereferenceable(4) %72), !dbg !2249
  %177 = load i32, ptr %176, align 4, !dbg !2249
  %178 = icmp ne i32 %177, 0, !dbg !2249
  br i1 %178, label %179, label %1657, !dbg !2250

179:                                              ; preds = %162
  %180 = load i16, ptr %39, align 2, !dbg !2251
  %181 = sext i16 %180 to i32, !dbg !2251
  %182 = xor i32 %181, -1, !dbg !2253
  %183 = icmp ne i32 %182, 0, !dbg !2254
  br i1 %183, label %184, label %187, !dbg !2255

184:                                              ; preds = %179
  %185 = load i32, ptr %42, align 4, !dbg !2256
  %186 = sext i32 %185 to i64, !dbg !2256
  br label %188, !dbg !2255

187:                                              ; preds = %179
  br label %188, !dbg !2255

188:                                              ; preds = %187, %184
  %189 = phi i64 [ %186, %184 ], [ 1, %187 ], !dbg !2255
  %190 = sub nsw i64 1, %189, !dbg !2257
  %191 = trunc i64 %190 to i8, !dbg !2258
  store i8 %191, ptr @var_10, align 1, !dbg !2259
  %192 = load i16, ptr %44, align 2, !dbg !2260
  %193 = trunc i16 %192 to i8, !dbg !2260
  %194 = zext i8 %193 to i32, !dbg !2261
  %195 = add i32 7233, %194, !dbg !2262
  %196 = icmp ne i32 %195, 0, !dbg !2263
  br i1 %196, label %197, label %199, !dbg !2264

197:                                              ; preds = %188
  %198 = load i32, ptr %41, align 4, !dbg !2265
  br label %201, !dbg !2264

199:                                              ; preds = %188
  %200 = load i32, ptr %42, align 4, !dbg !2266
  br label %201, !dbg !2264

201:                                              ; preds = %199, %197
  %202 = phi i32 [ %198, %197 ], [ %200, %199 ], !dbg !2264
  %203 = icmp ne i32 %202, 0, !dbg !2267
  %204 = zext i1 %203 to i8, !dbg !2268
  store i8 %204, ptr @var_11, align 1, !dbg !2268
  call void @llvm.dbg.declare(metadata ptr %75, metadata !2269, metadata !DIExpression()), !dbg !2271
  %205 = load i8, ptr %36, align 1, !dbg !2272
  %206 = icmp ne i8 %205, 0, !dbg !2272
  br i1 %206, label %207, label %217, !dbg !2273

207:                                              ; preds = %201
  %208 = load i16, ptr %37, align 2, !dbg !2274
  %209 = zext i16 %208 to i32, !dbg !2274
  %210 = load i16, ptr %45, align 2, !dbg !2275
  %211 = zext i16 %210 to i32, !dbg !2275
  %212 = load i32, ptr %41, align 4, !dbg !2276
  %213 = icmp eq i32 %211, %212, !dbg !2277
  %214 = zext i1 %213 to i32, !dbg !2278
  %215 = icmp eq i32 %209, %214, !dbg !2279
  %216 = zext i1 %215 to i32, !dbg !2280
  br label %239, !dbg !2273

217:                                              ; preds = %201
  %218 = load i16, ptr %37, align 2, !dbg !2281
  %219 = icmp ne i16 %218, 0, !dbg !2281
  br i1 %219, label %220, label %226, !dbg !2282

220:                                              ; preds = %217
  %221 = load i8, ptr %40, align 1, !dbg !2283
  %222 = trunc i8 %221 to i1, !dbg !2283
  %223 = zext i1 %222 to i32, !dbg !2283
  %224 = icmp ne i32 %223, 83, !dbg !2284
  %225 = zext i1 %224 to i32, !dbg !2285
  br label %237, !dbg !2282

226:                                              ; preds = %217
  %227 = load i16, ptr %38, align 2, !dbg !2286
  %228 = icmp ne i16 %227, 0, !dbg !2286
  br i1 %228, label %229, label %232, !dbg !2287

229:                                              ; preds = %226
  %230 = load i16, ptr %38, align 2, !dbg !2288
  %231 = zext i16 %230 to i32, !dbg !2288
  br label %235, !dbg !2287

232:                                              ; preds = %226
  %233 = load i16, ptr %45, align 2, !dbg !2289
  %234 = zext i16 %233 to i32, !dbg !2289
  br label %235, !dbg !2287

235:                                              ; preds = %232, %229
  %236 = phi i32 [ %231, %229 ], [ %234, %232 ], !dbg !2287
  br label %237, !dbg !2282

237:                                              ; preds = %235, %220
  %238 = phi i32 [ %225, %220 ], [ %236, %235 ], !dbg !2282
  br label %239, !dbg !2273

239:                                              ; preds = %237, %207
  %240 = phi i32 [ %216, %207 ], [ %238, %237 ], !dbg !2273
  %241 = trunc i32 %240 to i8, !dbg !2290
  %242 = sext i8 %241 to i32, !dbg !2291
  %243 = add nsw i32 %242, 3, !dbg !2292
  %244 = trunc i32 %243 to i8, !dbg !2293
  store i8 %244, ptr %75, align 1, !dbg !2271
  br label %245, !dbg !2294

245:                                              ; preds = %305, %239
  %246 = load i8, ptr %75, align 1, !dbg !2295
  %247 = sext i8 %246 to i32, !dbg !2295
  %248 = load i16, ptr %37, align 2, !dbg !2297
  %249 = trunc i16 %248 to i8, !dbg !2297
  %250 = sext i8 %249 to i32, !dbg !2298
  %251 = add nsw i32 %250, 105, !dbg !2299
  %252 = icmp slt i32 %247, %251, !dbg !2300
  br i1 %252, label %253, label %310, !dbg !2301

253:                                              ; preds = %245
  %254 = load ptr, ptr %48, align 8, !dbg !2302
  %255 = load i8, ptr %75, align 1, !dbg !2304
  %256 = sext i8 %255 to i64, !dbg !2302
  %257 = getelementptr inbounds i8, ptr %254, i64 %256, !dbg !2302
  %258 = load i8, ptr %257, align 1, !dbg !2302
  %259 = trunc i8 %258 to i1, !dbg !2302
  br i1 %259, label %260, label %263, !dbg !2305

260:                                              ; preds = %253
  %261 = load i16, ptr %44, align 2, !dbg !2306
  %262 = sext i16 %261 to i32, !dbg !2306
  br label %265, !dbg !2305

263:                                              ; preds = %253
  %264 = load i32, ptr %41, align 4, !dbg !2307
  br label %265, !dbg !2305

265:                                              ; preds = %263, %260
  %266 = phi i32 [ %262, %260 ], [ %264, %263 ], !dbg !2305
  %267 = icmp ne i32 %266, 0, !dbg !2308
  %268 = zext i1 %267 to i64, !dbg !2309
  %269 = select i1 %267, i32 -650708260, i32 0, !dbg !2309
  %270 = load i16, ptr %38, align 2, !dbg !2310
  %271 = zext i16 %270 to i32, !dbg !2310
  %272 = srem i32 %269, %271, !dbg !2311
  %273 = trunc i32 %272 to i8, !dbg !2312
  store i8 %273, ptr @var_12, align 1, !dbg !2313
  %274 = load i16, ptr %44, align 2, !dbg !2314
  %275 = trunc i16 %274 to i8, !dbg !2314
  %276 = load i8, ptr %75, align 1, !dbg !2315
  %277 = sext i8 %276 to i64, !dbg !2316
  %278 = getelementptr inbounds [19 x i8], ptr @arr_2, i64 0, i64 %277, !dbg !2316
  store i8 %275, ptr %278, align 1, !dbg !2317
  %279 = load i8, ptr %40, align 1, !dbg !2318
  %280 = trunc i8 %279 to i1, !dbg !2318
  br i1 %280, label %281, label %284, !dbg !2319

281:                                              ; preds = %265
  %282 = load i16, ptr %39, align 2, !dbg !2320
  %283 = sext i16 %282 to i32, !dbg !2320
  br label %288, !dbg !2319

284:                                              ; preds = %265
  %285 = load i8, ptr %40, align 1, !dbg !2321
  %286 = trunc i8 %285 to i1, !dbg !2321
  %287 = zext i1 %286 to i32, !dbg !2321
  br label %288, !dbg !2319

288:                                              ; preds = %284, %281
  %289 = phi i32 [ %283, %281 ], [ %287, %284 ], !dbg !2319
  %290 = sext i32 %289 to i64, !dbg !2322
  store i64 %290, ptr %76, align 8, !dbg !2323
  %291 = load ptr, ptr %47, align 8, !dbg !2324
  %292 = load i8, ptr %75, align 1, !dbg !2325
  %293 = sext i8 %292 to i32, !dbg !2325
  %294 = add nsw i32 %293, 1, !dbg !2326
  %295 = sext i32 %294 to i64, !dbg !2324
  %296 = getelementptr inbounds i64, ptr %291, i64 %295, !dbg !2324
  %297 = load i64, ptr %296, align 8, !dbg !2324
  store i64 %297, ptr %77, align 8, !dbg !2327
  %298 = call noundef nonnull align 8 dereferenceable(8) ptr @_ZSt3maxIyERKT_S2_S2_(ptr noundef nonnull align 8 dereferenceable(8) %76, ptr noundef nonnull align 8 dereferenceable(8) %77), !dbg !2328
  %299 = load i64, ptr %298, align 8, !dbg !2328
  %300 = icmp ne i64 %299, 0, !dbg !2328
  %301 = zext i1 %300 to i8, !dbg !2329
  store i8 %301, ptr @var_13, align 1, !dbg !2329
  %302 = load i8, ptr %75, align 1, !dbg !2330
  %303 = sext i8 %302 to i64, !dbg !2331
  %304 = getelementptr inbounds [19 x i64], ptr @arr_3, i64 0, i64 %303, !dbg !2331
  store i64 1, ptr %304, align 8, !dbg !2332
  br label %305, !dbg !2333

305:                                              ; preds = %288
  %306 = load i8, ptr %75, align 1, !dbg !2334
  %307 = sext i8 %306 to i32, !dbg !2334
  %308 = add nsw i32 %307, 4, !dbg !2334
  %309 = trunc i32 %308 to i8, !dbg !2334
  store i8 %309, ptr %75, align 1, !dbg !2334
  br label %245, !dbg !2335, !llvm.loop !2336

310:                                              ; preds = %245
  call void @llvm.dbg.declare(metadata ptr %78, metadata !2340, metadata !DIExpression()), !dbg !2342
  store i8 0, ptr %78, align 1, !dbg !2342
  br label %311, !dbg !2343

311:                                              ; preds = %757, %310
  %312 = load i8, ptr %78, align 1, !dbg !2344
  %313 = trunc i8 %312 to i1, !dbg !2344
  %314 = zext i1 %313 to i32, !dbg !2344
  store i8 1, ptr %79, align 1, !dbg !2346
  %315 = call noundef nonnull align 1 dereferenceable(1) ptr @_ZSt3maxIbERKT_S2_S2_(ptr noundef nonnull align 1 dereferenceable(1) %79, ptr noundef nonnull align 1 dereferenceable(1) %40), !dbg !2347
  %316 = load i8, ptr %315, align 1, !dbg !2347
  %317 = trunc i8 %316 to i1, !dbg !2347
  %318 = zext i1 %317 to i32, !dbg !2347
  %319 = load i16, ptr %39, align 2, !dbg !2348
  %320 = icmp ne i16 %319, 0, !dbg !2348
  %321 = zext i1 %320 to i64, !dbg !2349
  %322 = select i1 %320, i32 -31460, i32 650708270, !dbg !2349
  %323 = icmp sgt i32 %318, %322, !dbg !2350
  %324 = zext i1 %323 to i32, !dbg !2351
  %325 = load i16, ptr %44, align 2, !dbg !2352
  %326 = icmp ne i16 %325, 0, !dbg !2352
  br i1 %326, label %330, label %327, !dbg !2353

327:                                              ; preds = %311
  %328 = load i16, ptr %39, align 2, !dbg !2354
  %329 = icmp ne i16 %328, 0, !dbg !2354
  br label %330, !dbg !2353

330:                                              ; preds = %327, %311
  %331 = phi i1 [ true, %311 ], [ %329, %327 ]
  %332 = zext i1 %331 to i32, !dbg !2355
  %333 = icmp sgt i32 %324, %332, !dbg !2356
  %334 = zext i1 %333 to i32, !dbg !2357
  %335 = add nsw i32 %334, 1, !dbg !2358
  %336 = icmp slt i32 %314, %335, !dbg !2359
  br i1 %336, label %337, label %768, !dbg !2360

337:                                              ; preds = %330
  store i32 -1361984250, ptr %80, align 4, !dbg !2361
  store i32 -31454, ptr %81, align 4, !dbg !2363
  %338 = call noundef nonnull align 4 dereferenceable(4) ptr @_ZSt3maxIjERKT_S2_S2_(ptr noundef nonnull align 4 dereferenceable(4) %80, ptr noundef nonnull align 4 dereferenceable(4) %81), !dbg !2364
  %339 = load i32, ptr %338, align 4, !dbg !2364
  %340 = zext i32 %339 to i64, !dbg !2364
  %341 = load i8, ptr %78, align 1, !dbg !2365
  %342 = trunc i8 %341 to i1, !dbg !2365
  %343 = zext i1 %342 to i64, !dbg !2366
  %344 = getelementptr inbounds [22 x [22 x i64]], ptr @arr_6, i64 0, i64 %343, !dbg !2366
  %345 = load i8, ptr %78, align 1, !dbg !2367
  %346 = trunc i8 %345 to i1, !dbg !2367
  %347 = zext i1 %346 to i64, !dbg !2366
  %348 = getelementptr inbounds [22 x i64], ptr %344, i64 0, i64 %347, !dbg !2366
  store i64 %340, ptr %348, align 8, !dbg !2368
  call void @llvm.dbg.declare(metadata ptr %82, metadata !2369, metadata !DIExpression()), !dbg !2371
  store i64 0, ptr %82, align 8, !dbg !2371
  br label %349, !dbg !2372

349:                                              ; preds = %372, %337
  %350 = load i64, ptr %82, align 8, !dbg !2373
  %351 = icmp slt i64 %350, 22, !dbg !2375
  br i1 %351, label %352, label %375, !dbg !2376

352:                                              ; preds = %349
  store i64 -63, ptr @var_14, align 8, !dbg !2377
  %353 = load ptr, ptr %52, align 8, !dbg !2379
  %354 = load i8, ptr %78, align 1, !dbg !2380
  %355 = trunc i8 %354 to i1, !dbg !2380
  %356 = zext i1 %355 to i64, !dbg !2379
  %357 = getelementptr inbounds i64, ptr %353, i64 %356, !dbg !2379
  %358 = load i64, ptr %357, align 8, !dbg !2379
  %359 = icmp ne i64 %358, 0, !dbg !2379
  br i1 %359, label %360, label %367, !dbg !2381

360:                                              ; preds = %352
  %361 = load ptr, ptr %52, align 8, !dbg !2382
  %362 = load i8, ptr %78, align 1, !dbg !2383
  %363 = trunc i8 %362 to i1, !dbg !2383
  %364 = zext i1 %363 to i64, !dbg !2382
  %365 = getelementptr inbounds i64, ptr %361, i64 %364, !dbg !2382
  %366 = load i64, ptr %365, align 8, !dbg !2382
  br label %368, !dbg !2381

367:                                              ; preds = %352
  br label %368, !dbg !2381

368:                                              ; preds = %367, %360
  %369 = phi i64 [ %366, %360 ], [ 2106384592, %367 ], !dbg !2381
  %370 = load i64, ptr @var_15, align 8, !dbg !2384
  %371 = add i64 %370, %369, !dbg !2384
  store i64 %371, ptr @var_15, align 8, !dbg !2384
  br label %372, !dbg !2385

372:                                              ; preds = %368
  %373 = load i64, ptr %82, align 8, !dbg !2386
  %374 = add nsw i64 %373, 4, !dbg !2386
  store i64 %374, ptr %82, align 8, !dbg !2386
  br label %349, !dbg !2387, !llvm.loop !2388

375:                                              ; preds = %349
  call void @llvm.dbg.declare(metadata ptr %83, metadata !2390, metadata !DIExpression()), !dbg !2392
  store i64 0, ptr %83, align 8, !dbg !2392
  br label %376, !dbg !2393

376:                                              ; preds = %717, %375
  %377 = load i64, ptr %83, align 8, !dbg !2394
  %378 = load i8, ptr %40, align 1, !dbg !2396
  %379 = trunc i8 %378 to i1, !dbg !2396
  %380 = zext i1 %379 to i64, !dbg !2396
  %381 = add i64 %380, 22, !dbg !2397
  %382 = icmp ult i64 %377, %381, !dbg !2398
  br i1 %382, label %383, label %725, !dbg !2399

383:                                              ; preds = %376
  %384 = load ptr, ptr %53, align 8, !dbg !2400
  %385 = load i8, ptr %78, align 1, !dbg !2402
  %386 = trunc i8 %385 to i1, !dbg !2402
  %387 = zext i1 %386 to i64, !dbg !2400
  %388 = getelementptr inbounds [22 x i32], ptr %384, i64 %387, !dbg !2400
  %389 = load i64, ptr %83, align 8, !dbg !2403
  %390 = getelementptr inbounds [22 x i32], ptr %388, i64 0, i64 %389, !dbg !2400
  %391 = load i32, ptr %390, align 4, !dbg !2400
  store i32 %391, ptr %84, align 4, !dbg !2404
  %392 = call noundef nonnull align 4 dereferenceable(4) ptr @_ZSt3maxIiERKT_S2_S2_(ptr noundef nonnull align 4 dereferenceable(4) @var_16, ptr noundef nonnull align 4 dereferenceable(4) %84), !dbg !2405
  %393 = load i32, ptr %392, align 4, !dbg !2405
  store i32 %393, ptr @var_16, align 4, !dbg !2406
  call void @llvm.dbg.declare(metadata ptr %85, metadata !2407, metadata !DIExpression()), !dbg !2409
  store i8 0, ptr %85, align 1, !dbg !2409
  br label %394, !dbg !2410

394:                                              ; preds = %547, %383
  %395 = load i8, ptr %85, align 1, !dbg !2411
  %396 = trunc i8 %395 to i1, !dbg !2411
  %397 = zext i1 %396 to i32, !dbg !2411
  %398 = icmp slt i32 %397, 1, !dbg !2413
  br i1 %398, label %399, label %557, !dbg !2414

399:                                              ; preds = %394
  call void @llvm.dbg.declare(metadata ptr %86, metadata !2415, metadata !DIExpression()), !dbg !2418
  %400 = load i32, ptr %42, align 4, !dbg !2419
  %401 = sub i32 %400, 1019008798, !dbg !2420
  store i32 %401, ptr %86, align 4, !dbg !2418
  br label %402, !dbg !2421

402:                                              ; preds = %541, %399
  %403 = load i32, ptr %86, align 4, !dbg !2422
  %404 = load ptr, ptr %51, align 8, !dbg !2424
  %405 = load i8, ptr %78, align 1, !dbg !2425
  %406 = trunc i8 %405 to i1, !dbg !2425
  %407 = zext i1 %406 to i64, !dbg !2424
  %408 = getelementptr inbounds [22 x [22 x i32]], ptr %404, i64 %407, !dbg !2424
  %409 = load i8, ptr %78, align 1, !dbg !2426
  %410 = trunc i8 %409 to i1, !dbg !2426
  %411 = zext i1 %410 to i64, !dbg !2424
  %412 = getelementptr inbounds [22 x [22 x i32]], ptr %408, i64 0, i64 %411, !dbg !2424
  %413 = load i8, ptr %85, align 1, !dbg !2427
  %414 = trunc i8 %413 to i1, !dbg !2427
  %415 = zext i1 %414 to i64, !dbg !2424
  %416 = getelementptr inbounds [22 x i32], ptr %412, i64 0, i64 %415, !dbg !2424
  %417 = load i32, ptr %416, align 4, !dbg !2424
  %418 = icmp ne i32 %417, 0, !dbg !2424
  br i1 %418, label %419, label %433, !dbg !2428

419:                                              ; preds = %402
  %420 = load ptr, ptr %51, align 8, !dbg !2429
  %421 = load i8, ptr %85, align 1, !dbg !2430
  %422 = trunc i8 %421 to i1, !dbg !2430
  %423 = zext i1 %422 to i64, !dbg !2429
  %424 = getelementptr inbounds [22 x [22 x i32]], ptr %420, i64 %423, !dbg !2429
  %425 = load i64, ptr %83, align 8, !dbg !2431
  %426 = getelementptr inbounds [22 x [22 x i32]], ptr %424, i64 0, i64 %425, !dbg !2429
  %427 = load i8, ptr %78, align 1, !dbg !2432
  %428 = trunc i8 %427 to i1, !dbg !2432
  %429 = zext i1 %428 to i64, !dbg !2429
  %430 = getelementptr inbounds [22 x i32], ptr %426, i64 0, i64 %429, !dbg !2429
  %431 = load i32, ptr %430, align 4, !dbg !2429
  %432 = zext i32 %431 to i64, !dbg !2429
  br label %443, !dbg !2428

433:                                              ; preds = %402
  %434 = load ptr, ptr %55, align 8, !dbg !2433
  %435 = load i8, ptr %85, align 1, !dbg !2434
  %436 = trunc i8 %435 to i1, !dbg !2434
  %437 = zext i1 %436 to i64, !dbg !2433
  %438 = getelementptr inbounds i16, ptr %434, i64 %437, !dbg !2433
  %439 = load i16, ptr %438, align 2, !dbg !2433
  %440 = sext i16 %439 to i64, !dbg !2433
  store i64 %440, ptr %87, align 8, !dbg !2435
  store i64 -1598481798028627859, ptr %88, align 8, !dbg !2436
  %441 = call noundef nonnull align 8 dereferenceable(8) ptr @_ZSt3minIxERKT_S2_S2_(ptr noundef nonnull align 8 dereferenceable(8) %87, ptr noundef nonnull align 8 dereferenceable(8) %88), !dbg !2437
  %442 = load i64, ptr %441, align 8, !dbg !2437
  br label %443, !dbg !2428

443:                                              ; preds = %433, %419
  %444 = phi i64 [ %432, %419 ], [ %442, %433 ], !dbg !2428
  %445 = trunc i64 %444 to i32, !dbg !2438
  %446 = sub i32 %445, 1504086953, !dbg !2439
  %447 = icmp ult i32 %403, %446, !dbg !2440
  br i1 %447, label %448, label %546, !dbg !2441

448:                                              ; preds = %443
  %449 = load i8, ptr %85, align 1, !dbg !2442
  %450 = trunc i8 %449 to i1, !dbg !2442
  %451 = zext i1 %450 to i64, !dbg !2445
  %452 = getelementptr inbounds [22 x [22 x [22 x i8]]], ptr @arr_16, i64 0, i64 %451, !dbg !2445
  %453 = load i8, ptr %85, align 1, !dbg !2446
  %454 = trunc i8 %453 to i1, !dbg !2446
  %455 = zext i1 %454 to i64, !dbg !2445
  %456 = getelementptr inbounds [22 x [22 x i8]], ptr %452, i64 0, i64 %455, !dbg !2445
  %457 = load i64, ptr %83, align 8, !dbg !2447
  %458 = getelementptr inbounds [22 x i8], ptr %456, i64 0, i64 %457, !dbg !2445
  store i8 107, ptr %458, align 1, !dbg !2448
  store i32 -1068328471, ptr %89, align 4, !dbg !2449
  %459 = load i16, ptr %45, align 2, !dbg !2450
  %460 = zext i16 %459 to i32, !dbg !2450
  store i32 %460, ptr %90, align 4, !dbg !2451
  %461 = call noundef nonnull align 4 dereferenceable(4) ptr @_ZSt3minIjERKT_S2_S2_(ptr noundef nonnull align 4 dereferenceable(4) %89, ptr noundef nonnull align 4 dereferenceable(4) %90), !dbg !2452
  %462 = load i32, ptr %461, align 4, !dbg !2452
  %463 = zext i32 %462 to i64, !dbg !2452
  %464 = icmp ne i64 %463, 0, !dbg !2453
  br i1 %464, label %465, label %471, !dbg !2454

465:                                              ; preds = %448
  %466 = load i16, ptr %38, align 2, !dbg !2455
  %467 = zext i16 %466 to i32, !dbg !2455
  %468 = load i8, ptr %36, align 1, !dbg !2456
  %469 = sext i8 %468 to i32, !dbg !2456
  %470 = sub nsw i32 %467, %469, !dbg !2457
  br label %475, !dbg !2454

471:                                              ; preds = %448
  %472 = load ptr, ptr %49, align 8, !dbg !2458
  %473 = getelementptr inbounds i32, ptr %472, i64 1, !dbg !2458
  %474 = load i32, ptr %473, align 4, !dbg !2458
  br label %475, !dbg !2454

475:                                              ; preds = %471, %465
  %476 = phi i32 [ %470, %465 ], [ %474, %471 ], !dbg !2454
  store i32 %476, ptr @var_17, align 4, !dbg !2459
  %477 = load ptr, ptr %50, align 8, !dbg !2460
  %478 = load i8, ptr %85, align 1, !dbg !2461
  %479 = trunc i8 %478 to i1, !dbg !2461
  %480 = zext i1 %479 to i64, !dbg !2460
  %481 = getelementptr inbounds [22 x i8], ptr %477, i64 %480, !dbg !2460
  %482 = load i32, ptr %86, align 4, !dbg !2462
  %483 = zext i32 %482 to i64, !dbg !2460
  %484 = getelementptr inbounds [22 x i8], ptr %481, i64 0, i64 %483, !dbg !2460
  %485 = load ptr, ptr %50, align 8, !dbg !2463
  %486 = load i8, ptr %78, align 1, !dbg !2464
  %487 = trunc i8 %486 to i1, !dbg !2464
  %488 = zext i1 %487 to i64, !dbg !2463
  %489 = getelementptr inbounds [22 x i8], ptr %485, i64 %488, !dbg !2463
  %490 = load i64, ptr %83, align 8, !dbg !2465
  %491 = getelementptr inbounds [22 x i8], ptr %489, i64 0, i64 %490, !dbg !2463
  %492 = call noundef nonnull align 1 dereferenceable(1) ptr @_ZSt3maxIbERKT_S2_S2_(ptr noundef nonnull align 1 dereferenceable(1) %484, ptr noundef nonnull align 1 dereferenceable(1) %491), !dbg !2466
  %493 = load i8, ptr %492, align 1, !dbg !2466
  %494 = trunc i8 %493 to i1, !dbg !2466
  %495 = zext i1 %494 to i32, !dbg !2466
  %496 = load i32, ptr @var_18, align 4, !dbg !2467
  %497 = or i32 %496, %495, !dbg !2467
  store i32 %497, ptr @var_18, align 4, !dbg !2467
  br label %498, !dbg !2468

498:                                              ; preds = %475
  %499 = load ptr, ptr %50, align 8, !dbg !2469
  %500 = load i8, ptr %78, align 1, !dbg !2470
  %501 = trunc i8 %500 to i1, !dbg !2470
  %502 = zext i1 %501 to i64, !dbg !2469
  %503 = getelementptr inbounds [22 x i8], ptr %499, i64 %502, !dbg !2469
  %504 = load i64, ptr %83, align 8, !dbg !2471
  %505 = getelementptr inbounds [22 x i8], ptr %503, i64 0, i64 %504, !dbg !2469
  %506 = load i8, ptr %505, align 1, !dbg !2469
  %507 = trunc i8 %506 to i1, !dbg !2469
  br i1 %507, label %508, label %509, !dbg !2472

508:                                              ; preds = %498
  br label %512, !dbg !2472

509:                                              ; preds = %498
  %510 = load i16, ptr %37, align 2, !dbg !2473
  %511 = zext i16 %510 to i32, !dbg !2473
  br label %512, !dbg !2472

512:                                              ; preds = %509, %508
  %513 = phi i32 [ -1377749468, %508 ], [ %511, %509 ], !dbg !2472
  %514 = trunc i32 %513 to i8, !dbg !2474
  %515 = icmp ne i8 %514, 0, !dbg !2475
  br i1 %515, label %516, label %527, !dbg !2476

516:                                              ; preds = %512
  %517 = load ptr, ptr %50, align 8, !dbg !2477
  %518 = load i8, ptr %78, align 1, !dbg !2478
  %519 = trunc i8 %518 to i1, !dbg !2478
  %520 = zext i1 %519 to i64, !dbg !2477
  %521 = getelementptr inbounds [22 x i8], ptr %517, i64 %520, !dbg !2477
  %522 = getelementptr inbounds [22 x i8], ptr %521, i64 0, i64 10, !dbg !2477
  store i8 1, ptr %91, align 1, !dbg !2479
  %523 = call noundef nonnull align 1 dereferenceable(1) ptr @_ZSt3minIbERKT_S2_S2_(ptr noundef nonnull align 1 dereferenceable(1) %522, ptr noundef nonnull align 1 dereferenceable(1) %91), !dbg !2480
  %524 = load i8, ptr %523, align 1, !dbg !2480
  %525 = trunc i8 %524 to i1, !dbg !2480
  %526 = zext i1 %525 to i32, !dbg !2480
  br label %541, !dbg !2476

527:                                              ; preds = %512
  %528 = load i8, ptr %43, align 1, !dbg !2481
  %529 = sext i8 %528 to i32, !dbg !2481
  %530 = icmp ne i32 %529, 0, !dbg !2482
  br i1 %530, label %538, label %531, !dbg !2483

531:                                              ; preds = %527
  %532 = load i8, ptr %40, align 1, !dbg !2484
  %533 = trunc i8 %532 to i1, !dbg !2484
  %534 = zext i1 %533 to i32, !dbg !2484
  store i32 %534, ptr %92, align 4, !dbg !2485
  %535 = call noundef nonnull align 4 dereferenceable(4) ptr @_ZSt3maxIjERKT_S2_S2_(ptr noundef nonnull align 4 dereferenceable(4) %92, ptr noundef nonnull align 4 dereferenceable(4) %41), !dbg !2486
  %536 = load i32, ptr %535, align 4, !dbg !2486
  %537 = icmp ne i32 %536, 0, !dbg !2486
  br label %538, !dbg !2483

538:                                              ; preds = %531, %527
  %539 = phi i1 [ true, %527 ], [ %537, %531 ]
  %540 = zext i1 %539 to i32, !dbg !2487
  br label %541, !dbg !2476

541:                                              ; preds = %538, %516
  %542 = phi i32 [ %526, %516 ], [ %540, %538 ], !dbg !2476
  %543 = add i32 %542, 4, !dbg !2488
  %544 = load i32, ptr %86, align 4, !dbg !2489
  %545 = add i32 %544, %543, !dbg !2489
  store i32 %545, ptr %86, align 4, !dbg !2489
  br label %402, !dbg !2490, !llvm.loop !2491

546:                                              ; preds = %443
  br label %547, !dbg !2493

547:                                              ; preds = %546
  %548 = load i16, ptr %44, align 2, !dbg !2494
  %549 = icmp ne i16 %548, 0, !dbg !2494
  %550 = zext i1 %549 to i32, !dbg !2495
  %551 = load i8, ptr %85, align 1, !dbg !2496
  %552 = trunc i8 %551 to i1, !dbg !2496
  %553 = zext i1 %552 to i32, !dbg !2496
  %554 = add nsw i32 %553, %550, !dbg !2496
  %555 = icmp ne i32 %554, 0, !dbg !2496
  %556 = zext i1 %555 to i8, !dbg !2496
  store i8 %556, ptr %85, align 1, !dbg !2496
  br label %394, !dbg !2497, !llvm.loop !2498

557:                                              ; preds = %394
  call void @llvm.dbg.declare(metadata ptr %93, metadata !2500, metadata !DIExpression()), !dbg !2502
  store i16 0, ptr %93, align 2, !dbg !2502
  br label %558, !dbg !2503

558:                                              ; preds = %669, %557
  %559 = load i16, ptr %93, align 2, !dbg !2504
  %560 = sext i16 %559 to i32, !dbg !2504
  %561 = load i16, ptr %39, align 2, !dbg !2506
  %562 = sext i16 %561 to i32, !dbg !2506
  %563 = load i8, ptr %43, align 1, !dbg !2507
  %564 = sext i8 %563 to i32, !dbg !2507
  %565 = or i32 1, %564, !dbg !2508
  %566 = icmp ne i32 %565, 0, !dbg !2509
  br i1 %566, label %567, label %568, !dbg !2510

567:                                              ; preds = %558
  br label %578, !dbg !2510

568:                                              ; preds = %558
  %569 = load ptr, ptr %52, align 8, !dbg !2511
  %570 = load i8, ptr %78, align 1, !dbg !2512
  %571 = trunc i8 %570 to i1, !dbg !2512
  %572 = zext i1 %571 to i64, !dbg !2511
  %573 = getelementptr inbounds i64, ptr %569, i64 %572, !dbg !2511
  %574 = load i64, ptr %573, align 8, !dbg !2511
  %575 = icmp ne i64 %574, 0, !dbg !2511
  %576 = zext i1 %575 to i64, !dbg !2513
  %577 = select i1 %575, i32 47917, i32 168, !dbg !2513
  br label %578, !dbg !2510

578:                                              ; preds = %568, %567
  %579 = phi i32 [ -121, %567 ], [ %577, %568 ], !dbg !2510
  %580 = icmp sgt i32 %562, %579, !dbg !2514
  %581 = zext i1 %580 to i16, !dbg !2515
  %582 = sext i16 %581 to i32, !dbg !2516
  %583 = add nsw i32 %582, 21, !dbg !2517
  %584 = icmp slt i32 %560, %583, !dbg !2518
  br i1 %584, label %585, label %674, !dbg !2519

585:                                              ; preds = %578
  call void @llvm.dbg.declare(metadata ptr %94, metadata !2520, metadata !DIExpression()), !dbg !2523
  %586 = load i16, ptr %38, align 2, !dbg !2524
  %587 = trunc i16 %586 to i8, !dbg !2524
  %588 = zext i8 %587 to i32, !dbg !2525
  %589 = sub nsw i32 %588, 27, !dbg !2526
  %590 = trunc i32 %589 to i8, !dbg !2527
  store i8 %590, ptr %94, align 1, !dbg !2523
  br label %591, !dbg !2528

591:                                              ; preds = %660, %585
  %592 = load i8, ptr %94, align 1, !dbg !2529
  %593 = zext i8 %592 to i32, !dbg !2529
  %594 = icmp slt i32 %593, 18, !dbg !2531
  br i1 %594, label %595, label %668, !dbg !2532

595:                                              ; preds = %591
  %596 = load ptr, ptr %49, align 8, !dbg !2533
  %597 = load i8, ptr %78, align 1, !dbg !2536
  %598 = trunc i8 %597 to i1, !dbg !2536
  %599 = zext i1 %598 to i64, !dbg !2533
  %600 = getelementptr inbounds i32, ptr %596, i64 %599, !dbg !2533
  %601 = load i32, ptr %600, align 4, !dbg !2533
  %602 = sext i32 %601 to i64, !dbg !2537
  %603 = load i64, ptr @var_19, align 8, !dbg !2538
  %604 = sub i64 %603, %602, !dbg !2538
  store i64 %604, ptr @var_19, align 8, !dbg !2538
  %605 = load i8, ptr %43, align 1, !dbg !2539
  %606 = sext i8 %605 to i32, !dbg !2539
  %607 = and i32 0, %606, !dbg !2540
  %608 = icmp ne i32 %607, 0, !dbg !2541
  br i1 %608, label %609, label %615, !dbg !2542

609:                                              ; preds = %595
  %610 = load i16, ptr %37, align 2, !dbg !2543
  %611 = icmp ne i16 %610, 0, !dbg !2543
  %612 = zext i1 %611 to i64, !dbg !2544
  %613 = select i1 %611, i32 122740576, i32 0, !dbg !2544
  %614 = zext i32 %613 to i64, !dbg !2545
  br label %622, !dbg !2542

615:                                              ; preds = %595
  store i32 27, ptr %95, align 4, !dbg !2546
  %616 = call noundef nonnull align 4 dereferenceable(4) ptr @_ZSt3minIiERKT_S2_S2_(ptr noundef nonnull align 4 dereferenceable(4) %95, ptr noundef nonnull align 4 dereferenceable(4) %42), !dbg !2547
  %617 = load i32, ptr %616, align 4, !dbg !2547
  %618 = sext i32 %617 to i64, !dbg !2547
  store i64 22597, ptr %96, align 8, !dbg !2548
  store i64 6, ptr %97, align 8, !dbg !2549
  %619 = call noundef nonnull align 8 dereferenceable(8) ptr @_ZSt3maxIyERKT_S2_S2_(ptr noundef nonnull align 8 dereferenceable(8) %96, ptr noundef nonnull align 8 dereferenceable(8) %97), !dbg !2550
  %620 = load i64, ptr %619, align 8, !dbg !2550
  %621 = and i64 %618, %620, !dbg !2551
  br label %622, !dbg !2542

622:                                              ; preds = %615, %609
  %623 = phi i64 [ %614, %609 ], [ %621, %615 ], !dbg !2542
  %624 = trunc i64 %623 to i32, !dbg !2552
  store i32 %624, ptr @var_20, align 4, !dbg !2553
  %625 = load i32, ptr @var_21, align 4, !dbg !2554
  %626 = and i32 %625, 2047, !dbg !2554
  store i32 %626, ptr @var_21, align 4, !dbg !2554
  %627 = load i8, ptr %78, align 1, !dbg !2555
  %628 = trunc i8 %627 to i1, !dbg !2555
  %629 = zext i1 %628 to i64, !dbg !2556
  %630 = getelementptr inbounds [22 x [22 x [22 x [22 x i32]]]], ptr @arr_23, i64 0, i64 %629, !dbg !2556
  %631 = load i64, ptr %83, align 8, !dbg !2557
  %632 = getelementptr inbounds [22 x [22 x [22 x i32]]], ptr %630, i64 0, i64 %631, !dbg !2556
  %633 = load i16, ptr %93, align 2, !dbg !2558
  %634 = sext i16 %633 to i64, !dbg !2556
  %635 = getelementptr inbounds [22 x [22 x i32]], ptr %632, i64 0, i64 %634, !dbg !2556
  %636 = load i64, ptr %83, align 8, !dbg !2559
  %637 = getelementptr inbounds [22 x i32], ptr %635, i64 0, i64 %636, !dbg !2556
  store i32 67, ptr %637, align 4, !dbg !2560
  store i32 -105, ptr %98, align 4, !dbg !2561
  %638 = load i16, ptr %44, align 2, !dbg !2562
  %639 = icmp ne i16 %638, 0, !dbg !2562
  br i1 %639, label %640, label %641, !dbg !2563

640:                                              ; preds = %622
  br label %652, !dbg !2563

641:                                              ; preds = %622
  %642 = load ptr, ptr %61, align 8, !dbg !2564
  %643 = getelementptr inbounds [22 x [22 x [22 x i64]]], ptr %642, i64 10, !dbg !2564
  %644 = load i64, ptr %83, align 8, !dbg !2565
  %645 = getelementptr inbounds [22 x [22 x [22 x i64]]], ptr %643, i64 0, i64 %644, !dbg !2564
  %646 = load i16, ptr %93, align 2, !dbg !2566
  %647 = sext i16 %646 to i64, !dbg !2564
  %648 = getelementptr inbounds [22 x [22 x i64]], ptr %645, i64 0, i64 %647, !dbg !2564
  %649 = load i64, ptr %83, align 8, !dbg !2567
  %650 = getelementptr inbounds [22 x i64], ptr %648, i64 0, i64 %649, !dbg !2564
  %651 = load i64, ptr %650, align 8, !dbg !2564
  br label %652, !dbg !2563

652:                                              ; preds = %641, %640
  %653 = phi i64 [ -25781, %640 ], [ %651, %641 ], !dbg !2563
  %654 = icmp ne i64 %653, 0, !dbg !2568
  %655 = zext i1 %654 to i64, !dbg !2569
  %656 = select i1 %654, i32 65476, i32 0, !dbg !2569
  store i32 %656, ptr %99, align 4, !dbg !2570
  %657 = call noundef nonnull align 4 dereferenceable(4) ptr @_ZSt3minIiERKT_S2_S2_(ptr noundef nonnull align 4 dereferenceable(4) %98, ptr noundef nonnull align 4 dereferenceable(4) %99), !dbg !2571
  %658 = load i32, ptr %657, align 4, !dbg !2571
  %659 = trunc i32 %658 to i16, !dbg !2571
  store i16 %659, ptr @var_22, align 2, !dbg !2572
  br label %660, !dbg !2573

660:                                              ; preds = %652
  %661 = load i8, ptr %36, align 1, !dbg !2574
  %662 = zext i8 %661 to i32, !dbg !2575
  %663 = sub nsw i32 %662, 27, !dbg !2576
  %664 = load i8, ptr %94, align 1, !dbg !2577
  %665 = zext i8 %664 to i32, !dbg !2577
  %666 = add nsw i32 %665, %663, !dbg !2577
  %667 = trunc i32 %666 to i8, !dbg !2577
  store i8 %667, ptr %94, align 1, !dbg !2577
  br label %591, !dbg !2578, !llvm.loop !2579

668:                                              ; preds = %591
  br label %669, !dbg !2581

669:                                              ; preds = %668
  %670 = load i16, ptr %93, align 2, !dbg !2582
  %671 = sext i16 %670 to i32, !dbg !2582
  %672 = add nsw i32 %671, 4, !dbg !2582
  %673 = trunc i32 %672 to i16, !dbg !2582
  store i16 %673, ptr %93, align 2, !dbg !2582
  br label %558, !dbg !2583, !llvm.loop !2584

674:                                              ; preds = %578
  br label %675, !dbg !2586

675:                                              ; preds = %674
  %676 = load ptr, ptr %53, align 8, !dbg !2587
  %677 = load i8, ptr %78, align 1, !dbg !2588
  %678 = trunc i8 %677 to i1, !dbg !2588
  %679 = zext i1 %678 to i64, !dbg !2587
  %680 = getelementptr inbounds [22 x i32], ptr %676, i64 %679, !dbg !2587
  %681 = load i8, ptr %78, align 1, !dbg !2589
  %682 = trunc i8 %681 to i1, !dbg !2589
  %683 = zext i1 %682 to i64, !dbg !2587
  %684 = getelementptr inbounds [22 x i32], ptr %680, i64 0, i64 %683, !dbg !2587
  %685 = load i32, ptr %684, align 4, !dbg !2587
  %686 = icmp ne i32 %685, 0, !dbg !2587
  br i1 %686, label %687, label %698, !dbg !2590

687:                                              ; preds = %675
  %688 = load ptr, ptr %53, align 8, !dbg !2591
  %689 = load i8, ptr %78, align 1, !dbg !2592
  %690 = trunc i8 %689 to i1, !dbg !2592
  %691 = zext i1 %690 to i64, !dbg !2591
  %692 = getelementptr inbounds [22 x i32], ptr %688, i64 %691, !dbg !2591
  %693 = load i8, ptr %78, align 1, !dbg !2593
  %694 = trunc i8 %693 to i1, !dbg !2593
  %695 = zext i1 %694 to i64, !dbg !2591
  %696 = getelementptr inbounds [22 x i32], ptr %692, i64 0, i64 %695, !dbg !2591
  %697 = load i32, ptr %696, align 4, !dbg !2591
  br label %699, !dbg !2590

698:                                              ; preds = %675
  br label %699, !dbg !2590

699:                                              ; preds = %698, %687
  %700 = phi i32 [ %697, %687 ], [ 27287, %698 ], !dbg !2590
  store i32 %700, ptr %100, align 4, !dbg !2594
  %701 = load i16, ptr %38, align 2, !dbg !2595
  %702 = icmp ne i16 %701, 0, !dbg !2595
  br i1 %702, label %703, label %706, !dbg !2596

703:                                              ; preds = %699
  %704 = load i16, ptr %38, align 2, !dbg !2597
  %705 = zext i16 %704 to i32, !dbg !2597
  br label %717, !dbg !2596

706:                                              ; preds = %699
  %707 = load ptr, ptr %53, align 8, !dbg !2598
  %708 = load i8, ptr %78, align 1, !dbg !2599
  %709 = trunc i8 %708 to i1, !dbg !2599
  %710 = zext i1 %709 to i64, !dbg !2598
  %711 = getelementptr inbounds [22 x i32], ptr %707, i64 %710, !dbg !2598
  %712 = load i8, ptr %78, align 1, !dbg !2600
  %713 = trunc i8 %712 to i1, !dbg !2600
  %714 = zext i1 %713 to i64, !dbg !2598
  %715 = getelementptr inbounds [22 x i32], ptr %711, i64 0, i64 %714, !dbg !2598
  %716 = load i32, ptr %715, align 4, !dbg !2598
  br label %717, !dbg !2596

717:                                              ; preds = %706, %703
  %718 = phi i32 [ %705, %703 ], [ %716, %706 ], !dbg !2596
  store i32 %718, ptr %101, align 4, !dbg !2601
  %719 = call noundef nonnull align 4 dereferenceable(4) ptr @_ZSt3maxIjERKT_S2_S2_(ptr noundef nonnull align 4 dereferenceable(4) %100, ptr noundef nonnull align 4 dereferenceable(4) %101), !dbg !2602
  %720 = load i32, ptr %719, align 4, !dbg !2602
  %721 = zext i32 %720 to i64, !dbg !2602
  %722 = sub i64 %721, 2649148843, !dbg !2603
  %723 = load i64, ptr %83, align 8, !dbg !2604
  %724 = add i64 %723, %722, !dbg !2604
  store i64 %724, ptr %83, align 8, !dbg !2604
  br label %376, !dbg !2605, !llvm.loop !2606

725:                                              ; preds = %376
  store i64 0, ptr %103, align 8, !dbg !2608
  store i64 -7, ptr %104, align 8, !dbg !2609
  %726 = call noundef nonnull align 8 dereferenceable(8) ptr @_ZSt3maxIyERKT_S2_S2_(ptr noundef nonnull align 8 dereferenceable(8) %103, ptr noundef nonnull align 8 dereferenceable(8) %104), !dbg !2610
  %727 = load i64, ptr %726, align 8, !dbg !2610
  %728 = trunc i64 %727 to i32, !dbg !2610
  store i32 %728, ptr %102, align 4, !dbg !2611
  %729 = call noundef nonnull align 4 dereferenceable(4) ptr @_ZSt3minIjERKT_S2_S2_(ptr noundef nonnull align 4 dereferenceable(4) @var_23, ptr noundef nonnull align 4 dereferenceable(4) %102), !dbg !2612
  %730 = load i32, ptr %729, align 4, !dbg !2612
  store i32 %730, ptr @var_23, align 4, !dbg !2613
  br label %731, !dbg !2614

731:                                              ; preds = %725
  store i64 1, ptr %105, align 8, !dbg !2615
  store i64 -1560369230854763291, ptr %106, align 8, !dbg !2616
  %732 = call noundef nonnull align 8 dereferenceable(8) ptr @_ZSt3minIyERKT_S2_S2_(ptr noundef nonnull align 8 dereferenceable(8) %105, ptr noundef nonnull align 8 dereferenceable(8) %106), !dbg !2617
  %733 = load i32, ptr %42, align 4, !dbg !2618
  %734 = zext i32 %733 to i64, !dbg !2619
  store i64 %734, ptr %107, align 8, !dbg !2620
  %735 = call noundef nonnull align 8 dereferenceable(8) ptr @_ZSt3maxIyERKT_S2_S2_(ptr noundef nonnull align 8 dereferenceable(8) %732, ptr noundef nonnull align 8 dereferenceable(8) %107), !dbg !2621
  %736 = load i64, ptr %735, align 8, !dbg !2621
  %737 = icmp ne i64 %736, 0, !dbg !2621
  br i1 %737, label %738, label %749, !dbg !2622

738:                                              ; preds = %731
  %739 = load i16, ptr %44, align 2, !dbg !2623
  %740 = sext i16 %739 to i32, !dbg !2623
  %741 = srem i32 -650708259, %740, !dbg !2624
  %742 = icmp ne i32 %741, 0, !dbg !2625
  br i1 %742, label %743, label %744, !dbg !2626

743:                                              ; preds = %738
  br label %747, !dbg !2626

744:                                              ; preds = %738
  %745 = load i16, ptr %38, align 2, !dbg !2627
  %746 = zext i16 %745 to i32, !dbg !2627
  br label %747, !dbg !2626

747:                                              ; preds = %744, %743
  %748 = phi i32 [ 0, %743 ], [ %746, %744 ], !dbg !2626
  br label %757, !dbg !2622

749:                                              ; preds = %731
  %750 = load i8, ptr %40, align 1, !dbg !2628
  %751 = trunc i8 %750 to i1, !dbg !2628
  %752 = zext i1 %751 to i32, !dbg !2628
  store i32 %752, ptr %109, align 4, !dbg !2629
  %753 = call noundef nonnull align 4 dereferenceable(4) ptr @_ZSt3maxIiERKT_S2_S2_(ptr noundef nonnull align 4 dereferenceable(4) %109, ptr noundef nonnull align 4 dereferenceable(4) %42), !dbg !2630
  %754 = load i32, ptr %753, align 4, !dbg !2630
  store i32 %754, ptr %108, align 4, !dbg !2631
  store i32 19, ptr %110, align 4, !dbg !2632
  %755 = call noundef nonnull align 4 dereferenceable(4) ptr @_ZSt3maxIjERKT_S2_S2_(ptr noundef nonnull align 4 dereferenceable(4) %108, ptr noundef nonnull align 4 dereferenceable(4) %110), !dbg !2633
  %756 = load i32, ptr %755, align 4, !dbg !2633
  br label %757, !dbg !2622

757:                                              ; preds = %749, %747
  %758 = phi i32 [ %748, %747 ], [ %756, %749 ], !dbg !2622
  %759 = icmp ne i32 %758, 0, !dbg !2634
  %760 = zext i1 %759 to i32, !dbg !2635
  %761 = add nsw i32 %760, 1, !dbg !2636
  %762 = load i8, ptr %78, align 1, !dbg !2637
  %763 = trunc i8 %762 to i1, !dbg !2637
  %764 = zext i1 %763 to i32, !dbg !2637
  %765 = add nsw i32 %764, %761, !dbg !2637
  %766 = icmp ne i32 %765, 0, !dbg !2637
  %767 = zext i1 %766 to i8, !dbg !2637
  store i8 %767, ptr %78, align 1, !dbg !2637
  br label %311, !dbg !2638, !llvm.loop !2639

768:                                              ; preds = %330
  call void @llvm.dbg.declare(metadata ptr %111, metadata !2641, metadata !DIExpression()), !dbg !2643
  store i8 0, ptr %111, align 1, !dbg !2643
  br label %769, !dbg !2644

769:                                              ; preds = %1622, %768
  %770 = load i8, ptr %111, align 1, !dbg !2645
  %771 = trunc i8 %770 to i1, !dbg !2645
  %772 = zext i1 %771 to i32, !dbg !2645
  store i8 1, ptr %112, align 1, !dbg !2647
  %773 = call noundef nonnull align 1 dereferenceable(1) ptr @_ZSt3maxIbERKT_S2_S2_(ptr noundef nonnull align 1 dereferenceable(1) %112, ptr noundef nonnull align 1 dereferenceable(1) %40), !dbg !2648
  %774 = load i8, ptr %773, align 1, !dbg !2648
  %775 = trunc i8 %774 to i1, !dbg !2648
  %776 = zext i1 %775 to i32, !dbg !2648
  %777 = load i16, ptr %39, align 2, !dbg !2649
  %778 = icmp ne i16 %777, 0, !dbg !2649
  %779 = zext i1 %778 to i64, !dbg !2650
  %780 = select i1 %778, i32 -31460, i32 650708270, !dbg !2650
  %781 = icmp sgt i32 %776, %780, !dbg !2651
  %782 = zext i1 %781 to i32, !dbg !2652
  %783 = load i16, ptr %44, align 2, !dbg !2653
  %784 = icmp ne i16 %783, 0, !dbg !2653
  br i1 %784, label %788, label %785, !dbg !2654

785:                                              ; preds = %769
  %786 = load i16, ptr %39, align 2, !dbg !2655
  %787 = icmp ne i16 %786, 0, !dbg !2655
  br label %788, !dbg !2654

788:                                              ; preds = %785, %769
  %789 = phi i1 [ true, %769 ], [ %787, %785 ]
  %790 = zext i1 %789 to i32, !dbg !2656
  %791 = icmp sgt i32 %782, %790, !dbg !2657
  %792 = zext i1 %791 to i32, !dbg !2658
  %793 = add nsw i32 %792, 1, !dbg !2659
  %794 = icmp slt i32 %772, %793, !dbg !2660
  br i1 %794, label %795, label %1633, !dbg !2661

795:                                              ; preds = %788
  %796 = load i16, ptr getelementptr inbounds ([22 x i16], ptr @arr_27, i64 0, i64 14), align 4, !dbg !2662
  %797 = zext i16 %796 to i32, !dbg !2662
  %798 = and i32 %797, 65469, !dbg !2662
  %799 = trunc i32 %798 to i16, !dbg !2662
  store i16 %799, ptr getelementptr inbounds ([22 x i16], ptr @arr_27, i64 0, i64 14), align 4, !dbg !2662
  store i64 7, ptr %114, align 8, !dbg !2664
  %800 = load ptr, ptr %54, align 8, !dbg !2665
  %801 = load i8, ptr %111, align 1, !dbg !2666
  %802 = trunc i8 %801 to i1, !dbg !2666
  %803 = zext i1 %802 to i64, !dbg !2665
  %804 = getelementptr inbounds [22 x i64], ptr %800, i64 %803, !dbg !2665
  %805 = load i8, ptr %111, align 1, !dbg !2667
  %806 = trunc i8 %805 to i1, !dbg !2667
  %807 = zext i1 %806 to i64, !dbg !2665
  %808 = getelementptr inbounds [22 x i64], ptr %804, i64 0, i64 %807, !dbg !2665
  %809 = call noundef nonnull align 8 dereferenceable(8) ptr @_ZSt3maxIyERKT_S2_S2_(ptr noundef nonnull align 8 dereferenceable(8) %114, ptr noundef nonnull align 8 dereferenceable(8) %808), !dbg !2668
  %810 = load i64, ptr %809, align 8, !dbg !2668
  %811 = load i16, ptr %39, align 2, !dbg !2669
  %812 = sext i16 %811 to i32, !dbg !2669
  %813 = xor i32 1, %812, !dbg !2670
  %814 = sext i32 %813 to i64, !dbg !2671
  %815 = add i64 %810, %814, !dbg !2672
  %816 = trunc i64 %815 to i32, !dbg !2673
  store i32 %816, ptr %113, align 4, !dbg !2674
  %817 = call noundef nonnull align 4 dereferenceable(4) ptr @_ZSt3minIjERKT_S2_S2_(ptr noundef nonnull align 4 dereferenceable(4) @var_24, ptr noundef nonnull align 4 dereferenceable(4) %113), !dbg !2675
  %818 = load i32, ptr %817, align 4, !dbg !2675
  store i32 %818, ptr @var_24, align 4, !dbg !2676
  %819 = load ptr, ptr %50, align 8, !dbg !2677
  %820 = load i8, ptr %111, align 1, !dbg !2678
  %821 = trunc i8 %820 to i1, !dbg !2678
  %822 = zext i1 %821 to i64, !dbg !2677
  %823 = getelementptr inbounds [22 x i8], ptr %819, i64 %822, !dbg !2677
  %824 = load i8, ptr %111, align 1, !dbg !2679
  %825 = trunc i8 %824 to i1, !dbg !2679
  %826 = zext i1 %825 to i64, !dbg !2677
  %827 = getelementptr inbounds [22 x i8], ptr %823, i64 0, i64 %826, !dbg !2677
  %828 = load i8, ptr %827, align 1, !dbg !2677
  %829 = trunc i8 %828 to i1, !dbg !2677
  %830 = zext i1 %829 to i32, !dbg !2677
  %831 = load ptr, ptr %50, align 8, !dbg !2680
  %832 = load i8, ptr %111, align 1, !dbg !2681
  %833 = trunc i8 %832 to i1, !dbg !2681
  %834 = zext i1 %833 to i64, !dbg !2680
  %835 = getelementptr inbounds [22 x i8], ptr %831, i64 %834, !dbg !2680
  %836 = load i8, ptr %111, align 1, !dbg !2682
  %837 = trunc i8 %836 to i1, !dbg !2682
  %838 = zext i1 %837 to i64, !dbg !2680
  %839 = getelementptr inbounds [22 x i8], ptr %835, i64 0, i64 %838, !dbg !2680
  %840 = load i8, ptr %839, align 1, !dbg !2680
  %841 = trunc i8 %840 to i1, !dbg !2680
  %842 = zext i1 %841 to i32, !dbg !2680
  %843 = icmp ne i32 %830, %842, !dbg !2683
  %844 = zext i1 %843 to i32, !dbg !2684
  %845 = trunc i32 %844 to i8, !dbg !2685
  %846 = zext i8 %845 to i32, !dbg !2686
  %847 = load i8, ptr @var_25, align 1, !dbg !2687
  %848 = zext i8 %847 to i32, !dbg !2687
  %849 = and i32 %848, %846, !dbg !2687
  %850 = trunc i32 %849 to i8, !dbg !2687
  store i8 %850, ptr @var_25, align 1, !dbg !2687
  call void @llvm.dbg.declare(metadata ptr %115, metadata !2688, metadata !DIExpression()), !dbg !2690
  store i16 3, ptr %115, align 2, !dbg !2690
  br label %851, !dbg !2691

851:                                              ; preds = %1546, %795
  %852 = load i16, ptr %115, align 2, !dbg !2692
  %853 = zext i16 %852 to i32, !dbg !2692
  %854 = load i32, ptr %41, align 4, !dbg !2694
  %855 = icmp ne i32 %854, 0, !dbg !2694
  br i1 %855, label %856, label %871, !dbg !2695

856:                                              ; preds = %851
  %857 = load ptr, ptr %60, align 8, !dbg !2696
  %858 = load i8, ptr %111, align 1, !dbg !2697
  %859 = trunc i8 %858 to i1, !dbg !2697
  %860 = zext i1 %859 to i64, !dbg !2696
  %861 = getelementptr inbounds [22 x [22 x i32]], ptr %857, i64 %860, !dbg !2696
  %862 = load i8, ptr %111, align 1, !dbg !2698
  %863 = trunc i8 %862 to i1, !dbg !2698
  %864 = zext i1 %863 to i64, !dbg !2696
  %865 = getelementptr inbounds [22 x [22 x i32]], ptr %861, i64 0, i64 %864, !dbg !2696
  %866 = load i8, ptr %111, align 1, !dbg !2699
  %867 = trunc i8 %866 to i1, !dbg !2699
  %868 = zext i1 %867 to i64, !dbg !2696
  %869 = getelementptr inbounds [22 x i32], ptr %865, i64 0, i64 %868, !dbg !2696
  %870 = load i32, ptr %869, align 4, !dbg !2696
  br label %886, !dbg !2695

871:                                              ; preds = %851
  %872 = load ptr, ptr %60, align 8, !dbg !2700
  %873 = load i8, ptr %111, align 1, !dbg !2701
  %874 = trunc i8 %873 to i1, !dbg !2701
  %875 = zext i1 %874 to i64, !dbg !2700
  %876 = getelementptr inbounds [22 x [22 x i32]], ptr %872, i64 %875, !dbg !2700
  %877 = load i8, ptr %111, align 1, !dbg !2702
  %878 = trunc i8 %877 to i1, !dbg !2702
  %879 = zext i1 %878 to i64, !dbg !2700
  %880 = getelementptr inbounds [22 x [22 x i32]], ptr %876, i64 0, i64 %879, !dbg !2700
  %881 = load i8, ptr %111, align 1, !dbg !2703
  %882 = trunc i8 %881 to i1, !dbg !2703
  %883 = zext i1 %882 to i64, !dbg !2700
  %884 = getelementptr inbounds [22 x i32], ptr %880, i64 0, i64 %883, !dbg !2700
  %885 = load i32, ptr %884, align 4, !dbg !2700
  br label %886, !dbg !2695

886:                                              ; preds = %871, %856
  %887 = phi i32 [ %870, %856 ], [ %885, %871 ], !dbg !2695
  %888 = icmp ne i32 %887, 0, !dbg !2704
  br i1 %888, label %889, label %890, !dbg !2705

889:                                              ; preds = %886
  br label %901, !dbg !2705

890:                                              ; preds = %886
  %891 = load ptr, ptr %59, align 8, !dbg !2706
  %892 = load i8, ptr %111, align 1, !dbg !2707
  %893 = trunc i8 %892 to i1, !dbg !2707
  %894 = zext i1 %893 to i64, !dbg !2706
  %895 = getelementptr inbounds i16, ptr %891, i64 %894, !dbg !2706
  %896 = load i16, ptr %895, align 2, !dbg !2706
  %897 = icmp ne i16 %896, 0, !dbg !2706
  %898 = zext i1 %897 to i64, !dbg !2708
  %899 = select i1 %897, i32 1, i32 16926, !dbg !2708
  %900 = sdiv i32 %899, 63, !dbg !2709
  br label %901, !dbg !2705

901:                                              ; preds = %890, %889
  %902 = phi i32 [ 121, %889 ], [ %900, %890 ], !dbg !2705
  %903 = trunc i32 %902 to i16, !dbg !2710
  %904 = zext i16 %903 to i32, !dbg !2711
  %905 = sub nsw i32 %904, 100, !dbg !2712
  %906 = icmp slt i32 %853, %905, !dbg !2713
  br i1 %906, label %907, label %1584, !dbg !2714

907:                                              ; preds = %901
  call void @llvm.dbg.declare(metadata ptr %116, metadata !2715, metadata !DIExpression()), !dbg !2718
  store i32 3, ptr %116, align 4, !dbg !2718
  br label %908, !dbg !2719

908:                                              ; preds = %1542, %907
  %909 = load i32, ptr %116, align 4, !dbg !2720
  %910 = load i16, ptr %45, align 2, !dbg !2722
  %911 = zext i16 %910 to i32, !dbg !2722
  %912 = sub i32 %911, 34670, !dbg !2723
  %913 = icmp ult i32 %909, %912, !dbg !2724
  br i1 %913, label %914, label %1545, !dbg !2725

914:                                              ; preds = %908
  call void @llvm.dbg.declare(metadata ptr %117, metadata !2726, metadata !DIExpression()), !dbg !2730
  %915 = load ptr, ptr %55, align 8, !dbg !2731
  %916 = getelementptr inbounds i16, ptr %915, i64 10, !dbg !2731
  %917 = load i16, ptr %916, align 2, !dbg !2731
  %918 = icmp ne i16 %917, 0, !dbg !2731
  br i1 %918, label %919, label %929, !dbg !2732

919:                                              ; preds = %914
  %920 = load i8, ptr %36, align 1, !dbg !2733
  %921 = sext i8 %920 to i32, !dbg !2733
  %922 = load ptr, ptr %49, align 8, !dbg !2734
  %923 = load i16, ptr %115, align 2, !dbg !2735
  %924 = zext i16 %923 to i64, !dbg !2734
  %925 = getelementptr inbounds i32, ptr %922, i64 %924, !dbg !2734
  %926 = load i32, ptr %925, align 4, !dbg !2734
  %927 = icmp ne i32 %921, %926, !dbg !2736
  %928 = zext i1 %927 to i32, !dbg !2737
  br label %940, !dbg !2732

929:                                              ; preds = %914
  %930 = load ptr, ptr %53, align 8, !dbg !2738
  %931 = load i8, ptr %111, align 1, !dbg !2739
  %932 = trunc i8 %931 to i1, !dbg !2739
  %933 = zext i1 %932 to i64, !dbg !2738
  %934 = getelementptr inbounds [22 x i32], ptr %930, i64 %933, !dbg !2738
  %935 = load i8, ptr %111, align 1, !dbg !2740
  %936 = trunc i8 %935 to i1, !dbg !2740
  %937 = zext i1 %936 to i64, !dbg !2738
  %938 = getelementptr inbounds [22 x i32], ptr %934, i64 0, i64 %937, !dbg !2738
  %939 = load i32, ptr %938, align 4, !dbg !2738
  br label %940, !dbg !2732

940:                                              ; preds = %929, %919
  %941 = phi i32 [ %928, %919 ], [ %939, %929 ], !dbg !2732
  store i16 0, ptr %118, align 2, !dbg !2741
  %942 = call noundef nonnull align 2 dereferenceable(2) ptr @_ZSt3maxItERKT_S2_S2_(ptr noundef nonnull align 2 dereferenceable(2) %37, ptr noundef nonnull align 2 dereferenceable(2) %118), !dbg !2742
  %943 = load i16, ptr %942, align 2, !dbg !2742
  %944 = zext i16 %943 to i32, !dbg !2743
  %945 = sub nsw i32 %944, 1160, !dbg !2744
  %946 = lshr i32 %941, %945, !dbg !2745
  %947 = icmp ne i32 %946, 0, !dbg !2746
  %948 = zext i1 %947 to i32, !dbg !2747
  %949 = add nsw i32 %948, 1, !dbg !2748
  %950 = icmp ne i32 %949, 0, !dbg !2749
  %951 = zext i1 %950 to i8, !dbg !2730
  store i8 %951, ptr %117, align 1, !dbg !2730
  br label %952, !dbg !2750

952:                                              ; preds = %996, %940
  %953 = load i8, ptr %117, align 1, !dbg !2751
  %954 = trunc i8 %953 to i1, !dbg !2751
  %955 = zext i1 %954 to i32, !dbg !2751
  %956 = load i8, ptr %43, align 1, !dbg !2753
  %957 = icmp ne i8 %956, 0, !dbg !2753
  %958 = zext i1 %957 to i32, !dbg !2754
  %959 = icmp slt i32 %955, %958, !dbg !2755
  br i1 %959, label %960, label %1007, !dbg !2756

960:                                              ; preds = %952
  %961 = load i32, ptr %42, align 4, !dbg !2757
  %962 = sext i32 %961 to i64, !dbg !2757
  %963 = icmp ne i64 3616, %962, !dbg !2759
  %964 = zext i1 %963 to i32, !dbg !2760
  %965 = sext i32 %964 to i64, !dbg !2761
  %966 = load ptr, ptr %50, align 8, !dbg !2762
  %967 = load i8, ptr %111, align 1, !dbg !2763
  %968 = trunc i8 %967 to i1, !dbg !2763
  %969 = zext i1 %968 to i64, !dbg !2762
  %970 = getelementptr inbounds [22 x i8], ptr %966, i64 %969, !dbg !2762
  %971 = load i8, ptr %111, align 1, !dbg !2764
  %972 = trunc i8 %971 to i1, !dbg !2764
  %973 = zext i1 %972 to i64, !dbg !2762
  %974 = getelementptr inbounds [22 x i8], ptr %970, i64 0, i64 %973, !dbg !2762
  %975 = load i8, ptr %974, align 1, !dbg !2762
  %976 = trunc i8 %975 to i1, !dbg !2762
  br i1 %976, label %977, label %978, !dbg !2765

977:                                              ; preds = %960
  br label %984, !dbg !2765

978:                                              ; preds = %960
  %979 = load i8, ptr %43, align 1, !dbg !2766
  %980 = sext i8 %979 to i32, !dbg !2766
  %981 = icmp sgt i32 1034439405, %980, !dbg !2767
  %982 = zext i1 %981 to i32, !dbg !2768
  %983 = sext i32 %982 to i64, !dbg !2769
  br label %984, !dbg !2765

984:                                              ; preds = %978, %977
  %985 = phi i64 [ -4976473567346804058, %977 ], [ %983, %978 ], !dbg !2765
  %986 = sub nsw i64 %965, %985, !dbg !2770
  %987 = trunc i64 %986 to i8, !dbg !2771
  %988 = load i32, ptr %116, align 4, !dbg !2772
  %989 = add i32 %988, 1, !dbg !2773
  %990 = zext i32 %989 to i64, !dbg !2774
  %991 = getelementptr inbounds [22 x [22 x i8]], ptr @arr_37, i64 0, i64 %990, !dbg !2774
  %992 = load i8, ptr %111, align 1, !dbg !2775
  %993 = trunc i8 %992 to i1, !dbg !2775
  %994 = zext i1 %993 to i64, !dbg !2774
  %995 = getelementptr inbounds [22 x i8], ptr %991, i64 0, i64 %994, !dbg !2774
  store i8 %987, ptr %995, align 1, !dbg !2776
  store i8 0, ptr @var_26, align 1, !dbg !2777
  br label %996, !dbg !2778

996:                                              ; preds = %984
  %997 = load i8, ptr %40, align 1, !dbg !2779
  %998 = trunc i8 %997 to i1, !dbg !2779
  %999 = zext i1 %998 to i32, !dbg !2779
  %1000 = add nsw i32 %999, 1, !dbg !2780
  %1001 = load i8, ptr %117, align 1, !dbg !2781
  %1002 = trunc i8 %1001 to i1, !dbg !2781
  %1003 = zext i1 %1002 to i32, !dbg !2781
  %1004 = add nsw i32 %1003, %1000, !dbg !2781
  %1005 = icmp ne i32 %1004, 0, !dbg !2781
  %1006 = zext i1 %1005 to i8, !dbg !2781
  store i8 %1006, ptr %117, align 1, !dbg !2781
  br label %952, !dbg !2782, !llvm.loop !2783

1007:                                             ; preds = %952
  store i16 16731, ptr %120, align 2, !dbg !2785
  store i8 1, ptr %122, align 1, !dbg !2786
  store i8 1, ptr %123, align 1, !dbg !2787
  %1008 = call noundef nonnull align 1 dereferenceable(1) ptr @_ZSt3minIbERKT_S2_S2_(ptr noundef nonnull align 1 dereferenceable(1) %122, ptr noundef nonnull align 1 dereferenceable(1) %123), !dbg !2788
  %1009 = load i8, ptr %1008, align 1, !dbg !2788
  %1010 = trunc i8 %1009 to i1, !dbg !2788
  %1011 = zext i1 %1010 to i16, !dbg !2788
  store i16 %1011, ptr %121, align 2, !dbg !2789
  %1012 = call noundef nonnull align 2 dereferenceable(2) ptr @_ZSt3minItERKT_S2_S2_(ptr noundef nonnull align 2 dereferenceable(2) %120, ptr noundef nonnull align 2 dereferenceable(2) %121), !dbg !2790
  %1013 = load i16, ptr %1012, align 2, !dbg !2790
  %1014 = zext i16 %1013 to i32, !dbg !2790
  store i32 %1014, ptr %119, align 4, !dbg !2791
  store i32 -154614814, ptr %124, align 4, !dbg !2792
  store i32 241, ptr %125, align 4, !dbg !2793
  %1015 = call noundef nonnull align 4 dereferenceable(4) ptr @_ZSt3minIjERKT_S2_S2_(ptr noundef nonnull align 4 dereferenceable(4) %124, ptr noundef nonnull align 4 dereferenceable(4) %125), !dbg !2794
  %1016 = load ptr, ptr %58, align 8, !dbg !2795
  %1017 = load i8, ptr %111, align 1, !dbg !2796
  %1018 = trunc i8 %1017 to i1, !dbg !2796
  %1019 = zext i1 %1018 to i64, !dbg !2795
  %1020 = getelementptr inbounds [22 x [22 x [22 x [22 x i64]]]], ptr %1016, i64 %1019, !dbg !2795
  %1021 = load i8, ptr %111, align 1, !dbg !2797
  %1022 = trunc i8 %1021 to i1, !dbg !2797
  %1023 = zext i1 %1022 to i64, !dbg !2795
  %1024 = getelementptr inbounds [22 x [22 x [22 x [22 x i64]]]], ptr %1020, i64 0, i64 %1023, !dbg !2795
  %1025 = getelementptr inbounds [22 x [22 x [22 x i64]]], ptr %1024, i64 0, i64 1, !dbg !2795
  %1026 = load i8, ptr %111, align 1, !dbg !2798
  %1027 = trunc i8 %1026 to i1, !dbg !2798
  %1028 = zext i1 %1027 to i64, !dbg !2795
  %1029 = getelementptr inbounds [22 x [22 x i64]], ptr %1025, i64 0, i64 %1028, !dbg !2795
  %1030 = getelementptr inbounds [22 x i64], ptr %1029, i64 0, i64 1, !dbg !2795
  %1031 = load i64, ptr %1030, align 8, !dbg !2795
  %1032 = icmp ne i64 %1031, 0, !dbg !2795
  br i1 %1032, label %1033, label %1041, !dbg !2799

1033:                                             ; preds = %1007
  %1034 = load ptr, ptr %64, align 8, !dbg !2800
  %1035 = load i8, ptr %111, align 1, !dbg !2801
  %1036 = trunc i8 %1035 to i1, !dbg !2801
  %1037 = zext i1 %1036 to i64, !dbg !2800
  %1038 = getelementptr inbounds i16, ptr %1034, i64 %1037, !dbg !2800
  %1039 = load i16, ptr %1038, align 2, !dbg !2800
  %1040 = zext i16 %1039 to i32, !dbg !2800
  br label %1044, !dbg !2799

1041:                                             ; preds = %1007
  %1042 = load i8, ptr %43, align 1, !dbg !2802
  %1043 = sext i8 %1042 to i32, !dbg !2802
  br label %1044, !dbg !2799

1044:                                             ; preds = %1041, %1033
  %1045 = phi i32 [ %1040, %1033 ], [ %1043, %1041 ], !dbg !2799
  store i32 %1045, ptr %126, align 4, !dbg !2803
  %1046 = call noundef nonnull align 4 dereferenceable(4) ptr @_ZSt3maxIjERKT_S2_S2_(ptr noundef nonnull align 4 dereferenceable(4) %1015, ptr noundef nonnull align 4 dereferenceable(4) %126), !dbg !2804
  %1047 = call noundef nonnull align 4 dereferenceable(4) ptr @_ZSt3minIjERKT_S2_S2_(ptr noundef nonnull align 4 dereferenceable(4) %119, ptr noundef nonnull align 4 dereferenceable(4) %1046), !dbg !2805
  %1048 = load i32, ptr %1047, align 4, !dbg !2805
  %1049 = icmp ne i32 %1048, 0, !dbg !2805
  %1050 = load i8, ptr %111, align 1, !dbg !2806
  %1051 = trunc i8 %1050 to i1, !dbg !2806
  %1052 = zext i1 %1051 to i64, !dbg !2807
  %1053 = getelementptr inbounds [22 x [22 x [22 x i8]]], ptr @arr_38, i64 0, i64 %1052, !dbg !2807
  %1054 = load i16, ptr %115, align 2, !dbg !2808
  %1055 = zext i16 %1054 to i64, !dbg !2807
  %1056 = getelementptr inbounds [22 x [22 x i8]], ptr %1053, i64 0, i64 %1055, !dbg !2807
  %1057 = load i16, ptr %115, align 2, !dbg !2809
  %1058 = zext i16 %1057 to i64, !dbg !2807
  %1059 = getelementptr inbounds [22 x i8], ptr %1056, i64 0, i64 %1058, !dbg !2807
  %1060 = zext i1 %1049 to i8, !dbg !2810
  store i8 %1060, ptr %1059, align 1, !dbg !2810
  %1061 = load i16, ptr %38, align 2, !dbg !2811
  %1062 = zext i16 %1061 to i32, !dbg !2811
  %1063 = sext i32 %1062 to i64, !dbg !2813
  %1064 = load ptr, ptr %53, align 8, !dbg !2814
  %1065 = load i8, ptr %111, align 1, !dbg !2815
  %1066 = trunc i8 %1065 to i1, !dbg !2815
  %1067 = zext i1 %1066 to i64, !dbg !2814
  %1068 = getelementptr inbounds [22 x i32], ptr %1064, i64 %1067, !dbg !2814
  %1069 = load i8, ptr %111, align 1, !dbg !2816
  %1070 = trunc i8 %1069 to i1, !dbg !2816
  %1071 = zext i1 %1070 to i64, !dbg !2814
  %1072 = getelementptr inbounds [22 x i32], ptr %1068, i64 0, i64 %1071, !dbg !2814
  %1073 = load i32, ptr %1072, align 4, !dbg !2814
  %1074 = and i32 %1073, 154614814, !dbg !2817
  %1075 = icmp ne i32 %1074, 0, !dbg !2818
  br i1 %1075, label %1076, label %1077, !dbg !2819

1076:                                             ; preds = %1044
  br label %1089, !dbg !2819

1077:                                             ; preds = %1044
  %1078 = load i32, ptr %41, align 4, !dbg !2820
  %1079 = icmp ne i32 %1078, 0, !dbg !2820
  br i1 %1079, label %1080, label %1085, !dbg !2821

1080:                                             ; preds = %1077
  %1081 = load ptr, ptr %64, align 8, !dbg !2822
  %1082 = getelementptr inbounds i16, ptr %1081, i64 20, !dbg !2822
  %1083 = load i16, ptr %1082, align 2, !dbg !2822
  %1084 = zext i16 %1083 to i32, !dbg !2822
  br label %1086, !dbg !2821

1085:                                             ; preds = %1077
  br label %1086, !dbg !2821

1086:                                             ; preds = %1085, %1080
  %1087 = phi i32 [ %1084, %1080 ], [ 1, %1085 ], !dbg !2821
  %1088 = sext i32 %1087 to i64, !dbg !2823
  br label %1089, !dbg !2819

1089:                                             ; preds = %1086, %1076
  %1090 = phi i64 [ 5351368193481947650, %1076 ], [ %1088, %1086 ], !dbg !2819
  %1091 = add i64 %1063, %1090, !dbg !2824
  %1092 = icmp ne i64 %1091, 0, !dbg !2825
  br i1 %1092, label %1093, label %1428, !dbg !2826

1093:                                             ; preds = %1089
  call void @llvm.dbg.declare(metadata ptr %127, metadata !2827, metadata !DIExpression()), !dbg !2830
  store i64 2, ptr %127, align 8, !dbg !2830
  br label %1094, !dbg !2831

1094:                                             ; preds = %1172, %1093
  %1095 = load i64, ptr %127, align 8, !dbg !2832
  %1096 = load i16, ptr %44, align 2, !dbg !2834
  %1097 = sext i16 %1096 to i64, !dbg !2834
  %1098 = sub i64 %1097, 7239, !dbg !2835
  %1099 = icmp ult i64 %1095, %1098, !dbg !2836
  br i1 %1099, label %1100, label %1180, !dbg !2837

1100:                                             ; preds = %1094
  %1101 = load ptr, ptr %63, align 8, !dbg !2838
  %1102 = load i64, ptr %127, align 8, !dbg !2840
  %1103 = getelementptr inbounds [22 x [22 x [22 x [22 x [22 x i8]]]]], ptr %1101, i64 %1102, !dbg !2838
  %1104 = getelementptr inbounds [22 x [22 x [22 x [22 x [22 x i8]]]]], ptr %1103, i64 0, i64 19, !dbg !2838
  %1105 = load i64, ptr %127, align 8, !dbg !2841
  %1106 = sub i64 %1105, 2, !dbg !2842
  %1107 = getelementptr inbounds [22 x [22 x [22 x [22 x i8]]]], ptr %1104, i64 0, i64 %1106, !dbg !2838
  %1108 = getelementptr inbounds [22 x [22 x [22 x i8]]], ptr %1107, i64 0, i64 19, !dbg !2838
  %1109 = getelementptr inbounds [22 x [22 x i8]], ptr %1108, i64 0, i64 19, !dbg !2838
  %1110 = load i16, ptr %115, align 2, !dbg !2843
  %1111 = zext i16 %1110 to i64, !dbg !2838
  %1112 = getelementptr inbounds [22 x i8], ptr %1109, i64 0, i64 %1111, !dbg !2838
  %1113 = load i8, ptr %1112, align 1, !dbg !2838
  %1114 = trunc i8 %1113 to i1, !dbg !2838
  br i1 %1114, label %1115, label %1132, !dbg !2844

1115:                                             ; preds = %1100
  %1116 = load ptr, ptr %69, align 8, !dbg !2845
  %1117 = load i8, ptr %111, align 1, !dbg !2846
  %1118 = trunc i8 %1117 to i1, !dbg !2846
  %1119 = zext i1 %1118 to i64, !dbg !2845
  %1120 = getelementptr inbounds [22 x [22 x [22 x i8]]], ptr %1116, i64 %1119, !dbg !2845
  %1121 = getelementptr inbounds [22 x [22 x [22 x i8]]], ptr %1120, i64 0, i64 7, !dbg !2845
  %1122 = getelementptr inbounds [22 x [22 x i8]], ptr %1121, i64 0, i64 1, !dbg !2845
  %1123 = load i8, ptr %111, align 1, !dbg !2847
  %1124 = trunc i8 %1123 to i1, !dbg !2847
  %1125 = zext i1 %1124 to i64, !dbg !2845
  %1126 = getelementptr inbounds [22 x i8], ptr %1122, i64 0, i64 %1125, !dbg !2845
  %1127 = load i8, ptr %1126, align 1, !dbg !2845
  %1128 = sext i8 %1127 to i32, !dbg !2845
  %1129 = sext i32 %1128 to i64, !dbg !2848
  %1130 = icmp ne i64 %1129, 241, !dbg !2849
  %1131 = zext i1 %1130 to i32, !dbg !2850
  br label %1138, !dbg !2844

1132:                                             ; preds = %1100
  %1133 = load i16, ptr %39, align 2, !dbg !2851
  %1134 = trunc i16 %1133 to i8, !dbg !2851
  %1135 = icmp ne i8 %1134, 0, !dbg !2852
  %1136 = zext i1 %1135 to i64, !dbg !2853
  %1137 = select i1 %1135, i32 0, i32 1, !dbg !2853
  br label %1138, !dbg !2844

1138:                                             ; preds = %1132, %1115
  %1139 = phi i32 [ %1131, %1115 ], [ %1137, %1132 ], !dbg !2844
  %1140 = load i64, ptr %127, align 8, !dbg !2854
  %1141 = getelementptr inbounds [22 x [22 x i32]], ptr @arr_41, i64 0, i64 %1140, !dbg !2855
  %1142 = load i8, ptr %111, align 1, !dbg !2856
  %1143 = trunc i8 %1142 to i1, !dbg !2856
  %1144 = zext i1 %1143 to i64, !dbg !2855
  %1145 = getelementptr inbounds [22 x i32], ptr %1141, i64 0, i64 %1144, !dbg !2855
  store i32 %1139, ptr %1145, align 4, !dbg !2857
  store i16 1, ptr @var_27, align 2, !dbg !2858
  store i32 589135376, ptr %128, align 4, !dbg !2859
  store i32 1, ptr %129, align 4, !dbg !2860
  %1146 = call noundef nonnull align 4 dereferenceable(4) ptr @_ZSt3minIiERKT_S2_S2_(ptr noundef nonnull align 4 dereferenceable(4) %128, ptr noundef nonnull align 4 dereferenceable(4) %129), !dbg !2861
  %1147 = load i32, ptr %1146, align 4, !dbg !2861
  %1148 = icmp ne i32 %1147, 0, !dbg !2861
  br i1 %1148, label %1149, label %1150, !dbg !2862

1149:                                             ; preds = %1138
  br label %1155, !dbg !2862

1150:                                             ; preds = %1138
  %1151 = load i16, ptr %37, align 2, !dbg !2863
  %1152 = icmp ne i16 %1151, 0, !dbg !2863
  %1153 = zext i1 %1152 to i64, !dbg !2864
  %1154 = select i1 %1152, i32 42, i32 1902441836, !dbg !2864
  br label %1155, !dbg !2862

1155:                                             ; preds = %1150, %1149
  %1156 = phi i32 [ 1, %1149 ], [ %1154, %1150 ], !dbg !2862
  %1157 = load i8, ptr %111, align 1, !dbg !2865
  %1158 = trunc i8 %1157 to i1, !dbg !2865
  %1159 = zext i1 %1158 to i64, !dbg !2866
  %1160 = getelementptr inbounds [22 x [22 x [22 x [22 x i32]]]], ptr @arr_42, i64 0, i64 %1159, !dbg !2866
  %1161 = load i16, ptr %115, align 2, !dbg !2867
  %1162 = zext i16 %1161 to i64, !dbg !2866
  %1163 = getelementptr inbounds [22 x [22 x [22 x i32]]], ptr %1160, i64 0, i64 %1162, !dbg !2866
  %1164 = load i16, ptr %115, align 2, !dbg !2868
  %1165 = zext i16 %1164 to i64, !dbg !2866
  %1166 = getelementptr inbounds [22 x [22 x i32]], ptr %1163, i64 0, i64 %1165, !dbg !2866
  %1167 = load i16, ptr %115, align 2, !dbg !2869
  %1168 = zext i16 %1167 to i32, !dbg !2869
  %1169 = sub nsw i32 %1168, 3, !dbg !2870
  %1170 = sext i32 %1169 to i64, !dbg !2866
  %1171 = getelementptr inbounds [22 x i32], ptr %1166, i64 0, i64 %1170, !dbg !2866
  store i32 %1156, ptr %1171, align 4, !dbg !2871
  br label %1172, !dbg !2872

1172:                                             ; preds = %1155
  %1173 = load i16, ptr %37, align 2, !dbg !2873
  %1174 = zext i16 %1173 to i32, !dbg !2873
  %1175 = icmp eq i32 %1174, 0, !dbg !2874
  %1176 = zext i1 %1175 to i64, !dbg !2875
  %1177 = add i64 %1176, 4, !dbg !2876
  %1178 = load i64, ptr %127, align 8, !dbg !2877
  %1179 = add i64 %1178, %1177, !dbg !2877
  store i64 %1179, ptr %127, align 8, !dbg !2877
  br label %1094, !dbg !2878, !llvm.loop !2879

1180:                                             ; preds = %1094
  call void @llvm.dbg.declare(metadata ptr %130, metadata !2885, metadata !DIExpression()), !dbg !2887
  %1181 = load ptr, ptr %50, align 8, !dbg !2888
  %1182 = load i16, ptr %115, align 2, !dbg !2889
  %1183 = zext i16 %1182 to i32, !dbg !2889
  %1184 = sub nsw i32 %1183, 3, !dbg !2890
  %1185 = sext i32 %1184 to i64, !dbg !2888
  %1186 = getelementptr inbounds [22 x i8], ptr %1181, i64 %1185, !dbg !2888
  %1187 = load i16, ptr %115, align 2, !dbg !2891
  %1188 = zext i16 %1187 to i32, !dbg !2891
  %1189 = sub nsw i32 %1188, 2, !dbg !2892
  %1190 = sext i32 %1189 to i64, !dbg !2888
  %1191 = getelementptr inbounds [22 x i8], ptr %1186, i64 0, i64 %1190, !dbg !2888
  %1192 = load i8, ptr %1191, align 1, !dbg !2888
  %1193 = trunc i8 %1192 to i1, !dbg !2888
  %1194 = zext i1 %1193 to i32, !dbg !2888
  %1195 = load ptr, ptr %50, align 8, !dbg !2893
  %1196 = load i16, ptr %115, align 2, !dbg !2894
  %1197 = zext i16 %1196 to i32, !dbg !2894
  %1198 = sub nsw i32 %1197, 2, !dbg !2895
  %1199 = sext i32 %1198 to i64, !dbg !2893
  %1200 = getelementptr inbounds [22 x i8], ptr %1195, i64 %1199, !dbg !2893
  %1201 = load i16, ptr %115, align 2, !dbg !2896
  %1202 = zext i16 %1201 to i32, !dbg !2896
  %1203 = sub nsw i32 %1202, 2, !dbg !2897
  %1204 = sext i32 %1203 to i64, !dbg !2893
  %1205 = getelementptr inbounds [22 x i8], ptr %1200, i64 0, i64 %1204, !dbg !2893
  %1206 = load i8, ptr %1205, align 1, !dbg !2893
  %1207 = trunc i8 %1206 to i1, !dbg !2893
  %1208 = zext i1 %1207 to i32, !dbg !2893
  %1209 = ashr i32 %1194, %1208, !dbg !2898
  %1210 = icmp eq i32 -6812, %1209, !dbg !2899
  %1211 = zext i1 %1210 to i8, !dbg !2900
  %1212 = sext i8 %1211 to i32, !dbg !2901
  %1213 = trunc i32 %1212 to i8, !dbg !2902
  store i8 %1213, ptr %130, align 1, !dbg !2887
  br label %1214, !dbg !2903

1214:                                             ; preds = %1349, %1180
  %1215 = load i8, ptr %130, align 1, !dbg !2904
  %1216 = sext i8 %1215 to i32, !dbg !2904
  %1217 = load i16, ptr %39, align 2, !dbg !2906
  %1218 = trunc i16 %1217 to i8, !dbg !2906
  %1219 = sext i8 %1218 to i32, !dbg !2907
  %1220 = add nsw i32 %1219, 111, !dbg !2908
  %1221 = icmp slt i32 %1216, %1220, !dbg !2909
  br i1 %1221, label %1222, label %1354, !dbg !2910

1222:                                             ; preds = %1214
  %1223 = load ptr, ptr %56, align 8, !dbg !2911
  %1224 = load i8, ptr %111, align 1, !dbg !2913
  %1225 = trunc i8 %1224 to i1, !dbg !2913
  %1226 = zext i1 %1225 to i64, !dbg !2911
  %1227 = getelementptr inbounds [22 x [22 x [22 x i64]]], ptr %1223, i64 %1226, !dbg !2911
  %1228 = load i8, ptr %111, align 1, !dbg !2914
  %1229 = trunc i8 %1228 to i1, !dbg !2914
  %1230 = zext i1 %1229 to i64, !dbg !2911
  %1231 = getelementptr inbounds [22 x [22 x [22 x i64]]], ptr %1227, i64 0, i64 %1230, !dbg !2911
  %1232 = load i8, ptr %111, align 1, !dbg !2915
  %1233 = trunc i8 %1232 to i1, !dbg !2915
  %1234 = zext i1 %1233 to i64, !dbg !2911
  %1235 = getelementptr inbounds [22 x [22 x i64]], ptr %1231, i64 0, i64 %1234, !dbg !2911
  %1236 = load i8, ptr %111, align 1, !dbg !2916
  %1237 = trunc i8 %1236 to i1, !dbg !2916
  %1238 = zext i1 %1237 to i64, !dbg !2911
  %1239 = getelementptr inbounds [22 x i64], ptr %1235, i64 0, i64 %1238, !dbg !2911
  %1240 = load i64, ptr %1239, align 8, !dbg !2911
  store i64 %1240, ptr @var_28, align 8, !dbg !2917
  %1241 = load ptr, ptr %63, align 8, !dbg !2918
  %1242 = load i8, ptr %111, align 1, !dbg !2919
  %1243 = trunc i8 %1242 to i1, !dbg !2919
  %1244 = zext i1 %1243 to i64, !dbg !2918
  %1245 = getelementptr inbounds [22 x [22 x [22 x [22 x [22 x i8]]]]], ptr %1241, i64 %1244, !dbg !2918
  %1246 = load i16, ptr %115, align 2, !dbg !2920
  %1247 = zext i16 %1246 to i64, !dbg !2918
  %1248 = getelementptr inbounds [22 x [22 x [22 x [22 x [22 x i8]]]]], ptr %1245, i64 0, i64 %1247, !dbg !2918
  %1249 = load i32, ptr %116, align 4, !dbg !2921
  %1250 = sub i32 %1249, 1, !dbg !2922
  %1251 = zext i32 %1250 to i64, !dbg !2918
  %1252 = getelementptr inbounds [22 x [22 x [22 x [22 x i8]]]], ptr %1248, i64 0, i64 %1251, !dbg !2918
  %1253 = getelementptr inbounds [22 x [22 x [22 x i8]]], ptr %1252, i64 0, i64 18, !dbg !2918
  %1254 = load i16, ptr %115, align 2, !dbg !2923
  %1255 = zext i16 %1254 to i64, !dbg !2918
  %1256 = getelementptr inbounds [22 x [22 x i8]], ptr %1253, i64 0, i64 %1255, !dbg !2918
  %1257 = load i8, ptr %130, align 1, !dbg !2924
  %1258 = sext i8 %1257 to i64, !dbg !2918
  %1259 = getelementptr inbounds [22 x i8], ptr %1256, i64 0, i64 %1258, !dbg !2918
  %1260 = load i8, ptr %1259, align 1, !dbg !2918
  %1261 = trunc i8 %1260 to i1, !dbg !2918
  br i1 %1261, label %1262, label %1271, !dbg !2925

1262:                                             ; preds = %1222
  %1263 = load ptr, ptr %55, align 8, !dbg !2926
  %1264 = load i16, ptr %115, align 2, !dbg !2927
  %1265 = zext i16 %1264 to i32, !dbg !2927
  %1266 = sub nsw i32 %1265, 3, !dbg !2928
  %1267 = sext i32 %1266 to i64, !dbg !2926
  %1268 = getelementptr inbounds i16, ptr %1263, i64 %1267, !dbg !2926
  %1269 = load i16, ptr %1268, align 2, !dbg !2926
  %1270 = sext i16 %1269 to i32, !dbg !2926
  br label %1279, !dbg !2925

1271:                                             ; preds = %1222
  %1272 = load ptr, ptr %55, align 8, !dbg !2929
  %1273 = load i8, ptr %111, align 1, !dbg !2930
  %1274 = trunc i8 %1273 to i1, !dbg !2930
  %1275 = zext i1 %1274 to i64, !dbg !2929
  %1276 = getelementptr inbounds i16, ptr %1272, i64 %1275, !dbg !2929
  %1277 = load i16, ptr %1276, align 2, !dbg !2929
  %1278 = sext i16 %1277 to i32, !dbg !2929
  br label %1279, !dbg !2925

1279:                                             ; preds = %1271, %1262
  %1280 = phi i32 [ %1270, %1262 ], [ %1278, %1271 ], !dbg !2925
  %1281 = trunc i32 %1280 to i8, !dbg !2931
  store i8 %1281, ptr %131, align 1, !dbg !2932
  %1282 = call noundef nonnull align 1 dereferenceable(1) ptr @_ZSt3minIaERKT_S2_S2_(ptr noundef nonnull align 1 dereferenceable(1) @var_29, ptr noundef nonnull align 1 dereferenceable(1) %131), !dbg !2933
  %1283 = load i8, ptr %1282, align 1, !dbg !2933
  store i8 %1283, ptr @var_29, align 1, !dbg !2934
  %1284 = load i8, ptr %36, align 1, !dbg !2935
  %1285 = sext i8 %1284 to i32, !dbg !2935
  %1286 = load i16, ptr %39, align 2, !dbg !2936
  %1287 = sext i16 %1286 to i32, !dbg !2936
  %1288 = or i32 %1285, %1287, !dbg !2937
  %1289 = icmp ne i32 %1288, 0, !dbg !2938
  br i1 %1289, label %1290, label %1293, !dbg !2939

1290:                                             ; preds = %1279
  store i64 1808822814, ptr %133, align 8, !dbg !2940
  store i64 6693579066540998229, ptr %134, align 8, !dbg !2941
  %1291 = call noundef nonnull align 8 dereferenceable(8) ptr @_ZSt3minIxERKT_S2_S2_(ptr noundef nonnull align 8 dereferenceable(8) %133, ptr noundef nonnull align 8 dereferenceable(8) %134), !dbg !2942
  %1292 = load i64, ptr %1291, align 8, !dbg !2942
  br label %1316, !dbg !2939

1293:                                             ; preds = %1279
  %1294 = load ptr, ptr %62, align 8, !dbg !2943
  %1295 = load i8, ptr %111, align 1, !dbg !2944
  %1296 = trunc i8 %1295 to i1, !dbg !2944
  %1297 = zext i1 %1296 to i64, !dbg !2943
  %1298 = getelementptr inbounds [22 x [22 x [22 x [22 x i32]]]], ptr %1294, i64 %1297, !dbg !2943
  %1299 = load i8, ptr %111, align 1, !dbg !2945
  %1300 = trunc i8 %1299 to i1, !dbg !2945
  %1301 = zext i1 %1300 to i64, !dbg !2943
  %1302 = getelementptr inbounds [22 x [22 x [22 x [22 x i32]]]], ptr %1298, i64 0, i64 %1301, !dbg !2943
  %1303 = load i8, ptr %111, align 1, !dbg !2946
  %1304 = trunc i8 %1303 to i1, !dbg !2946
  %1305 = zext i1 %1304 to i64, !dbg !2943
  %1306 = getelementptr inbounds [22 x [22 x [22 x i32]]], ptr %1302, i64 0, i64 %1305, !dbg !2943
  %1307 = load i8, ptr %111, align 1, !dbg !2947
  %1308 = trunc i8 %1307 to i1, !dbg !2947
  %1309 = zext i1 %1308 to i64, !dbg !2943
  %1310 = getelementptr inbounds [22 x [22 x i32]], ptr %1306, i64 0, i64 %1309, !dbg !2943
  %1311 = getelementptr inbounds [22 x i32], ptr %1310, i64 0, i64 1, !dbg !2943
  %1312 = load i32, ptr %1311, align 4, !dbg !2943
  %1313 = icmp ne i32 %1312, 791, !dbg !2948
  %1314 = zext i1 %1313 to i32, !dbg !2949
  %1315 = sext i32 %1314 to i64, !dbg !2950
  br label %1316, !dbg !2939

1316:                                             ; preds = %1293, %1290
  %1317 = phi i64 [ %1292, %1290 ], [ %1315, %1293 ], !dbg !2939
  %1318 = icmp sgt i64 %1317, 1, !dbg !2951
  %1319 = zext i1 %1318 to i64, !dbg !2952
  store i64 %1319, ptr %132, align 8, !dbg !2953
  %1320 = call noundef nonnull align 8 dereferenceable(8) ptr @_ZSt3minIxERKT_S2_S2_(ptr noundef nonnull align 8 dereferenceable(8) @var_30, ptr noundef nonnull align 8 dereferenceable(8) %132), !dbg !2954
  %1321 = load i64, ptr %1320, align 8, !dbg !2954
  store i64 %1321, ptr @var_30, align 8, !dbg !2955
  %1322 = load ptr, ptr %57, align 8, !dbg !2956
  %1323 = load i8, ptr %111, align 1, !dbg !2957
  %1324 = trunc i8 %1323 to i1, !dbg !2957
  %1325 = zext i1 %1324 to i64, !dbg !2956
  %1326 = getelementptr inbounds [22 x [22 x [22 x [22 x [22 x i16]]]]], ptr %1322, i64 %1325, !dbg !2956
  %1327 = load i16, ptr %115, align 2, !dbg !2958
  %1328 = zext i16 %1327 to i64, !dbg !2956
  %1329 = getelementptr inbounds [22 x [22 x [22 x [22 x [22 x i16]]]]], ptr %1326, i64 0, i64 %1328, !dbg !2956
  %1330 = load i8, ptr %111, align 1, !dbg !2959
  %1331 = trunc i8 %1330 to i1, !dbg !2959
  %1332 = zext i1 %1331 to i64, !dbg !2956
  %1333 = getelementptr inbounds [22 x [22 x [22 x [22 x i16]]]], ptr %1329, i64 0, i64 %1332, !dbg !2956
  %1334 = load i8, ptr %130, align 1, !dbg !2960
  %1335 = sext i8 %1334 to i64, !dbg !2956
  %1336 = getelementptr inbounds [22 x [22 x [22 x i16]]], ptr %1333, i64 0, i64 %1335, !dbg !2956
  %1337 = load i8, ptr %130, align 1, !dbg !2961
  %1338 = sext i8 %1337 to i64, !dbg !2956
  %1339 = getelementptr inbounds [22 x [22 x i16]], ptr %1336, i64 0, i64 %1338, !dbg !2956
  %1340 = load i16, ptr %115, align 2, !dbg !2962
  %1341 = zext i16 %1340 to i32, !dbg !2962
  %1342 = sub nsw i32 %1341, 1, !dbg !2963
  %1343 = sext i32 %1342 to i64, !dbg !2956
  %1344 = getelementptr inbounds [22 x i16], ptr %1339, i64 0, i64 %1343, !dbg !2956
  %1345 = load i16, ptr %1344, align 2, !dbg !2956
  %1346 = trunc i16 %1345 to i8, !dbg !2956
  %1347 = zext i8 %1346 to i32, !dbg !2964
  %1348 = sext i32 %1347 to i64, !dbg !2965
  store i64 %1348, ptr @var_31, align 8, !dbg !2966
  br label %1349, !dbg !2967

1349:                                             ; preds = %1316
  %1350 = load i8, ptr %130, align 1, !dbg !2968
  %1351 = sext i8 %1350 to i32, !dbg !2968
  %1352 = add nsw i32 %1351, 4, !dbg !2968
  %1353 = trunc i32 %1352 to i8, !dbg !2968
  store i8 %1353, ptr %130, align 1, !dbg !2968
  br label %1214, !dbg !2969, !llvm.loop !2970

1354:                                             ; preds = %1214
  %1355 = load ptr, ptr %70, align 8, !dbg !2972
  %1356 = load i8, ptr %111, align 1, !dbg !2973
  %1357 = trunc i8 %1356 to i1, !dbg !2973
  %1358 = zext i1 %1357 to i64, !dbg !2972
  %1359 = getelementptr inbounds [22 x [22 x [22 x i8]]], ptr %1355, i64 %1358, !dbg !2972
  %1360 = load i8, ptr %111, align 1, !dbg !2974
  %1361 = trunc i8 %1360 to i1, !dbg !2974
  %1362 = zext i1 %1361 to i64, !dbg !2972
  %1363 = getelementptr inbounds [22 x [22 x [22 x i8]]], ptr %1359, i64 0, i64 %1362, !dbg !2972
  %1364 = load i16, ptr %115, align 2, !dbg !2975
  %1365 = zext i16 %1364 to i32, !dbg !2975
  %1366 = add nsw i32 %1365, 1, !dbg !2976
  %1367 = sext i32 %1366 to i64, !dbg !2972
  %1368 = getelementptr inbounds [22 x [22 x i8]], ptr %1363, i64 0, i64 %1367, !dbg !2972
  %1369 = load i32, ptr %116, align 4, !dbg !2977
  %1370 = sub i32 %1369, 1, !dbg !2978
  %1371 = zext i32 %1370 to i64, !dbg !2972
  %1372 = getelementptr inbounds [22 x i8], ptr %1368, i64 0, i64 %1371, !dbg !2972
  %1373 = load i8, ptr %1372, align 1, !dbg !2972
  %1374 = zext i8 %1373 to i16, !dbg !2972
  store i16 %1374, ptr %135, align 2, !dbg !2979
  %1375 = call noundef nonnull align 2 dereferenceable(2) ptr @_ZSt3minItERKT_S2_S2_(ptr noundef nonnull align 2 dereferenceable(2) %135, ptr noundef nonnull align 2 dereferenceable(2) %38), !dbg !2980
  %1376 = load i16, ptr %1375, align 2, !dbg !2980
  %1377 = zext i16 %1376 to i32, !dbg !2980
  %1378 = load ptr, ptr %70, align 8, !dbg !2981
  %1379 = load i8, ptr %111, align 1, !dbg !2982
  %1380 = trunc i8 %1379 to i1, !dbg !2982
  %1381 = zext i1 %1380 to i64, !dbg !2981
  %1382 = getelementptr inbounds [22 x [22 x [22 x i8]]], ptr %1378, i64 %1381, !dbg !2981
  %1383 = load i8, ptr %111, align 1, !dbg !2983
  %1384 = trunc i8 %1383 to i1, !dbg !2983
  %1385 = zext i1 %1384 to i64, !dbg !2981
  %1386 = getelementptr inbounds [22 x [22 x [22 x i8]]], ptr %1382, i64 0, i64 %1385, !dbg !2981
  %1387 = load i8, ptr %111, align 1, !dbg !2984
  %1388 = trunc i8 %1387 to i1, !dbg !2984
  %1389 = zext i1 %1388 to i64, !dbg !2981
  %1390 = getelementptr inbounds [22 x [22 x i8]], ptr %1386, i64 0, i64 %1389, !dbg !2981
  %1391 = getelementptr inbounds [22 x i8], ptr %1390, i64 0, i64 1, !dbg !2981
  %1392 = load i8, ptr %1391, align 1, !dbg !2981
  %1393 = zext i8 %1392 to i32, !dbg !2981
  store i32 %1393, ptr %136, align 4, !dbg !2985
  %1394 = call noundef nonnull align 4 dereferenceable(4) ptr @_ZSt3minIjERKT_S2_S2_(ptr noundef nonnull align 4 dereferenceable(4) %136, ptr noundef nonnull align 4 dereferenceable(4) %41), !dbg !2986
  %1395 = load i32, ptr %1394, align 4, !dbg !2986
  %1396 = udiv i32 %1377, %1395, !dbg !2987
  %1397 = trunc i32 %1396 to i16, !dbg !2988
  store i16 %1397, ptr @var_32, align 2, !dbg !2989
  %1398 = load ptr, ptr %67, align 8, !dbg !2990
  %1399 = getelementptr inbounds i8, ptr %1398, i64 20, !dbg !2990
  %1400 = load i8, ptr %1399, align 1, !dbg !2990
  %1401 = sext i8 %1400 to i64, !dbg !2990
  store i64 %1401, ptr %138, align 8, !dbg !2991
  %1402 = load ptr, ptr %65, align 8, !dbg !2992
  %1403 = getelementptr inbounds i8, ptr %1402, i64 1, !dbg !2992
  %1404 = load i8, ptr %1403, align 1, !dbg !2992
  %1405 = icmp ne i8 %1404, 0, !dbg !2992
  %1406 = zext i1 %1405 to i64, !dbg !2993
  %1407 = select i1 %1405, i32 1, i32 0, !dbg !2993
  %1408 = icmp ne i32 %1407, 0, !dbg !2994
  br i1 %1408, label %1409, label %1414, !dbg !2995

1409:                                             ; preds = %1354
  %1410 = load i32, ptr %42, align 4, !dbg !2996
  %1411 = icmp ne i32 %1410, 0, !dbg !2996
  %1412 = zext i1 %1411 to i64, !dbg !2997
  %1413 = select i1 %1411, i32 -1696296263, i32 0, !dbg !2997
  br label %1420, !dbg !2995

1414:                                             ; preds = %1354
  %1415 = load i16, ptr %37, align 2, !dbg !2998
  %1416 = zext i16 %1415 to i32, !dbg !2998
  %1417 = load i16, ptr %38, align 2, !dbg !2999
  %1418 = zext i16 %1417 to i32, !dbg !2999
  %1419 = sub nsw i32 %1416, %1418, !dbg !3000
  br label %1420, !dbg !2995

1420:                                             ; preds = %1414, %1409
  %1421 = phi i32 [ %1413, %1409 ], [ %1419, %1414 ], !dbg !2995
  %1422 = zext i32 %1421 to i64, !dbg !3001
  store i64 %1422, ptr %139, align 8, !dbg !3002
  %1423 = call noundef nonnull align 8 dereferenceable(8) ptr @_ZSt3minIxERKT_S2_S2_(ptr noundef nonnull align 8 dereferenceable(8) %138, ptr noundef nonnull align 8 dereferenceable(8) %139), !dbg !3003
  %1424 = load i64, ptr %1423, align 8, !dbg !3003
  %1425 = trunc i64 %1424 to i8, !dbg !3003
  store i8 %1425, ptr %137, align 1, !dbg !3004
  %1426 = call noundef nonnull align 1 dereferenceable(1) ptr @_ZSt3maxIhERKT_S2_S2_(ptr noundef nonnull align 1 dereferenceable(1) @var_33, ptr noundef nonnull align 1 dereferenceable(1) %137), !dbg !3005
  %1427 = load i8, ptr %1426, align 1, !dbg !3005
  store i8 %1427, ptr @var_33, align 1, !dbg !3006
  store i8 1, ptr @var_34, align 1, !dbg !3007
  br label %1428, !dbg !3008

1428:                                             ; preds = %1420, %1089
  store i8 1, ptr @var_35, align 1, !dbg !3009
  call void @llvm.dbg.declare(metadata ptr %140, metadata !3010, metadata !DIExpression()), !dbg !3012
  %1429 = load i16, ptr %39, align 2, !dbg !3013
  %1430 = sext i16 %1429 to i32, !dbg !3013
  %1431 = load ptr, ptr %65, align 8, !dbg !3014
  %1432 = getelementptr inbounds i8, ptr %1431, i64 1, !dbg !3014
  %1433 = load i8, ptr %1432, align 1, !dbg !3014
  %1434 = sext i8 %1433 to i32, !dbg !3014
  %1435 = add nsw i32 %1430, %1434, !dbg !3015
  %1436 = icmp ne i32 %1435, 0, !dbg !3016
  br i1 %1436, label %1437, label %1455, !dbg !3017

1437:                                             ; preds = %1428
  %1438 = load ptr, ptr %61, align 8, !dbg !3018
  %1439 = load i8, ptr %111, align 1, !dbg !3019
  %1440 = trunc i8 %1439 to i1, !dbg !3019
  %1441 = zext i1 %1440 to i64, !dbg !3018
  %1442 = getelementptr inbounds [22 x [22 x [22 x i64]]], ptr %1438, i64 %1441, !dbg !3018
  %1443 = load i8, ptr %111, align 1, !dbg !3020
  %1444 = trunc i8 %1443 to i1, !dbg !3020
  %1445 = zext i1 %1444 to i64, !dbg !3018
  %1446 = getelementptr inbounds [22 x [22 x [22 x i64]]], ptr %1442, i64 0, i64 %1445, !dbg !3018
  %1447 = load i32, ptr %116, align 4, !dbg !3021
  %1448 = zext i32 %1447 to i64, !dbg !3018
  %1449 = getelementptr inbounds [22 x [22 x i64]], ptr %1446, i64 0, i64 %1448, !dbg !3018
  %1450 = load i32, ptr %116, align 4, !dbg !3022
  %1451 = zext i32 %1450 to i64, !dbg !3018
  %1452 = getelementptr inbounds [22 x i64], ptr %1449, i64 0, i64 %1451, !dbg !3018
  %1453 = load i64, ptr %1452, align 8, !dbg !3018
  %1454 = sub nsw i64 %1453, 0, !dbg !3023
  br label %1456, !dbg !3017

1455:                                             ; preds = %1428
  br label %1456, !dbg !3017

1456:                                             ; preds = %1455, %1437
  %1457 = phi i64 [ %1454, %1437 ], [ -9223372036854775804, %1455 ], !dbg !3017
  %1458 = load i8, ptr %40, align 1, !dbg !3024
  %1459 = trunc i8 %1458 to i1, !dbg !3024
  br i1 %1459, label %1460, label %1462, !dbg !3025

1460:                                             ; preds = %1456
  %1461 = load i32, ptr %41, align 4, !dbg !3026
  br label %1463, !dbg !3025

1462:                                             ; preds = %1456
  br label %1463, !dbg !3025

1463:                                             ; preds = %1462, %1460
  %1464 = phi i32 [ %1461, %1460 ], [ -1, %1462 ], !dbg !3025
  %1465 = icmp ugt i32 33, %1464, !dbg !3027
  %1466 = zext i1 %1465 to i32, !dbg !3028
  %1467 = sext i32 %1466 to i64, !dbg !3029
  %1468 = icmp ne i64 %1457, %1467, !dbg !3030
  %1469 = zext i1 %1468 to i16, !dbg !3031
  %1470 = zext i16 %1469 to i32, !dbg !3032
  %1471 = sub nsw i32 %1470, 1, !dbg !3033
  %1472 = trunc i32 %1471 to i16, !dbg !3034
  store i16 %1472, ptr %140, align 2, !dbg !3012
  br label %1473, !dbg !3035

1473:                                             ; preds = %1532, %1463
  %1474 = load i16, ptr %140, align 2, !dbg !3036
  %1475 = zext i16 %1474 to i32, !dbg !3036
  %1476 = icmp slt i32 %1475, 22, !dbg !3038
  br i1 %1476, label %1477, label %1541, !dbg !3039

1477:                                             ; preds = %1473
  %1478 = load ptr, ptr %57, align 8, !dbg !3040
  %1479 = getelementptr inbounds [22 x [22 x [22 x [22 x [22 x i16]]]]], ptr %1478, i64 17, !dbg !3040
  %1480 = load i16, ptr %140, align 2, !dbg !3042
  %1481 = zext i16 %1480 to i64, !dbg !3040
  %1482 = getelementptr inbounds [22 x [22 x [22 x [22 x [22 x i16]]]]], ptr %1479, i64 0, i64 %1481, !dbg !3040
  %1483 = load i32, ptr %116, align 4, !dbg !3043
  %1484 = zext i32 %1483 to i64, !dbg !3040
  %1485 = getelementptr inbounds [22 x [22 x [22 x [22 x i16]]]], ptr %1482, i64 0, i64 %1484, !dbg !3040
  %1486 = load i16, ptr %115, align 2, !dbg !3044
  %1487 = zext i16 %1486 to i32, !dbg !3044
  %1488 = sub nsw i32 %1487, 1, !dbg !3045
  %1489 = sext i32 %1488 to i64, !dbg !3040
  %1490 = getelementptr inbounds [22 x [22 x [22 x i16]]], ptr %1485, i64 0, i64 %1489, !dbg !3040
  %1491 = load i16, ptr %115, align 2, !dbg !3046
  %1492 = zext i16 %1491 to i32, !dbg !3046
  %1493 = sub nsw i32 %1492, 1, !dbg !3047
  %1494 = sext i32 %1493 to i64, !dbg !3040
  %1495 = getelementptr inbounds [22 x [22 x i16]], ptr %1490, i64 0, i64 %1494, !dbg !3040
  %1496 = load i32, ptr %116, align 4, !dbg !3048
  %1497 = sub i32 %1496, 1, !dbg !3049
  %1498 = zext i32 %1497 to i64, !dbg !3040
  %1499 = getelementptr inbounds [22 x i16], ptr %1495, i64 0, i64 %1498, !dbg !3040
  %1500 = load ptr, ptr %57, align 8, !dbg !3050
  %1501 = load i8, ptr %111, align 1, !dbg !3051
  %1502 = trunc i8 %1501 to i1, !dbg !3051
  %1503 = zext i1 %1502 to i64, !dbg !3050
  %1504 = getelementptr inbounds [22 x [22 x [22 x [22 x [22 x i16]]]]], ptr %1500, i64 %1503, !dbg !3050
  %1505 = getelementptr inbounds [22 x [22 x [22 x [22 x [22 x i16]]]]], ptr %1504, i64 0, i64 16, !dbg !3050
  %1506 = load i32, ptr %116, align 4, !dbg !3052
  %1507 = zext i32 %1506 to i64, !dbg !3050
  %1508 = getelementptr inbounds [22 x [22 x [22 x [22 x i16]]]], ptr %1505, i64 0, i64 %1507, !dbg !3050
  %1509 = load i16, ptr %115, align 2, !dbg !3053
  %1510 = zext i16 %1509 to i32, !dbg !3053
  %1511 = sub nsw i32 %1510, 1, !dbg !3054
  %1512 = sext i32 %1511 to i64, !dbg !3050
  %1513 = getelementptr inbounds [22 x [22 x [22 x i16]]], ptr %1508, i64 0, i64 %1512, !dbg !3050
  %1514 = load i32, ptr %116, align 4, !dbg !3055
  %1515 = zext i32 %1514 to i64, !dbg !3050
  %1516 = getelementptr inbounds [22 x [22 x i16]], ptr %1513, i64 0, i64 %1515, !dbg !3050
  %1517 = load i32, ptr %116, align 4, !dbg !3056
  %1518 = sub i32 %1517, 1, !dbg !3057
  %1519 = zext i32 %1518 to i64, !dbg !3050
  %1520 = getelementptr inbounds [22 x i16], ptr %1516, i64 0, i64 %1519, !dbg !3050
  %1521 = call noundef nonnull align 2 dereferenceable(2) ptr @_ZSt3minIsERKT_S2_S2_(ptr noundef nonnull align 2 dereferenceable(2) %1499, ptr noundef nonnull align 2 dereferenceable(2) %1520), !dbg !3058
  %1522 = load i16, ptr %1521, align 2, !dbg !3058
  %1523 = sext i16 %1522 to i32, !dbg !3058
  store i32 %1523, ptr %141, align 4, !dbg !3059
  store i32 84, ptr %142, align 4, !dbg !3060
  %1524 = call noundef nonnull align 4 dereferenceable(4) ptr @_ZSt3maxIiERKT_S2_S2_(ptr noundef nonnull align 4 dereferenceable(4) %141, ptr noundef nonnull align 4 dereferenceable(4) %142), !dbg !3061
  %1525 = load i32, ptr %1524, align 4, !dbg !3061
  %1526 = sext i32 %1525 to i64, !dbg !3061
  store i64 %1526, ptr @var_36, align 8, !dbg !3062
  store i8 126, ptr %143, align 1, !dbg !3063
  store i8 -125, ptr %144, align 1, !dbg !3064
  %1527 = call noundef nonnull align 1 dereferenceable(1) ptr @_ZSt3maxIaERKT_S2_S2_(ptr noundef nonnull align 1 dereferenceable(1) %143, ptr noundef nonnull align 1 dereferenceable(1) %144), !dbg !3065
  %1528 = load i8, ptr %1527, align 1, !dbg !3065
  %1529 = sext i8 %1528 to i64, !dbg !3065
  %1530 = load i64, ptr @var_37, align 8, !dbg !3066
  %1531 = add i64 %1530, %1529, !dbg !3066
  store i64 %1531, ptr @var_37, align 8, !dbg !3066
  br label %1532, !dbg !3067

1532:                                             ; preds = %1477
  %1533 = load i32, ptr %41, align 4, !dbg !3068
  %1534 = trunc i32 %1533 to i16, !dbg !3068
  %1535 = zext i16 %1534 to i32, !dbg !3069
  %1536 = sub nsw i32 %1535, 38597, !dbg !3070
  %1537 = load i16, ptr %140, align 2, !dbg !3071
  %1538 = zext i16 %1537 to i32, !dbg !3071
  %1539 = add nsw i32 %1538, %1536, !dbg !3071
  %1540 = trunc i32 %1539 to i16, !dbg !3071
  store i16 %1540, ptr %140, align 2, !dbg !3071
  br label %1473, !dbg !3072, !llvm.loop !3073

1541:                                             ; preds = %1473
  br label %1542, !dbg !3075

1542:                                             ; preds = %1541
  %1543 = load i32, ptr %116, align 4, !dbg !3076
  %1544 = add i32 %1543, 4, !dbg !3076
  store i32 %1544, ptr %116, align 4, !dbg !3076
  br label %908, !dbg !3077, !llvm.loop !3078

1545:                                             ; preds = %908
  br label %1546, !dbg !3080

1546:                                             ; preds = %1545
  %1547 = load ptr, ptr %60, align 8, !dbg !3081
  %1548 = load i8, ptr %111, align 1, !dbg !3082
  %1549 = trunc i8 %1548 to i1, !dbg !3082
  %1550 = zext i1 %1549 to i64, !dbg !3081
  %1551 = getelementptr inbounds [22 x [22 x i32]], ptr %1547, i64 %1550, !dbg !3081
  %1552 = load i8, ptr %111, align 1, !dbg !3083
  %1553 = trunc i8 %1552 to i1, !dbg !3083
  %1554 = zext i1 %1553 to i64, !dbg !3081
  %1555 = getelementptr inbounds [22 x [22 x i32]], ptr %1551, i64 0, i64 %1554, !dbg !3081
  %1556 = load i8, ptr %111, align 1, !dbg !3084
  %1557 = trunc i8 %1556 to i1, !dbg !3084
  %1558 = zext i1 %1557 to i64, !dbg !3081
  %1559 = getelementptr inbounds [22 x i32], ptr %1555, i64 0, i64 %1558, !dbg !3081
  %1560 = load ptr, ptr %60, align 8, !dbg !3085
  %1561 = load i8, ptr %111, align 1, !dbg !3086
  %1562 = trunc i8 %1561 to i1, !dbg !3086
  %1563 = zext i1 %1562 to i64, !dbg !3085
  %1564 = getelementptr inbounds [22 x [22 x i32]], ptr %1560, i64 %1563, !dbg !3085
  %1565 = load i8, ptr %111, align 1, !dbg !3087
  %1566 = trunc i8 %1565 to i1, !dbg !3087
  %1567 = zext i1 %1566 to i64, !dbg !3085
  %1568 = getelementptr inbounds [22 x [22 x i32]], ptr %1564, i64 0, i64 %1567, !dbg !3085
  %1569 = load i8, ptr %111, align 1, !dbg !3088
  %1570 = trunc i8 %1569 to i1, !dbg !3088
  %1571 = zext i1 %1570 to i64, !dbg !3085
  %1572 = getelementptr inbounds [22 x i32], ptr %1568, i64 0, i64 %1571, !dbg !3085
  %1573 = call noundef nonnull align 4 dereferenceable(4) ptr @_ZSt3maxIjERKT_S2_S2_(ptr noundef nonnull align 4 dereferenceable(4) %1559, ptr noundef nonnull align 4 dereferenceable(4) %1572), !dbg !3089
  %1574 = load i32, ptr %1573, align 4, !dbg !3089
  %1575 = zext i32 %1574 to i64, !dbg !3089
  %1576 = icmp eq i64 4788035345599861316, %1575, !dbg !3090
  %1577 = zext i1 %1576 to i16, !dbg !3091
  %1578 = zext i16 %1577 to i32, !dbg !3092
  %1579 = add nsw i32 %1578, 4, !dbg !3093
  %1580 = load i16, ptr %115, align 2, !dbg !3094
  %1581 = zext i16 %1580 to i32, !dbg !3094
  %1582 = add nsw i32 %1581, %1579, !dbg !3094
  %1583 = trunc i32 %1582 to i16, !dbg !3094
  store i16 %1583, ptr %115, align 2, !dbg !3094
  br label %851, !dbg !3095, !llvm.loop !3096

1584:                                             ; preds = %901
  %1585 = load ptr, ptr %66, align 8, !dbg !3098
  %1586 = load i8, ptr %111, align 1, !dbg !3099
  %1587 = trunc i8 %1586 to i1, !dbg !3099
  %1588 = zext i1 %1587 to i64, !dbg !3098
  %1589 = getelementptr inbounds i64, ptr %1585, i64 %1588, !dbg !3098
  %1590 = load i64, ptr %1589, align 8, !dbg !3098
  %1591 = trunc i64 %1590 to i16, !dbg !3100
  %1592 = load i8, ptr %111, align 1, !dbg !3101
  %1593 = trunc i8 %1592 to i1, !dbg !3101
  %1594 = zext i1 %1593 to i64, !dbg !3102
  %1595 = getelementptr inbounds [22 x i16], ptr @arr_49, i64 0, i64 %1594, !dbg !3102
  store i16 %1591, ptr %1595, align 2, !dbg !3103
  br label %1596, !dbg !3104

1596:                                             ; preds = %1584
  store i64 1, ptr %145, align 8, !dbg !3105
  store i64 -1560369230854763291, ptr %146, align 8, !dbg !3106
  %1597 = call noundef nonnull align 8 dereferenceable(8) ptr @_ZSt3minIyERKT_S2_S2_(ptr noundef nonnull align 8 dereferenceable(8) %145, ptr noundef nonnull align 8 dereferenceable(8) %146), !dbg !3107
  %1598 = load i32, ptr %42, align 4, !dbg !3108
  %1599 = zext i32 %1598 to i64, !dbg !3109
  store i64 %1599, ptr %147, align 8, !dbg !3110
  %1600 = call noundef nonnull align 8 dereferenceable(8) ptr @_ZSt3maxIyERKT_S2_S2_(ptr noundef nonnull align 8 dereferenceable(8) %1597, ptr noundef nonnull align 8 dereferenceable(8) %147), !dbg !3111
  %1601 = load i64, ptr %1600, align 8, !dbg !3111
  %1602 = icmp ne i64 %1601, 0, !dbg !3111
  br i1 %1602, label %1603, label %1614, !dbg !3112

1603:                                             ; preds = %1596
  %1604 = load i16, ptr %44, align 2, !dbg !3113
  %1605 = sext i16 %1604 to i32, !dbg !3113
  %1606 = srem i32 -650708259, %1605, !dbg !3114
  %1607 = icmp ne i32 %1606, 0, !dbg !3115
  br i1 %1607, label %1608, label %1609, !dbg !3116

1608:                                             ; preds = %1603
  br label %1612, !dbg !3116

1609:                                             ; preds = %1603
  %1610 = load i16, ptr %38, align 2, !dbg !3117
  %1611 = zext i16 %1610 to i32, !dbg !3117
  br label %1612, !dbg !3116

1612:                                             ; preds = %1609, %1608
  %1613 = phi i32 [ 0, %1608 ], [ %1611, %1609 ], !dbg !3116
  br label %1622, !dbg !3112

1614:                                             ; preds = %1596
  %1615 = load i8, ptr %40, align 1, !dbg !3118
  %1616 = trunc i8 %1615 to i1, !dbg !3118
  %1617 = zext i1 %1616 to i32, !dbg !3118
  store i32 %1617, ptr %149, align 4, !dbg !3119
  %1618 = call noundef nonnull align 4 dereferenceable(4) ptr @_ZSt3maxIiERKT_S2_S2_(ptr noundef nonnull align 4 dereferenceable(4) %149, ptr noundef nonnull align 4 dereferenceable(4) %42), !dbg !3120
  %1619 = load i32, ptr %1618, align 4, !dbg !3120
  store i32 %1619, ptr %148, align 4, !dbg !3121
  store i32 19, ptr %150, align 4, !dbg !3122
  %1620 = call noundef nonnull align 4 dereferenceable(4) ptr @_ZSt3maxIjERKT_S2_S2_(ptr noundef nonnull align 4 dereferenceable(4) %148, ptr noundef nonnull align 4 dereferenceable(4) %150), !dbg !3123
  %1621 = load i32, ptr %1620, align 4, !dbg !3123
  br label %1622, !dbg !3112

1622:                                             ; preds = %1614, %1612
  %1623 = phi i32 [ %1613, %1612 ], [ %1621, %1614 ], !dbg !3112
  %1624 = icmp ne i32 %1623, 0, !dbg !3124
  %1625 = zext i1 %1624 to i32, !dbg !3125
  %1626 = add nsw i32 %1625, 1, !dbg !3126
  %1627 = load i8, ptr %111, align 1, !dbg !3127
  %1628 = trunc i8 %1627 to i1, !dbg !3127
  %1629 = zext i1 %1628 to i32, !dbg !3127
  %1630 = add nsw i32 %1629, %1626, !dbg !3127
  %1631 = icmp ne i32 %1630, 0, !dbg !3127
  %1632 = zext i1 %1631 to i8, !dbg !3127
  store i8 %1632, ptr %111, align 1, !dbg !3127
  br label %769, !dbg !3128, !llvm.loop !3129

1633:                                             ; preds = %788
  %1634 = call noundef nonnull align 2 dereferenceable(2) ptr @_ZSt3maxItERKT_S2_S2_(ptr noundef nonnull align 2 dereferenceable(2) %38, ptr noundef nonnull align 2 dereferenceable(2) %37), !dbg !3131
  %1635 = load i16, ptr %1634, align 2, !dbg !3131
  %1636 = zext i16 %1635 to i32, !dbg !3131
  %1637 = load i16, ptr %37, align 2, !dbg !3132
  %1638 = zext i16 %1637 to i32, !dbg !3132
  %1639 = icmp ne i32 1, %1638, !dbg !3133
  %1640 = zext i1 %1639 to i32, !dbg !3134
  %1641 = sub nsw i32 %1636, %1640, !dbg !3135
  %1642 = icmp ne i32 %1641, 0, !dbg !3136
  br i1 %1642, label %1643, label %1648, !dbg !3137

1643:                                             ; preds = %1633
  %1644 = load i32, ptr %41, align 4, !dbg !3138
  %1645 = load i16, ptr %45, align 2, !dbg !3139
  %1646 = zext i16 %1645 to i32, !dbg !3139
  %1647 = sub i32 %1644, %1646, !dbg !3140
  br label %1652, !dbg !3137

1648:                                             ; preds = %1633
  store i16 15617, ptr %151, align 2, !dbg !3141
  store i16 24, ptr %152, align 2, !dbg !3142
  %1649 = call noundef nonnull align 2 dereferenceable(2) ptr @_ZSt3minItERKT_S2_S2_(ptr noundef nonnull align 2 dereferenceable(2) %151, ptr noundef nonnull align 2 dereferenceable(2) %152), !dbg !3143
  %1650 = load i16, ptr %1649, align 2, !dbg !3143
  %1651 = zext i16 %1650 to i32, !dbg !3143
  br label %1652, !dbg !3137

1652:                                             ; preds = %1648, %1643
  %1653 = phi i32 [ %1647, %1643 ], [ %1651, %1648 ], !dbg !3137
  %1654 = icmp ne i32 %1653, 0, !dbg !3144
  %1655 = zext i1 %1654 to i8, !dbg !3145
  store i8 %1655, ptr @var_38, align 1, !dbg !3145
  %1656 = load i16, ptr %38, align 2, !dbg !3146
  store i16 %1656, ptr @var_39, align 2, !dbg !3147
  br label %1657, !dbg !3148

1657:                                             ; preds = %1652, %162
  %1658 = load i32, ptr %42, align 4, !dbg !3149
  %1659 = sext i32 %1658 to i64, !dbg !3149
  store i64 %1659, ptr @var_40, align 8, !dbg !3150
  ret void, !dbg !3151
}

declare i32 @printf(ptr noundef, ...) #3

; Function Attrs: mustprogress noinline nounwind optnone sspstrong uwtable
define linkonce_odr dso_local noundef nonnull align 4 dereferenceable(4) ptr @_ZSt3minIiERKT_S2_S2_(ptr noundef nonnull align 4 dereferenceable(4) %0, ptr noundef nonnull align 4 dereferenceable(4) %1) #0 comdat !dbg !3152 {
  %3 = alloca ptr, align 8
  %4 = alloca ptr, align 8
  %5 = alloca ptr, align 8
  store ptr %0, ptr %4, align 8
  call void @llvm.dbg.declare(metadata ptr %4, metadata !3160, metadata !DIExpression()), !dbg !3162
  store ptr %1, ptr %5, align 8
  call void @llvm.dbg.declare(metadata ptr %5, metadata !3163, metadata !DIExpression()), !dbg !3164
  %6 = load ptr, ptr %5, align 8, !dbg !3165
  %7 = load i32, ptr %6, align 4, !dbg !3165
  %8 = load ptr, ptr %4, align 8, !dbg !3167
  %9 = load i32, ptr %8, align 4, !dbg !3167
  %10 = icmp slt i32 %7, %9, !dbg !3168
  br i1 %10, label %11, label %13, !dbg !3169

11:                                               ; preds = %2
  %12 = load ptr, ptr %5, align 8, !dbg !3170
  store ptr %12, ptr %3, align 8, !dbg !3171
  br label %15, !dbg !3171

13:                                               ; preds = %2
  %14 = load ptr, ptr %4, align 8, !dbg !3172
  store ptr %14, ptr %3, align 8, !dbg !3173
  br label %15, !dbg !3173

15:                                               ; preds = %13, %11
  %16 = load ptr, ptr %3, align 8, !dbg !3174
  ret ptr %16, !dbg !3174
}

; Function Attrs: mustprogress noinline nounwind optnone sspstrong uwtable
define linkonce_odr dso_local noundef nonnull align 8 dereferenceable(8) ptr @_ZSt3maxIyERKT_S2_S2_(ptr noundef nonnull align 8 dereferenceable(8) %0, ptr noundef nonnull align 8 dereferenceable(8) %1) #0 comdat !dbg !3175 {
  %3 = alloca ptr, align 8
  %4 = alloca ptr, align 8
  %5 = alloca ptr, align 8
  store ptr %0, ptr %4, align 8
  call void @llvm.dbg.declare(metadata ptr %4, metadata !3181, metadata !DIExpression()), !dbg !3182
  store ptr %1, ptr %5, align 8
  call void @llvm.dbg.declare(metadata ptr %5, metadata !3183, metadata !DIExpression()), !dbg !3184
  %6 = load ptr, ptr %4, align 8, !dbg !3185
  %7 = load i64, ptr %6, align 8, !dbg !3185
  %8 = load ptr, ptr %5, align 8, !dbg !3187
  %9 = load i64, ptr %8, align 8, !dbg !3187
  %10 = icmp ult i64 %7, %9, !dbg !3188
  br i1 %10, label %11, label %13, !dbg !3189

11:                                               ; preds = %2
  %12 = load ptr, ptr %5, align 8, !dbg !3190
  store ptr %12, ptr %3, align 8, !dbg !3191
  br label %15, !dbg !3191

13:                                               ; preds = %2
  %14 = load ptr, ptr %4, align 8, !dbg !3192
  store ptr %14, ptr %3, align 8, !dbg !3193
  br label %15, !dbg !3193

15:                                               ; preds = %13, %11
  %16 = load ptr, ptr %3, align 8, !dbg !3194
  ret ptr %16, !dbg !3194
}

; Function Attrs: mustprogress noinline nounwind optnone sspstrong uwtable
define linkonce_odr dso_local noundef nonnull align 1 dereferenceable(1) ptr @_ZSt3maxIbERKT_S2_S2_(ptr noundef nonnull align 1 dereferenceable(1) %0, ptr noundef nonnull align 1 dereferenceable(1) %1) #0 comdat !dbg !3195 {
  %3 = alloca ptr, align 8
  %4 = alloca ptr, align 8
  %5 = alloca ptr, align 8
  store ptr %0, ptr %4, align 8
  call void @llvm.dbg.declare(metadata ptr %4, metadata !3202, metadata !DIExpression()), !dbg !3203
  store ptr %1, ptr %5, align 8
  call void @llvm.dbg.declare(metadata ptr %5, metadata !3204, metadata !DIExpression()), !dbg !3205
  %6 = load ptr, ptr %4, align 8, !dbg !3206
  %7 = load i8, ptr %6, align 1, !dbg !3206
  %8 = trunc i8 %7 to i1, !dbg !3206
  %9 = zext i1 %8 to i32, !dbg !3206
  %10 = load ptr, ptr %5, align 8, !dbg !3208
  %11 = load i8, ptr %10, align 1, !dbg !3208
  %12 = trunc i8 %11 to i1, !dbg !3208
  %13 = zext i1 %12 to i32, !dbg !3208
  %14 = icmp slt i32 %9, %13, !dbg !3209
  br i1 %14, label %15, label %17, !dbg !3210

15:                                               ; preds = %2
  %16 = load ptr, ptr %5, align 8, !dbg !3211
  store ptr %16, ptr %3, align 8, !dbg !3212
  br label %19, !dbg !3212

17:                                               ; preds = %2
  %18 = load ptr, ptr %4, align 8, !dbg !3213
  store ptr %18, ptr %3, align 8, !dbg !3214
  br label %19, !dbg !3214

19:                                               ; preds = %17, %15
  %20 = load ptr, ptr %3, align 8, !dbg !3215
  ret ptr %20, !dbg !3215
}

; Function Attrs: mustprogress noinline nounwind optnone sspstrong uwtable
define linkonce_odr dso_local noundef nonnull align 4 dereferenceable(4) ptr @_ZSt3maxIjERKT_S2_S2_(ptr noundef nonnull align 4 dereferenceable(4) %0, ptr noundef nonnull align 4 dereferenceable(4) %1) #0 comdat !dbg !3216 {
  %3 = alloca ptr, align 8
  %4 = alloca ptr, align 8
  %5 = alloca ptr, align 8
  store ptr %0, ptr %4, align 8
  call void @llvm.dbg.declare(metadata ptr %4, metadata !3223, metadata !DIExpression()), !dbg !3224
  store ptr %1, ptr %5, align 8
  call void @llvm.dbg.declare(metadata ptr %5, metadata !3225, metadata !DIExpression()), !dbg !3226
  %6 = load ptr, ptr %4, align 8, !dbg !3227
  %7 = load i32, ptr %6, align 4, !dbg !3227
  %8 = load ptr, ptr %5, align 8, !dbg !3229
  %9 = load i32, ptr %8, align 4, !dbg !3229
  %10 = icmp ult i32 %7, %9, !dbg !3230
  br i1 %10, label %11, label %13, !dbg !3231

11:                                               ; preds = %2
  %12 = load ptr, ptr %5, align 8, !dbg !3232
  store ptr %12, ptr %3, align 8, !dbg !3233
  br label %15, !dbg !3233

13:                                               ; preds = %2
  %14 = load ptr, ptr %4, align 8, !dbg !3234
  store ptr %14, ptr %3, align 8, !dbg !3235
  br label %15, !dbg !3235

15:                                               ; preds = %13, %11
  %16 = load ptr, ptr %3, align 8, !dbg !3236
  ret ptr %16, !dbg !3236
}

; Function Attrs: mustprogress noinline nounwind optnone sspstrong uwtable
define linkonce_odr dso_local noundef nonnull align 4 dereferenceable(4) ptr @_ZSt3maxIiERKT_S2_S2_(ptr noundef nonnull align 4 dereferenceable(4) %0, ptr noundef nonnull align 4 dereferenceable(4) %1) #0 comdat !dbg !3237 {
  %3 = alloca ptr, align 8
  %4 = alloca ptr, align 8
  %5 = alloca ptr, align 8
  store ptr %0, ptr %4, align 8
  call void @llvm.dbg.declare(metadata ptr %4, metadata !3238, metadata !DIExpression()), !dbg !3239
  store ptr %1, ptr %5, align 8
  call void @llvm.dbg.declare(metadata ptr %5, metadata !3240, metadata !DIExpression()), !dbg !3241
  %6 = load ptr, ptr %4, align 8, !dbg !3242
  %7 = load i32, ptr %6, align 4, !dbg !3242
  %8 = load ptr, ptr %5, align 8, !dbg !3244
  %9 = load i32, ptr %8, align 4, !dbg !3244
  %10 = icmp slt i32 %7, %9, !dbg !3245
  br i1 %10, label %11, label %13, !dbg !3246

11:                                               ; preds = %2
  %12 = load ptr, ptr %5, align 8, !dbg !3247
  store ptr %12, ptr %3, align 8, !dbg !3248
  br label %15, !dbg !3248

13:                                               ; preds = %2
  %14 = load ptr, ptr %4, align 8, !dbg !3249
  store ptr %14, ptr %3, align 8, !dbg !3250
  br label %15, !dbg !3250

15:                                               ; preds = %13, %11
  %16 = load ptr, ptr %3, align 8, !dbg !3251
  ret ptr %16, !dbg !3251
}

; Function Attrs: mustprogress noinline nounwind optnone sspstrong uwtable
define linkonce_odr dso_local noundef nonnull align 8 dereferenceable(8) ptr @_ZSt3minIxERKT_S2_S2_(ptr noundef nonnull align 8 dereferenceable(8) %0, ptr noundef nonnull align 8 dereferenceable(8) %1) #0 comdat !dbg !3252 {
  %3 = alloca ptr, align 8
  %4 = alloca ptr, align 8
  %5 = alloca ptr, align 8
  store ptr %0, ptr %4, align 8
  call void @llvm.dbg.declare(metadata ptr %4, metadata !3259, metadata !DIExpression()), !dbg !3260
  store ptr %1, ptr %5, align 8
  call void @llvm.dbg.declare(metadata ptr %5, metadata !3261, metadata !DIExpression()), !dbg !3262
  %6 = load ptr, ptr %5, align 8, !dbg !3263
  %7 = load i64, ptr %6, align 8, !dbg !3263
  %8 = load ptr, ptr %4, align 8, !dbg !3265
  %9 = load i64, ptr %8, align 8, !dbg !3265
  %10 = icmp slt i64 %7, %9, !dbg !3266
  br i1 %10, label %11, label %13, !dbg !3267

11:                                               ; preds = %2
  %12 = load ptr, ptr %5, align 8, !dbg !3268
  store ptr %12, ptr %3, align 8, !dbg !3269
  br label %15, !dbg !3269

13:                                               ; preds = %2
  %14 = load ptr, ptr %4, align 8, !dbg !3270
  store ptr %14, ptr %3, align 8, !dbg !3271
  br label %15, !dbg !3271

15:                                               ; preds = %13, %11
  %16 = load ptr, ptr %3, align 8, !dbg !3272
  ret ptr %16, !dbg !3272
}

; Function Attrs: mustprogress noinline nounwind optnone sspstrong uwtable
define linkonce_odr dso_local noundef nonnull align 4 dereferenceable(4) ptr @_ZSt3minIjERKT_S2_S2_(ptr noundef nonnull align 4 dereferenceable(4) %0, ptr noundef nonnull align 4 dereferenceable(4) %1) #0 comdat !dbg !3273 {
  %3 = alloca ptr, align 8
  %4 = alloca ptr, align 8
  %5 = alloca ptr, align 8
  store ptr %0, ptr %4, align 8
  call void @llvm.dbg.declare(metadata ptr %4, metadata !3274, metadata !DIExpression()), !dbg !3275
  store ptr %1, ptr %5, align 8
  call void @llvm.dbg.declare(metadata ptr %5, metadata !3276, metadata !DIExpression()), !dbg !3277
  %6 = load ptr, ptr %5, align 8, !dbg !3278
  %7 = load i32, ptr %6, align 4, !dbg !3278
  %8 = load ptr, ptr %4, align 8, !dbg !3280
  %9 = load i32, ptr %8, align 4, !dbg !3280
  %10 = icmp ult i32 %7, %9, !dbg !3281
  br i1 %10, label %11, label %13, !dbg !3282

11:                                               ; preds = %2
  %12 = load ptr, ptr %5, align 8, !dbg !3283
  store ptr %12, ptr %3, align 8, !dbg !3284
  br label %15, !dbg !3284

13:                                               ; preds = %2
  %14 = load ptr, ptr %4, align 8, !dbg !3285
  store ptr %14, ptr %3, align 8, !dbg !3286
  br label %15, !dbg !3286

15:                                               ; preds = %13, %11
  %16 = load ptr, ptr %3, align 8, !dbg !3287
  ret ptr %16, !dbg !3287
}

; Function Attrs: mustprogress noinline nounwind optnone sspstrong uwtable
define linkonce_odr dso_local noundef nonnull align 1 dereferenceable(1) ptr @_ZSt3minIbERKT_S2_S2_(ptr noundef nonnull align 1 dereferenceable(1) %0, ptr noundef nonnull align 1 dereferenceable(1) %1) #0 comdat !dbg !3288 {
  %3 = alloca ptr, align 8
  %4 = alloca ptr, align 8
  %5 = alloca ptr, align 8
  store ptr %0, ptr %4, align 8
  call void @llvm.dbg.declare(metadata ptr %4, metadata !3289, metadata !DIExpression()), !dbg !3290
  store ptr %1, ptr %5, align 8
  call void @llvm.dbg.declare(metadata ptr %5, metadata !3291, metadata !DIExpression()), !dbg !3292
  %6 = load ptr, ptr %5, align 8, !dbg !3293
  %7 = load i8, ptr %6, align 1, !dbg !3293
  %8 = trunc i8 %7 to i1, !dbg !3293
  %9 = zext i1 %8 to i32, !dbg !3293
  %10 = load ptr, ptr %4, align 8, !dbg !3295
  %11 = load i8, ptr %10, align 1, !dbg !3295
  %12 = trunc i8 %11 to i1, !dbg !3295
  %13 = zext i1 %12 to i32, !dbg !3295
  %14 = icmp slt i32 %9, %13, !dbg !3296
  br i1 %14, label %15, label %17, !dbg !3297

15:                                               ; preds = %2
  %16 = load ptr, ptr %5, align 8, !dbg !3298
  store ptr %16, ptr %3, align 8, !dbg !3299
  br label %19, !dbg !3299

17:                                               ; preds = %2
  %18 = load ptr, ptr %4, align 8, !dbg !3300
  store ptr %18, ptr %3, align 8, !dbg !3301
  br label %19, !dbg !3301

19:                                               ; preds = %17, %15
  %20 = load ptr, ptr %3, align 8, !dbg !3302
  ret ptr %20, !dbg !3302
}

; Function Attrs: mustprogress noinline nounwind optnone sspstrong uwtable
